   1              	 .syntax unified
   2              	 .cpu cortex-m4
   3              	 .eabi_attribute 27,3
   4              	 .fpu fpv4-sp-d16
   5              	 .eabi_attribute 20,1
   6              	 .eabi_attribute 21,1
   7              	 .eabi_attribute 23,3
   8              	 .eabi_attribute 24,1
   9              	 .eabi_attribute 25,1
  10              	 .eabi_attribute 26,1
  11              	 .eabi_attribute 30,6
  12              	 .eabi_attribute 34,1
  13              	 .eabi_attribute 18,4
  14              	 .thumb
  15              	 .file "maths.c"
  16              	 .text
  17              	.Ltext0:
  18              	 .cfi_sections .debug_frame
  19              	 .section .text.sin_approx,"ax",%progbits
  20              	 .align 2
  21              	 .global sin_approx
  22              	 .thumb
  23              	 .thumb_func
  25              	sin_approx:
  26              	.LFB2:
  27              	 .file 1 "../cleanflight/src/main/common/maths.c"
   1:../cleanflight/src/main/common/maths.c **** /*
   2:../cleanflight/src/main/common/maths.c ****  * This file is part of Cleanflight and Betaflight.
   3:../cleanflight/src/main/common/maths.c ****  *
   4:../cleanflight/src/main/common/maths.c ****  * Cleanflight and Betaflight are free software. You can redistribute
   5:../cleanflight/src/main/common/maths.c ****  * this software and/or modify this software under the terms of the
   6:../cleanflight/src/main/common/maths.c ****  * GNU General Public License as published by the Free Software
   7:../cleanflight/src/main/common/maths.c ****  * Foundation, either version 3 of the License, or (at your option)
   8:../cleanflight/src/main/common/maths.c ****  * any later version.
   9:../cleanflight/src/main/common/maths.c ****  *
  10:../cleanflight/src/main/common/maths.c ****  * Cleanflight and Betaflight are distributed in the hope that they
  11:../cleanflight/src/main/common/maths.c ****  * will be useful, but WITHOUT ANY WARRANTY; without even the implied
  12:../cleanflight/src/main/common/maths.c ****  * warranty of MERCHANTABILITY or FITNESS FOR A PARTICULAR PURPOSE.
  13:../cleanflight/src/main/common/maths.c ****  * See the GNU General Public License for more details.
  14:../cleanflight/src/main/common/maths.c ****  *
  15:../cleanflight/src/main/common/maths.c ****  * You should have received a copy of the GNU General Public License
  16:../cleanflight/src/main/common/maths.c ****  * along with this software.
  17:../cleanflight/src/main/common/maths.c ****  *
  18:../cleanflight/src/main/common/maths.c ****  * If not, see <http://www.gnu.org/licenses/>.
  19:../cleanflight/src/main/common/maths.c ****  */
  20:../cleanflight/src/main/common/maths.c **** 
  21:../cleanflight/src/main/common/maths.c **** #include <stdint.h>
  22:../cleanflight/src/main/common/maths.c **** #include <math.h>
  23:../cleanflight/src/main/common/maths.c **** 
  24:../cleanflight/src/main/common/maths.c **** #include "axis.h"
  25:../cleanflight/src/main/common/maths.c **** #include "maths.h"
  26:../cleanflight/src/main/common/maths.c **** 
  27:../cleanflight/src/main/common/maths.c **** #if defined(FAST_MATH) || defined(VERY_FAST_MATH)
  28:../cleanflight/src/main/common/maths.c **** #if defined(VERY_FAST_MATH)
  29:../cleanflight/src/main/common/maths.c **** 
  30:../cleanflight/src/main/common/maths.c **** // http://lolengine.net/blog/2011/12/21/better-function-approximations
  31:../cleanflight/src/main/common/maths.c **** // Chebyshev http://stackoverflow.com/questions/345085/how-do-trigonometric-functions-work/345117#3
  32:../cleanflight/src/main/common/maths.c **** // Thanks for ledvinap for making such accuracy possible! See: https://github.com/cleanflight/clean
  33:../cleanflight/src/main/common/maths.c **** // https://github.com/Crashpilot1000/HarakiriWebstore1/blob/master/src/mw.c#L1235
  34:../cleanflight/src/main/common/maths.c **** // sin_approx maximum absolute error = 2.305023e-06
  35:../cleanflight/src/main/common/maths.c **** // cos_approx maximum absolute error = 2.857298e-06
  36:../cleanflight/src/main/common/maths.c **** #define sinPolyCoef3 -1.666568107e-1f
  37:../cleanflight/src/main/common/maths.c **** #define sinPolyCoef5  8.312366210e-3f
  38:../cleanflight/src/main/common/maths.c **** #define sinPolyCoef7 -1.849218155e-4f
  39:../cleanflight/src/main/common/maths.c **** #define sinPolyCoef9  0
  40:../cleanflight/src/main/common/maths.c **** #else
  41:../cleanflight/src/main/common/maths.c **** #define sinPolyCoef3 -1.666665710e-1f                                          // Double: -1.666665
  42:../cleanflight/src/main/common/maths.c **** #define sinPolyCoef5  8.333017292e-3f                                          // Double:  8.333017
  43:../cleanflight/src/main/common/maths.c **** #define sinPolyCoef7 -1.980661520e-4f                                          // Double: -1.980661
  44:../cleanflight/src/main/common/maths.c **** #define sinPolyCoef9  2.600054768e-6f                                          // Double:  2.600054
  45:../cleanflight/src/main/common/maths.c **** #endif
  46:../cleanflight/src/main/common/maths.c **** float sin_approx(float x)
  47:../cleanflight/src/main/common/maths.c **** {
  28              	 .loc 1 47 0
  29              	 .cfi_startproc
  30              	 
  31              	 
  32              	 
  33 0000 80B4     	 push {r7}
  34              	.LCFI0:
  35              	 .cfi_def_cfa_offset 4
  36              	 .cfi_offset 7,-4
  37 0002 85B0     	 sub sp,sp,#20
  38              	.LCFI1:
  39              	 .cfi_def_cfa_offset 24
  40 0004 00AF     	 add r7,sp,#0
  41              	.LCFI2:
  42              	 .cfi_def_cfa_register 7
  43 0006 7860     	 str r0,[r7,#4]
  48:../cleanflight/src/main/common/maths.c ****     int32_t xint = x;
  44              	 .loc 1 48 0
  45 0008 D7ED017A 	 flds s15,[r7,#4]
  46 000c FDEEE77A 	 ftosizs s15,s15
  47 0010 17EE903A 	 fmrs r3,s15
  48 0014 FB60     	 str r3,[r7,#12]
  49:../cleanflight/src/main/common/maths.c ****     if (xint < -32 || xint > 32) return 0.0f;                               // Stop here on error i
  49              	 .loc 1 49 0
  50 0016 FB68     	 ldr r3,[r7,#12]
  51 0018 13F1200F 	 cmn r3,#32
  52 001c 02DB     	 blt .L2
  53              	 .loc 1 49 0 is_stmt 0 discriminator 2
  54 001e FB68     	 ldr r3,[r7,#12]
  55 0020 202B     	 cmp r3,#32
  56 0022 02DD     	 ble .L3
  57              	.L2:
  58              	 .loc 1 49 0 discriminator 3
  59 0024 DFED437A 	 flds s15,.L16
  60 0028 7CE0     	 b .L4
  61              	.L3:
  50:../cleanflight/src/main/common/maths.c ****     while (x >  M_PIf) x -= (2.0f * M_PIf);                                 // always wrap input an
  62              	 .loc 1 50 0 is_stmt 1
  63 002a 07E0     	 b .L5
  64              	.L6:
  65              	 .loc 1 50 0 is_stmt 0 discriminator 2
  66 002c D7ED017A 	 flds s15,[r7,#4]
  67 0030 9FED417A 	 flds s14,.L16+4
  68 0034 77EEC77A 	 fsubs s15,s15,s14
  69 0038 C7ED017A 	 fsts s15,[r7,#4]
  70              	.L5:
  71              	 .loc 1 50 0 discriminator 1
  72 003c D7ED017A 	 flds s15,[r7,#4]
  73 0040 9FED3E7A 	 flds s14,.L16+8
  74 0044 F4EEC77A 	 fcmpes s15,s14
  75 0048 F1EE10FA 	 fmstat
  76 004c EEDC     	 bgt .L6
  51:../cleanflight/src/main/common/maths.c ****     while (x < -M_PIf) x += (2.0f * M_PIf);
  77              	 .loc 1 51 0 is_stmt 1
  78 004e 07E0     	 b .L7
  79              	.L8:
  80              	 .loc 1 51 0 is_stmt 0 discriminator 2
  81 0050 D7ED017A 	 flds s15,[r7,#4]
  82 0054 9FED387A 	 flds s14,.L16+4
  83 0058 77EE877A 	 fadds s15,s15,s14
  84 005c C7ED017A 	 fsts s15,[r7,#4]
  85              	.L7:
  86              	 .loc 1 51 0 discriminator 1
  87 0060 D7ED017A 	 flds s15,[r7,#4]
  88 0064 9FED367A 	 flds s14,.L16+12
  89 0068 F4EEC77A 	 fcmpes s15,s14
  90 006c F1EE10FA 	 fmstat
  91 0070 EED4     	 bmi .L8
  52:../cleanflight/src/main/common/maths.c ****     if (x >  (0.5f * M_PIf)) x =  (0.5f * M_PIf) - (x - (0.5f * M_PIf));   // We just pick -90..+90
  92              	 .loc 1 52 0 is_stmt 1
  93 0072 D7ED017A 	 flds s15,[r7,#4]
  94 0076 9FED337A 	 flds s14,.L16+16
  95 007a F4EEC77A 	 fcmpes s15,s14
  96 007e F1EE10FA 	 fmstat
  97 0082 0CDD     	 ble .L15
  98              	 .loc 1 52 0 is_stmt 0 discriminator 1
  99 0084 D7ED017A 	 flds s15,[r7,#4]
 100 0088 9FED2E7A 	 flds s14,.L16+16
 101 008c 77EEC77A 	 fsubs s15,s15,s14
 102 0090 9FED2C7A 	 flds s14,.L16+16
 103 0094 77EE677A 	 fsubs s15,s14,s15
 104 0098 C7ED017A 	 fsts s15,[r7,#4]
 105 009c 14E0     	 b .L11
 106              	.L15:
  53:../cleanflight/src/main/common/maths.c ****     else if (x < -(0.5f * M_PIf)) x = -(0.5f * M_PIf) - ((0.5f * M_PIf) + x);
 107              	 .loc 1 53 0 is_stmt 1
 108 009e D7ED017A 	 flds s15,[r7,#4]
 109 00a2 9FED297A 	 flds s14,.L16+20
 110 00a6 F4EEC77A 	 fcmpes s15,s14
 111 00aa F1EE10FA 	 fmstat
 112 00ae 0BD5     	 bpl .L11
 113              	 .loc 1 53 0 is_stmt 0 discriminator 1
 114 00b0 D7ED017A 	 flds s15,[r7,#4]
 115 00b4 9FED237A 	 flds s14,.L16+16
 116 00b8 77EE877A 	 fadds s15,s15,s14
 117 00bc 9FED227A 	 flds s14,.L16+20
 118 00c0 77EE677A 	 fsubs s15,s14,s15
 119 00c4 C7ED017A 	 fsts s15,[r7,#4]
 120              	.L11:
  54:../cleanflight/src/main/common/maths.c ****     float x2 = x * x;
 121              	 .loc 1 54 0 is_stmt 1
 122 00c8 97ED017A 	 flds s14,[r7,#4]
 123 00cc D7ED017A 	 flds s15,[r7,#4]
 124 00d0 67EE277A 	 fmuls s15,s14,s15
 125 00d4 C7ED027A 	 fsts s15,[r7,#8]
  55:../cleanflight/src/main/common/maths.c ****     return x + x * x2 * (sinPolyCoef3 + x2 * (sinPolyCoef5 + x2 * (sinPolyCoef7 + x2 * sinPolyCoef9
 126              	 .loc 1 55 0
 127 00d8 97ED017A 	 flds s14,[r7,#4]
 128 00dc D7ED027A 	 flds s15,[r7,#8]
 129 00e0 27EE277A 	 fmuls s14,s14,s15
 130 00e4 D7ED027A 	 flds s15,[r7,#8]
 131 00e8 DFED126A 	 flds s13,.L16
 132 00ec 67EEA67A 	 fmuls s15,s15,s13
 133 00f0 DFED166A 	 flds s13,.L16+24
 134 00f4 77EEE66A 	 fsubs s13,s15,s13
 135 00f8 D7ED027A 	 flds s15,[r7,#8]
 136 00fc 66EEA77A 	 fmuls s15,s13,s15
 137 0100 DFED136A 	 flds s13,.L16+28
 138 0104 77EEA66A 	 fadds s13,s15,s13
 139 0108 D7ED027A 	 flds s15,[r7,#8]
 140 010c 66EEA77A 	 fmuls s15,s13,s15
 141 0110 DFED106A 	 flds s13,.L16+32
 142 0114 77EEE67A 	 fsubs s15,s15,s13
 143 0118 27EE277A 	 fmuls s14,s14,s15
 144 011c D7ED017A 	 flds s15,[r7,#4]
 145 0120 77EE277A 	 fadds s15,s14,s15
 146              	.L4:
 147 0124 17EE903A 	 fmrs r3,s15
  56:../cleanflight/src/main/common/maths.c **** }
 148              	 .loc 1 56 0
 149 0128 1846     	 mov r0,r3
 150 012a 1437     	 adds r7,r7,#20
 151              	.LCFI3:
 152              	 .cfi_def_cfa_offset 4
 153 012c BD46     	 mov sp,r7
 154              	.LCFI4:
 155              	 .cfi_def_cfa_register 13
 156              	 
 157 012e 5DF8047B 	 ldr r7,[sp],#4
 158              	.LCFI5:
 159              	 .cfi_restore 7
 160              	 .cfi_def_cfa_offset 0
 161 0132 7047     	 bx lr
 162              	.L17:
 163              	 .align 2
 164              	.L16:
 165 0134 00000000 	 .word 0
 166 0138 DB0FC940 	 .word 1086918619
 167 013c DB0F4940 	 .word 1078530011
 168 0140 DB0F49C0 	 .word -1068953637
 169 0144 DB0FC93F 	 .word 1070141403
 170 0148 DB0FC9BF 	 .word -1077342245
 171 014c 92E74139 	 .word 960620434
 172 0150 9730083C 	 .word 1007169687
 173 0154 15A82A3E 	 .word 1042982933
 174              	 .cfi_endproc
 175              	.LFE2:
 177              	 .section .text.cos_approx,"ax",%progbits
 178              	 .align 2
 179              	 .global cos_approx
 180              	 .thumb
 181              	 .thumb_func
 183              	cos_approx:
 184              	.LFB3:
  57:../cleanflight/src/main/common/maths.c **** 
  58:../cleanflight/src/main/common/maths.c **** float cos_approx(float x)
  59:../cleanflight/src/main/common/maths.c **** {
 185              	 .loc 1 59 0
 186              	 .cfi_startproc
 187              	 
 188              	 
 189 0000 80B5     	 push {r7,lr}
 190              	.LCFI6:
 191              	 .cfi_def_cfa_offset 8
 192              	 .cfi_offset 7,-8
 193              	 .cfi_offset 14,-4
 194 0002 82B0     	 sub sp,sp,#8
 195              	.LCFI7:
 196              	 .cfi_def_cfa_offset 16
 197 0004 00AF     	 add r7,sp,#0
 198              	.LCFI8:
 199              	 .cfi_def_cfa_register 7
 200 0006 7860     	 str r0,[r7,#4]
  60:../cleanflight/src/main/common/maths.c ****     return sin_approx(x + (0.5f * M_PIf));
 201              	 .loc 1 60 0
 202 0008 D7ED017A 	 flds s15,[r7,#4]
 203 000c 9FED067A 	 flds s14,.L20
 204 0010 77EE877A 	 fadds s15,s15,s14
 205 0014 17EE900A 	 fmrs r0,s15
 206 0018 FFF7FEFF 	 bl sin_approx
 207 001c 0346     	 mov r3,r0
  61:../cleanflight/src/main/common/maths.c **** }
 208              	 .loc 1 61 0
 209 001e 1846     	 mov r0,r3
 210 0020 0837     	 adds r7,r7,#8
 211              	.LCFI9:
 212              	 .cfi_def_cfa_offset 8
 213 0022 BD46     	 mov sp,r7
 214              	.LCFI10:
 215              	 .cfi_def_cfa_register 13
 216              	 
 217 0024 80BD     	 pop {r7,pc}
 218              	.L21:
 219 0026 00BF     	 .align 2
 220              	.L20:
 221 0028 DB0FC93F 	 .word 1070141403
 222              	 .cfi_endproc
 223              	.LFE3:
 225              	 .section .text.atan2_approx,"ax",%progbits
 226              	 .align 2
 227              	 .global atan2_approx
 228              	 .thumb
 229              	 .thumb_func
 231              	atan2_approx:
 232              	.LFB4:
  62:../cleanflight/src/main/common/maths.c **** 
  63:../cleanflight/src/main/common/maths.c **** // Initial implementation by Crashpilot1000 (https://github.com/Crashpilot1000/HarakiriWebstore1/bl
  64:../cleanflight/src/main/common/maths.c **** // Polynomial coefficients by Andor (http://www.dsprelated.com/showthread/comp.dsp/21872-1.php) opt
  65:../cleanflight/src/main/common/maths.c **** // Max absolute error 0,000027 degree
  66:../cleanflight/src/main/common/maths.c **** // atan2_approx maximum absolute error = 7.152557e-07 rads (4.098114e-05 degree)
  67:../cleanflight/src/main/common/maths.c **** float atan2_approx(float y, float x)
  68:../cleanflight/src/main/common/maths.c **** {
 233              	 .loc 1 68 0
 234              	 .cfi_startproc
 235              	 
 236              	 
 237              	 
 238 0000 80B4     	 push {r7}
 239              	.LCFI11:
 240              	 .cfi_def_cfa_offset 4
 241              	 .cfi_offset 7,-4
 242 0002 8BB0     	 sub sp,sp,#44
 243              	.LCFI12:
 244              	 .cfi_def_cfa_offset 48
 245 0004 00AF     	 add r7,sp,#0
 246              	.LCFI13:
 247              	 .cfi_def_cfa_register 7
 248 0006 7860     	 str r0,[r7,#4]
 249 0008 3960     	 str r1,[r7]
  69:../cleanflight/src/main/common/maths.c ****     #define atanPolyCoef1  3.14551665884836e-07f
  70:../cleanflight/src/main/common/maths.c ****     #define atanPolyCoef2  0.99997356613987f
  71:../cleanflight/src/main/common/maths.c ****     #define atanPolyCoef3  0.14744007058297684f
  72:../cleanflight/src/main/common/maths.c ****     #define atanPolyCoef4  0.3099814292351353f
  73:../cleanflight/src/main/common/maths.c ****     #define atanPolyCoef5  0.05030176425872175f
  74:../cleanflight/src/main/common/maths.c ****     #define atanPolyCoef6  0.1471039133652469f
  75:../cleanflight/src/main/common/maths.c ****     #define atanPolyCoef7  0.6444640676891548f
  76:../cleanflight/src/main/common/maths.c **** 
  77:../cleanflight/src/main/common/maths.c ****     float res, absX, absY;
  78:../cleanflight/src/main/common/maths.c ****     absX = fabsf(x);
 250              	 .loc 1 78 0
 251 000a D7ED007A 	 flds s15,[r7]
 252 000e F0EEE77A 	 fabss s15,s15
 253 0012 C7ED087A 	 fsts s15,[r7,#32]
  79:../cleanflight/src/main/common/maths.c ****     absY = fabsf(y);
 254              	 .loc 1 79 0
 255 0016 D7ED017A 	 flds s15,[r7,#4]
 256 001a F0EEE77A 	 fabss s15,s15
 257 001e C7ED077A 	 fsts s15,[r7,#28]
 258              	.LBB2:
  80:../cleanflight/src/main/common/maths.c ****     res  = MAX(absX, absY);
 259              	 .loc 1 80 0
 260 0022 3B6A     	 ldr r3,[r7,#32]
 261 0024 BB61     	 str r3,[r7,#24]
 262 0026 FB69     	 ldr r3,[r7,#28]
 263 0028 7B61     	 str r3,[r7,#20]
 264 002a 97ED067A 	 flds s14,[r7,#24]
 265 002e D7ED057A 	 flds s15,[r7,#20]
 266 0032 B4EEE77A 	 fcmpes s14,s15
 267 0036 F1EE10FA 	 fmstat
 268 003a 01DD     	 ble .L43
 269              	 .loc 1 80 0 is_stmt 0 discriminator 1
 270 003c BB69     	 ldr r3,[r7,#24]
 271 003e 00E0     	 b .L25
 272              	.L43:
 273              	 .loc 1 80 0 discriminator 2
 274 0040 7B69     	 ldr r3,[r7,#20]
 275              	.L25:
 276              	.LBE2:
 277              	 .loc 1 80 0 discriminator 4
 278 0042 7B62     	 str r3,[r7,#36]
  81:../cleanflight/src/main/common/maths.c ****     if (res) res = MIN(absX, absY) / res;
 279              	 .loc 1 81 0 is_stmt 1 discriminator 4
 280 0044 D7ED097A 	 flds s15,[r7,#36]
 281 0048 F5EE407A 	 fcmpzs s15
 282 004c F1EE10FA 	 fmstat
 283 0050 18D0     	 beq .L26
 284              	.LBB3:
 285              	 .loc 1 81 0 is_stmt 0 discriminator 1
 286 0052 3B6A     	 ldr r3,[r7,#32]
 287 0054 3B61     	 str r3,[r7,#16]
 288 0056 FB69     	 ldr r3,[r7,#28]
 289 0058 FB60     	 str r3,[r7,#12]
 290 005a 97ED047A 	 flds s14,[r7,#16]
 291 005e D7ED037A 	 flds s15,[r7,#12]
 292 0062 B4EEE77A 	 fcmpes s14,s15
 293 0066 F1EE10FA 	 fmstat
 294 006a 02D5     	 bpl .L44
 295              	 .loc 1 81 0 discriminator 2
 296 006c D7ED047A 	 flds s15,[r7,#16]
 297 0070 01E0     	 b .L29
 298              	.L44:
 299              	 .loc 1 81 0 discriminator 3
 300 0072 D7ED037A 	 flds s15,[r7,#12]
 301              	.L29:
 302              	.LBE3:
 303              	 .loc 1 81 0 discriminator 5
 304 0076 97ED097A 	 flds s14,[r7,#36]
 305 007a C7EE877A 	 fdivs s15,s15,s14
 306 007e C7ED097A 	 fsts s15,[r7,#36]
 307 0082 02E0     	 b .L30
 308              	.L26:
  82:../cleanflight/src/main/common/maths.c ****     else res = 0.0f;
 309              	 .loc 1 82 0 is_stmt 1
 310 0084 4FF00003 	 mov r3,#0
 311 0088 7B62     	 str r3,[r7,#36]
 312              	.L30:
  83:../cleanflight/src/main/common/maths.c ****     res = -((((atanPolyCoef5 * res - atanPolyCoef4) * res - atanPolyCoef3) * res - atanPolyCoef2) *
 313              	 .loc 1 83 0
 314 008a D7ED097A 	 flds s15,[r7,#36]
 315 008e 9FED367A 	 flds s14,.L45
 316 0092 67EE877A 	 fmuls s15,s15,s14
 317 0096 9FED357A 	 flds s14,.L45+4
 318 009a 37EEC77A 	 fsubs s14,s15,s14
 319 009e D7ED097A 	 flds s15,[r7,#36]
 320 00a2 67EE277A 	 fmuls s15,s14,s15
 321 00a6 9FED327A 	 flds s14,.L45+8
 322 00aa 37EEC77A 	 fsubs s14,s15,s14
 323 00ae D7ED097A 	 flds s15,[r7,#36]
 324 00b2 67EE277A 	 fmuls s15,s14,s15
 325 00b6 9FED2F7A 	 flds s14,.L45+12
 326 00ba 37EEC77A 	 fsubs s14,s15,s14
 327 00be D7ED097A 	 flds s15,[r7,#36]
 328 00c2 67EE277A 	 fmuls s15,s14,s15
 329 00c6 9FED2C7A 	 flds s14,.L45+16
 330 00ca 77EEC77A 	 fsubs s15,s15,s14
 331 00ce B1EE677A 	 fnegs s14,s15
 332 00d2 D7ED097A 	 flds s15,[r7,#36]
 333 00d6 DFED296A 	 flds s13,.L45+20
 334 00da 67EEA67A 	 fmuls s15,s15,s13
 335 00de DFED286A 	 flds s13,.L45+24
 336 00e2 77EEA66A 	 fadds s13,s15,s13
 337 00e6 D7ED097A 	 flds s15,[r7,#36]
 338 00ea 66EEA77A 	 fmuls s15,s13,s15
 339 00ee F7EE006A 	 fconsts s13,#112
 340 00f2 77EEA67A 	 fadds s15,s15,s13
 341 00f6 C7EE277A 	 fdivs s15,s14,s15
 342 00fa C7ED097A 	 fsts s15,[r7,#36]
  84:../cleanflight/src/main/common/maths.c ****     if (absY > absX) res = (M_PIf / 2.0f) - res;
 343              	 .loc 1 84 0
 344 00fe 97ED077A 	 flds s14,[r7,#28]
 345 0102 D7ED087A 	 flds s15,[r7,#32]
 346 0106 B4EEE77A 	 fcmpes s14,s15
 347 010a F1EE10FA 	 fmstat
 348 010e 07DD     	 ble .L31
 349              	 .loc 1 84 0 is_stmt 0 discriminator 1
 350 0110 9FED1C7A 	 flds s14,.L45+28
 351 0114 D7ED097A 	 flds s15,[r7,#36]
 352 0118 77EE677A 	 fsubs s15,s14,s15
 353 011c C7ED097A 	 fsts s15,[r7,#36]
 354              	.L31:
  85:../cleanflight/src/main/common/maths.c ****     if (x < 0) res = M_PIf - res;
 355              	 .loc 1 85 0 is_stmt 1
 356 0120 D7ED007A 	 flds s15,[r7]
 357 0124 F5EEC07A 	 fcmpezs s15
 358 0128 F1EE10FA 	 fmstat
 359 012c 07D5     	 bpl .L33
 360              	 .loc 1 85 0 is_stmt 0 discriminator 1
 361 012e 9FED167A 	 flds s14,.L45+32
 362 0132 D7ED097A 	 flds s15,[r7,#36]
 363 0136 77EE677A 	 fsubs s15,s14,s15
 364 013a C7ED097A 	 fsts s15,[r7,#36]
 365              	.L33:
  86:../cleanflight/src/main/common/maths.c ****     if (y < 0) res = -res;
 366              	 .loc 1 86 0 is_stmt 1
 367 013e D7ED017A 	 flds s15,[r7,#4]
 368 0142 F5EEC07A 	 fcmpezs s15
 369 0146 F1EE10FA 	 fmstat
 370 014a 05D5     	 bpl .L35
 371              	 .loc 1 86 0 is_stmt 0 discriminator 1
 372 014c D7ED097A 	 flds s15,[r7,#36]
 373 0150 F1EE677A 	 fnegs s15,s15
 374 0154 C7ED097A 	 fsts s15,[r7,#36]
 375              	.L35:
  87:../cleanflight/src/main/common/maths.c ****     return res;
 376              	 .loc 1 87 0 is_stmt 1
 377 0158 7B6A     	 ldr r3,[r7,#36]
  88:../cleanflight/src/main/common/maths.c **** }
 378              	 .loc 1 88 0
 379 015a 1846     	 mov r0,r3
 380 015c 2C37     	 adds r7,r7,#44
 381              	.LCFI14:
 382              	 .cfi_def_cfa_offset 4
 383 015e BD46     	 mov sp,r7
 384              	.LCFI15:
 385              	 .cfi_def_cfa_register 13
 386              	 
 387 0160 5DF8047B 	 ldr r7,[sp],#4
 388              	.LCFI16:
 389              	 .cfi_restore 7
 390              	 .cfi_def_cfa_offset 0
 391 0164 7047     	 bx lr
 392              	.L46:
 393 0166 00BF     	 .align 2
 394              	.L45:
 395 0168 39094E3D 	 .word 1028524345
 396 016c E3B59E3E 	 .word 1050588643
 397 0170 88FA163E 	 .word 1041693320
 398 0174 45FE7F3F 	 .word 1065352773
 399 0178 A7DFA834 	 .word 883482535
 400 017c 99FB243F 	 .word 1059388313
 401 0180 69A2163E 	 .word 1041670761
 402 0184 DB0FC93F 	 .word 1070141403
 403 0188 DB0F4940 	 .word 1078530011
 404              	 .cfi_endproc
 405              	.LFE4:
 407              	 .section .text.acos_approx,"ax",%progbits
 408              	 .align 2
 409              	 .global acos_approx
 410              	 .thumb
 411              	 .thumb_func
 413              	acos_approx:
 414              	.LFB5:
  89:../cleanflight/src/main/common/maths.c **** 
  90:../cleanflight/src/main/common/maths.c **** // http://http.developer.nvidia.com/Cg/acos.html
  91:../cleanflight/src/main/common/maths.c **** // Handbook of Mathematical Functions
  92:../cleanflight/src/main/common/maths.c **** // M. Abramowitz and I.A. Stegun, Ed.
  93:../cleanflight/src/main/common/maths.c **** // acos_approx maximum absolute error = 6.760856e-05 rads (3.873685e-03 degree)
  94:../cleanflight/src/main/common/maths.c **** float acos_approx(float x)
  95:../cleanflight/src/main/common/maths.c **** {
 415              	 .loc 1 95 0
 416              	 .cfi_startproc
 417              	 
 418              	 
 419 0000 80B5     	 push {r7,lr}
 420              	.LCFI17:
 421              	 .cfi_def_cfa_offset 8
 422              	 .cfi_offset 7,-8
 423              	 .cfi_offset 14,-4
 424 0002 84B0     	 sub sp,sp,#16
 425              	.LCFI18:
 426              	 .cfi_def_cfa_offset 24
 427 0004 00AF     	 add r7,sp,#0
 428              	.LCFI19:
 429              	 .cfi_def_cfa_register 7
 430 0006 7860     	 str r0,[r7,#4]
  96:../cleanflight/src/main/common/maths.c ****     float xa = fabsf(x);
 431              	 .loc 1 96 0
 432 0008 D7ED017A 	 flds s15,[r7,#4]
 433 000c F0EEE77A 	 fabss s15,s15
 434 0010 C7ED037A 	 fsts s15,[r7,#12]
  97:../cleanflight/src/main/common/maths.c ****     float result = sqrtf(1.0f - xa) * (1.5707288f + xa * (-0.2121144f + xa * (0.0742610f + (-0.0187
 435              	 .loc 1 97 0
 436 0014 B7EE007A 	 fconsts s14,#112
 437 0018 D7ED037A 	 flds s15,[r7,#12]
 438 001c 77EE677A 	 fsubs s15,s14,s15
 439 0020 17EE900A 	 fmrs r0,s15
 440 0024 FFF7FEFF 	 bl sqrtf
 441 0028 06EE900A 	 fmsr s13,r0
 442 002c D7ED037A 	 flds s15,[r7,#12]
 443 0030 9FED187A 	 flds s14,.L53
 444 0034 67EE877A 	 fmuls s15,s15,s14
 445 0038 9FED177A 	 flds s14,.L53+4
 446 003c 37EE877A 	 fadds s14,s15,s14
 447 0040 D7ED037A 	 flds s15,[r7,#12]
 448 0044 67EE277A 	 fmuls s15,s14,s15
 449 0048 9FED147A 	 flds s14,.L53+8
 450 004c 37EEC77A 	 fsubs s14,s15,s14
 451 0050 D7ED037A 	 flds s15,[r7,#12]
 452 0054 67EE277A 	 fmuls s15,s14,s15
 453 0058 9FED117A 	 flds s14,.L53+12
 454 005c 77EE877A 	 fadds s15,s15,s14
 455 0060 66EEA77A 	 fmuls s15,s13,s15
 456 0064 C7ED027A 	 fsts s15,[r7,#8]
  98:../cleanflight/src/main/common/maths.c ****     if (x < 0.0f)
 457              	 .loc 1 98 0
 458 0068 D7ED017A 	 flds s15,[r7,#4]
 459 006c F5EEC07A 	 fcmpezs s15
 460 0070 F1EE10FA 	 fmstat
 461 0074 06D5     	 bpl .L52
  99:../cleanflight/src/main/common/maths.c ****         return M_PIf - result;
 462              	 .loc 1 99 0
 463 0076 9FED0B7A 	 flds s14,.L53+16
 464 007a D7ED027A 	 flds s15,[r7,#8]
 465 007e 77EE677A 	 fsubs s15,s14,s15
 466 0082 01E0     	 b .L50
 467              	.L52:
 100:../cleanflight/src/main/common/maths.c ****     else
 101:../cleanflight/src/main/common/maths.c ****         return result;
 468              	 .loc 1 101 0
 469 0084 D7ED027A 	 flds s15,[r7,#8]
 470              	.L50:
 471 0088 17EE903A 	 fmrs r3,s15
 102:../cleanflight/src/main/common/maths.c **** }
 472              	 .loc 1 102 0
 473 008c 1846     	 mov r0,r3
 474 008e 1037     	 adds r7,r7,#16
 475              	.LCFI20:
 476              	 .cfi_def_cfa_offset 8
 477 0090 BD46     	 mov sp,r7
 478              	.LCFI21:
 479              	 .cfi_def_cfa_register 13
 480              	 
 481 0092 80BD     	 pop {r7,pc}
 482              	.L54:
 483              	 .align 2
 484              	.L53:
 485 0094 306E99BC 	 .word -1130795472
 486 0098 2716983D 	 .word 1033377319
 487 009c 8434593E 	 .word 1046033540
 488 00a0 A40DC93F 	 .word 1070140836
 489 00a4 DB0F4940 	 .word 1078530011
 490              	 .cfi_endproc
 491              	.LFE5:
 493              	 .section .text.gcd,"ax",%progbits
 494              	 .align 2
 495              	 .global gcd
 496              	 .thumb
 497              	 .thumb_func
 499              	gcd:
 500              	.LFB6:
 103:../cleanflight/src/main/common/maths.c **** #endif
 104:../cleanflight/src/main/common/maths.c **** 
 105:../cleanflight/src/main/common/maths.c **** int gcd(int num, int denom)
 106:../cleanflight/src/main/common/maths.c **** {
 501              	 .loc 1 106 0
 502              	 .cfi_startproc
 503              	 
 504              	 
 505 0000 80B5     	 push {r7,lr}
 506              	.LCFI22:
 507              	 .cfi_def_cfa_offset 8
 508              	 .cfi_offset 7,-8
 509              	 .cfi_offset 14,-4
 510 0002 82B0     	 sub sp,sp,#8
 511              	.LCFI23:
 512              	 .cfi_def_cfa_offset 16
 513 0004 00AF     	 add r7,sp,#0
 514              	.LCFI24:
 515              	 .cfi_def_cfa_register 7
 516 0006 7860     	 str r0,[r7,#4]
 517 0008 3960     	 str r1,[r7]
 107:../cleanflight/src/main/common/maths.c ****     if (denom == 0) {
 518              	 .loc 1 107 0
 519 000a 3B68     	 ldr r3,[r7]
 520 000c 002B     	 cmp r3,#0
 521 000e 01D1     	 bne .L56
 108:../cleanflight/src/main/common/maths.c ****         return num;
 522              	 .loc 1 108 0
 523 0010 7B68     	 ldr r3,[r7,#4]
 524 0012 0CE0     	 b .L57
 525              	.L56:
 109:../cleanflight/src/main/common/maths.c ****     }
 110:../cleanflight/src/main/common/maths.c **** 
 111:../cleanflight/src/main/common/maths.c ****     return gcd(denom, num % denom);
 526              	 .loc 1 111 0
 527 0014 7B68     	 ldr r3,[r7,#4]
 528 0016 3A68     	 ldr r2,[r7]
 529 0018 93FBF2F2 	 sdiv r2,r3,r2
 530 001c 3968     	 ldr r1,[r7]
 531 001e 01FB02F2 	 mul r2,r1,r2
 532 0022 9B1A     	 subs r3,r3,r2
 533 0024 3868     	 ldr r0,[r7]
 534 0026 1946     	 mov r1,r3
 535 0028 FFF7FEFF 	 bl gcd
 536 002c 0346     	 mov r3,r0
 537              	.L57:
 112:../cleanflight/src/main/common/maths.c **** }
 538              	 .loc 1 112 0
 539 002e 1846     	 mov r0,r3
 540 0030 0837     	 adds r7,r7,#8
 541              	.LCFI25:
 542              	 .cfi_def_cfa_offset 8
 543 0032 BD46     	 mov sp,r7
 544              	.LCFI26:
 545              	 .cfi_def_cfa_register 13
 546              	 
 547 0034 80BD     	 pop {r7,pc}
 548              	 .cfi_endproc
 549              	.LFE6:
 551 0036 00BF     	 .section .text.powerf,"ax",%progbits
 552              	 .align 2
 553              	 .global powerf
 554              	 .thumb
 555              	 .thumb_func
 557              	powerf:
 558              	.LFB7:
 113:../cleanflight/src/main/common/maths.c **** 
 114:../cleanflight/src/main/common/maths.c **** float powerf(float base, int exp) {
 559              	 .loc 1 114 0
 560              	 .cfi_startproc
 561              	 
 562              	 
 563              	 
 564 0000 80B4     	 push {r7}
 565              	.LCFI27:
 566              	 .cfi_def_cfa_offset 4
 567              	 .cfi_offset 7,-4
 568 0002 85B0     	 sub sp,sp,#20
 569              	.LCFI28:
 570              	 .cfi_def_cfa_offset 24
 571 0004 00AF     	 add r7,sp,#0
 572              	.LCFI29:
 573              	 .cfi_def_cfa_register 7
 574 0006 7860     	 str r0,[r7,#4]
 575 0008 3960     	 str r1,[r7]
 115:../cleanflight/src/main/common/maths.c ****     float result = base;
 576              	 .loc 1 115 0
 577 000a 7B68     	 ldr r3,[r7,#4]
 578 000c FB60     	 str r3,[r7,#12]
 579              	.LBB4:
 116:../cleanflight/src/main/common/maths.c ****     for (int count = 1; count < exp; count++) result *= base;
 580              	 .loc 1 116 0
 581 000e 0123     	 movs r3,#1
 582 0010 BB60     	 str r3,[r7,#8]
 583 0012 0AE0     	 b .L59
 584              	.L60:
 585              	 .loc 1 116 0 is_stmt 0 discriminator 3
 586 0014 97ED037A 	 flds s14,[r7,#12]
 587 0018 D7ED017A 	 flds s15,[r7,#4]
 588 001c 67EE277A 	 fmuls s15,s14,s15
 589 0020 C7ED037A 	 fsts s15,[r7,#12]
 590 0024 BB68     	 ldr r3,[r7,#8]
 591 0026 0133     	 adds r3,r3,#1
 592 0028 BB60     	 str r3,[r7,#8]
 593              	.L59:
 594              	 .loc 1 116 0 discriminator 1
 595 002a BA68     	 ldr r2,[r7,#8]
 596 002c 3B68     	 ldr r3,[r7]
 597 002e 9A42     	 cmp r2,r3
 598 0030 F0DB     	 blt .L60
 599              	.LBE4:
 117:../cleanflight/src/main/common/maths.c **** 
 118:../cleanflight/src/main/common/maths.c ****     return result;
 600              	 .loc 1 118 0 is_stmt 1
 601 0032 FB68     	 ldr r3,[r7,#12]
 119:../cleanflight/src/main/common/maths.c **** }
 602              	 .loc 1 119 0
 603 0034 1846     	 mov r0,r3
 604 0036 1437     	 adds r7,r7,#20
 605              	.LCFI30:
 606              	 .cfi_def_cfa_offset 4
 607 0038 BD46     	 mov sp,r7
 608              	.LCFI31:
 609              	 .cfi_def_cfa_register 13
 610              	 
 611 003a 5DF8047B 	 ldr r7,[sp],#4
 612              	.LCFI32:
 613              	 .cfi_restore 7
 614              	 .cfi_def_cfa_offset 0
 615 003e 7047     	 bx lr
 616              	 .cfi_endproc
 617              	.LFE7:
 619              	 .section .text.applyDeadband,"ax",%progbits
 620              	 .align 2
 621              	 .global applyDeadband
 622              	 .thumb
 623              	 .thumb_func
 625              	applyDeadband:
 626              	.LFB8:
 120:../cleanflight/src/main/common/maths.c **** 
 121:../cleanflight/src/main/common/maths.c **** int32_t applyDeadband(const int32_t value, const int32_t deadband)
 122:../cleanflight/src/main/common/maths.c **** {
 627              	 .loc 1 122 0
 628              	 .cfi_startproc
 629              	 
 630              	 
 631              	 
 632 0000 80B4     	 push {r7}
 633              	.LCFI33:
 634              	 .cfi_def_cfa_offset 4
 635              	 .cfi_offset 7,-4
 636 0002 85B0     	 sub sp,sp,#20
 637              	.LCFI34:
 638              	 .cfi_def_cfa_offset 24
 639 0004 00AF     	 add r7,sp,#0
 640              	.LCFI35:
 641              	 .cfi_def_cfa_register 7
 642 0006 7860     	 str r0,[r7,#4]
 643 0008 3960     	 str r1,[r7]
 644              	.LBB5:
 123:../cleanflight/src/main/common/maths.c ****     if (ABS(value) < deadband) {
 645              	 .loc 1 123 0
 646 000a 7B68     	 ldr r3,[r7,#4]
 647 000c FB60     	 str r3,[r7,#12]
 648 000e FB68     	 ldr r3,[r7,#12]
 649 0010 83EAE372 	 eor r2,r3,r3,asr#31
 650 0014 A2EBE372 	 sub r2,r2,r3,asr#31
 651              	.LBE5:
 652 0018 3B68     	 ldr r3,[r7]
 653 001a 9A42     	 cmp r2,r3
 654 001c 01DA     	 bge .L63
 124:../cleanflight/src/main/common/maths.c ****         return 0;
 655              	 .loc 1 124 0
 656 001e 0023     	 movs r3,#0
 657 0020 0AE0     	 b .L64
 658              	.L63:
 125:../cleanflight/src/main/common/maths.c ****     }
 126:../cleanflight/src/main/common/maths.c **** 
 127:../cleanflight/src/main/common/maths.c ****     return value >= 0 ? value - deadband : value + deadband;
 659              	 .loc 1 127 0
 660 0022 7B68     	 ldr r3,[r7,#4]
 661 0024 002B     	 cmp r3,#0
 662 0026 03DB     	 blt .L65
 663              	 .loc 1 127 0 is_stmt 0 discriminator 1
 664 0028 7A68     	 ldr r2,[r7,#4]
 665 002a 3B68     	 ldr r3,[r7]
 666 002c D31A     	 subs r3,r2,r3
 667 002e 02E0     	 b .L67
 668              	.L65:
 669              	 .loc 1 127 0 discriminator 2
 670 0030 7A68     	 ldr r2,[r7,#4]
 671 0032 3B68     	 ldr r3,[r7]
 672 0034 1344     	 add r3,r3,r2
 673              	.L67:
 674              	 .loc 1 127 0
 675 0036 00BF     	 nop
 676              	.L64:
 128:../cleanflight/src/main/common/maths.c **** }
 677              	 .loc 1 128 0 is_stmt 1
 678 0038 1846     	 mov r0,r3
 679 003a 1437     	 adds r7,r7,#20
 680              	.LCFI36:
 681              	 .cfi_def_cfa_offset 4
 682 003c BD46     	 mov sp,r7
 683              	.LCFI37:
 684              	 .cfi_def_cfa_register 13
 685              	 
 686 003e 5DF8047B 	 ldr r7,[sp],#4
 687              	.LCFI38:
 688              	 .cfi_restore 7
 689              	 .cfi_def_cfa_offset 0
 690 0042 7047     	 bx lr
 691              	 .cfi_endproc
 692              	.LFE8:
 694              	 .section .text.fapplyDeadband,"ax",%progbits
 695              	 .align 2
 696              	 .global fapplyDeadband
 697              	 .thumb
 698              	 .thumb_func
 700              	fapplyDeadband:
 701              	.LFB9:
 129:../cleanflight/src/main/common/maths.c **** 
 130:../cleanflight/src/main/common/maths.c **** float fapplyDeadband(const float value, const float deadband)
 131:../cleanflight/src/main/common/maths.c **** {
 702              	 .loc 1 131 0
 703              	 .cfi_startproc
 704              	 
 705              	 
 706              	 
 707 0000 80B4     	 push {r7}
 708              	.LCFI39:
 709              	 .cfi_def_cfa_offset 4
 710              	 .cfi_offset 7,-4
 711 0002 83B0     	 sub sp,sp,#12
 712              	.LCFI40:
 713              	 .cfi_def_cfa_offset 16
 714 0004 00AF     	 add r7,sp,#0
 715              	.LCFI41:
 716              	 .cfi_def_cfa_register 7
 717 0006 7860     	 str r0,[r7,#4]
 718 0008 3960     	 str r1,[r7]
 132:../cleanflight/src/main/common/maths.c ****     if (fabsf(value) < deadband) {
 719              	 .loc 1 132 0
 720 000a D7ED017A 	 flds s15,[r7,#4]
 721 000e B0EEE77A 	 fabss s14,s15
 722 0012 D7ED007A 	 flds s15,[r7]
 723 0016 B4EEE77A 	 fcmpes s14,s15
 724 001a F1EE10FA 	 fmstat
 725 001e 02D5     	 bpl .L77
 133:../cleanflight/src/main/common/maths.c ****         return 0;
 726              	 .loc 1 133 0
 727 0020 DFED0F7A 	 flds s15,.L80
 728 0024 14E0     	 b .L71
 729              	.L77:
 134:../cleanflight/src/main/common/maths.c ****     }
 135:../cleanflight/src/main/common/maths.c **** 
 136:../cleanflight/src/main/common/maths.c ****     return value >= 0 ? value - deadband : value + deadband;
 730              	 .loc 1 136 0
 731 0026 D7ED017A 	 flds s15,[r7,#4]
 732 002a F5EEC07A 	 fcmpezs s15
 733 002e F1EE10FA 	 fmstat
 734 0032 06DB     	 blt .L78
 735              	 .loc 1 136 0 is_stmt 0 discriminator 1
 736 0034 97ED017A 	 flds s14,[r7,#4]
 737 0038 D7ED007A 	 flds s15,[r7]
 738 003c 77EE677A 	 fsubs s15,s14,s15
 739 0040 05E0     	 b .L79
 740              	.L78:
 741              	 .loc 1 136 0 discriminator 2
 742 0042 97ED017A 	 flds s14,[r7,#4]
 743 0046 D7ED007A 	 flds s15,[r7]
 744 004a 77EE277A 	 fadds s15,s14,s15
 745              	.L79:
 746              	 .loc 1 136 0
 747 004e 00BF     	 nop
 748              	.L71:
 749 0050 17EE903A 	 fmrs r3,s15
 137:../cleanflight/src/main/common/maths.c **** }
 750              	 .loc 1 137 0 is_stmt 1
 751 0054 1846     	 mov r0,r3
 752 0056 0C37     	 adds r7,r7,#12
 753              	.LCFI42:
 754              	 .cfi_def_cfa_offset 4
 755 0058 BD46     	 mov sp,r7
 756              	.LCFI43:
 757              	 .cfi_def_cfa_register 13
 758              	 
 759 005a 5DF8047B 	 ldr r7,[sp],#4
 760              	.LCFI44:
 761              	 .cfi_restore 7
 762              	 .cfi_def_cfa_offset 0
 763 005e 7047     	 bx lr
 764              	.L81:
 765              	 .align 2
 766              	.L80:
 767 0060 00000000 	 .word 0
 768              	 .cfi_endproc
 769              	.LFE9:
 771              	 .section .text.devClear,"ax",%progbits
 772              	 .align 2
 773              	 .global devClear
 774              	 .thumb
 775              	 .thumb_func
 777              	devClear:
 778              	.LFB10:
 138:../cleanflight/src/main/common/maths.c **** 
 139:../cleanflight/src/main/common/maths.c **** void devClear(stdev_t *dev)
 140:../cleanflight/src/main/common/maths.c **** {
 779              	 .loc 1 140 0
 780              	 .cfi_startproc
 781              	 
 782              	 
 783              	 
 784 0000 80B4     	 push {r7}
 785              	.LCFI45:
 786              	 .cfi_def_cfa_offset 4
 787              	 .cfi_offset 7,-4
 788 0002 83B0     	 sub sp,sp,#12
 789              	.LCFI46:
 790              	 .cfi_def_cfa_offset 16
 791 0004 00AF     	 add r7,sp,#0
 792              	.LCFI47:
 793              	 .cfi_def_cfa_register 7
 794 0006 7860     	 str r0,[r7,#4]
 141:../cleanflight/src/main/common/maths.c ****     dev->m_n = 0;
 795              	 .loc 1 141 0
 796 0008 7B68     	 ldr r3,[r7,#4]
 797 000a 0022     	 movs r2,#0
 798 000c 1A74     	 strb r2,[r3,#16]
 799 000e 0022     	 movs r2,#0
 800 0010 5A74     	 strb r2,[r3,#17]
 801 0012 0022     	 movs r2,#0
 802 0014 9A74     	 strb r2,[r3,#18]
 803 0016 0022     	 movs r2,#0
 804 0018 DA74     	 strb r2,[r3,#19]
 142:../cleanflight/src/main/common/maths.c **** }
 805              	 .loc 1 142 0
 806 001a 0C37     	 adds r7,r7,#12
 807              	.LCFI48:
 808              	 .cfi_def_cfa_offset 4
 809 001c BD46     	 mov sp,r7
 810              	.LCFI49:
 811              	 .cfi_def_cfa_register 13
 812              	 
 813 001e 5DF8047B 	 ldr r7,[sp],#4
 814              	.LCFI50:
 815              	 .cfi_restore 7
 816              	 .cfi_def_cfa_offset 0
 817 0022 7047     	 bx lr
 818              	 .cfi_endproc
 819              	.LFE10:
 821              	 .section .text.devPush,"ax",%progbits
 822              	 .align 2
 823              	 .global devPush
 824              	 .thumb
 825              	 .thumb_func
 827              	devPush:
 828              	.LFB11:
 143:../cleanflight/src/main/common/maths.c **** 
 144:../cleanflight/src/main/common/maths.c **** void devPush(stdev_t *dev, float x)
 145:../cleanflight/src/main/common/maths.c **** {
 829              	 .loc 1 145 0
 830              	 .cfi_startproc
 831              	 
 832              	 
 833              	 
 834 0000 80B4     	 push {r7}
 835              	.LCFI51:
 836              	 .cfi_def_cfa_offset 4
 837              	 .cfi_offset 7,-4
 838 0002 83B0     	 sub sp,sp,#12
 839              	.LCFI52:
 840              	 .cfi_def_cfa_offset 16
 841 0004 00AF     	 add r7,sp,#0
 842              	.LCFI53:
 843              	 .cfi_def_cfa_register 7
 844 0006 7860     	 str r0,[r7,#4]
 845 0008 3960     	 str r1,[r7]
 146:../cleanflight/src/main/common/maths.c ****     dev->m_n++;
 846              	 .loc 1 146 0
 847 000a 7B68     	 ldr r3,[r7,#4]
 848 000c 1B69     	 ldr r3,[r3,#16]
 849 000e 5A1C     	 adds r2,r3,#1
 850 0010 7B68     	 ldr r3,[r7,#4]
 851 0012 1A61     	 str r2,[r3,#16]
 147:../cleanflight/src/main/common/maths.c ****     if (dev->m_n == 1) {
 852              	 .loc 1 147 0
 853 0014 7B68     	 ldr r3,[r7,#4]
 854 0016 1B69     	 ldr r3,[r3,#16]
 855 0018 012B     	 cmp r3,#1
 856 001a 0DD1     	 bne .L84
 148:../cleanflight/src/main/common/maths.c ****         dev->m_oldM = dev->m_newM = x;
 857              	 .loc 1 148 0
 858 001c 7B68     	 ldr r3,[r7,#4]
 859 001e 3A68     	 ldr r2,[r7]
 860 0020 5A60     	 str r2,[r3,#4]
 861 0022 7B68     	 ldr r3,[r7,#4]
 862 0024 5A68     	 ldr r2,[r3,#4]
 863 0026 1346     	 mov r3,r2
 864 0028 1A46     	 mov r2,r3
 865 002a 7B68     	 ldr r3,[r7,#4]
 866 002c 1A60     	 str r2,[r3]
 149:../cleanflight/src/main/common/maths.c ****         dev->m_oldS = 0.0f;
 867              	 .loc 1 149 0
 868 002e 7B68     	 ldr r3,[r7,#4]
 869 0030 4FF00002 	 mov r2,#0
 870 0034 9A60     	 str r2,[r3,#8]
 871 0036 45E0     	 b .L83
 872              	.L84:
 150:../cleanflight/src/main/common/maths.c ****     } else {
 151:../cleanflight/src/main/common/maths.c ****         dev->m_newM = dev->m_oldM + (x - dev->m_oldM) / dev->m_n;
 873              	 .loc 1 151 0
 874 0038 7B68     	 ldr r3,[r7,#4]
 875 003a 1A68     	 ldr r2,[r3]
 876 003c 1346     	 mov r3,r2
 877 003e 1A46     	 mov r2,r3
 878 0040 7B68     	 ldr r3,[r7,#4]
 879 0042 1B68     	 ldr r3,[r3]
 880 0044 D7ED007A 	 flds s15,[r7]
 881 0048 07EE103A 	 fmsr s14,r3
 882 004c 37EEC77A 	 fsubs s14,s15,s14
 883 0050 7B68     	 ldr r3,[r7,#4]
 884 0052 1B69     	 ldr r3,[r3,#16]
 885 0054 07EE903A 	 fmsr s15,r3
 886 0058 F8EEE77A 	 fsitos s15,s15
 887 005c C7EE277A 	 fdivs s15,s14,s15
 888 0060 07EE102A 	 fmsr s14,r2
 889 0064 77EE277A 	 fadds s15,s14,s15
 890 0068 7B68     	 ldr r3,[r7,#4]
 891 006a 17EE902A 	 fmrs r2,s15
 892 006e 5A60     	 str r2,[r3,#4]
 152:../cleanflight/src/main/common/maths.c ****         dev->m_newS = dev->m_oldS + (x - dev->m_oldM) * (x - dev->m_newM);
 893              	 .loc 1 152 0
 894 0070 7B68     	 ldr r3,[r7,#4]
 895 0072 9A68     	 ldr r2,[r3,#8]
 896 0074 1346     	 mov r3,r2
 897 0076 1A46     	 mov r2,r3
 898 0078 7B68     	 ldr r3,[r7,#4]
 899 007a 1B68     	 ldr r3,[r3]
 900 007c D7ED007A 	 flds s15,[r7]
 901 0080 07EE103A 	 fmsr s14,r3
 902 0084 37EEC77A 	 fsubs s14,s15,s14
 903 0088 7B68     	 ldr r3,[r7,#4]
 904 008a 5B68     	 ldr r3,[r3,#4]
 905 008c D7ED007A 	 flds s15,[r7]
 906 0090 06EE903A 	 fmsr s13,r3
 907 0094 77EEE67A 	 fsubs s15,s15,s13
 908 0098 67EE277A 	 fmuls s15,s14,s15
 909 009c 07EE102A 	 fmsr s14,r2
 910 00a0 77EE277A 	 fadds s15,s14,s15
 911 00a4 7B68     	 ldr r3,[r7,#4]
 912 00a6 17EE902A 	 fmrs r2,s15
 913 00aa DA60     	 str r2,[r3,#12]
 153:../cleanflight/src/main/common/maths.c ****         dev->m_oldM = dev->m_newM;
 914              	 .loc 1 153 0
 915 00ac 7B68     	 ldr r3,[r7,#4]
 916 00ae 5A68     	 ldr r2,[r3,#4]
 917 00b0 1346     	 mov r3,r2
 918 00b2 1A46     	 mov r2,r3
 919 00b4 7B68     	 ldr r3,[r7,#4]
 920 00b6 1A60     	 str r2,[r3]
 154:../cleanflight/src/main/common/maths.c ****         dev->m_oldS = dev->m_newS;
 921              	 .loc 1 154 0
 922 00b8 7B68     	 ldr r3,[r7,#4]
 923 00ba DA68     	 ldr r2,[r3,#12]
 924 00bc 1346     	 mov r3,r2
 925 00be 1A46     	 mov r2,r3
 926 00c0 7B68     	 ldr r3,[r7,#4]
 927 00c2 9A60     	 str r2,[r3,#8]
 928              	.L83:
 155:../cleanflight/src/main/common/maths.c ****     }
 156:../cleanflight/src/main/common/maths.c **** }
 929              	 .loc 1 156 0
 930 00c4 0C37     	 adds r7,r7,#12
 931              	.LCFI54:
 932              	 .cfi_def_cfa_offset 4
 933 00c6 BD46     	 mov sp,r7
 934              	.LCFI55:
 935              	 .cfi_def_cfa_register 13
 936              	 
 937 00c8 5DF8047B 	 ldr r7,[sp],#4
 938              	.LCFI56:
 939              	 .cfi_restore 7
 940              	 .cfi_def_cfa_offset 0
 941 00cc 7047     	 bx lr
 942              	 .cfi_endproc
 943              	.LFE11:
 945 00ce 00BF     	 .section .text.devVariance,"ax",%progbits
 946              	 .align 2
 947              	 .global devVariance
 948              	 .thumb
 949              	 .thumb_func
 951              	devVariance:
 952              	.LFB12:
 157:../cleanflight/src/main/common/maths.c **** 
 158:../cleanflight/src/main/common/maths.c **** float devVariance(stdev_t *dev)
 159:../cleanflight/src/main/common/maths.c **** {
 953              	 .loc 1 159 0
 954              	 .cfi_startproc
 955              	 
 956              	 
 957              	 
 958 0000 80B4     	 push {r7}
 959              	.LCFI57:
 960              	 .cfi_def_cfa_offset 4
 961              	 .cfi_offset 7,-4
 962 0002 83B0     	 sub sp,sp,#12
 963              	.LCFI58:
 964              	 .cfi_def_cfa_offset 16
 965 0004 00AF     	 add r7,sp,#0
 966              	.LCFI59:
 967              	 .cfi_def_cfa_register 7
 968 0006 7860     	 str r0,[r7,#4]
 160:../cleanflight/src/main/common/maths.c ****     return ((dev->m_n > 1) ? dev->m_newS / (dev->m_n - 1) : 0.0f);
 969              	 .loc 1 160 0
 970 0008 7B68     	 ldr r3,[r7,#4]
 971 000a 1B69     	 ldr r3,[r3,#16]
 972 000c 012B     	 cmp r3,#1
 973 000e 0FDD     	 ble .L87
 974              	 .loc 1 160 0 is_stmt 0 discriminator 1
 975 0010 7B68     	 ldr r3,[r7,#4]
 976 0012 DA68     	 ldr r2,[r3,#12]
 977 0014 1346     	 mov r3,r2
 978 0016 1A46     	 mov r2,r3
 979 0018 7B68     	 ldr r3,[r7,#4]
 980 001a 1B69     	 ldr r3,[r3,#16]
 981 001c 013B     	 subs r3,r3,#1
 982 001e 07EE903A 	 fmsr s15,r3
 983 0022 F8EEE77A 	 fsitos s15,s15
 984 0026 07EE102A 	 fmsr s14,r2
 985 002a C7EE277A 	 fdivs s15,s14,s15
 986 002e 01E0     	 b .L88
 987              	.L87:
 988              	 .loc 1 160 0 discriminator 2
 989 0030 DFED047A 	 flds s15,.L90
 990              	.L88:
 991              	 .loc 1 160 0 discriminator 4
 992 0034 17EE903A 	 fmrs r3,s15
 161:../cleanflight/src/main/common/maths.c **** }
 993              	 .loc 1 161 0 is_stmt 1 discriminator 4
 994 0038 1846     	 mov r0,r3
 995 003a 0C37     	 adds r7,r7,#12
 996              	.LCFI60:
 997              	 .cfi_def_cfa_offset 4
 998 003c BD46     	 mov sp,r7
 999              	.LCFI61:
 1000              	 .cfi_def_cfa_register 13
 1001              	 
 1002 003e 5DF8047B 	 ldr r7,[sp],#4
 1003              	.LCFI62:
 1004              	 .cfi_restore 7
 1005              	 .cfi_def_cfa_offset 0
 1006 0042 7047     	 bx lr
 1007              	.L91:
 1008              	 .align 2
 1009              	.L90:
 1010 0044 00000000 	 .word 0
 1011              	 .cfi_endproc
 1012              	.LFE12:
 1014              	 .section .text.devStandardDeviation,"ax",%progbits
 1015              	 .align 2
 1016              	 .global devStandardDeviation
 1017              	 .thumb
 1018              	 .thumb_func
 1020              	devStandardDeviation:
 1021              	.LFB13:
 162:../cleanflight/src/main/common/maths.c **** 
 163:../cleanflight/src/main/common/maths.c **** float devStandardDeviation(stdev_t *dev)
 164:../cleanflight/src/main/common/maths.c **** {
 1022              	 .loc 1 164 0
 1023              	 .cfi_startproc
 1024              	 
 1025              	 
 1026 0000 80B5     	 push {r7,lr}
 1027              	.LCFI63:
 1028              	 .cfi_def_cfa_offset 8
 1029              	 .cfi_offset 7,-8
 1030              	 .cfi_offset 14,-4
 1031 0002 82B0     	 sub sp,sp,#8
 1032              	.LCFI64:
 1033              	 .cfi_def_cfa_offset 16
 1034 0004 00AF     	 add r7,sp,#0
 1035              	.LCFI65:
 1036              	 .cfi_def_cfa_register 7
 1037 0006 7860     	 str r0,[r7,#4]
 165:../cleanflight/src/main/common/maths.c ****     return sqrtf(devVariance(dev));
 1038              	 .loc 1 165 0
 1039 0008 7868     	 ldr r0,[r7,#4]
 1040 000a FFF7FEFF 	 bl devVariance
 1041 000e 0346     	 mov r3,r0
 1042 0010 1846     	 mov r0,r3
 1043 0012 FFF7FEFF 	 bl sqrtf
 1044 0016 0346     	 mov r3,r0
 166:../cleanflight/src/main/common/maths.c **** }
 1045              	 .loc 1 166 0
 1046 0018 1846     	 mov r0,r3
 1047 001a 0837     	 adds r7,r7,#8
 1048              	.LCFI66:
 1049              	 .cfi_def_cfa_offset 8
 1050 001c BD46     	 mov sp,r7
 1051              	.LCFI67:
 1052              	 .cfi_def_cfa_register 13
 1053              	 
 1054 001e 80BD     	 pop {r7,pc}
 1055              	 .cfi_endproc
 1056              	.LFE13:
 1058              	 .section .text.degreesToRadians,"ax",%progbits
 1059              	 .align 2
 1060              	 .global degreesToRadians
 1061              	 .thumb
 1062              	 .thumb_func
 1064              	degreesToRadians:
 1065              	.LFB14:
 167:../cleanflight/src/main/common/maths.c **** 
 168:../cleanflight/src/main/common/maths.c **** float degreesToRadians(int16_t degrees)
 169:../cleanflight/src/main/common/maths.c **** {
 1066              	 .loc 1 169 0
 1067              	 .cfi_startproc
 1068              	 
 1069              	 
 1070              	 
 1071 0000 80B4     	 push {r7}
 1072              	.LCFI68:
 1073              	 .cfi_def_cfa_offset 4
 1074              	 .cfi_offset 7,-4
 1075 0002 83B0     	 sub sp,sp,#12
 1076              	.LCFI69:
 1077              	 .cfi_def_cfa_offset 16
 1078 0004 00AF     	 add r7,sp,#0
 1079              	.LCFI70:
 1080              	 .cfi_def_cfa_register 7
 1081 0006 0346     	 mov r3,r0
 1082 0008 FB80     	 strh r3,[r7,#6]
 170:../cleanflight/src/main/common/maths.c ****     return degrees * RAD;
 1083              	 .loc 1 170 0
 1084 000a B7F90630 	 ldrsh r3,[r7,#6]
 1085 000e 07EE903A 	 fmsr s15,r3
 1086 0012 F8EEE77A 	 fsitos s15,s15
 1087 0016 9FED067A 	 flds s14,.L96
 1088 001a 67EE877A 	 fmuls s15,s15,s14
 1089 001e 17EE903A 	 fmrs r3,s15
 171:../cleanflight/src/main/common/maths.c **** }
 1090              	 .loc 1 171 0
 1091 0022 1846     	 mov r0,r3
 1092 0024 0C37     	 adds r7,r7,#12
 1093              	.LCFI71:
 1094              	 .cfi_def_cfa_offset 4
 1095 0026 BD46     	 mov sp,r7
 1096              	.LCFI72:
 1097              	 .cfi_def_cfa_register 13
 1098              	 
 1099 0028 5DF8047B 	 ldr r7,[sp],#4
 1100              	.LCFI73:
 1101              	 .cfi_restore 7
 1102              	 .cfi_def_cfa_offset 0
 1103 002c 7047     	 bx lr
 1104              	.L97:
 1105 002e 00BF     	 .align 2
 1106              	.L96:
 1107 0030 35FA8E3C 	 .word 1016003125
 1108              	 .cfi_endproc
 1109              	.LFE14:
 1111              	 .section .text.scaleRange,"ax",%progbits
 1112              	 .align 2
 1113              	 .global scaleRange
 1114              	 .thumb
 1115              	 .thumb_func
 1117              	scaleRange:
 1118              	.LFB15:
 172:../cleanflight/src/main/common/maths.c **** 
 173:../cleanflight/src/main/common/maths.c **** int scaleRange(int x, int srcFrom, int srcTo, int destFrom, int destTo) {
 1119              	 .loc 1 173 0
 1120              	 .cfi_startproc
 1121              	 
 1122              	 
 1123              	 
 1124 0000 80B4     	 push {r7}
 1125              	.LCFI74:
 1126              	 .cfi_def_cfa_offset 4
 1127              	 .cfi_offset 7,-4
 1128 0002 87B0     	 sub sp,sp,#28
 1129              	.LCFI75:
 1130              	 .cfi_def_cfa_offset 32
 1131 0004 00AF     	 add r7,sp,#0
 1132              	.LCFI76:
 1133              	 .cfi_def_cfa_register 7
 1134 0006 F860     	 str r0,[r7,#12]
 1135 0008 B960     	 str r1,[r7,#8]
 1136 000a 7A60     	 str r2,[r7,#4]
 1137 000c 3B60     	 str r3,[r7]
 174:../cleanflight/src/main/common/maths.c ****     long int a = ((long int) destTo - (long int) destFrom) * ((long int) x - (long int) srcFrom);
 1138              	 .loc 1 174 0
 1139 000e 3A6A     	 ldr r2,[r7,#32]
 1140 0010 3B68     	 ldr r3,[r7]
 1141 0012 D31A     	 subs r3,r2,r3
 1142 0014 F968     	 ldr r1,[r7,#12]
 1143 0016 BA68     	 ldr r2,[r7,#8]
 1144 0018 8A1A     	 subs r2,r1,r2
 1145 001a 02FB03F3 	 mul r3,r2,r3
 1146 001e 7B61     	 str r3,[r7,#20]
 175:../cleanflight/src/main/common/maths.c ****     long int b = (long int) srcTo - (long int) srcFrom;
 1147              	 .loc 1 175 0
 1148 0020 7A68     	 ldr r2,[r7,#4]
 1149 0022 BB68     	 ldr r3,[r7,#8]
 1150 0024 D31A     	 subs r3,r2,r3
 1151 0026 3B61     	 str r3,[r7,#16]
 176:../cleanflight/src/main/common/maths.c ****     return (a / b) + destFrom;
 1152              	 .loc 1 176 0
 1153 0028 7A69     	 ldr r2,[r7,#20]
 1154 002a 3B69     	 ldr r3,[r7,#16]
 1155 002c 92FBF3F2 	 sdiv r2,r2,r3
 1156 0030 3B68     	 ldr r3,[r7]
 1157 0032 1344     	 add r3,r3,r2
 177:../cleanflight/src/main/common/maths.c **** }
 1158              	 .loc 1 177 0
 1159 0034 1846     	 mov r0,r3
 1160 0036 1C37     	 adds r7,r7,#28
 1161              	.LCFI77:
 1162              	 .cfi_def_cfa_offset 4
 1163 0038 BD46     	 mov sp,r7
 1164              	.LCFI78:
 1165              	 .cfi_def_cfa_register 13
 1166              	 
 1167 003a 5DF8047B 	 ldr r7,[sp],#4
 1168              	.LCFI79:
 1169              	 .cfi_restore 7
 1170              	 .cfi_def_cfa_offset 0
 1171 003e 7047     	 bx lr
 1172              	 .cfi_endproc
 1173              	.LFE15:
 1175              	 .section .text.scaleRangef,"ax",%progbits
 1176              	 .align 2
 1177              	 .global scaleRangef
 1178              	 .thumb
 1179              	 .thumb_func
 1181              	scaleRangef:
 1182              	.LFB16:
 178:../cleanflight/src/main/common/maths.c **** 
 179:../cleanflight/src/main/common/maths.c **** float scaleRangef(float x, float srcFrom, float srcTo, float destFrom, float destTo) {
 1183              	 .loc 1 179 0
 1184              	 .cfi_startproc
 1185              	 
 1186              	 
 1187              	 
 1188 0000 80B4     	 push {r7}
 1189              	.LCFI80:
 1190              	 .cfi_def_cfa_offset 4
 1191              	 .cfi_offset 7,-4
 1192 0002 87B0     	 sub sp,sp,#28
 1193              	.LCFI81:
 1194              	 .cfi_def_cfa_offset 32
 1195 0004 00AF     	 add r7,sp,#0
 1196              	.LCFI82:
 1197              	 .cfi_def_cfa_register 7
 1198 0006 F860     	 str r0,[r7,#12]
 1199 0008 B960     	 str r1,[r7,#8]
 1200 000a 7A60     	 str r2,[r7,#4]
 1201 000c 3B60     	 str r3,[r7]
 180:../cleanflight/src/main/common/maths.c ****     float a = (destTo - destFrom) * (x - srcFrom);
 1202              	 .loc 1 180 0
 1203 000e 97ED087A 	 flds s14,[r7,#32]
 1204 0012 D7ED007A 	 flds s15,[r7]
 1205 0016 37EE677A 	 fsubs s14,s14,s15
 1206 001a D7ED036A 	 flds s13,[r7,#12]
 1207 001e D7ED027A 	 flds s15,[r7,#8]
 1208 0022 76EEE77A 	 fsubs s15,s13,s15
 1209 0026 67EE277A 	 fmuls s15,s14,s15
 1210 002a C7ED057A 	 fsts s15,[r7,#20]
 181:../cleanflight/src/main/common/maths.c ****     float b = srcTo - srcFrom;
 1211              	 .loc 1 181 0
 1212 002e 97ED017A 	 flds s14,[r7,#4]
 1213 0032 D7ED027A 	 flds s15,[r7,#8]
 1214 0036 77EE677A 	 fsubs s15,s14,s15
 1215 003a C7ED047A 	 fsts s15,[r7,#16]
 182:../cleanflight/src/main/common/maths.c ****     return (a / b) + destFrom;
 1216              	 .loc 1 182 0
 1217 003e 97ED057A 	 flds s14,[r7,#20]
 1218 0042 D7ED047A 	 flds s15,[r7,#16]
 1219 0046 87EE277A 	 fdivs s14,s14,s15
 1220 004a D7ED007A 	 flds s15,[r7]
 1221 004e 77EE277A 	 fadds s15,s14,s15
 1222 0052 17EE903A 	 fmrs r3,s15
 183:../cleanflight/src/main/common/maths.c **** }
 1223              	 .loc 1 183 0
 1224 0056 1846     	 mov r0,r3
 1225 0058 1C37     	 adds r7,r7,#28
 1226              	.LCFI83:
 1227              	 .cfi_def_cfa_offset 4
 1228 005a BD46     	 mov sp,r7
 1229              	.LCFI84:
 1230              	 .cfi_def_cfa_register 13
 1231              	 
 1232 005c 5DF8047B 	 ldr r7,[sp],#4
 1233              	.LCFI85:
 1234              	 .cfi_restore 7
 1235              	 .cfi_def_cfa_offset 0
 1236 0060 7047     	 bx lr
 1237              	 .cfi_endproc
 1238              	.LFE16:
 1240 0062 00BF     	 .section .text.normalizeV,"ax",%progbits
 1241              	 .align 2
 1242              	 .global normalizeV
 1243              	 .thumb
 1244              	 .thumb_func
 1246              	normalizeV:
 1247              	.LFB17:
 184:../cleanflight/src/main/common/maths.c **** 
 185:../cleanflight/src/main/common/maths.c **** // Normalize a vector
 186:../cleanflight/src/main/common/maths.c **** void normalizeV(struct fp_vector *src, struct fp_vector *dest)
 187:../cleanflight/src/main/common/maths.c **** {
 1248              	 .loc 1 187 0
 1249              	 .cfi_startproc
 1250              	 
 1251              	 
 1252 0000 80B5     	 push {r7,lr}
 1253              	.LCFI86:
 1254              	 .cfi_def_cfa_offset 8
 1255              	 .cfi_offset 7,-8
 1256              	 .cfi_offset 14,-4
 1257 0002 84B0     	 sub sp,sp,#16
 1258              	.LCFI87:
 1259              	 .cfi_def_cfa_offset 24
 1260 0004 00AF     	 add r7,sp,#0
 1261              	.LCFI88:
 1262              	 .cfi_def_cfa_register 7
 1263 0006 7860     	 str r0,[r7,#4]
 1264 0008 3960     	 str r1,[r7]
 188:../cleanflight/src/main/common/maths.c ****     float length;
 189:../cleanflight/src/main/common/maths.c **** 
 190:../cleanflight/src/main/common/maths.c ****     length = sqrtf(src->X * src->X + src->Y * src->Y + src->Z * src->Z);
 1265              	 .loc 1 190 0
 1266 000a 7B68     	 ldr r3,[r7,#4]
 1267 000c 1A68     	 ldr r2,[r3]
 1268 000e 1346     	 mov r3,r2
 1269 0010 1A46     	 mov r2,r3
 1270 0012 7B68     	 ldr r3,[r7,#4]
 1271 0014 1B68     	 ldr r3,[r3]
 1272 0016 07EE902A 	 fmsr s15,r2
 1273 001a 07EE103A 	 fmsr s14,r3
 1274 001e 27EE877A 	 fmuls s14,s15,s14
 1275 0022 7B68     	 ldr r3,[r7,#4]
 1276 0024 5A68     	 ldr r2,[r3,#4]
 1277 0026 1346     	 mov r3,r2
 1278 0028 1A46     	 mov r2,r3
 1279 002a 7B68     	 ldr r3,[r7,#4]
 1280 002c 5B68     	 ldr r3,[r3,#4]
 1281 002e 07EE902A 	 fmsr s15,r2
 1282 0032 06EE903A 	 fmsr s13,r3
 1283 0036 67EEA67A 	 fmuls s15,s15,s13
 1284 003a 37EE277A 	 fadds s14,s14,s15
 1285 003e 7B68     	 ldr r3,[r7,#4]
 1286 0040 9A68     	 ldr r2,[r3,#8]
 1287 0042 1346     	 mov r3,r2
 1288 0044 1A46     	 mov r2,r3
 1289 0046 7B68     	 ldr r3,[r7,#4]
 1290 0048 9B68     	 ldr r3,[r3,#8]
 1291 004a 07EE902A 	 fmsr s15,r2
 1292 004e 06EE903A 	 fmsr s13,r3
 1293 0052 67EEA67A 	 fmuls s15,s15,s13
 1294 0056 77EE277A 	 fadds s15,s14,s15
 1295 005a 17EE900A 	 fmrs r0,s15
 1296 005e FFF7FEFF 	 bl sqrtf
 1297 0062 F860     	 str r0,[r7,#12]
 191:../cleanflight/src/main/common/maths.c ****     if (length != 0) {
 1298              	 .loc 1 191 0
 1299 0064 D7ED037A 	 flds s15,[r7,#12]
 1300 0068 F5EE407A 	 fcmpzs s15
 1301 006c F1EE10FA 	 fmstat
 1302 0070 23D0     	 beq .L102
 192:../cleanflight/src/main/common/maths.c ****         dest->X = src->X / length;
 1303              	 .loc 1 192 0
 1304 0072 7B68     	 ldr r3,[r7,#4]
 1305 0074 1B68     	 ldr r3,[r3]
 1306 0076 D7ED037A 	 flds s15,[r7,#12]
 1307 007a 07EE103A 	 fmsr s14,r3
 1308 007e C7EE277A 	 fdivs s15,s14,s15
 1309 0082 3B68     	 ldr r3,[r7]
 1310 0084 17EE902A 	 fmrs r2,s15
 1311 0088 1A60     	 str r2,[r3]
 193:../cleanflight/src/main/common/maths.c ****         dest->Y = src->Y / length;
 1312              	 .loc 1 193 0
 1313 008a 7B68     	 ldr r3,[r7,#4]
 1314 008c 5B68     	 ldr r3,[r3,#4]
 1315 008e D7ED037A 	 flds s15,[r7,#12]
 1316 0092 07EE103A 	 fmsr s14,r3
 1317 0096 C7EE277A 	 fdivs s15,s14,s15
 1318 009a 3B68     	 ldr r3,[r7]
 1319 009c 17EE902A 	 fmrs r2,s15
 1320 00a0 5A60     	 str r2,[r3,#4]
 194:../cleanflight/src/main/common/maths.c ****         dest->Z = src->Z / length;
 1321              	 .loc 1 194 0
 1322 00a2 7B68     	 ldr r3,[r7,#4]
 1323 00a4 9B68     	 ldr r3,[r3,#8]
 1324 00a6 D7ED037A 	 flds s15,[r7,#12]
 1325 00aa 07EE103A 	 fmsr s14,r3
 1326 00ae C7EE277A 	 fdivs s15,s14,s15
 1327 00b2 3B68     	 ldr r3,[r7]
 1328 00b4 17EE902A 	 fmrs r2,s15
 1329 00b8 9A60     	 str r2,[r3,#8]
 1330              	.L102:
 195:../cleanflight/src/main/common/maths.c ****     }
 196:../cleanflight/src/main/common/maths.c **** }
 1331              	 .loc 1 196 0
 1332 00ba 1037     	 adds r7,r7,#16
 1333              	.LCFI89:
 1334              	 .cfi_def_cfa_offset 8
 1335 00bc BD46     	 mov sp,r7
 1336              	.LCFI90:
 1337              	 .cfi_def_cfa_register 13
 1338              	 
 1339 00be 80BD     	 pop {r7,pc}
 1340              	 .cfi_endproc
 1341              	.LFE17:
 1343              	 .section .text.buildRotationMatrix,"ax",%progbits
 1344              	 .align 2
 1345              	 .global buildRotationMatrix
 1346              	 .thumb
 1347              	 .thumb_func
 1349              	buildRotationMatrix:
 1350              	.LFB18:
 197:../cleanflight/src/main/common/maths.c **** 
 198:../cleanflight/src/main/common/maths.c **** void buildRotationMatrix(fp_angles_t *delta, float matrix[3][3])
 199:../cleanflight/src/main/common/maths.c **** {
 1351              	 .loc 1 199 0
 1352              	 .cfi_startproc
 1353              	 
 1354              	 
 1355 0000 80B5     	 push {r7,lr}
 1356              	.LCFI91:
 1357              	 .cfi_def_cfa_offset 8
 1358              	 .cfi_offset 7,-8
 1359              	 .cfi_offset 14,-4
 1360 0002 8CB0     	 sub sp,sp,#48
 1361              	.LCFI92:
 1362              	 .cfi_def_cfa_offset 56
 1363 0004 00AF     	 add r7,sp,#0
 1364              	.LCFI93:
 1365              	 .cfi_def_cfa_register 7
 1366 0006 7860     	 str r0,[r7,#4]
 1367 0008 3960     	 str r1,[r7]
 200:../cleanflight/src/main/common/maths.c ****     float cosx, sinx, cosy, siny, cosz, sinz;
 201:../cleanflight/src/main/common/maths.c ****     float coszcosx, sinzcosx, coszsinx, sinzsinx;
 202:../cleanflight/src/main/common/maths.c **** 
 203:../cleanflight/src/main/common/maths.c ****     cosx = cos_approx(delta->angles.roll);
 1368              	 .loc 1 203 0
 1369 000a 7B68     	 ldr r3,[r7,#4]
 1370 000c 1B68     	 ldr r3,[r3]
 1371 000e 1846     	 mov r0,r3
 1372 0010 FFF7FEFF 	 bl cos_approx
 1373 0014 F862     	 str r0,[r7,#44]
 204:../cleanflight/src/main/common/maths.c ****     sinx = sin_approx(delta->angles.roll);
 1374              	 .loc 1 204 0
 1375 0016 7B68     	 ldr r3,[r7,#4]
 1376 0018 1B68     	 ldr r3,[r3]
 1377 001a 1846     	 mov r0,r3
 1378 001c FFF7FEFF 	 bl sin_approx
 1379 0020 B862     	 str r0,[r7,#40]
 205:../cleanflight/src/main/common/maths.c ****     cosy = cos_approx(delta->angles.pitch);
 1380              	 .loc 1 205 0
 1381 0022 7B68     	 ldr r3,[r7,#4]
 1382 0024 5B68     	 ldr r3,[r3,#4]
 1383 0026 1846     	 mov r0,r3
 1384 0028 FFF7FEFF 	 bl cos_approx
 1385 002c 7862     	 str r0,[r7,#36]
 206:../cleanflight/src/main/common/maths.c ****     siny = sin_approx(delta->angles.pitch);
 1386              	 .loc 1 206 0
 1387 002e 7B68     	 ldr r3,[r7,#4]
 1388 0030 5B68     	 ldr r3,[r3,#4]
 1389 0032 1846     	 mov r0,r3
 1390 0034 FFF7FEFF 	 bl sin_approx
 1391 0038 3862     	 str r0,[r7,#32]
 207:../cleanflight/src/main/common/maths.c ****     cosz = cos_approx(delta->angles.yaw);
 1392              	 .loc 1 207 0
 1393 003a 7B68     	 ldr r3,[r7,#4]
 1394 003c 9B68     	 ldr r3,[r3,#8]
 1395 003e 1846     	 mov r0,r3
 1396 0040 FFF7FEFF 	 bl cos_approx
 1397 0044 F861     	 str r0,[r7,#28]
 208:../cleanflight/src/main/common/maths.c ****     sinz = sin_approx(delta->angles.yaw);
 1398              	 .loc 1 208 0
 1399 0046 7B68     	 ldr r3,[r7,#4]
 1400 0048 9B68     	 ldr r3,[r3,#8]
 1401 004a 1846     	 mov r0,r3
 1402 004c FFF7FEFF 	 bl sin_approx
 1403 0050 B861     	 str r0,[r7,#24]
 209:../cleanflight/src/main/common/maths.c **** 
 210:../cleanflight/src/main/common/maths.c ****     coszcosx = cosz * cosx;
 1404              	 .loc 1 210 0
 1405 0052 97ED077A 	 flds s14,[r7,#28]
 1406 0056 D7ED0B7A 	 flds s15,[r7,#44]
 1407 005a 67EE277A 	 fmuls s15,s14,s15
 1408 005e C7ED057A 	 fsts s15,[r7,#20]
 211:../cleanflight/src/main/common/maths.c ****     sinzcosx = sinz * cosx;
 1409              	 .loc 1 211 0
 1410 0062 97ED067A 	 flds s14,[r7,#24]
 1411 0066 D7ED0B7A 	 flds s15,[r7,#44]
 1412 006a 67EE277A 	 fmuls s15,s14,s15
 1413 006e C7ED047A 	 fsts s15,[r7,#16]
 212:../cleanflight/src/main/common/maths.c ****     coszsinx = sinx * cosz;
 1414              	 .loc 1 212 0
 1415 0072 97ED0A7A 	 flds s14,[r7,#40]
 1416 0076 D7ED077A 	 flds s15,[r7,#28]
 1417 007a 67EE277A 	 fmuls s15,s14,s15
 1418 007e C7ED037A 	 fsts s15,[r7,#12]
 213:../cleanflight/src/main/common/maths.c ****     sinzsinx = sinx * sinz;
 1419              	 .loc 1 213 0
 1420 0082 97ED0A7A 	 flds s14,[r7,#40]
 1421 0086 D7ED067A 	 flds s15,[r7,#24]
 1422 008a 67EE277A 	 fmuls s15,s14,s15
 1423 008e C7ED027A 	 fsts s15,[r7,#8]
 214:../cleanflight/src/main/common/maths.c **** 
 215:../cleanflight/src/main/common/maths.c ****     matrix[0][X] = cosz * cosy;
 1424              	 .loc 1 215 0
 1425 0092 97ED077A 	 flds s14,[r7,#28]
 1426 0096 D7ED097A 	 flds s15,[r7,#36]
 1427 009a 67EE277A 	 fmuls s15,s14,s15
 1428 009e 3B68     	 ldr r3,[r7]
 1429 00a0 C3ED007A 	 fsts s15,[r3]
 216:../cleanflight/src/main/common/maths.c ****     matrix[0][Y] = -cosy * sinz;
 1430              	 .loc 1 216 0
 1431 00a4 D7ED097A 	 flds s15,[r7,#36]
 1432 00a8 B1EE677A 	 fnegs s14,s15
 1433 00ac D7ED067A 	 flds s15,[r7,#24]
 1434 00b0 67EE277A 	 fmuls s15,s14,s15
 1435 00b4 3B68     	 ldr r3,[r7]
 1436 00b6 C3ED017A 	 fsts s15,[r3,#4]
 217:../cleanflight/src/main/common/maths.c ****     matrix[0][Z] = siny;
 1437              	 .loc 1 217 0
 1438 00ba 3B68     	 ldr r3,[r7]
 1439 00bc 3A6A     	 ldr r2,[r7,#32]
 1440 00be 9A60     	 str r2,[r3,#8]
 218:../cleanflight/src/main/common/maths.c ****     matrix[1][X] = sinzcosx + (coszsinx * siny);
 1441              	 .loc 1 218 0
 1442 00c0 3B68     	 ldr r3,[r7]
 1443 00c2 0C33     	 adds r3,r3,#12
 1444 00c4 97ED037A 	 flds s14,[r7,#12]
 1445 00c8 D7ED087A 	 flds s15,[r7,#32]
 1446 00cc 27EE277A 	 fmuls s14,s14,s15
 1447 00d0 D7ED047A 	 flds s15,[r7,#16]
 1448 00d4 77EE277A 	 fadds s15,s14,s15
 1449 00d8 C3ED007A 	 fsts s15,[r3]
 219:../cleanflight/src/main/common/maths.c ****     matrix[1][Y] = coszcosx - (sinzsinx * siny);
 1450              	 .loc 1 219 0
 1451 00dc 3B68     	 ldr r3,[r7]
 1452 00de 0C33     	 adds r3,r3,#12
 1453 00e0 97ED027A 	 flds s14,[r7,#8]
 1454 00e4 D7ED087A 	 flds s15,[r7,#32]
 1455 00e8 67EE277A 	 fmuls s15,s14,s15
 1456 00ec 97ED057A 	 flds s14,[r7,#20]
 1457 00f0 77EE677A 	 fsubs s15,s14,s15
 1458 00f4 C3ED017A 	 fsts s15,[r3,#4]
 220:../cleanflight/src/main/common/maths.c ****     matrix[1][Z] = -sinx * cosy;
 1459              	 .loc 1 220 0
 1460 00f8 3B68     	 ldr r3,[r7]
 1461 00fa 0C33     	 adds r3,r3,#12
 1462 00fc D7ED0A7A 	 flds s15,[r7,#40]
 1463 0100 B1EE677A 	 fnegs s14,s15
 1464 0104 D7ED097A 	 flds s15,[r7,#36]
 1465 0108 67EE277A 	 fmuls s15,s14,s15
 1466 010c C3ED027A 	 fsts s15,[r3,#8]
 221:../cleanflight/src/main/common/maths.c ****     matrix[2][X] = (sinzsinx) - (coszcosx * siny);
 1467              	 .loc 1 221 0
 1468 0110 3B68     	 ldr r3,[r7]
 1469 0112 1833     	 adds r3,r3,#24
 1470 0114 97ED057A 	 flds s14,[r7,#20]
 1471 0118 D7ED087A 	 flds s15,[r7,#32]
 1472 011c 67EE277A 	 fmuls s15,s14,s15
 1473 0120 97ED027A 	 flds s14,[r7,#8]
 1474 0124 77EE677A 	 fsubs s15,s14,s15
 1475 0128 C3ED007A 	 fsts s15,[r3]
 222:../cleanflight/src/main/common/maths.c ****     matrix[2][Y] = (coszsinx) + (sinzcosx * siny);
 1476              	 .loc 1 222 0
 1477 012c 3B68     	 ldr r3,[r7]
 1478 012e 1833     	 adds r3,r3,#24
 1479 0130 97ED047A 	 flds s14,[r7,#16]
 1480 0134 D7ED087A 	 flds s15,[r7,#32]
 1481 0138 27EE277A 	 fmuls s14,s14,s15
 1482 013c D7ED037A 	 flds s15,[r7,#12]
 1483 0140 77EE277A 	 fadds s15,s14,s15
 1484 0144 C3ED017A 	 fsts s15,[r3,#4]
 223:../cleanflight/src/main/common/maths.c ****     matrix[2][Z] = cosy * cosx;
 1485              	 .loc 1 223 0
 1486 0148 3B68     	 ldr r3,[r7]
 1487 014a 1833     	 adds r3,r3,#24
 1488 014c 97ED097A 	 flds s14,[r7,#36]
 1489 0150 D7ED0B7A 	 flds s15,[r7,#44]
 1490 0154 67EE277A 	 fmuls s15,s14,s15
 1491 0158 C3ED027A 	 fsts s15,[r3,#8]
 224:../cleanflight/src/main/common/maths.c **** }
 1492              	 .loc 1 224 0
 1493 015c 3037     	 adds r7,r7,#48
 1494              	.LCFI94:
 1495              	 .cfi_def_cfa_offset 8
 1496 015e BD46     	 mov sp,r7
 1497              	.LCFI95:
 1498              	 .cfi_def_cfa_register 13
 1499              	 
 1500 0160 80BD     	 pop {r7,pc}
 1501              	 .cfi_endproc
 1502              	.LFE18:
 1504              	 .section .text.rotateV,"ax",%progbits
 1505              	 .align 2
 1506              	 .global rotateV
 1507              	 .thumb
 1508              	 .thumb_func
 1510              	rotateV:
 1511              	.LFB19:
 225:../cleanflight/src/main/common/maths.c **** 
 226:../cleanflight/src/main/common/maths.c **** // Rotate a vector *v by the euler angles defined by the 3-vector *delta.
 227:../cleanflight/src/main/common/maths.c **** void rotateV(struct fp_vector *v, fp_angles_t *delta)
 228:../cleanflight/src/main/common/maths.c **** {
 1512              	 .loc 1 228 0
 1513              	 .cfi_startproc
 1514              	 
 1515              	 
 1516 0000 80B5     	 push {r7,lr}
 1517              	.LCFI96:
 1518              	 .cfi_def_cfa_offset 8
 1519              	 .cfi_offset 7,-8
 1520              	 .cfi_offset 14,-4
 1521 0002 8EB0     	 sub sp,sp,#56
 1522              	.LCFI97:
 1523              	 .cfi_def_cfa_offset 64
 1524 0004 00AF     	 add r7,sp,#0
 1525              	.LCFI98:
 1526              	 .cfi_def_cfa_register 7
 1527 0006 7860     	 str r0,[r7,#4]
 1528 0008 3960     	 str r1,[r7]
 229:../cleanflight/src/main/common/maths.c ****     struct fp_vector v_tmp = *v;
 1529              	 .loc 1 229 0
 1530 000a 7A68     	 ldr r2,[r7,#4]
 1531 000c 07F12C03 	 add r3,r7,#44
 1532 0010 1068     	 ldr r0,[r2]
 1533 0012 5168     	 ldr r1,[r2,#4]
 1534 0014 9268     	 ldr r2,[r2,#8]
 1535 0016 07C3     	 stmia r3!,{r0,r1,r2}
 230:../cleanflight/src/main/common/maths.c **** 
 231:../cleanflight/src/main/common/maths.c ****     float matrix[3][3];
 232:../cleanflight/src/main/common/maths.c **** 
 233:../cleanflight/src/main/common/maths.c ****     buildRotationMatrix(delta, matrix);
 1536              	 .loc 1 233 0
 1537 0018 07F10803 	 add r3,r7,#8
 1538 001c 3868     	 ldr r0,[r7]
 1539 001e 1946     	 mov r1,r3
 1540 0020 FFF7FEFF 	 bl buildRotationMatrix
 234:../cleanflight/src/main/common/maths.c **** 
 235:../cleanflight/src/main/common/maths.c ****     v->X = v_tmp.X * matrix[0][X] + v_tmp.Y * matrix[1][X] + v_tmp.Z * matrix[2][X];
 1541              	 .loc 1 235 0
 1542 0024 97ED0B7A 	 flds s14,[r7,#44]
 1543 0028 D7ED027A 	 flds s15,[r7,#8]
 1544 002c 27EE277A 	 fmuls s14,s14,s15
 1545 0030 D7ED0C6A 	 flds s13,[r7,#48]
 1546 0034 D7ED057A 	 flds s15,[r7,#20]
 1547 0038 66EEA77A 	 fmuls s15,s13,s15
 1548 003c 37EE277A 	 fadds s14,s14,s15
 1549 0040 D7ED0D6A 	 flds s13,[r7,#52]
 1550 0044 D7ED087A 	 flds s15,[r7,#32]
 1551 0048 66EEA77A 	 fmuls s15,s13,s15
 1552 004c 77EE277A 	 fadds s15,s14,s15
 1553 0050 7B68     	 ldr r3,[r7,#4]
 1554 0052 17EE902A 	 fmrs r2,s15
 1555 0056 1A60     	 str r2,[r3]
 236:../cleanflight/src/main/common/maths.c ****     v->Y = v_tmp.X * matrix[0][Y] + v_tmp.Y * matrix[1][Y] + v_tmp.Z * matrix[2][Y];
 1556              	 .loc 1 236 0
 1557 0058 97ED0B7A 	 flds s14,[r7,#44]
 1558 005c D7ED037A 	 flds s15,[r7,#12]
 1559 0060 27EE277A 	 fmuls s14,s14,s15
 1560 0064 D7ED0C6A 	 flds s13,[r7,#48]
 1561 0068 D7ED067A 	 flds s15,[r7,#24]
 1562 006c 66EEA77A 	 fmuls s15,s13,s15
 1563 0070 37EE277A 	 fadds s14,s14,s15
 1564 0074 D7ED0D6A 	 flds s13,[r7,#52]
 1565 0078 D7ED097A 	 flds s15,[r7,#36]
 1566 007c 66EEA77A 	 fmuls s15,s13,s15
 1567 0080 77EE277A 	 fadds s15,s14,s15
 1568 0084 7B68     	 ldr r3,[r7,#4]
 1569 0086 17EE902A 	 fmrs r2,s15
 1570 008a 5A60     	 str r2,[r3,#4]
 237:../cleanflight/src/main/common/maths.c ****     v->Z = v_tmp.X * matrix[0][Z] + v_tmp.Y * matrix[1][Z] + v_tmp.Z * matrix[2][Z];
 1571              	 .loc 1 237 0
 1572 008c 97ED0B7A 	 flds s14,[r7,#44]
 1573 0090 D7ED047A 	 flds s15,[r7,#16]
 1574 0094 27EE277A 	 fmuls s14,s14,s15
 1575 0098 D7ED0C6A 	 flds s13,[r7,#48]
 1576 009c D7ED077A 	 flds s15,[r7,#28]
 1577 00a0 66EEA77A 	 fmuls s15,s13,s15
 1578 00a4 37EE277A 	 fadds s14,s14,s15
 1579 00a8 D7ED0D6A 	 flds s13,[r7,#52]
 1580 00ac D7ED0A7A 	 flds s15,[r7,#40]
 1581 00b0 66EEA77A 	 fmuls s15,s13,s15
 1582 00b4 77EE277A 	 fadds s15,s14,s15
 1583 00b8 7B68     	 ldr r3,[r7,#4]
 1584 00ba 17EE902A 	 fmrs r2,s15
 1585 00be 9A60     	 str r2,[r3,#8]
 238:../cleanflight/src/main/common/maths.c **** }
 1586              	 .loc 1 238 0
 1587 00c0 3837     	 adds r7,r7,#56
 1588              	.LCFI99:
 1589              	 .cfi_def_cfa_offset 8
 1590 00c2 BD46     	 mov sp,r7
 1591              	.LCFI100:
 1592              	 .cfi_def_cfa_register 13
 1593              	 
 1594 00c4 80BD     	 pop {r7,pc}
 1595              	 .cfi_endproc
 1596              	.LFE19:
 1598 00c6 00BF     	 .section .text.quickMedianFilter3,"ax",%progbits
 1599              	 .align 2
 1600              	 .global quickMedianFilter3
 1601              	 .thumb
 1602              	 .thumb_func
 1604              	quickMedianFilter3:
 1605              	.LFB20:
 239:../cleanflight/src/main/common/maths.c **** 
 240:../cleanflight/src/main/common/maths.c **** // Quick median filter implementation
 241:../cleanflight/src/main/common/maths.c **** // (c) N. Devillard - 1998
 242:../cleanflight/src/main/common/maths.c **** // http://ndevilla.free.fr/median/median.pdf
 243:../cleanflight/src/main/common/maths.c **** #define QMF_SORT(a,b) { if ((a)>(b)) QMF_SWAP((a),(b)); }
 244:../cleanflight/src/main/common/maths.c **** #define QMF_SWAP(a,b) { int32_t temp=(a);(a)=(b);(b)=temp; }
 245:../cleanflight/src/main/common/maths.c **** #define QMF_COPY(p,v,n) { int32_t i; for (i=0; i<n; i++) p[i]=v[i]; }
 246:../cleanflight/src/main/common/maths.c **** #define QMF_SORTF(a,b) { if ((a)>(b)) QMF_SWAPF((a),(b)); }
 247:../cleanflight/src/main/common/maths.c **** #define QMF_SWAPF(a,b) { float temp=(a);(a)=(b);(b)=temp; }
 248:../cleanflight/src/main/common/maths.c **** 
 249:../cleanflight/src/main/common/maths.c **** int32_t quickMedianFilter3(int32_t * v)
 250:../cleanflight/src/main/common/maths.c **** {
 1606              	 .loc 1 250 0
 1607              	 .cfi_startproc
 1608              	 
 1609              	 
 1610              	 
 1611 0000 80B4     	 push {r7}
 1612              	.LCFI101:
 1613              	 .cfi_def_cfa_offset 4
 1614              	 .cfi_offset 7,-4
 1615 0002 8BB0     	 sub sp,sp,#44
 1616              	.LCFI102:
 1617              	 .cfi_def_cfa_offset 48
 1618 0004 00AF     	 add r7,sp,#0
 1619              	.LCFI103:
 1620              	 .cfi_def_cfa_register 7
 1621 0006 7860     	 str r0,[r7,#4]
 1622              	.LBB6:
 251:../cleanflight/src/main/common/maths.c ****     int32_t p[3];
 252:../cleanflight/src/main/common/maths.c ****     QMF_COPY(p, v, 3);
 1623              	 .loc 1 252 0
 1624 0008 0023     	 movs r3,#0
 1625 000a 7B62     	 str r3,[r7,#36]
 1626 000c 0EE0     	 b .L107
 1627              	.L108:
 1628              	 .loc 1 252 0 is_stmt 0 discriminator 3
 1629 000e 7B6A     	 ldr r3,[r7,#36]
 1630 0010 9B00     	 lsls r3,r3,#2
 1631 0012 7A68     	 ldr r2,[r7,#4]
 1632 0014 1344     	 add r3,r3,r2
 1633 0016 1A68     	 ldr r2,[r3]
 1634 0018 7B6A     	 ldr r3,[r7,#36]
 1635 001a 9B00     	 lsls r3,r3,#2
 1636 001c 07F12801 	 add r1,r7,#40
 1637 0020 0B44     	 add r3,r3,r1
 1638 0022 43F81C2C 	 str r2,[r3,#-28]
 1639 0026 7B6A     	 ldr r3,[r7,#36]
 1640 0028 0133     	 adds r3,r3,#1
 1641 002a 7B62     	 str r3,[r7,#36]
 1642              	.L107:
 1643              	 .loc 1 252 0 discriminator 1
 1644 002c 7B6A     	 ldr r3,[r7,#36]
 1645 002e 022B     	 cmp r3,#2
 1646 0030 EDDD     	 ble .L108
 1647              	.LBE6:
 253:../cleanflight/src/main/common/maths.c **** 
 254:../cleanflight/src/main/common/maths.c ****     QMF_SORT(p[0], p[1]); QMF_SORT(p[1], p[2]); QMF_SORT(p[0], p[1]) ;
 1648              	 .loc 1 254 0 is_stmt 1
 1649 0032 FA68     	 ldr r2,[r7,#12]
 1650 0034 3B69     	 ldr r3,[r7,#16]
 1651 0036 9A42     	 cmp r2,r3
 1652 0038 05DD     	 ble .L109
 1653              	.LBB7:
 1654              	 .loc 1 254 0 is_stmt 0 discriminator 1
 1655 003a FB68     	 ldr r3,[r7,#12]
 1656 003c 3B62     	 str r3,[r7,#32]
 1657 003e 3B69     	 ldr r3,[r7,#16]
 1658 0040 FB60     	 str r3,[r7,#12]
 1659 0042 3B6A     	 ldr r3,[r7,#32]
 1660 0044 3B61     	 str r3,[r7,#16]
 1661              	.L109:
 1662              	.LBE7:
 1663              	 .loc 1 254 0 discriminator 3
 1664 0046 3A69     	 ldr r2,[r7,#16]
 1665 0048 7B69     	 ldr r3,[r7,#20]
 1666 004a 9A42     	 cmp r2,r3
 1667 004c 05DD     	 ble .L110
 1668              	.LBB8:
 1669              	 .loc 1 254 0 discriminator 4
 1670 004e 3B69     	 ldr r3,[r7,#16]
 1671 0050 FB61     	 str r3,[r7,#28]
 1672 0052 7B69     	 ldr r3,[r7,#20]
 1673 0054 3B61     	 str r3,[r7,#16]
 1674 0056 FB69     	 ldr r3,[r7,#28]
 1675 0058 7B61     	 str r3,[r7,#20]
 1676              	.L110:
 1677              	.LBE8:
 1678              	 .loc 1 254 0 discriminator 6
 1679 005a FA68     	 ldr r2,[r7,#12]
 1680 005c 3B69     	 ldr r3,[r7,#16]
 1681 005e 9A42     	 cmp r2,r3
 1682 0060 05DD     	 ble .L111
 1683              	.LBB9:
 1684              	 .loc 1 254 0 discriminator 7
 1685 0062 FB68     	 ldr r3,[r7,#12]
 1686 0064 BB61     	 str r3,[r7,#24]
 1687 0066 3B69     	 ldr r3,[r7,#16]
 1688 0068 FB60     	 str r3,[r7,#12]
 1689 006a BB69     	 ldr r3,[r7,#24]
 1690 006c 3B61     	 str r3,[r7,#16]
 1691              	.L111:
 1692              	.LBE9:
 255:../cleanflight/src/main/common/maths.c ****     return p[1];
 1693              	 .loc 1 255 0 is_stmt 1
 1694 006e 3B69     	 ldr r3,[r7,#16]
 256:../cleanflight/src/main/common/maths.c **** }
 1695              	 .loc 1 256 0
 1696 0070 1846     	 mov r0,r3
 1697 0072 2C37     	 adds r7,r7,#44
 1698              	.LCFI104:
 1699              	 .cfi_def_cfa_offset 4
 1700 0074 BD46     	 mov sp,r7
 1701              	.LCFI105:
 1702              	 .cfi_def_cfa_register 13
 1703              	 
 1704 0076 5DF8047B 	 ldr r7,[sp],#4
 1705              	.LCFI106:
 1706              	 .cfi_restore 7
 1707              	 .cfi_def_cfa_offset 0
 1708 007a 7047     	 bx lr
 1709              	 .cfi_endproc
 1710              	.LFE20:
 1712              	 .section .text.quickMedianFilter5,"ax",%progbits
 1713              	 .align 2
 1714              	 .global quickMedianFilter5
 1715              	 .thumb
 1716              	 .thumb_func
 1718              	quickMedianFilter5:
 1719              	.LFB21:
 257:../cleanflight/src/main/common/maths.c **** 
 258:../cleanflight/src/main/common/maths.c **** int32_t quickMedianFilter5(int32_t * v)
 259:../cleanflight/src/main/common/maths.c **** {
 1720              	 .loc 1 259 0
 1721              	 .cfi_startproc
 1722              	 
 1723              	 
 1724              	 
 1725 0000 80B4     	 push {r7}
 1726              	.LCFI107:
 1727              	 .cfi_def_cfa_offset 4
 1728              	 .cfi_offset 7,-4
 1729 0002 91B0     	 sub sp,sp,#68
 1730              	.LCFI108:
 1731              	 .cfi_def_cfa_offset 72
 1732 0004 00AF     	 add r7,sp,#0
 1733              	.LCFI109:
 1734              	 .cfi_def_cfa_register 7
 1735 0006 7860     	 str r0,[r7,#4]
 1736              	.LBB10:
 260:../cleanflight/src/main/common/maths.c ****     int32_t p[5];
 261:../cleanflight/src/main/common/maths.c ****     QMF_COPY(p, v, 5);
 1737              	 .loc 1 261 0
 1738 0008 0023     	 movs r3,#0
 1739 000a FB63     	 str r3,[r7,#60]
 1740 000c 0EE0     	 b .L114
 1741              	.L115:
 1742              	 .loc 1 261 0 is_stmt 0 discriminator 3
 1743 000e FB6B     	 ldr r3,[r7,#60]
 1744 0010 9B00     	 lsls r3,r3,#2
 1745 0012 7A68     	 ldr r2,[r7,#4]
 1746 0014 1344     	 add r3,r3,r2
 1747 0016 1A68     	 ldr r2,[r3]
 1748 0018 FB6B     	 ldr r3,[r7,#60]
 1749 001a 9B00     	 lsls r3,r3,#2
 1750 001c 07F14001 	 add r1,r7,#64
 1751 0020 0B44     	 add r3,r3,r1
 1752 0022 43F8342C 	 str r2,[r3,#-52]
 1753 0026 FB6B     	 ldr r3,[r7,#60]
 1754 0028 0133     	 adds r3,r3,#1
 1755 002a FB63     	 str r3,[r7,#60]
 1756              	.L114:
 1757              	 .loc 1 261 0 discriminator 1
 1758 002c FB6B     	 ldr r3,[r7,#60]
 1759 002e 042B     	 cmp r3,#4
 1760 0030 EDDD     	 ble .L115
 1761              	.LBE10:
 262:../cleanflight/src/main/common/maths.c **** 
 263:../cleanflight/src/main/common/maths.c ****     QMF_SORT(p[0], p[1]); QMF_SORT(p[3], p[4]); QMF_SORT(p[0], p[3]);
 1762              	 .loc 1 263 0 is_stmt 1
 1763 0032 FA68     	 ldr r2,[r7,#12]
 1764 0034 3B69     	 ldr r3,[r7,#16]
 1765 0036 9A42     	 cmp r2,r3
 1766 0038 05DD     	 ble .L116
 1767              	.LBB11:
 1768              	 .loc 1 263 0 is_stmt 0 discriminator 1
 1769 003a FB68     	 ldr r3,[r7,#12]
 1770 003c BB63     	 str r3,[r7,#56]
 1771 003e 3B69     	 ldr r3,[r7,#16]
 1772 0040 FB60     	 str r3,[r7,#12]
 1773 0042 BB6B     	 ldr r3,[r7,#56]
 1774 0044 3B61     	 str r3,[r7,#16]
 1775              	.L116:
 1776              	.LBE11:
 1777              	 .loc 1 263 0 discriminator 3
 1778 0046 BA69     	 ldr r2,[r7,#24]
 1779 0048 FB69     	 ldr r3,[r7,#28]
 1780 004a 9A42     	 cmp r2,r3
 1781 004c 05DD     	 ble .L117
 1782              	.LBB12:
 1783              	 .loc 1 263 0 discriminator 4
 1784 004e BB69     	 ldr r3,[r7,#24]
 1785 0050 7B63     	 str r3,[r7,#52]
 1786 0052 FB69     	 ldr r3,[r7,#28]
 1787 0054 BB61     	 str r3,[r7,#24]
 1788 0056 7B6B     	 ldr r3,[r7,#52]
 1789 0058 FB61     	 str r3,[r7,#28]
 1790              	.L117:
 1791              	.LBE12:
 1792              	 .loc 1 263 0 discriminator 6
 1793 005a FA68     	 ldr r2,[r7,#12]
 1794 005c BB69     	 ldr r3,[r7,#24]
 1795 005e 9A42     	 cmp r2,r3
 1796 0060 05DD     	 ble .L118
 1797              	.LBB13:
 1798              	 .loc 1 263 0 discriminator 7
 1799 0062 FB68     	 ldr r3,[r7,#12]
 1800 0064 3B63     	 str r3,[r7,#48]
 1801 0066 BB69     	 ldr r3,[r7,#24]
 1802 0068 FB60     	 str r3,[r7,#12]
 1803 006a 3B6B     	 ldr r3,[r7,#48]
 1804 006c BB61     	 str r3,[r7,#24]
 1805              	.L118:
 1806              	.LBE13:
 264:../cleanflight/src/main/common/maths.c ****     QMF_SORT(p[1], p[4]); QMF_SORT(p[1], p[2]); QMF_SORT(p[2], p[3]);
 1807              	 .loc 1 264 0 is_stmt 1
 1808 006e 3A69     	 ldr r2,[r7,#16]
 1809 0070 FB69     	 ldr r3,[r7,#28]
 1810 0072 9A42     	 cmp r2,r3
 1811 0074 05DD     	 ble .L119
 1812              	.LBB14:
 1813              	 .loc 1 264 0 is_stmt 0 discriminator 1
 1814 0076 3B69     	 ldr r3,[r7,#16]
 1815 0078 FB62     	 str r3,[r7,#44]
 1816 007a FB69     	 ldr r3,[r7,#28]
 1817 007c 3B61     	 str r3,[r7,#16]
 1818 007e FB6A     	 ldr r3,[r7,#44]
 1819 0080 FB61     	 str r3,[r7,#28]
 1820              	.L119:
 1821              	.LBE14:
 1822              	 .loc 1 264 0 discriminator 3
 1823 0082 3A69     	 ldr r2,[r7,#16]
 1824 0084 7B69     	 ldr r3,[r7,#20]
 1825 0086 9A42     	 cmp r2,r3
 1826 0088 05DD     	 ble .L120
 1827              	.LBB15:
 1828              	 .loc 1 264 0 discriminator 4
 1829 008a 3B69     	 ldr r3,[r7,#16]
 1830 008c BB62     	 str r3,[r7,#40]
 1831 008e 7B69     	 ldr r3,[r7,#20]
 1832 0090 3B61     	 str r3,[r7,#16]
 1833 0092 BB6A     	 ldr r3,[r7,#40]
 1834 0094 7B61     	 str r3,[r7,#20]
 1835              	.L120:
 1836              	.LBE15:
 1837              	 .loc 1 264 0 discriminator 6
 1838 0096 7A69     	 ldr r2,[r7,#20]
 1839 0098 BB69     	 ldr r3,[r7,#24]
 1840 009a 9A42     	 cmp r2,r3
 1841 009c 05DD     	 ble .L121
 1842              	.LBB16:
 1843              	 .loc 1 264 0 discriminator 7
 1844 009e 7B69     	 ldr r3,[r7,#20]
 1845 00a0 7B62     	 str r3,[r7,#36]
 1846 00a2 BB69     	 ldr r3,[r7,#24]
 1847 00a4 7B61     	 str r3,[r7,#20]
 1848 00a6 7B6A     	 ldr r3,[r7,#36]
 1849 00a8 BB61     	 str r3,[r7,#24]
 1850              	.L121:
 1851              	.LBE16:
 265:../cleanflight/src/main/common/maths.c ****     QMF_SORT(p[1], p[2]);
 1852              	 .loc 1 265 0 is_stmt 1
 1853 00aa 3A69     	 ldr r2,[r7,#16]
 1854 00ac 7B69     	 ldr r3,[r7,#20]
 1855 00ae 9A42     	 cmp r2,r3
 1856 00b0 05DD     	 ble .L122
 1857              	.LBB17:
 1858              	 .loc 1 265 0 is_stmt 0 discriminator 1
 1859 00b2 3B69     	 ldr r3,[r7,#16]
 1860 00b4 3B62     	 str r3,[r7,#32]
 1861 00b6 7B69     	 ldr r3,[r7,#20]
 1862 00b8 3B61     	 str r3,[r7,#16]
 1863 00ba 3B6A     	 ldr r3,[r7,#32]
 1864 00bc 7B61     	 str r3,[r7,#20]
 1865              	.L122:
 1866              	.LBE17:
 266:../cleanflight/src/main/common/maths.c ****     return p[2];
 1867              	 .loc 1 266 0 is_stmt 1
 1868 00be 7B69     	 ldr r3,[r7,#20]
 267:../cleanflight/src/main/common/maths.c **** }
 1869              	 .loc 1 267 0
 1870 00c0 1846     	 mov r0,r3
 1871 00c2 4437     	 adds r7,r7,#68
 1872              	.LCFI110:
 1873              	 .cfi_def_cfa_offset 4
 1874 00c4 BD46     	 mov sp,r7
 1875              	.LCFI111:
 1876              	 .cfi_def_cfa_register 13
 1877              	 
 1878 00c6 5DF8047B 	 ldr r7,[sp],#4
 1879              	.LCFI112:
 1880              	 .cfi_restore 7
 1881              	 .cfi_def_cfa_offset 0
 1882 00ca 7047     	 bx lr
 1883              	 .cfi_endproc
 1884              	.LFE21:
 1886              	 .section .text.quickMedianFilter7,"ax",%progbits
 1887              	 .align 2
 1888              	 .global quickMedianFilter7
 1889              	 .thumb
 1890              	 .thumb_func
 1892              	quickMedianFilter7:
 1893              	.LFB22:
 268:../cleanflight/src/main/common/maths.c **** 
 269:../cleanflight/src/main/common/maths.c **** int32_t quickMedianFilter7(int32_t * v)
 270:../cleanflight/src/main/common/maths.c **** {
 1894              	 .loc 1 270 0
 1895              	 .cfi_startproc
 1896              	 
 1897              	 
 1898              	 
 1899 0000 80B4     	 push {r7}
 1900              	.LCFI113:
 1901              	 .cfi_def_cfa_offset 4
 1902              	 .cfi_offset 7,-4
 1903 0002 99B0     	 sub sp,sp,#100
 1904              	.LCFI114:
 1905              	 .cfi_def_cfa_offset 104
 1906 0004 00AF     	 add r7,sp,#0
 1907              	.LCFI115:
 1908              	 .cfi_def_cfa_register 7
 1909 0006 7860     	 str r0,[r7,#4]
 1910              	.LBB18:
 271:../cleanflight/src/main/common/maths.c ****     int32_t p[7];
 272:../cleanflight/src/main/common/maths.c ****     QMF_COPY(p, v, 7);
 1911              	 .loc 1 272 0
 1912 0008 0023     	 movs r3,#0
 1913 000a FB65     	 str r3,[r7,#92]
 1914 000c 0EE0     	 b .L125
 1915              	.L126:
 1916              	 .loc 1 272 0 is_stmt 0 discriminator 3
 1917 000e FB6D     	 ldr r3,[r7,#92]
 1918 0010 9B00     	 lsls r3,r3,#2
 1919 0012 7A68     	 ldr r2,[r7,#4]
 1920 0014 1344     	 add r3,r3,r2
 1921 0016 1A68     	 ldr r2,[r3]
 1922 0018 FB6D     	 ldr r3,[r7,#92]
 1923 001a 9B00     	 lsls r3,r3,#2
 1924 001c 07F16001 	 add r1,r7,#96
 1925 0020 0B44     	 add r3,r3,r1
 1926 0022 43F8542C 	 str r2,[r3,#-84]
 1927 0026 FB6D     	 ldr r3,[r7,#92]
 1928 0028 0133     	 adds r3,r3,#1
 1929 002a FB65     	 str r3,[r7,#92]
 1930              	.L125:
 1931              	 .loc 1 272 0 discriminator 1
 1932 002c FB6D     	 ldr r3,[r7,#92]
 1933 002e 062B     	 cmp r3,#6
 1934 0030 EDDD     	 ble .L126
 1935              	.LBE18:
 273:../cleanflight/src/main/common/maths.c **** 
 274:../cleanflight/src/main/common/maths.c ****     QMF_SORT(p[0], p[5]); QMF_SORT(p[0], p[3]); QMF_SORT(p[1], p[6]);
 1936              	 .loc 1 274 0 is_stmt 1
 1937 0032 FA68     	 ldr r2,[r7,#12]
 1938 0034 3B6A     	 ldr r3,[r7,#32]
 1939 0036 9A42     	 cmp r2,r3
 1940 0038 05DD     	 ble .L127
 1941              	.LBB19:
 1942              	 .loc 1 274 0 is_stmt 0 discriminator 1
 1943 003a FB68     	 ldr r3,[r7,#12]
 1944 003c BB65     	 str r3,[r7,#88]
 1945 003e 3B6A     	 ldr r3,[r7,#32]
 1946 0040 FB60     	 str r3,[r7,#12]
 1947 0042 BB6D     	 ldr r3,[r7,#88]
 1948 0044 3B62     	 str r3,[r7,#32]
 1949              	.L127:
 1950              	.LBE19:
 1951              	 .loc 1 274 0 discriminator 3
 1952 0046 FA68     	 ldr r2,[r7,#12]
 1953 0048 BB69     	 ldr r3,[r7,#24]
 1954 004a 9A42     	 cmp r2,r3
 1955 004c 05DD     	 ble .L128
 1956              	.LBB20:
 1957              	 .loc 1 274 0 discriminator 4
 1958 004e FB68     	 ldr r3,[r7,#12]
 1959 0050 7B65     	 str r3,[r7,#84]
 1960 0052 BB69     	 ldr r3,[r7,#24]
 1961 0054 FB60     	 str r3,[r7,#12]
 1962 0056 7B6D     	 ldr r3,[r7,#84]
 1963 0058 BB61     	 str r3,[r7,#24]
 1964              	.L128:
 1965              	.LBE20:
 1966              	 .loc 1 274 0 discriminator 6
 1967 005a 3A69     	 ldr r2,[r7,#16]
 1968 005c 7B6A     	 ldr r3,[r7,#36]
 1969 005e 9A42     	 cmp r2,r3
 1970 0060 05DD     	 ble .L129
 1971              	.LBB21:
 1972              	 .loc 1 274 0 discriminator 7
 1973 0062 3B69     	 ldr r3,[r7,#16]
 1974 0064 3B65     	 str r3,[r7,#80]
 1975 0066 7B6A     	 ldr r3,[r7,#36]
 1976 0068 3B61     	 str r3,[r7,#16]
 1977 006a 3B6D     	 ldr r3,[r7,#80]
 1978 006c 7B62     	 str r3,[r7,#36]
 1979              	.L129:
 1980              	.LBE21:
 275:../cleanflight/src/main/common/maths.c ****     QMF_SORT(p[2], p[4]); QMF_SORT(p[0], p[1]); QMF_SORT(p[3], p[5]);
 1981              	 .loc 1 275 0 is_stmt 1
 1982 006e 7A69     	 ldr r2,[r7,#20]
 1983 0070 FB69     	 ldr r3,[r7,#28]
 1984 0072 9A42     	 cmp r2,r3
 1985 0074 05DD     	 ble .L130
 1986              	.LBB22:
 1987              	 .loc 1 275 0 is_stmt 0 discriminator 1
 1988 0076 7B69     	 ldr r3,[r7,#20]
 1989 0078 FB64     	 str r3,[r7,#76]
 1990 007a FB69     	 ldr r3,[r7,#28]
 1991 007c 7B61     	 str r3,[r7,#20]
 1992 007e FB6C     	 ldr r3,[r7,#76]
 1993 0080 FB61     	 str r3,[r7,#28]
 1994              	.L130:
 1995              	.LBE22:
 1996              	 .loc 1 275 0 discriminator 3
 1997 0082 FA68     	 ldr r2,[r7,#12]
 1998 0084 3B69     	 ldr r3,[r7,#16]
 1999 0086 9A42     	 cmp r2,r3
 2000 0088 05DD     	 ble .L131
 2001              	.LBB23:
 2002              	 .loc 1 275 0 discriminator 4
 2003 008a FB68     	 ldr r3,[r7,#12]
 2004 008c BB64     	 str r3,[r7,#72]
 2005 008e 3B69     	 ldr r3,[r7,#16]
 2006 0090 FB60     	 str r3,[r7,#12]
 2007 0092 BB6C     	 ldr r3,[r7,#72]
 2008 0094 3B61     	 str r3,[r7,#16]
 2009              	.L131:
 2010              	.LBE23:
 2011              	 .loc 1 275 0 discriminator 6
 2012 0096 BA69     	 ldr r2,[r7,#24]
 2013 0098 3B6A     	 ldr r3,[r7,#32]
 2014 009a 9A42     	 cmp r2,r3
 2015 009c 05DD     	 ble .L132
 2016              	.LBB24:
 2017              	 .loc 1 275 0 discriminator 7
 2018 009e BB69     	 ldr r3,[r7,#24]
 2019 00a0 7B64     	 str r3,[r7,#68]
 2020 00a2 3B6A     	 ldr r3,[r7,#32]
 2021 00a4 BB61     	 str r3,[r7,#24]
 2022 00a6 7B6C     	 ldr r3,[r7,#68]
 2023 00a8 3B62     	 str r3,[r7,#32]
 2024              	.L132:
 2025              	.LBE24:
 276:../cleanflight/src/main/common/maths.c ****     QMF_SORT(p[2], p[6]); QMF_SORT(p[2], p[3]); QMF_SORT(p[3], p[6]);
 2026              	 .loc 1 276 0 is_stmt 1
 2027 00aa 7A69     	 ldr r2,[r7,#20]
 2028 00ac 7B6A     	 ldr r3,[r7,#36]
 2029 00ae 9A42     	 cmp r2,r3
 2030 00b0 05DD     	 ble .L133
 2031              	.LBB25:
 2032              	 .loc 1 276 0 is_stmt 0 discriminator 1
 2033 00b2 7B69     	 ldr r3,[r7,#20]
 2034 00b4 3B64     	 str r3,[r7,#64]
 2035 00b6 7B6A     	 ldr r3,[r7,#36]
 2036 00b8 7B61     	 str r3,[r7,#20]
 2037 00ba 3B6C     	 ldr r3,[r7,#64]
 2038 00bc 7B62     	 str r3,[r7,#36]
 2039              	.L133:
 2040              	.LBE25:
 2041              	 .loc 1 276 0 discriminator 3
 2042 00be 7A69     	 ldr r2,[r7,#20]
 2043 00c0 BB69     	 ldr r3,[r7,#24]
 2044 00c2 9A42     	 cmp r2,r3
 2045 00c4 05DD     	 ble .L134
 2046              	.LBB26:
 2047              	 .loc 1 276 0 discriminator 4
 2048 00c6 7B69     	 ldr r3,[r7,#20]
 2049 00c8 FB63     	 str r3,[r7,#60]
 2050 00ca BB69     	 ldr r3,[r7,#24]
 2051 00cc 7B61     	 str r3,[r7,#20]
 2052 00ce FB6B     	 ldr r3,[r7,#60]
 2053 00d0 BB61     	 str r3,[r7,#24]
 2054              	.L134:
 2055              	.LBE26:
 2056              	 .loc 1 276 0 discriminator 6
 2057 00d2 BA69     	 ldr r2,[r7,#24]
 2058 00d4 7B6A     	 ldr r3,[r7,#36]
 2059 00d6 9A42     	 cmp r2,r3
 2060 00d8 05DD     	 ble .L135
 2061              	.LBB27:
 2062              	 .loc 1 276 0 discriminator 7
 2063 00da BB69     	 ldr r3,[r7,#24]
 2064 00dc BB63     	 str r3,[r7,#56]
 2065 00de 7B6A     	 ldr r3,[r7,#36]
 2066 00e0 BB61     	 str r3,[r7,#24]
 2067 00e2 BB6B     	 ldr r3,[r7,#56]
 2068 00e4 7B62     	 str r3,[r7,#36]
 2069              	.L135:
 2070              	.LBE27:
 277:../cleanflight/src/main/common/maths.c ****     QMF_SORT(p[4], p[5]); QMF_SORT(p[1], p[4]); QMF_SORT(p[1], p[3]);
 2071              	 .loc 1 277 0 is_stmt 1
 2072 00e6 FA69     	 ldr r2,[r7,#28]
 2073 00e8 3B6A     	 ldr r3,[r7,#32]
 2074 00ea 9A42     	 cmp r2,r3
 2075 00ec 05DD     	 ble .L136
 2076              	.LBB28:
 2077              	 .loc 1 277 0 is_stmt 0 discriminator 1
 2078 00ee FB69     	 ldr r3,[r7,#28]
 2079 00f0 7B63     	 str r3,[r7,#52]
 2080 00f2 3B6A     	 ldr r3,[r7,#32]
 2081 00f4 FB61     	 str r3,[r7,#28]
 2082 00f6 7B6B     	 ldr r3,[r7,#52]
 2083 00f8 3B62     	 str r3,[r7,#32]
 2084              	.L136:
 2085              	.LBE28:
 2086              	 .loc 1 277 0 discriminator 3
 2087 00fa 3A69     	 ldr r2,[r7,#16]
 2088 00fc FB69     	 ldr r3,[r7,#28]
 2089 00fe 9A42     	 cmp r2,r3
 2090 0100 05DD     	 ble .L137
 2091              	.LBB29:
 2092              	 .loc 1 277 0 discriminator 4
 2093 0102 3B69     	 ldr r3,[r7,#16]
 2094 0104 3B63     	 str r3,[r7,#48]
 2095 0106 FB69     	 ldr r3,[r7,#28]
 2096 0108 3B61     	 str r3,[r7,#16]
 2097 010a 3B6B     	 ldr r3,[r7,#48]
 2098 010c FB61     	 str r3,[r7,#28]
 2099              	.L137:
 2100              	.LBE29:
 2101              	 .loc 1 277 0 discriminator 6
 2102 010e 3A69     	 ldr r2,[r7,#16]
 2103 0110 BB69     	 ldr r3,[r7,#24]
 2104 0112 9A42     	 cmp r2,r3
 2105 0114 05DD     	 ble .L138
 2106              	.LBB30:
 2107              	 .loc 1 277 0 discriminator 7
 2108 0116 3B69     	 ldr r3,[r7,#16]
 2109 0118 FB62     	 str r3,[r7,#44]
 2110 011a BB69     	 ldr r3,[r7,#24]
 2111 011c 3B61     	 str r3,[r7,#16]
 2112 011e FB6A     	 ldr r3,[r7,#44]
 2113 0120 BB61     	 str r3,[r7,#24]
 2114              	.L138:
 2115              	.LBE30:
 278:../cleanflight/src/main/common/maths.c ****     QMF_SORT(p[3], p[4]);
 2116              	 .loc 1 278 0 is_stmt 1
 2117 0122 BA69     	 ldr r2,[r7,#24]
 2118 0124 FB69     	 ldr r3,[r7,#28]
 2119 0126 9A42     	 cmp r2,r3
 2120 0128 05DD     	 ble .L139
 2121              	.LBB31:
 2122              	 .loc 1 278 0 is_stmt 0 discriminator 1
 2123 012a BB69     	 ldr r3,[r7,#24]
 2124 012c BB62     	 str r3,[r7,#40]
 2125 012e FB69     	 ldr r3,[r7,#28]
 2126 0130 BB61     	 str r3,[r7,#24]
 2127 0132 BB6A     	 ldr r3,[r7,#40]
 2128 0134 FB61     	 str r3,[r7,#28]
 2129              	.L139:
 2130              	.LBE31:
 279:../cleanflight/src/main/common/maths.c ****     return p[3];
 2131              	 .loc 1 279 0 is_stmt 1
 2132 0136 BB69     	 ldr r3,[r7,#24]
 280:../cleanflight/src/main/common/maths.c **** }
 2133              	 .loc 1 280 0
 2134 0138 1846     	 mov r0,r3
 2135 013a 6437     	 adds r7,r7,#100
 2136              	.LCFI116:
 2137              	 .cfi_def_cfa_offset 4
 2138 013c BD46     	 mov sp,r7
 2139              	.LCFI117:
 2140              	 .cfi_def_cfa_register 13
 2141              	 
 2142 013e 5DF8047B 	 ldr r7,[sp],#4
 2143              	.LCFI118:
 2144              	 .cfi_restore 7
 2145              	 .cfi_def_cfa_offset 0
 2146 0142 7047     	 bx lr
 2147              	 .cfi_endproc
 2148              	.LFE22:
 2150              	 .section .text.quickMedianFilter9,"ax",%progbits
 2151              	 .align 2
 2152              	 .global quickMedianFilter9
 2153              	 .thumb
 2154              	 .thumb_func
 2156              	quickMedianFilter9:
 2157              	.LFB23:
 281:../cleanflight/src/main/common/maths.c **** 
 282:../cleanflight/src/main/common/maths.c **** int32_t quickMedianFilter9(int32_t * v)
 283:../cleanflight/src/main/common/maths.c **** {
 2158              	 .loc 1 283 0
 2159              	 .cfi_startproc
 2160              	 
 2161              	 
 2162              	 
 2163 0000 80B4     	 push {r7}
 2164              	.LCFI119:
 2165              	 .cfi_def_cfa_offset 4
 2166              	 .cfi_offset 7,-4
 2167 0002 A1B0     	 sub sp,sp,#132
 2168              	.LCFI120:
 2169              	 .cfi_def_cfa_offset 136
 2170 0004 00AF     	 add r7,sp,#0
 2171              	.LCFI121:
 2172              	 .cfi_def_cfa_register 7
 2173 0006 7860     	 str r0,[r7,#4]
 2174              	.LBB32:
 284:../cleanflight/src/main/common/maths.c ****     int32_t p[9];
 285:../cleanflight/src/main/common/maths.c ****     QMF_COPY(p, v, 9);
 2175              	 .loc 1 285 0
 2176 0008 0023     	 movs r3,#0
 2177 000a FB67     	 str r3,[r7,#124]
 2178 000c 0EE0     	 b .L142
 2179              	.L143:
 2180              	 .loc 1 285 0 is_stmt 0 discriminator 3
 2181 000e FB6F     	 ldr r3,[r7,#124]
 2182 0010 9B00     	 lsls r3,r3,#2
 2183 0012 7A68     	 ldr r2,[r7,#4]
 2184 0014 1344     	 add r3,r3,r2
 2185 0016 1A68     	 ldr r2,[r3]
 2186 0018 FB6F     	 ldr r3,[r7,#124]
 2187 001a 9B00     	 lsls r3,r3,#2
 2188 001c 07F18001 	 add r1,r7,#128
 2189 0020 0B44     	 add r3,r3,r1
 2190 0022 43F8742C 	 str r2,[r3,#-116]
 2191 0026 FB6F     	 ldr r3,[r7,#124]
 2192 0028 0133     	 adds r3,r3,#1
 2193 002a FB67     	 str r3,[r7,#124]
 2194              	.L142:
 2195              	 .loc 1 285 0 discriminator 1
 2196 002c FB6F     	 ldr r3,[r7,#124]
 2197 002e 082B     	 cmp r3,#8
 2198 0030 EDDD     	 ble .L143
 2199              	.LBE32:
 286:../cleanflight/src/main/common/maths.c **** 
 287:../cleanflight/src/main/common/maths.c ****     QMF_SORT(p[1], p[2]); QMF_SORT(p[4], p[5]); QMF_SORT(p[7], p[8]);
 2200              	 .loc 1 287 0 is_stmt 1
 2201 0032 3A69     	 ldr r2,[r7,#16]
 2202 0034 7B69     	 ldr r3,[r7,#20]
 2203 0036 9A42     	 cmp r2,r3
 2204 0038 05DD     	 ble .L144
 2205              	.LBB33:
 2206              	 .loc 1 287 0 is_stmt 0 discriminator 1
 2207 003a 3B69     	 ldr r3,[r7,#16]
 2208 003c BB67     	 str r3,[r7,#120]
 2209 003e 7B69     	 ldr r3,[r7,#20]
 2210 0040 3B61     	 str r3,[r7,#16]
 2211 0042 BB6F     	 ldr r3,[r7,#120]
 2212 0044 7B61     	 str r3,[r7,#20]
 2213              	.L144:
 2214              	.LBE33:
 2215              	 .loc 1 287 0 discriminator 3
 2216 0046 FA69     	 ldr r2,[r7,#28]
 2217 0048 3B6A     	 ldr r3,[r7,#32]
 2218 004a 9A42     	 cmp r2,r3
 2219 004c 05DD     	 ble .L145
 2220              	.LBB34:
 2221              	 .loc 1 287 0 discriminator 4
 2222 004e FB69     	 ldr r3,[r7,#28]
 2223 0050 7B67     	 str r3,[r7,#116]
 2224 0052 3B6A     	 ldr r3,[r7,#32]
 2225 0054 FB61     	 str r3,[r7,#28]
 2226 0056 7B6F     	 ldr r3,[r7,#116]
 2227 0058 3B62     	 str r3,[r7,#32]
 2228              	.L145:
 2229              	.LBE34:
 2230              	 .loc 1 287 0 discriminator 6
 2231 005a BA6A     	 ldr r2,[r7,#40]
 2232 005c FB6A     	 ldr r3,[r7,#44]
 2233 005e 9A42     	 cmp r2,r3
 2234 0060 05DD     	 ble .L146
 2235              	.LBB35:
 2236              	 .loc 1 287 0 discriminator 7
 2237 0062 BB6A     	 ldr r3,[r7,#40]
 2238 0064 3B67     	 str r3,[r7,#112]
 2239 0066 FB6A     	 ldr r3,[r7,#44]
 2240 0068 BB62     	 str r3,[r7,#40]
 2241 006a 3B6F     	 ldr r3,[r7,#112]
 2242 006c FB62     	 str r3,[r7,#44]
 2243              	.L146:
 2244              	.LBE35:
 288:../cleanflight/src/main/common/maths.c ****     QMF_SORT(p[0], p[1]); QMF_SORT(p[3], p[4]); QMF_SORT(p[6], p[7]);
 2245              	 .loc 1 288 0 is_stmt 1
 2246 006e FA68     	 ldr r2,[r7,#12]
 2247 0070 3B69     	 ldr r3,[r7,#16]
 2248 0072 9A42     	 cmp r2,r3
 2249 0074 05DD     	 ble .L147
 2250              	.LBB36:
 2251              	 .loc 1 288 0 is_stmt 0 discriminator 1
 2252 0076 FB68     	 ldr r3,[r7,#12]
 2253 0078 FB66     	 str r3,[r7,#108]
 2254 007a 3B69     	 ldr r3,[r7,#16]
 2255 007c FB60     	 str r3,[r7,#12]
 2256 007e FB6E     	 ldr r3,[r7,#108]
 2257 0080 3B61     	 str r3,[r7,#16]
 2258              	.L147:
 2259              	.LBE36:
 2260              	 .loc 1 288 0 discriminator 3
 2261 0082 BA69     	 ldr r2,[r7,#24]
 2262 0084 FB69     	 ldr r3,[r7,#28]
 2263 0086 9A42     	 cmp r2,r3
 2264 0088 05DD     	 ble .L148
 2265              	.LBB37:
 2266              	 .loc 1 288 0 discriminator 4
 2267 008a BB69     	 ldr r3,[r7,#24]
 2268 008c BB66     	 str r3,[r7,#104]
 2269 008e FB69     	 ldr r3,[r7,#28]
 2270 0090 BB61     	 str r3,[r7,#24]
 2271 0092 BB6E     	 ldr r3,[r7,#104]
 2272 0094 FB61     	 str r3,[r7,#28]
 2273              	.L148:
 2274              	.LBE37:
 2275              	 .loc 1 288 0 discriminator 6
 2276 0096 7A6A     	 ldr r2,[r7,#36]
 2277 0098 BB6A     	 ldr r3,[r7,#40]
 2278 009a 9A42     	 cmp r2,r3
 2279 009c 05DD     	 ble .L149
 2280              	.LBB38:
 2281              	 .loc 1 288 0 discriminator 7
 2282 009e 7B6A     	 ldr r3,[r7,#36]
 2283 00a0 7B66     	 str r3,[r7,#100]
 2284 00a2 BB6A     	 ldr r3,[r7,#40]
 2285 00a4 7B62     	 str r3,[r7,#36]
 2286 00a6 7B6E     	 ldr r3,[r7,#100]
 2287 00a8 BB62     	 str r3,[r7,#40]
 2288              	.L149:
 2289              	.LBE38:
 289:../cleanflight/src/main/common/maths.c ****     QMF_SORT(p[1], p[2]); QMF_SORT(p[4], p[5]); QMF_SORT(p[7], p[8]);
 2290              	 .loc 1 289 0 is_stmt 1
 2291 00aa 3A69     	 ldr r2,[r7,#16]
 2292 00ac 7B69     	 ldr r3,[r7,#20]
 2293 00ae 9A42     	 cmp r2,r3
 2294 00b0 05DD     	 ble .L150
 2295              	.LBB39:
 2296              	 .loc 1 289 0 is_stmt 0 discriminator 1
 2297 00b2 3B69     	 ldr r3,[r7,#16]
 2298 00b4 3B66     	 str r3,[r7,#96]
 2299 00b6 7B69     	 ldr r3,[r7,#20]
 2300 00b8 3B61     	 str r3,[r7,#16]
 2301 00ba 3B6E     	 ldr r3,[r7,#96]
 2302 00bc 7B61     	 str r3,[r7,#20]
 2303              	.L150:
 2304              	.LBE39:
 2305              	 .loc 1 289 0 discriminator 3
 2306 00be FA69     	 ldr r2,[r7,#28]
 2307 00c0 3B6A     	 ldr r3,[r7,#32]
 2308 00c2 9A42     	 cmp r2,r3
 2309 00c4 05DD     	 ble .L151
 2310              	.LBB40:
 2311              	 .loc 1 289 0 discriminator 4
 2312 00c6 FB69     	 ldr r3,[r7,#28]
 2313 00c8 FB65     	 str r3,[r7,#92]
 2314 00ca 3B6A     	 ldr r3,[r7,#32]
 2315 00cc FB61     	 str r3,[r7,#28]
 2316 00ce FB6D     	 ldr r3,[r7,#92]
 2317 00d0 3B62     	 str r3,[r7,#32]
 2318              	.L151:
 2319              	.LBE40:
 2320              	 .loc 1 289 0 discriminator 6
 2321 00d2 BA6A     	 ldr r2,[r7,#40]
 2322 00d4 FB6A     	 ldr r3,[r7,#44]
 2323 00d6 9A42     	 cmp r2,r3
 2324 00d8 05DD     	 ble .L152
 2325              	.LBB41:
 2326              	 .loc 1 289 0 discriminator 7
 2327 00da BB6A     	 ldr r3,[r7,#40]
 2328 00dc BB65     	 str r3,[r7,#88]
 2329 00de FB6A     	 ldr r3,[r7,#44]
 2330 00e0 BB62     	 str r3,[r7,#40]
 2331 00e2 BB6D     	 ldr r3,[r7,#88]
 2332 00e4 FB62     	 str r3,[r7,#44]
 2333              	.L152:
 2334              	.LBE41:
 290:../cleanflight/src/main/common/maths.c ****     QMF_SORT(p[0], p[3]); QMF_SORT(p[5], p[8]); QMF_SORT(p[4], p[7]);
 2335              	 .loc 1 290 0 is_stmt 1
 2336 00e6 FA68     	 ldr r2,[r7,#12]
 2337 00e8 BB69     	 ldr r3,[r7,#24]
 2338 00ea 9A42     	 cmp r2,r3
 2339 00ec 05DD     	 ble .L153
 2340              	.LBB42:
 2341              	 .loc 1 290 0 is_stmt 0 discriminator 1
 2342 00ee FB68     	 ldr r3,[r7,#12]
 2343 00f0 7B65     	 str r3,[r7,#84]
 2344 00f2 BB69     	 ldr r3,[r7,#24]
 2345 00f4 FB60     	 str r3,[r7,#12]
 2346 00f6 7B6D     	 ldr r3,[r7,#84]
 2347 00f8 BB61     	 str r3,[r7,#24]
 2348              	.L153:
 2349              	.LBE42:
 2350              	 .loc 1 290 0 discriminator 3
 2351 00fa 3A6A     	 ldr r2,[r7,#32]
 2352 00fc FB6A     	 ldr r3,[r7,#44]
 2353 00fe 9A42     	 cmp r2,r3
 2354 0100 05DD     	 ble .L154
 2355              	.LBB43:
 2356              	 .loc 1 290 0 discriminator 4
 2357 0102 3B6A     	 ldr r3,[r7,#32]
 2358 0104 3B65     	 str r3,[r7,#80]
 2359 0106 FB6A     	 ldr r3,[r7,#44]
 2360 0108 3B62     	 str r3,[r7,#32]
 2361 010a 3B6D     	 ldr r3,[r7,#80]
 2362 010c FB62     	 str r3,[r7,#44]
 2363              	.L154:
 2364              	.LBE43:
 2365              	 .loc 1 290 0 discriminator 6
 2366 010e FA69     	 ldr r2,[r7,#28]
 2367 0110 BB6A     	 ldr r3,[r7,#40]
 2368 0112 9A42     	 cmp r2,r3
 2369 0114 05DD     	 ble .L155
 2370              	.LBB44:
 2371              	 .loc 1 290 0 discriminator 7
 2372 0116 FB69     	 ldr r3,[r7,#28]
 2373 0118 FB64     	 str r3,[r7,#76]
 2374 011a BB6A     	 ldr r3,[r7,#40]
 2375 011c FB61     	 str r3,[r7,#28]
 2376 011e FB6C     	 ldr r3,[r7,#76]
 2377 0120 BB62     	 str r3,[r7,#40]
 2378              	.L155:
 2379              	.LBE44:
 291:../cleanflight/src/main/common/maths.c ****     QMF_SORT(p[3], p[6]); QMF_SORT(p[1], p[4]); QMF_SORT(p[2], p[5]);
 2380              	 .loc 1 291 0 is_stmt 1
 2381 0122 BA69     	 ldr r2,[r7,#24]
 2382 0124 7B6A     	 ldr r3,[r7,#36]
 2383 0126 9A42     	 cmp r2,r3
 2384 0128 05DD     	 ble .L156
 2385              	.LBB45:
 2386              	 .loc 1 291 0 is_stmt 0 discriminator 1
 2387 012a BB69     	 ldr r3,[r7,#24]
 2388 012c BB64     	 str r3,[r7,#72]
 2389 012e 7B6A     	 ldr r3,[r7,#36]
 2390 0130 BB61     	 str r3,[r7,#24]
 2391 0132 BB6C     	 ldr r3,[r7,#72]
 2392 0134 7B62     	 str r3,[r7,#36]
 2393              	.L156:
 2394              	.LBE45:
 2395              	 .loc 1 291 0 discriminator 3
 2396 0136 3A69     	 ldr r2,[r7,#16]
 2397 0138 FB69     	 ldr r3,[r7,#28]
 2398 013a 9A42     	 cmp r2,r3
 2399 013c 05DD     	 ble .L157
 2400              	.LBB46:
 2401              	 .loc 1 291 0 discriminator 4
 2402 013e 3B69     	 ldr r3,[r7,#16]
 2403 0140 7B64     	 str r3,[r7,#68]
 2404 0142 FB69     	 ldr r3,[r7,#28]
 2405 0144 3B61     	 str r3,[r7,#16]
 2406 0146 7B6C     	 ldr r3,[r7,#68]
 2407 0148 FB61     	 str r3,[r7,#28]
 2408              	.L157:
 2409              	.LBE46:
 2410              	 .loc 1 291 0 discriminator 6
 2411 014a 7A69     	 ldr r2,[r7,#20]
 2412 014c 3B6A     	 ldr r3,[r7,#32]
 2413 014e 9A42     	 cmp r2,r3
 2414 0150 05DD     	 ble .L158
 2415              	.LBB47:
 2416              	 .loc 1 291 0 discriminator 7
 2417 0152 7B69     	 ldr r3,[r7,#20]
 2418 0154 3B64     	 str r3,[r7,#64]
 2419 0156 3B6A     	 ldr r3,[r7,#32]
 2420 0158 7B61     	 str r3,[r7,#20]
 2421 015a 3B6C     	 ldr r3,[r7,#64]
 2422 015c 3B62     	 str r3,[r7,#32]
 2423              	.L158:
 2424              	.LBE47:
 292:../cleanflight/src/main/common/maths.c ****     QMF_SORT(p[4], p[7]); QMF_SORT(p[4], p[2]); QMF_SORT(p[6], p[4]);
 2425              	 .loc 1 292 0 is_stmt 1
 2426 015e FA69     	 ldr r2,[r7,#28]
 2427 0160 BB6A     	 ldr r3,[r7,#40]
 2428 0162 9A42     	 cmp r2,r3
 2429 0164 05DD     	 ble .L159
 2430              	.LBB48:
 2431              	 .loc 1 292 0 is_stmt 0 discriminator 1
 2432 0166 FB69     	 ldr r3,[r7,#28]
 2433 0168 FB63     	 str r3,[r7,#60]
 2434 016a BB6A     	 ldr r3,[r7,#40]
 2435 016c FB61     	 str r3,[r7,#28]
 2436 016e FB6B     	 ldr r3,[r7,#60]
 2437 0170 BB62     	 str r3,[r7,#40]
 2438              	.L159:
 2439              	.LBE48:
 2440              	 .loc 1 292 0 discriminator 3
 2441 0172 FA69     	 ldr r2,[r7,#28]
 2442 0174 7B69     	 ldr r3,[r7,#20]
 2443 0176 9A42     	 cmp r2,r3
 2444 0178 05DD     	 ble .L160
 2445              	.LBB49:
 2446              	 .loc 1 292 0 discriminator 4
 2447 017a FB69     	 ldr r3,[r7,#28]
 2448 017c BB63     	 str r3,[r7,#56]
 2449 017e 7B69     	 ldr r3,[r7,#20]
 2450 0180 FB61     	 str r3,[r7,#28]
 2451 0182 BB6B     	 ldr r3,[r7,#56]
 2452 0184 7B61     	 str r3,[r7,#20]
 2453              	.L160:
 2454              	.LBE49:
 2455              	 .loc 1 292 0 discriminator 6
 2456 0186 7A6A     	 ldr r2,[r7,#36]
 2457 0188 FB69     	 ldr r3,[r7,#28]
 2458 018a 9A42     	 cmp r2,r3
 2459 018c 05DD     	 ble .L161
 2460              	.LBB50:
 2461              	 .loc 1 292 0 discriminator 7
 2462 018e 7B6A     	 ldr r3,[r7,#36]
 2463 0190 7B63     	 str r3,[r7,#52]
 2464 0192 FB69     	 ldr r3,[r7,#28]
 2465 0194 7B62     	 str r3,[r7,#36]
 2466 0196 7B6B     	 ldr r3,[r7,#52]
 2467 0198 FB61     	 str r3,[r7,#28]
 2468              	.L161:
 2469              	.LBE50:
 293:../cleanflight/src/main/common/maths.c ****     QMF_SORT(p[4], p[2]);
 2470              	 .loc 1 293 0 is_stmt 1
 2471 019a FA69     	 ldr r2,[r7,#28]
 2472 019c 7B69     	 ldr r3,[r7,#20]
 2473 019e 9A42     	 cmp r2,r3
 2474 01a0 05DD     	 ble .L162
 2475              	.LBB51:
 2476              	 .loc 1 293 0 is_stmt 0 discriminator 1
 2477 01a2 FB69     	 ldr r3,[r7,#28]
 2478 01a4 3B63     	 str r3,[r7,#48]
 2479 01a6 7B69     	 ldr r3,[r7,#20]
 2480 01a8 FB61     	 str r3,[r7,#28]
 2481 01aa 3B6B     	 ldr r3,[r7,#48]
 2482 01ac 7B61     	 str r3,[r7,#20]
 2483              	.L162:
 2484              	.LBE51:
 294:../cleanflight/src/main/common/maths.c ****     return p[4];
 2485              	 .loc 1 294 0 is_stmt 1
 2486 01ae FB69     	 ldr r3,[r7,#28]
 295:../cleanflight/src/main/common/maths.c **** }
 2487              	 .loc 1 295 0
 2488 01b0 1846     	 mov r0,r3
 2489 01b2 8437     	 adds r7,r7,#132
 2490              	.LCFI122:
 2491              	 .cfi_def_cfa_offset 4
 2492 01b4 BD46     	 mov sp,r7
 2493              	.LCFI123:
 2494              	 .cfi_def_cfa_register 13
 2495              	 
 2496 01b6 5DF8047B 	 ldr r7,[sp],#4
 2497              	.LCFI124:
 2498              	 .cfi_restore 7
 2499              	 .cfi_def_cfa_offset 0
 2500 01ba 7047     	 bx lr
 2501              	 .cfi_endproc
 2502              	.LFE23:
 2504              	 .section .text.quickMedianFilter3f,"ax",%progbits
 2505              	 .align 2
 2506              	 .global quickMedianFilter3f
 2507              	 .thumb
 2508              	 .thumb_func
 2510              	quickMedianFilter3f:
 2511              	.LFB24:
 296:../cleanflight/src/main/common/maths.c **** 
 297:../cleanflight/src/main/common/maths.c **** float quickMedianFilter3f(float * v)
 298:../cleanflight/src/main/common/maths.c **** {
 2512              	 .loc 1 298 0
 2513              	 .cfi_startproc
 2514              	 
 2515              	 
 2516              	 
 2517 0000 80B4     	 push {r7}
 2518              	.LCFI125:
 2519              	 .cfi_def_cfa_offset 4
 2520              	 .cfi_offset 7,-4
 2521 0002 8BB0     	 sub sp,sp,#44
 2522              	.LCFI126:
 2523              	 .cfi_def_cfa_offset 48
 2524 0004 00AF     	 add r7,sp,#0
 2525              	.LCFI127:
 2526              	 .cfi_def_cfa_register 7
 2527 0006 7860     	 str r0,[r7,#4]
 2528              	.LBB52:
 299:../cleanflight/src/main/common/maths.c ****     float p[3];
 300:../cleanflight/src/main/common/maths.c ****     QMF_COPY(p, v, 3);
 2529              	 .loc 1 300 0
 2530 0008 0023     	 movs r3,#0
 2531 000a 7B62     	 str r3,[r7,#36]
 2532 000c 0EE0     	 b .L165
 2533              	.L166:
 2534              	 .loc 1 300 0 is_stmt 0 discriminator 3
 2535 000e 7B6A     	 ldr r3,[r7,#36]
 2536 0010 9B00     	 lsls r3,r3,#2
 2537 0012 7A68     	 ldr r2,[r7,#4]
 2538 0014 1344     	 add r3,r3,r2
 2539 0016 1A68     	 ldr r2,[r3]
 2540 0018 7B6A     	 ldr r3,[r7,#36]
 2541 001a 9B00     	 lsls r3,r3,#2
 2542 001c 07F12801 	 add r1,r7,#40
 2543 0020 0B44     	 add r3,r3,r1
 2544 0022 1C3B     	 subs r3,r3,#28
 2545 0024 1A60     	 str r2,[r3]
 2546 0026 7B6A     	 ldr r3,[r7,#36]
 2547 0028 0133     	 adds r3,r3,#1
 2548 002a 7B62     	 str r3,[r7,#36]
 2549              	.L165:
 2550              	 .loc 1 300 0 discriminator 1
 2551 002c 7B6A     	 ldr r3,[r7,#36]
 2552 002e 022B     	 cmp r3,#2
 2553 0030 EDDD     	 ble .L166
 2554              	.LBE52:
 301:../cleanflight/src/main/common/maths.c **** 
 302:../cleanflight/src/main/common/maths.c ****     QMF_SORTF(p[0], p[1]); QMF_SORTF(p[1], p[2]); QMF_SORTF(p[0], p[1]) ;
 2555              	 .loc 1 302 0 is_stmt 1
 2556 0032 97ED037A 	 flds s14,[r7,#12]
 2557 0036 D7ED047A 	 flds s15,[r7,#16]
 2558 003a B4EEE77A 	 fcmpes s14,s15
 2559 003e F1EE10FA 	 fmstat
 2560 0042 05DD     	 ble .L167
 2561              	.LBB53:
 2562              	 .loc 1 302 0 is_stmt 0 discriminator 1
 2563 0044 FB68     	 ldr r3,[r7,#12]
 2564 0046 3B62     	 str r3,[r7,#32]
 2565 0048 3B69     	 ldr r3,[r7,#16]
 2566 004a FB60     	 str r3,[r7,#12]
 2567 004c 3B6A     	 ldr r3,[r7,#32]
 2568 004e 3B61     	 str r3,[r7,#16]
 2569              	.L167:
 2570              	.LBE53:
 2571              	 .loc 1 302 0 discriminator 3
 2572 0050 97ED047A 	 flds s14,[r7,#16]
 2573 0054 D7ED057A 	 flds s15,[r7,#20]
 2574 0058 B4EEE77A 	 fcmpes s14,s15
 2575 005c F1EE10FA 	 fmstat
 2576 0060 05DD     	 ble .L169
 2577              	.LBB54:
 2578              	 .loc 1 302 0 discriminator 4
 2579 0062 3B69     	 ldr r3,[r7,#16]
 2580 0064 FB61     	 str r3,[r7,#28]
 2581 0066 7B69     	 ldr r3,[r7,#20]
 2582 0068 3B61     	 str r3,[r7,#16]
 2583 006a FB69     	 ldr r3,[r7,#28]
 2584 006c 7B61     	 str r3,[r7,#20]
 2585              	.L169:
 2586              	.LBE54:
 2587              	 .loc 1 302 0 discriminator 6
 2588 006e 97ED037A 	 flds s14,[r7,#12]
 2589 0072 D7ED047A 	 flds s15,[r7,#16]
 2590 0076 B4EEE77A 	 fcmpes s14,s15
 2591 007a F1EE10FA 	 fmstat
 2592 007e 05DD     	 ble .L171
 2593              	.LBB55:
 2594              	 .loc 1 302 0 discriminator 7
 2595 0080 FB68     	 ldr r3,[r7,#12]
 2596 0082 BB61     	 str r3,[r7,#24]
 2597 0084 3B69     	 ldr r3,[r7,#16]
 2598 0086 FB60     	 str r3,[r7,#12]
 2599 0088 BB69     	 ldr r3,[r7,#24]
 2600 008a 3B61     	 str r3,[r7,#16]
 2601              	.L171:
 2602              	.LBE55:
 303:../cleanflight/src/main/common/maths.c ****     return p[1];
 2603              	 .loc 1 303 0 is_stmt 1
 2604 008c 3B69     	 ldr r3,[r7,#16]
 304:../cleanflight/src/main/common/maths.c **** }
 2605              	 .loc 1 304 0
 2606 008e 1846     	 mov r0,r3
 2607 0090 2C37     	 adds r7,r7,#44
 2608              	.LCFI128:
 2609              	 .cfi_def_cfa_offset 4
 2610 0092 BD46     	 mov sp,r7
 2611              	.LCFI129:
 2612              	 .cfi_def_cfa_register 13
 2613              	 
 2614 0094 5DF8047B 	 ldr r7,[sp],#4
 2615              	.LCFI130:
 2616              	 .cfi_restore 7
 2617              	 .cfi_def_cfa_offset 0
 2618 0098 7047     	 bx lr
 2619              	 .cfi_endproc
 2620              	.LFE24:
 2622 009a 00BF     	 .section .text.quickMedianFilter5f,"ax",%progbits
 2623              	 .align 2
 2624              	 .global quickMedianFilter5f
 2625              	 .thumb
 2626              	 .thumb_func
 2628              	quickMedianFilter5f:
 2629              	.LFB25:
 305:../cleanflight/src/main/common/maths.c **** 
 306:../cleanflight/src/main/common/maths.c **** float quickMedianFilter5f(float * v)
 307:../cleanflight/src/main/common/maths.c **** {
 2630              	 .loc 1 307 0
 2631              	 .cfi_startproc
 2632              	 
 2633              	 
 2634              	 
 2635 0000 80B4     	 push {r7}
 2636              	.LCFI131:
 2637              	 .cfi_def_cfa_offset 4
 2638              	 .cfi_offset 7,-4
 2639 0002 91B0     	 sub sp,sp,#68
 2640              	.LCFI132:
 2641              	 .cfi_def_cfa_offset 72
 2642 0004 00AF     	 add r7,sp,#0
 2643              	.LCFI133:
 2644              	 .cfi_def_cfa_register 7
 2645 0006 7860     	 str r0,[r7,#4]
 2646              	.LBB56:
 308:../cleanflight/src/main/common/maths.c ****     float p[5];
 309:../cleanflight/src/main/common/maths.c ****     QMF_COPY(p, v, 5);
 2647              	 .loc 1 309 0
 2648 0008 0023     	 movs r3,#0
 2649 000a FB63     	 str r3,[r7,#60]
 2650 000c 0EE0     	 b .L178
 2651              	.L179:
 2652              	 .loc 1 309 0 is_stmt 0 discriminator 3
 2653 000e FB6B     	 ldr r3,[r7,#60]
 2654 0010 9B00     	 lsls r3,r3,#2
 2655 0012 7A68     	 ldr r2,[r7,#4]
 2656 0014 1344     	 add r3,r3,r2
 2657 0016 1A68     	 ldr r2,[r3]
 2658 0018 FB6B     	 ldr r3,[r7,#60]
 2659 001a 9B00     	 lsls r3,r3,#2
 2660 001c 07F14001 	 add r1,r7,#64
 2661 0020 0B44     	 add r3,r3,r1
 2662 0022 343B     	 subs r3,r3,#52
 2663 0024 1A60     	 str r2,[r3]
 2664 0026 FB6B     	 ldr r3,[r7,#60]
 2665 0028 0133     	 adds r3,r3,#1
 2666 002a FB63     	 str r3,[r7,#60]
 2667              	.L178:
 2668              	 .loc 1 309 0 discriminator 1
 2669 002c FB6B     	 ldr r3,[r7,#60]
 2670 002e 042B     	 cmp r3,#4
 2671 0030 EDDD     	 ble .L179
 2672              	.LBE56:
 310:../cleanflight/src/main/common/maths.c **** 
 311:../cleanflight/src/main/common/maths.c ****     QMF_SORTF(p[0], p[1]); QMF_SORTF(p[3], p[4]); QMF_SORTF(p[0], p[3]);
 2673              	 .loc 1 311 0 is_stmt 1
 2674 0032 97ED037A 	 flds s14,[r7,#12]
 2675 0036 D7ED047A 	 flds s15,[r7,#16]
 2676 003a B4EEE77A 	 fcmpes s14,s15
 2677 003e F1EE10FA 	 fmstat
 2678 0042 05DD     	 ble .L180
 2679              	.LBB57:
 2680              	 .loc 1 311 0 is_stmt 0 discriminator 1
 2681 0044 FB68     	 ldr r3,[r7,#12]
 2682 0046 BB63     	 str r3,[r7,#56]
 2683 0048 3B69     	 ldr r3,[r7,#16]
 2684 004a FB60     	 str r3,[r7,#12]
 2685 004c BB6B     	 ldr r3,[r7,#56]
 2686 004e 3B61     	 str r3,[r7,#16]
 2687              	.L180:
 2688              	.LBE57:
 2689              	 .loc 1 311 0 discriminator 3
 2690 0050 97ED067A 	 flds s14,[r7,#24]
 2691 0054 D7ED077A 	 flds s15,[r7,#28]
 2692 0058 B4EEE77A 	 fcmpes s14,s15
 2693 005c F1EE10FA 	 fmstat
 2694 0060 05DD     	 ble .L182
 2695              	.LBB58:
 2696              	 .loc 1 311 0 discriminator 4
 2697 0062 BB69     	 ldr r3,[r7,#24]
 2698 0064 7B63     	 str r3,[r7,#52]
 2699 0066 FB69     	 ldr r3,[r7,#28]
 2700 0068 BB61     	 str r3,[r7,#24]
 2701 006a 7B6B     	 ldr r3,[r7,#52]
 2702 006c FB61     	 str r3,[r7,#28]
 2703              	.L182:
 2704              	.LBE58:
 2705              	 .loc 1 311 0 discriminator 6
 2706 006e 97ED037A 	 flds s14,[r7,#12]
 2707 0072 D7ED067A 	 flds s15,[r7,#24]
 2708 0076 B4EEE77A 	 fcmpes s14,s15
 2709 007a F1EE10FA 	 fmstat
 2710 007e 05DD     	 ble .L184
 2711              	.LBB59:
 2712              	 .loc 1 311 0 discriminator 7
 2713 0080 FB68     	 ldr r3,[r7,#12]
 2714 0082 3B63     	 str r3,[r7,#48]
 2715 0084 BB69     	 ldr r3,[r7,#24]
 2716 0086 FB60     	 str r3,[r7,#12]
 2717 0088 3B6B     	 ldr r3,[r7,#48]
 2718 008a BB61     	 str r3,[r7,#24]
 2719              	.L184:
 2720              	.LBE59:
 312:../cleanflight/src/main/common/maths.c ****     QMF_SORTF(p[1], p[4]); QMF_SORTF(p[1], p[2]); QMF_SORTF(p[2], p[3]);
 2721              	 .loc 1 312 0 is_stmt 1
 2722 008c 97ED047A 	 flds s14,[r7,#16]
 2723 0090 D7ED077A 	 flds s15,[r7,#28]
 2724 0094 B4EEE77A 	 fcmpes s14,s15
 2725 0098 F1EE10FA 	 fmstat
 2726 009c 05DD     	 ble .L186
 2727              	.LBB60:
 2728              	 .loc 1 312 0 is_stmt 0 discriminator 1
 2729 009e 3B69     	 ldr r3,[r7,#16]
 2730 00a0 FB62     	 str r3,[r7,#44]
 2731 00a2 FB69     	 ldr r3,[r7,#28]
 2732 00a4 3B61     	 str r3,[r7,#16]
 2733 00a6 FB6A     	 ldr r3,[r7,#44]
 2734 00a8 FB61     	 str r3,[r7,#28]
 2735              	.L186:
 2736              	.LBE60:
 2737              	 .loc 1 312 0 discriminator 3
 2738 00aa 97ED047A 	 flds s14,[r7,#16]
 2739 00ae D7ED057A 	 flds s15,[r7,#20]
 2740 00b2 B4EEE77A 	 fcmpes s14,s15
 2741 00b6 F1EE10FA 	 fmstat
 2742 00ba 05DD     	 ble .L188
 2743              	.LBB61:
 2744              	 .loc 1 312 0 discriminator 4
 2745 00bc 3B69     	 ldr r3,[r7,#16]
 2746 00be BB62     	 str r3,[r7,#40]
 2747 00c0 7B69     	 ldr r3,[r7,#20]
 2748 00c2 3B61     	 str r3,[r7,#16]
 2749 00c4 BB6A     	 ldr r3,[r7,#40]
 2750 00c6 7B61     	 str r3,[r7,#20]
 2751              	.L188:
 2752              	.LBE61:
 2753              	 .loc 1 312 0 discriminator 6
 2754 00c8 97ED057A 	 flds s14,[r7,#20]
 2755 00cc D7ED067A 	 flds s15,[r7,#24]
 2756 00d0 B4EEE77A 	 fcmpes s14,s15
 2757 00d4 F1EE10FA 	 fmstat
 2758 00d8 05DD     	 ble .L190
 2759              	.LBB62:
 2760              	 .loc 1 312 0 discriminator 7
 2761 00da 7B69     	 ldr r3,[r7,#20]
 2762 00dc 7B62     	 str r3,[r7,#36]
 2763 00de BB69     	 ldr r3,[r7,#24]
 2764 00e0 7B61     	 str r3,[r7,#20]
 2765 00e2 7B6A     	 ldr r3,[r7,#36]
 2766 00e4 BB61     	 str r3,[r7,#24]
 2767              	.L190:
 2768              	.LBE62:
 313:../cleanflight/src/main/common/maths.c ****     QMF_SORTF(p[1], p[2]);
 2769              	 .loc 1 313 0 is_stmt 1
 2770 00e6 97ED047A 	 flds s14,[r7,#16]
 2771 00ea D7ED057A 	 flds s15,[r7,#20]
 2772 00ee B4EEE77A 	 fcmpes s14,s15
 2773 00f2 F1EE10FA 	 fmstat
 2774 00f6 05DD     	 ble .L192
 2775              	.LBB63:
 2776              	 .loc 1 313 0 is_stmt 0 discriminator 1
 2777 00f8 3B69     	 ldr r3,[r7,#16]
 2778 00fa 3B62     	 str r3,[r7,#32]
 2779 00fc 7B69     	 ldr r3,[r7,#20]
 2780 00fe 3B61     	 str r3,[r7,#16]
 2781 0100 3B6A     	 ldr r3,[r7,#32]
 2782 0102 7B61     	 str r3,[r7,#20]
 2783              	.L192:
 2784              	.LBE63:
 314:../cleanflight/src/main/common/maths.c ****     return p[2];
 2785              	 .loc 1 314 0 is_stmt 1
 2786 0104 7B69     	 ldr r3,[r7,#20]
 315:../cleanflight/src/main/common/maths.c **** }
 2787              	 .loc 1 315 0
 2788 0106 1846     	 mov r0,r3
 2789 0108 4437     	 adds r7,r7,#68
 2790              	.LCFI134:
 2791              	 .cfi_def_cfa_offset 4
 2792 010a BD46     	 mov sp,r7
 2793              	.LCFI135:
 2794              	 .cfi_def_cfa_register 13
 2795              	 
 2796 010c 5DF8047B 	 ldr r7,[sp],#4
 2797              	.LCFI136:
 2798              	 .cfi_restore 7
 2799              	 .cfi_def_cfa_offset 0
 2800 0110 7047     	 bx lr
 2801              	 .cfi_endproc
 2802              	.LFE25:
 2804 0112 00BF     	 .section .text.quickMedianFilter7f,"ax",%progbits
 2805              	 .align 2
 2806              	 .global quickMedianFilter7f
 2807              	 .thumb
 2808              	 .thumb_func
 2810              	quickMedianFilter7f:
 2811              	.LFB26:
 316:../cleanflight/src/main/common/maths.c **** 
 317:../cleanflight/src/main/common/maths.c **** float quickMedianFilter7f(float * v)
 318:../cleanflight/src/main/common/maths.c **** {
 2812              	 .loc 1 318 0
 2813              	 .cfi_startproc
 2814              	 
 2815              	 
 2816              	 
 2817 0000 80B4     	 push {r7}
 2818              	.LCFI137:
 2819              	 .cfi_def_cfa_offset 4
 2820              	 .cfi_offset 7,-4
 2821 0002 99B0     	 sub sp,sp,#100
 2822              	.LCFI138:
 2823              	 .cfi_def_cfa_offset 104
 2824 0004 00AF     	 add r7,sp,#0
 2825              	.LCFI139:
 2826              	 .cfi_def_cfa_register 7
 2827 0006 7860     	 str r0,[r7,#4]
 2828              	.LBB64:
 319:../cleanflight/src/main/common/maths.c ****     float p[7];
 320:../cleanflight/src/main/common/maths.c ****     QMF_COPY(p, v, 7);
 2829              	 .loc 1 320 0
 2830 0008 0023     	 movs r3,#0
 2831 000a FB65     	 str r3,[r7,#92]
 2832 000c 0EE0     	 b .L203
 2833              	.L204:
 2834              	 .loc 1 320 0 is_stmt 0 discriminator 3
 2835 000e FB6D     	 ldr r3,[r7,#92]
 2836 0010 9B00     	 lsls r3,r3,#2
 2837 0012 7A68     	 ldr r2,[r7,#4]
 2838 0014 1344     	 add r3,r3,r2
 2839 0016 1A68     	 ldr r2,[r3]
 2840 0018 FB6D     	 ldr r3,[r7,#92]
 2841 001a 9B00     	 lsls r3,r3,#2
 2842 001c 07F16001 	 add r1,r7,#96
 2843 0020 0B44     	 add r3,r3,r1
 2844 0022 543B     	 subs r3,r3,#84
 2845 0024 1A60     	 str r2,[r3]
 2846 0026 FB6D     	 ldr r3,[r7,#92]
 2847 0028 0133     	 adds r3,r3,#1
 2848 002a FB65     	 str r3,[r7,#92]
 2849              	.L203:
 2850              	 .loc 1 320 0 discriminator 1
 2851 002c FB6D     	 ldr r3,[r7,#92]
 2852 002e 062B     	 cmp r3,#6
 2853 0030 EDDD     	 ble .L204
 2854              	.LBE64:
 321:../cleanflight/src/main/common/maths.c **** 
 322:../cleanflight/src/main/common/maths.c ****     QMF_SORTF(p[0], p[5]); QMF_SORTF(p[0], p[3]); QMF_SORTF(p[1], p[6]);
 2855              	 .loc 1 322 0 is_stmt 1
 2856 0032 97ED037A 	 flds s14,[r7,#12]
 2857 0036 D7ED087A 	 flds s15,[r7,#32]
 2858 003a B4EEE77A 	 fcmpes s14,s15
 2859 003e F1EE10FA 	 fmstat
 2860 0042 05DD     	 ble .L205
 2861              	.LBB65:
 2862              	 .loc 1 322 0 is_stmt 0 discriminator 1
 2863 0044 FB68     	 ldr r3,[r7,#12]
 2864 0046 BB65     	 str r3,[r7,#88]
 2865 0048 3B6A     	 ldr r3,[r7,#32]
 2866 004a FB60     	 str r3,[r7,#12]
 2867 004c BB6D     	 ldr r3,[r7,#88]
 2868 004e 3B62     	 str r3,[r7,#32]
 2869              	.L205:
 2870              	.LBE65:
 2871              	 .loc 1 322 0 discriminator 3
 2872 0050 97ED037A 	 flds s14,[r7,#12]
 2873 0054 D7ED067A 	 flds s15,[r7,#24]
 2874 0058 B4EEE77A 	 fcmpes s14,s15
 2875 005c F1EE10FA 	 fmstat
 2876 0060 05DD     	 ble .L207
 2877              	.LBB66:
 2878              	 .loc 1 322 0 discriminator 4
 2879 0062 FB68     	 ldr r3,[r7,#12]
 2880 0064 7B65     	 str r3,[r7,#84]
 2881 0066 BB69     	 ldr r3,[r7,#24]
 2882 0068 FB60     	 str r3,[r7,#12]
 2883 006a 7B6D     	 ldr r3,[r7,#84]
 2884 006c BB61     	 str r3,[r7,#24]
 2885              	.L207:
 2886              	.LBE66:
 2887              	 .loc 1 322 0 discriminator 6
 2888 006e 97ED047A 	 flds s14,[r7,#16]
 2889 0072 D7ED097A 	 flds s15,[r7,#36]
 2890 0076 B4EEE77A 	 fcmpes s14,s15
 2891 007a F1EE10FA 	 fmstat
 2892 007e 05DD     	 ble .L209
 2893              	.LBB67:
 2894              	 .loc 1 322 0 discriminator 7
 2895 0080 3B69     	 ldr r3,[r7,#16]
 2896 0082 3B65     	 str r3,[r7,#80]
 2897 0084 7B6A     	 ldr r3,[r7,#36]
 2898 0086 3B61     	 str r3,[r7,#16]
 2899 0088 3B6D     	 ldr r3,[r7,#80]
 2900 008a 7B62     	 str r3,[r7,#36]
 2901              	.L209:
 2902              	.LBE67:
 323:../cleanflight/src/main/common/maths.c ****     QMF_SORTF(p[2], p[4]); QMF_SORTF(p[0], p[1]); QMF_SORTF(p[3], p[5]);
 2903              	 .loc 1 323 0 is_stmt 1
 2904 008c 97ED057A 	 flds s14,[r7,#20]
 2905 0090 D7ED077A 	 flds s15,[r7,#28]
 2906 0094 B4EEE77A 	 fcmpes s14,s15
 2907 0098 F1EE10FA 	 fmstat
 2908 009c 05DD     	 ble .L211
 2909              	.LBB68:
 2910              	 .loc 1 323 0 is_stmt 0 discriminator 1
 2911 009e 7B69     	 ldr r3,[r7,#20]
 2912 00a0 FB64     	 str r3,[r7,#76]
 2913 00a2 FB69     	 ldr r3,[r7,#28]
 2914 00a4 7B61     	 str r3,[r7,#20]
 2915 00a6 FB6C     	 ldr r3,[r7,#76]
 2916 00a8 FB61     	 str r3,[r7,#28]
 2917              	.L211:
 2918              	.LBE68:
 2919              	 .loc 1 323 0 discriminator 3
 2920 00aa 97ED037A 	 flds s14,[r7,#12]
 2921 00ae D7ED047A 	 flds s15,[r7,#16]
 2922 00b2 B4EEE77A 	 fcmpes s14,s15
 2923 00b6 F1EE10FA 	 fmstat
 2924 00ba 05DD     	 ble .L213
 2925              	.LBB69:
 2926              	 .loc 1 323 0 discriminator 4
 2927 00bc FB68     	 ldr r3,[r7,#12]
 2928 00be BB64     	 str r3,[r7,#72]
 2929 00c0 3B69     	 ldr r3,[r7,#16]
 2930 00c2 FB60     	 str r3,[r7,#12]
 2931 00c4 BB6C     	 ldr r3,[r7,#72]
 2932 00c6 3B61     	 str r3,[r7,#16]
 2933              	.L213:
 2934              	.LBE69:
 2935              	 .loc 1 323 0 discriminator 6
 2936 00c8 97ED067A 	 flds s14,[r7,#24]
 2937 00cc D7ED087A 	 flds s15,[r7,#32]
 2938 00d0 B4EEE77A 	 fcmpes s14,s15
 2939 00d4 F1EE10FA 	 fmstat
 2940 00d8 05DD     	 ble .L215
 2941              	.LBB70:
 2942              	 .loc 1 323 0 discriminator 7
 2943 00da BB69     	 ldr r3,[r7,#24]
 2944 00dc 7B64     	 str r3,[r7,#68]
 2945 00de 3B6A     	 ldr r3,[r7,#32]
 2946 00e0 BB61     	 str r3,[r7,#24]
 2947 00e2 7B6C     	 ldr r3,[r7,#68]
 2948 00e4 3B62     	 str r3,[r7,#32]
 2949              	.L215:
 2950              	.LBE70:
 324:../cleanflight/src/main/common/maths.c ****     QMF_SORTF(p[2], p[6]); QMF_SORTF(p[2], p[3]); QMF_SORTF(p[3], p[6]);
 2951              	 .loc 1 324 0 is_stmt 1
 2952 00e6 97ED057A 	 flds s14,[r7,#20]
 2953 00ea D7ED097A 	 flds s15,[r7,#36]
 2954 00ee B4EEE77A 	 fcmpes s14,s15
 2955 00f2 F1EE10FA 	 fmstat
 2956 00f6 05DD     	 ble .L217
 2957              	.LBB71:
 2958              	 .loc 1 324 0 is_stmt 0 discriminator 1
 2959 00f8 7B69     	 ldr r3,[r7,#20]
 2960 00fa 3B64     	 str r3,[r7,#64]
 2961 00fc 7B6A     	 ldr r3,[r7,#36]
 2962 00fe 7B61     	 str r3,[r7,#20]
 2963 0100 3B6C     	 ldr r3,[r7,#64]
 2964 0102 7B62     	 str r3,[r7,#36]
 2965              	.L217:
 2966              	.LBE71:
 2967              	 .loc 1 324 0 discriminator 3
 2968 0104 97ED057A 	 flds s14,[r7,#20]
 2969 0108 D7ED067A 	 flds s15,[r7,#24]
 2970 010c B4EEE77A 	 fcmpes s14,s15
 2971 0110 F1EE10FA 	 fmstat
 2972 0114 05DD     	 ble .L219
 2973              	.LBB72:
 2974              	 .loc 1 324 0 discriminator 4
 2975 0116 7B69     	 ldr r3,[r7,#20]
 2976 0118 FB63     	 str r3,[r7,#60]
 2977 011a BB69     	 ldr r3,[r7,#24]
 2978 011c 7B61     	 str r3,[r7,#20]
 2979 011e FB6B     	 ldr r3,[r7,#60]
 2980 0120 BB61     	 str r3,[r7,#24]
 2981              	.L219:
 2982              	.LBE72:
 2983              	 .loc 1 324 0 discriminator 6
 2984 0122 97ED067A 	 flds s14,[r7,#24]
 2985 0126 D7ED097A 	 flds s15,[r7,#36]
 2986 012a B4EEE77A 	 fcmpes s14,s15
 2987 012e F1EE10FA 	 fmstat
 2988 0132 05DD     	 ble .L221
 2989              	.LBB73:
 2990              	 .loc 1 324 0 discriminator 7
 2991 0134 BB69     	 ldr r3,[r7,#24]
 2992 0136 BB63     	 str r3,[r7,#56]
 2993 0138 7B6A     	 ldr r3,[r7,#36]
 2994 013a BB61     	 str r3,[r7,#24]
 2995 013c BB6B     	 ldr r3,[r7,#56]
 2996 013e 7B62     	 str r3,[r7,#36]
 2997              	.L221:
 2998              	.LBE73:
 325:../cleanflight/src/main/common/maths.c ****     QMF_SORTF(p[4], p[5]); QMF_SORTF(p[1], p[4]); QMF_SORTF(p[1], p[3]);
 2999              	 .loc 1 325 0 is_stmt 1
 3000 0140 97ED077A 	 flds s14,[r7,#28]
 3001 0144 D7ED087A 	 flds s15,[r7,#32]
 3002 0148 B4EEE77A 	 fcmpes s14,s15
 3003 014c F1EE10FA 	 fmstat
 3004 0150 05DD     	 ble .L223
 3005              	.LBB74:
 3006              	 .loc 1 325 0 is_stmt 0 discriminator 1
 3007 0152 FB69     	 ldr r3,[r7,#28]
 3008 0154 7B63     	 str r3,[r7,#52]
 3009 0156 3B6A     	 ldr r3,[r7,#32]
 3010 0158 FB61     	 str r3,[r7,#28]
 3011 015a 7B6B     	 ldr r3,[r7,#52]
 3012 015c 3B62     	 str r3,[r7,#32]
 3013              	.L223:
 3014              	.LBE74:
 3015              	 .loc 1 325 0 discriminator 3
 3016 015e 97ED047A 	 flds s14,[r7,#16]
 3017 0162 D7ED077A 	 flds s15,[r7,#28]
 3018 0166 B4EEE77A 	 fcmpes s14,s15
 3019 016a F1EE10FA 	 fmstat
 3020 016e 05DD     	 ble .L225
 3021              	.LBB75:
 3022              	 .loc 1 325 0 discriminator 4
 3023 0170 3B69     	 ldr r3,[r7,#16]
 3024 0172 3B63     	 str r3,[r7,#48]
 3025 0174 FB69     	 ldr r3,[r7,#28]
 3026 0176 3B61     	 str r3,[r7,#16]
 3027 0178 3B6B     	 ldr r3,[r7,#48]
 3028 017a FB61     	 str r3,[r7,#28]
 3029              	.L225:
 3030              	.LBE75:
 3031              	 .loc 1 325 0 discriminator 6
 3032 017c 97ED047A 	 flds s14,[r7,#16]
 3033 0180 D7ED067A 	 flds s15,[r7,#24]
 3034 0184 B4EEE77A 	 fcmpes s14,s15
 3035 0188 F1EE10FA 	 fmstat
 3036 018c 05DD     	 ble .L227
 3037              	.LBB76:
 3038              	 .loc 1 325 0 discriminator 7
 3039 018e 3B69     	 ldr r3,[r7,#16]
 3040 0190 FB62     	 str r3,[r7,#44]
 3041 0192 BB69     	 ldr r3,[r7,#24]
 3042 0194 3B61     	 str r3,[r7,#16]
 3043 0196 FB6A     	 ldr r3,[r7,#44]
 3044 0198 BB61     	 str r3,[r7,#24]
 3045              	.L227:
 3046              	.LBE76:
 326:../cleanflight/src/main/common/maths.c ****     QMF_SORTF(p[3], p[4]);
 3047              	 .loc 1 326 0 is_stmt 1
 3048 019a 97ED067A 	 flds s14,[r7,#24]
 3049 019e D7ED077A 	 flds s15,[r7,#28]
 3050 01a2 B4EEE77A 	 fcmpes s14,s15
 3051 01a6 F1EE10FA 	 fmstat
 3052 01aa 05DD     	 ble .L229
 3053              	.LBB77:
 3054              	 .loc 1 326 0 is_stmt 0 discriminator 1
 3055 01ac BB69     	 ldr r3,[r7,#24]
 3056 01ae BB62     	 str r3,[r7,#40]
 3057 01b0 FB69     	 ldr r3,[r7,#28]
 3058 01b2 BB61     	 str r3,[r7,#24]
 3059 01b4 BB6A     	 ldr r3,[r7,#40]
 3060 01b6 FB61     	 str r3,[r7,#28]
 3061              	.L229:
 3062              	.LBE77:
 327:../cleanflight/src/main/common/maths.c ****     return p[3];
 3063              	 .loc 1 327 0 is_stmt 1
 3064 01b8 BB69     	 ldr r3,[r7,#24]
 328:../cleanflight/src/main/common/maths.c **** }
 3065              	 .loc 1 328 0
 3066 01ba 1846     	 mov r0,r3
 3067 01bc 6437     	 adds r7,r7,#100
 3068              	.LCFI140:
 3069              	 .cfi_def_cfa_offset 4
 3070 01be BD46     	 mov sp,r7
 3071              	.LCFI141:
 3072              	 .cfi_def_cfa_register 13
 3073              	 
 3074 01c0 5DF8047B 	 ldr r7,[sp],#4
 3075              	.LCFI142:
 3076              	 .cfi_restore 7
 3077              	 .cfi_def_cfa_offset 0
 3078 01c4 7047     	 bx lr
 3079              	 .cfi_endproc
 3080              	.LFE26:
 3082 01c6 00BF     	 .section .text.quickMedianFilter9f,"ax",%progbits
 3083              	 .align 2
 3084              	 .global quickMedianFilter9f
 3085              	 .thumb
 3086              	 .thumb_func
 3088              	quickMedianFilter9f:
 3089              	.LFB27:
 329:../cleanflight/src/main/common/maths.c **** 
 330:../cleanflight/src/main/common/maths.c **** float quickMedianFilter9f(float * v)
 331:../cleanflight/src/main/common/maths.c **** {
 3090              	 .loc 1 331 0
 3091              	 .cfi_startproc
 3092              	 
 3093              	 
 3094              	 
 3095 0000 80B4     	 push {r7}
 3096              	.LCFI143:
 3097              	 .cfi_def_cfa_offset 4
 3098              	 .cfi_offset 7,-4
 3099 0002 A1B0     	 sub sp,sp,#132
 3100              	.LCFI144:
 3101              	 .cfi_def_cfa_offset 136
 3102 0004 00AF     	 add r7,sp,#0
 3103              	.LCFI145:
 3104              	 .cfi_def_cfa_register 7
 3105 0006 7860     	 str r0,[r7,#4]
 3106              	.LBB78:
 332:../cleanflight/src/main/common/maths.c ****     float p[9];
 333:../cleanflight/src/main/common/maths.c ****     QMF_COPY(p, v, 9);
 3107              	 .loc 1 333 0
 3108 0008 0023     	 movs r3,#0
 3109 000a FB67     	 str r3,[r7,#124]
 3110 000c 0EE0     	 b .L246
 3111              	.L247:
 3112              	 .loc 1 333 0 is_stmt 0 discriminator 3
 3113 000e FB6F     	 ldr r3,[r7,#124]
 3114 0010 9B00     	 lsls r3,r3,#2
 3115 0012 7A68     	 ldr r2,[r7,#4]
 3116 0014 1344     	 add r3,r3,r2
 3117 0016 1A68     	 ldr r2,[r3]
 3118 0018 FB6F     	 ldr r3,[r7,#124]
 3119 001a 9B00     	 lsls r3,r3,#2
 3120 001c 07F18001 	 add r1,r7,#128
 3121 0020 0B44     	 add r3,r3,r1
 3122 0022 743B     	 subs r3,r3,#116
 3123 0024 1A60     	 str r2,[r3]
 3124 0026 FB6F     	 ldr r3,[r7,#124]
 3125 0028 0133     	 adds r3,r3,#1
 3126 002a FB67     	 str r3,[r7,#124]
 3127              	.L246:
 3128              	 .loc 1 333 0 discriminator 1
 3129 002c FB6F     	 ldr r3,[r7,#124]
 3130 002e 082B     	 cmp r3,#8
 3131 0030 EDDD     	 ble .L247
 3132              	.LBE78:
 334:../cleanflight/src/main/common/maths.c **** 
 335:../cleanflight/src/main/common/maths.c ****     QMF_SORTF(p[1], p[2]); QMF_SORTF(p[4], p[5]); QMF_SORTF(p[7], p[8]);
 3133              	 .loc 1 335 0 is_stmt 1
 3134 0032 97ED047A 	 flds s14,[r7,#16]
 3135 0036 D7ED057A 	 flds s15,[r7,#20]
 3136 003a B4EEE77A 	 fcmpes s14,s15
 3137 003e F1EE10FA 	 fmstat
 3138 0042 05DD     	 ble .L248
 3139              	.LBB79:
 3140              	 .loc 1 335 0 is_stmt 0 discriminator 1
 3141 0044 3B69     	 ldr r3,[r7,#16]
 3142 0046 BB67     	 str r3,[r7,#120]
 3143 0048 7B69     	 ldr r3,[r7,#20]
 3144 004a 3B61     	 str r3,[r7,#16]
 3145 004c BB6F     	 ldr r3,[r7,#120]
 3146 004e 7B61     	 str r3,[r7,#20]
 3147              	.L248:
 3148              	.LBE79:
 3149              	 .loc 1 335 0 discriminator 3
 3150 0050 97ED077A 	 flds s14,[r7,#28]
 3151 0054 D7ED087A 	 flds s15,[r7,#32]
 3152 0058 B4EEE77A 	 fcmpes s14,s15
 3153 005c F1EE10FA 	 fmstat
 3154 0060 05DD     	 ble .L250
 3155              	.LBB80:
 3156              	 .loc 1 335 0 discriminator 4
 3157 0062 FB69     	 ldr r3,[r7,#28]
 3158 0064 7B67     	 str r3,[r7,#116]
 3159 0066 3B6A     	 ldr r3,[r7,#32]
 3160 0068 FB61     	 str r3,[r7,#28]
 3161 006a 7B6F     	 ldr r3,[r7,#116]
 3162 006c 3B62     	 str r3,[r7,#32]
 3163              	.L250:
 3164              	.LBE80:
 3165              	 .loc 1 335 0 discriminator 6
 3166 006e 97ED0A7A 	 flds s14,[r7,#40]
 3167 0072 D7ED0B7A 	 flds s15,[r7,#44]
 3168 0076 B4EEE77A 	 fcmpes s14,s15
 3169 007a F1EE10FA 	 fmstat
 3170 007e 05DD     	 ble .L252
 3171              	.LBB81:
 3172              	 .loc 1 335 0 discriminator 7
 3173 0080 BB6A     	 ldr r3,[r7,#40]
 3174 0082 3B67     	 str r3,[r7,#112]
 3175 0084 FB6A     	 ldr r3,[r7,#44]
 3176 0086 BB62     	 str r3,[r7,#40]
 3177 0088 3B6F     	 ldr r3,[r7,#112]
 3178 008a FB62     	 str r3,[r7,#44]
 3179              	.L252:
 3180              	.LBE81:
 336:../cleanflight/src/main/common/maths.c ****     QMF_SORTF(p[0], p[1]); QMF_SORTF(p[3], p[4]); QMF_SORTF(p[6], p[7]);
 3181              	 .loc 1 336 0 is_stmt 1
 3182 008c 97ED037A 	 flds s14,[r7,#12]
 3183 0090 D7ED047A 	 flds s15,[r7,#16]
 3184 0094 B4EEE77A 	 fcmpes s14,s15
 3185 0098 F1EE10FA 	 fmstat
 3186 009c 05DD     	 ble .L254
 3187              	.LBB82:
 3188              	 .loc 1 336 0 is_stmt 0 discriminator 1
 3189 009e FB68     	 ldr r3,[r7,#12]
 3190 00a0 FB66     	 str r3,[r7,#108]
 3191 00a2 3B69     	 ldr r3,[r7,#16]
 3192 00a4 FB60     	 str r3,[r7,#12]
 3193 00a6 FB6E     	 ldr r3,[r7,#108]
 3194 00a8 3B61     	 str r3,[r7,#16]
 3195              	.L254:
 3196              	.LBE82:
 3197              	 .loc 1 336 0 discriminator 3
 3198 00aa 97ED067A 	 flds s14,[r7,#24]
 3199 00ae D7ED077A 	 flds s15,[r7,#28]
 3200 00b2 B4EEE77A 	 fcmpes s14,s15
 3201 00b6 F1EE10FA 	 fmstat
 3202 00ba 05DD     	 ble .L256
 3203              	.LBB83:
 3204              	 .loc 1 336 0 discriminator 4
 3205 00bc BB69     	 ldr r3,[r7,#24]
 3206 00be BB66     	 str r3,[r7,#104]
 3207 00c0 FB69     	 ldr r3,[r7,#28]
 3208 00c2 BB61     	 str r3,[r7,#24]
 3209 00c4 BB6E     	 ldr r3,[r7,#104]
 3210 00c6 FB61     	 str r3,[r7,#28]
 3211              	.L256:
 3212              	.LBE83:
 3213              	 .loc 1 336 0 discriminator 6
 3214 00c8 97ED097A 	 flds s14,[r7,#36]
 3215 00cc D7ED0A7A 	 flds s15,[r7,#40]
 3216 00d0 B4EEE77A 	 fcmpes s14,s15
 3217 00d4 F1EE10FA 	 fmstat
 3218 00d8 05DD     	 ble .L258
 3219              	.LBB84:
 3220              	 .loc 1 336 0 discriminator 7
 3221 00da 7B6A     	 ldr r3,[r7,#36]
 3222 00dc 7B66     	 str r3,[r7,#100]
 3223 00de BB6A     	 ldr r3,[r7,#40]
 3224 00e0 7B62     	 str r3,[r7,#36]
 3225 00e2 7B6E     	 ldr r3,[r7,#100]
 3226 00e4 BB62     	 str r3,[r7,#40]
 3227              	.L258:
 3228              	.LBE84:
 337:../cleanflight/src/main/common/maths.c ****     QMF_SORTF(p[1], p[2]); QMF_SORTF(p[4], p[5]); QMF_SORTF(p[7], p[8]);
 3229              	 .loc 1 337 0 is_stmt 1
 3230 00e6 97ED047A 	 flds s14,[r7,#16]
 3231 00ea D7ED057A 	 flds s15,[r7,#20]
 3232 00ee B4EEE77A 	 fcmpes s14,s15
 3233 00f2 F1EE10FA 	 fmstat
 3234 00f6 05DD     	 ble .L260
 3235              	.LBB85:
 3236              	 .loc 1 337 0 is_stmt 0 discriminator 1
 3237 00f8 3B69     	 ldr r3,[r7,#16]
 3238 00fa 3B66     	 str r3,[r7,#96]
 3239 00fc 7B69     	 ldr r3,[r7,#20]
 3240 00fe 3B61     	 str r3,[r7,#16]
 3241 0100 3B6E     	 ldr r3,[r7,#96]
 3242 0102 7B61     	 str r3,[r7,#20]
 3243              	.L260:
 3244              	.LBE85:
 3245              	 .loc 1 337 0 discriminator 3
 3246 0104 97ED077A 	 flds s14,[r7,#28]
 3247 0108 D7ED087A 	 flds s15,[r7,#32]
 3248 010c B4EEE77A 	 fcmpes s14,s15
 3249 0110 F1EE10FA 	 fmstat
 3250 0114 05DD     	 ble .L262
 3251              	.LBB86:
 3252              	 .loc 1 337 0 discriminator 4
 3253 0116 FB69     	 ldr r3,[r7,#28]
 3254 0118 FB65     	 str r3,[r7,#92]
 3255 011a 3B6A     	 ldr r3,[r7,#32]
 3256 011c FB61     	 str r3,[r7,#28]
 3257 011e FB6D     	 ldr r3,[r7,#92]
 3258 0120 3B62     	 str r3,[r7,#32]
 3259              	.L262:
 3260              	.LBE86:
 3261              	 .loc 1 337 0 discriminator 6
 3262 0122 97ED0A7A 	 flds s14,[r7,#40]
 3263 0126 D7ED0B7A 	 flds s15,[r7,#44]
 3264 012a B4EEE77A 	 fcmpes s14,s15
 3265 012e F1EE10FA 	 fmstat
 3266 0132 05DD     	 ble .L264
 3267              	.LBB87:
 3268              	 .loc 1 337 0 discriminator 7
 3269 0134 BB6A     	 ldr r3,[r7,#40]
 3270 0136 BB65     	 str r3,[r7,#88]
 3271 0138 FB6A     	 ldr r3,[r7,#44]
 3272 013a BB62     	 str r3,[r7,#40]
 3273 013c BB6D     	 ldr r3,[r7,#88]
 3274 013e FB62     	 str r3,[r7,#44]
 3275              	.L264:
 3276              	.LBE87:
 338:../cleanflight/src/main/common/maths.c ****     QMF_SORTF(p[0], p[3]); QMF_SORTF(p[5], p[8]); QMF_SORTF(p[4], p[7]);
 3277              	 .loc 1 338 0 is_stmt 1
 3278 0140 97ED037A 	 flds s14,[r7,#12]
 3279 0144 D7ED067A 	 flds s15,[r7,#24]
 3280 0148 B4EEE77A 	 fcmpes s14,s15
 3281 014c F1EE10FA 	 fmstat
 3282 0150 05DD     	 ble .L266
 3283              	.LBB88:
 3284              	 .loc 1 338 0 is_stmt 0 discriminator 1
 3285 0152 FB68     	 ldr r3,[r7,#12]
 3286 0154 7B65     	 str r3,[r7,#84]
 3287 0156 BB69     	 ldr r3,[r7,#24]
 3288 0158 FB60     	 str r3,[r7,#12]
 3289 015a 7B6D     	 ldr r3,[r7,#84]
 3290 015c BB61     	 str r3,[r7,#24]
 3291              	.L266:
 3292              	.LBE88:
 3293              	 .loc 1 338 0 discriminator 3
 3294 015e 97ED087A 	 flds s14,[r7,#32]
 3295 0162 D7ED0B7A 	 flds s15,[r7,#44]
 3296 0166 B4EEE77A 	 fcmpes s14,s15
 3297 016a F1EE10FA 	 fmstat
 3298 016e 05DD     	 ble .L268
 3299              	.LBB89:
 3300              	 .loc 1 338 0 discriminator 4
 3301 0170 3B6A     	 ldr r3,[r7,#32]
 3302 0172 3B65     	 str r3,[r7,#80]
 3303 0174 FB6A     	 ldr r3,[r7,#44]
 3304 0176 3B62     	 str r3,[r7,#32]
 3305 0178 3B6D     	 ldr r3,[r7,#80]
 3306 017a FB62     	 str r3,[r7,#44]
 3307              	.L268:
 3308              	.LBE89:
 3309              	 .loc 1 338 0 discriminator 6
 3310 017c 97ED077A 	 flds s14,[r7,#28]
 3311 0180 D7ED0A7A 	 flds s15,[r7,#40]
 3312 0184 B4EEE77A 	 fcmpes s14,s15
 3313 0188 F1EE10FA 	 fmstat
 3314 018c 05DD     	 ble .L270
 3315              	.LBB90:
 3316              	 .loc 1 338 0 discriminator 7
 3317 018e FB69     	 ldr r3,[r7,#28]
 3318 0190 FB64     	 str r3,[r7,#76]
 3319 0192 BB6A     	 ldr r3,[r7,#40]
 3320 0194 FB61     	 str r3,[r7,#28]
 3321 0196 FB6C     	 ldr r3,[r7,#76]
 3322 0198 BB62     	 str r3,[r7,#40]
 3323              	.L270:
 3324              	.LBE90:
 339:../cleanflight/src/main/common/maths.c ****     QMF_SORTF(p[3], p[6]); QMF_SORTF(p[1], p[4]); QMF_SORTF(p[2], p[5]);
 3325              	 .loc 1 339 0 is_stmt 1
 3326 019a 97ED067A 	 flds s14,[r7,#24]
 3327 019e D7ED097A 	 flds s15,[r7,#36]
 3328 01a2 B4EEE77A 	 fcmpes s14,s15
 3329 01a6 F1EE10FA 	 fmstat
 3330 01aa 05DD     	 ble .L272
 3331              	.LBB91:
 3332              	 .loc 1 339 0 is_stmt 0 discriminator 1
 3333 01ac BB69     	 ldr r3,[r7,#24]
 3334 01ae BB64     	 str r3,[r7,#72]
 3335 01b0 7B6A     	 ldr r3,[r7,#36]
 3336 01b2 BB61     	 str r3,[r7,#24]
 3337 01b4 BB6C     	 ldr r3,[r7,#72]
 3338 01b6 7B62     	 str r3,[r7,#36]
 3339              	.L272:
 3340              	.LBE91:
 3341              	 .loc 1 339 0 discriminator 3
 3342 01b8 97ED047A 	 flds s14,[r7,#16]
 3343 01bc D7ED077A 	 flds s15,[r7,#28]
 3344 01c0 B4EEE77A 	 fcmpes s14,s15
 3345 01c4 F1EE10FA 	 fmstat
 3346 01c8 05DD     	 ble .L274
 3347              	.LBB92:
 3348              	 .loc 1 339 0 discriminator 4
 3349 01ca 3B69     	 ldr r3,[r7,#16]
 3350 01cc 7B64     	 str r3,[r7,#68]
 3351 01ce FB69     	 ldr r3,[r7,#28]
 3352 01d0 3B61     	 str r3,[r7,#16]
 3353 01d2 7B6C     	 ldr r3,[r7,#68]
 3354 01d4 FB61     	 str r3,[r7,#28]
 3355              	.L274:
 3356              	.LBE92:
 3357              	 .loc 1 339 0 discriminator 6
 3358 01d6 97ED057A 	 flds s14,[r7,#20]
 3359 01da D7ED087A 	 flds s15,[r7,#32]
 3360 01de B4EEE77A 	 fcmpes s14,s15
 3361 01e2 F1EE10FA 	 fmstat
 3362 01e6 05DD     	 ble .L276
 3363              	.LBB93:
 3364              	 .loc 1 339 0 discriminator 7
 3365 01e8 7B69     	 ldr r3,[r7,#20]
 3366 01ea 3B64     	 str r3,[r7,#64]
 3367 01ec 3B6A     	 ldr r3,[r7,#32]
 3368 01ee 7B61     	 str r3,[r7,#20]
 3369 01f0 3B6C     	 ldr r3,[r7,#64]
 3370 01f2 3B62     	 str r3,[r7,#32]
 3371              	.L276:
 3372              	.LBE93:
 340:../cleanflight/src/main/common/maths.c ****     QMF_SORTF(p[4], p[7]); QMF_SORTF(p[4], p[2]); QMF_SORTF(p[6], p[4]);
 3373              	 .loc 1 340 0 is_stmt 1
 3374 01f4 97ED077A 	 flds s14,[r7,#28]
 3375 01f8 D7ED0A7A 	 flds s15,[r7,#40]
 3376 01fc B4EEE77A 	 fcmpes s14,s15
 3377 0200 F1EE10FA 	 fmstat
 3378 0204 05DD     	 ble .L278
 3379              	.LBB94:
 3380              	 .loc 1 340 0 is_stmt 0 discriminator 1
 3381 0206 FB69     	 ldr r3,[r7,#28]
 3382 0208 FB63     	 str r3,[r7,#60]
 3383 020a BB6A     	 ldr r3,[r7,#40]
 3384 020c FB61     	 str r3,[r7,#28]
 3385 020e FB6B     	 ldr r3,[r7,#60]
 3386 0210 BB62     	 str r3,[r7,#40]
 3387              	.L278:
 3388              	.LBE94:
 3389              	 .loc 1 340 0 discriminator 3
 3390 0212 97ED077A 	 flds s14,[r7,#28]
 3391 0216 D7ED057A 	 flds s15,[r7,#20]
 3392 021a B4EEE77A 	 fcmpes s14,s15
 3393 021e F1EE10FA 	 fmstat
 3394 0222 05DD     	 ble .L280
 3395              	.LBB95:
 3396              	 .loc 1 340 0 discriminator 4
 3397 0224 FB69     	 ldr r3,[r7,#28]
 3398 0226 BB63     	 str r3,[r7,#56]
 3399 0228 7B69     	 ldr r3,[r7,#20]
 3400 022a FB61     	 str r3,[r7,#28]
 3401 022c BB6B     	 ldr r3,[r7,#56]
 3402 022e 7B61     	 str r3,[r7,#20]
 3403              	.L280:
 3404              	.LBE95:
 3405              	 .loc 1 340 0 discriminator 6
 3406 0230 97ED097A 	 flds s14,[r7,#36]
 3407 0234 D7ED077A 	 flds s15,[r7,#28]
 3408 0238 B4EEE77A 	 fcmpes s14,s15
 3409 023c F1EE10FA 	 fmstat
 3410 0240 05DD     	 ble .L282
 3411              	.LBB96:
 3412              	 .loc 1 340 0 discriminator 7
 3413 0242 7B6A     	 ldr r3,[r7,#36]
 3414 0244 7B63     	 str r3,[r7,#52]
 3415 0246 FB69     	 ldr r3,[r7,#28]
 3416 0248 7B62     	 str r3,[r7,#36]
 3417 024a 7B6B     	 ldr r3,[r7,#52]
 3418 024c FB61     	 str r3,[r7,#28]
 3419              	.L282:
 3420              	.LBE96:
 341:../cleanflight/src/main/common/maths.c ****     QMF_SORTF(p[4], p[2]);
 3421              	 .loc 1 341 0 is_stmt 1
 3422 024e 97ED077A 	 flds s14,[r7,#28]
 3423 0252 D7ED057A 	 flds s15,[r7,#20]
 3424 0256 B4EEE77A 	 fcmpes s14,s15
 3425 025a F1EE10FA 	 fmstat
 3426 025e 05DD     	 ble .L284
 3427              	.LBB97:
 3428              	 .loc 1 341 0 is_stmt 0 discriminator 1
 3429 0260 FB69     	 ldr r3,[r7,#28]
 3430 0262 3B63     	 str r3,[r7,#48]
 3431 0264 7B69     	 ldr r3,[r7,#20]
 3432 0266 FB61     	 str r3,[r7,#28]
 3433 0268 3B6B     	 ldr r3,[r7,#48]
 3434 026a 7B61     	 str r3,[r7,#20]
 3435              	.L284:
 3436              	.LBE97:
 342:../cleanflight/src/main/common/maths.c ****     return p[4];
 3437              	 .loc 1 342 0 is_stmt 1
 3438 026c FB69     	 ldr r3,[r7,#28]
 343:../cleanflight/src/main/common/maths.c **** }
 3439              	 .loc 1 343 0
 3440 026e 1846     	 mov r0,r3
 3441 0270 8437     	 adds r7,r7,#132
 3442              	.LCFI146:
 3443              	 .cfi_def_cfa_offset 4
 3444 0272 BD46     	 mov sp,r7
 3445              	.LCFI147:
 3446              	 .cfi_def_cfa_register 13
 3447              	 
 3448 0274 5DF8047B 	 ldr r7,[sp],#4
 3449              	.LCFI148:
 3450              	 .cfi_restore 7
 3451              	 .cfi_def_cfa_offset 0
 3452 0278 7047     	 bx lr
 3453              	 .cfi_endproc
 3454              	.LFE27:
 3456 027a 00BF     	 .section .text.arraySubInt32,"ax",%progbits
 3457              	 .align 2
 3458              	 .global arraySubInt32
 3459              	 .thumb
 3460              	 .thumb_func
 3462              	arraySubInt32:
 3463              	.LFB28:
 344:../cleanflight/src/main/common/maths.c **** 
 345:../cleanflight/src/main/common/maths.c **** void arraySubInt32(int32_t *dest, int32_t *array1, int32_t *array2, int count)
 346:../cleanflight/src/main/common/maths.c **** {
 3464              	 .loc 1 346 0
 3465              	 .cfi_startproc
 3466              	 
 3467              	 
 3468              	 
 3469 0000 80B4     	 push {r7}
 3470              	.LCFI149:
 3471              	 .cfi_def_cfa_offset 4
 3472              	 .cfi_offset 7,-4
 3473 0002 87B0     	 sub sp,sp,#28
 3474              	.LCFI150:
 3475              	 .cfi_def_cfa_offset 32
 3476 0004 00AF     	 add r7,sp,#0
 3477              	.LCFI151:
 3478              	 .cfi_def_cfa_register 7
 3479 0006 F860     	 str r0,[r7,#12]
 3480 0008 B960     	 str r1,[r7,#8]
 3481 000a 7A60     	 str r2,[r7,#4]
 3482 000c 3B60     	 str r3,[r7]
 3483              	.LBB98:
 347:../cleanflight/src/main/common/maths.c ****     for (int i = 0; i < count; i++) {
 3484              	 .loc 1 347 0
 3485 000e 0023     	 movs r3,#0
 3486 0010 7B61     	 str r3,[r7,#20]
 3487 0012 12E0     	 b .L307
 3488              	.L308:
 348:../cleanflight/src/main/common/maths.c ****         dest[i] = array1[i] - array2[i];
 3489              	 .loc 1 348 0 discriminator 3
 3490 0014 7B69     	 ldr r3,[r7,#20]
 3491 0016 9B00     	 lsls r3,r3,#2
 3492 0018 FA68     	 ldr r2,[r7,#12]
 3493 001a 1344     	 add r3,r3,r2
 3494 001c 7A69     	 ldr r2,[r7,#20]
 3495 001e 9200     	 lsls r2,r2,#2
 3496 0020 B968     	 ldr r1,[r7,#8]
 3497 0022 0A44     	 add r2,r2,r1
 3498 0024 1168     	 ldr r1,[r2]
 3499 0026 7A69     	 ldr r2,[r7,#20]
 3500 0028 9200     	 lsls r2,r2,#2
 3501 002a 7868     	 ldr r0,[r7,#4]
 3502 002c 0244     	 add r2,r2,r0
 3503 002e 1268     	 ldr r2,[r2]
 3504 0030 8A1A     	 subs r2,r1,r2
 3505 0032 1A60     	 str r2,[r3]
 347:../cleanflight/src/main/common/maths.c ****     for (int i = 0; i < count; i++) {
 3506              	 .loc 1 347 0 discriminator 3
 3507 0034 7B69     	 ldr r3,[r7,#20]
 3508 0036 0133     	 adds r3,r3,#1
 3509 0038 7B61     	 str r3,[r7,#20]
 3510              	.L307:
 347:../cleanflight/src/main/common/maths.c ****     for (int i = 0; i < count; i++) {
 3511              	 .loc 1 347 0 is_stmt 0 discriminator 1
 3512 003a 7A69     	 ldr r2,[r7,#20]
 3513 003c 3B68     	 ldr r3,[r7]
 3514 003e 9A42     	 cmp r2,r3
 3515 0040 E8DB     	 blt .L308
 3516              	.LBE98:
 349:../cleanflight/src/main/common/maths.c ****     }
 350:../cleanflight/src/main/common/maths.c **** }
 3517              	 .loc 1 350 0 is_stmt 1
 3518 0042 1C37     	 adds r7,r7,#28
 3519              	.LCFI152:
 3520              	 .cfi_def_cfa_offset 4
 3521 0044 BD46     	 mov sp,r7
 3522              	.LCFI153:
 3523              	 .cfi_def_cfa_register 13
 3524              	 
 3525 0046 5DF8047B 	 ldr r7,[sp],#4
 3526              	.LCFI154:
 3527              	 .cfi_restore 7
 3528              	 .cfi_def_cfa_offset 0
 3529 004a 7047     	 bx lr
 3530              	 .cfi_endproc
 3531              	.LFE28:
 3533              	 .section .text.qPercent,"ax",%progbits
 3534              	 .align 2
 3535              	 .global qPercent
 3536              	 .thumb
 3537              	 .thumb_func
 3539              	qPercent:
 3540              	.LFB29:
 351:../cleanflight/src/main/common/maths.c **** 
 352:../cleanflight/src/main/common/maths.c **** int16_t qPercent(fix12_t q) {
 3541              	 .loc 1 352 0
 3542              	 .cfi_startproc
 3543              	 
 3544              	 
 3545              	 
 3546 0000 80B4     	 push {r7}
 3547              	.LCFI155:
 3548              	 .cfi_def_cfa_offset 4
 3549              	 .cfi_offset 7,-4
 3550 0002 83B0     	 sub sp,sp,#12
 3551              	.LCFI156:
 3552              	 .cfi_def_cfa_offset 16
 3553 0004 00AF     	 add r7,sp,#0
 3554              	.LCFI157:
 3555              	 .cfi_def_cfa_register 7
 3556 0006 7860     	 str r0,[r7,#4]
 353:../cleanflight/src/main/common/maths.c ****     return (100 * q) >> 12;
 3557              	 .loc 1 353 0
 3558 0008 7B68     	 ldr r3,[r7,#4]
 3559 000a 6422     	 movs r2,#100
 3560 000c 02FB03F3 	 mul r3,r2,r3
 3561 0010 1B13     	 asrs r3,r3,#12
 3562 0012 9BB2     	 uxth r3,r3
 3563 0014 1BB2     	 sxth r3,r3
 354:../cleanflight/src/main/common/maths.c **** }
 3564              	 .loc 1 354 0
 3565 0016 1846     	 mov r0,r3
 3566 0018 0C37     	 adds r7,r7,#12
 3567              	.LCFI158:
 3568              	 .cfi_def_cfa_offset 4
 3569 001a BD46     	 mov sp,r7
 3570              	.LCFI159:
 3571              	 .cfi_def_cfa_register 13
 3572              	 
 3573 001c 5DF8047B 	 ldr r7,[sp],#4
 3574              	.LCFI160:
 3575              	 .cfi_restore 7
 3576              	 .cfi_def_cfa_offset 0
 3577 0020 7047     	 bx lr
 3578              	 .cfi_endproc
 3579              	.LFE29:
 3581 0022 00BF     	 .section .text.qMultiply,"ax",%progbits
 3582              	 .align 2
 3583              	 .global qMultiply
 3584              	 .thumb
 3585              	 .thumb_func
 3587              	qMultiply:
 3588              	.LFB30:
 355:../cleanflight/src/main/common/maths.c **** 
 356:../cleanflight/src/main/common/maths.c **** int16_t qMultiply(fix12_t q, int16_t input) {
 3589              	 .loc 1 356 0
 3590              	 .cfi_startproc
 3591              	 
 3592              	 
 3593              	 
 3594 0000 80B4     	 push {r7}
 3595              	.LCFI161:
 3596              	 .cfi_def_cfa_offset 4
 3597              	 .cfi_offset 7,-4
 3598 0002 83B0     	 sub sp,sp,#12
 3599              	.LCFI162:
 3600              	 .cfi_def_cfa_offset 16
 3601 0004 00AF     	 add r7,sp,#0
 3602              	.LCFI163:
 3603              	 .cfi_def_cfa_register 7
 3604 0006 7860     	 str r0,[r7,#4]
 3605 0008 0B46     	 mov r3,r1
 3606 000a 7B80     	 strh r3,[r7,#2]
 357:../cleanflight/src/main/common/maths.c ****     return (input *  q) >> 12;
 3607              	 .loc 1 357 0
 3608 000c B7F90230 	 ldrsh r3,[r7,#2]
 3609 0010 7A68     	 ldr r2,[r7,#4]
 3610 0012 02FB03F3 	 mul r3,r2,r3
 3611 0016 1B13     	 asrs r3,r3,#12
 3612 0018 9BB2     	 uxth r3,r3
 3613 001a 1BB2     	 sxth r3,r3
 358:../cleanflight/src/main/common/maths.c **** }
 3614              	 .loc 1 358 0
 3615 001c 1846     	 mov r0,r3
 3616 001e 0C37     	 adds r7,r7,#12
 3617              	.LCFI164:
 3618              	 .cfi_def_cfa_offset 4
 3619 0020 BD46     	 mov sp,r7
 3620              	.LCFI165:
 3621              	 .cfi_def_cfa_register 13
 3622              	 
 3623 0022 5DF8047B 	 ldr r7,[sp],#4
 3624              	.LCFI166:
 3625              	 .cfi_restore 7
 3626              	 .cfi_def_cfa_offset 0
 3627 0026 7047     	 bx lr
 3628              	 .cfi_endproc
 3629              	.LFE30:
 3631              	 .section .text.qConstruct,"ax",%progbits
 3632              	 .align 2
 3633              	 .global qConstruct
 3634              	 .thumb
 3635              	 .thumb_func
 3637              	qConstruct:
 3638              	.LFB31:
 359:../cleanflight/src/main/common/maths.c **** 
 360:../cleanflight/src/main/common/maths.c **** fix12_t  qConstruct(int16_t num, int16_t den) {
 3639              	 .loc 1 360 0
 3640              	 .cfi_startproc
 3641              	 
 3642              	 
 3643              	 
 3644 0000 80B4     	 push {r7}
 3645              	.LCFI167:
 3646              	 .cfi_def_cfa_offset 4
 3647              	 .cfi_offset 7,-4
 3648 0002 83B0     	 sub sp,sp,#12
 3649              	.LCFI168:
 3650              	 .cfi_def_cfa_offset 16
 3651 0004 00AF     	 add r7,sp,#0
 3652              	.LCFI169:
 3653              	 .cfi_def_cfa_register 7
 3654 0006 0346     	 mov r3,r0
 3655 0008 0A46     	 mov r2,r1
 3656 000a FB80     	 strh r3,[r7,#6]
 3657 000c 1346     	 mov r3,r2
 3658 000e BB80     	 strh r3,[r7,#4]
 361:../cleanflight/src/main/common/maths.c ****     return (num << 12) / den;
 3659              	 .loc 1 361 0
 3660 0010 B7F90630 	 ldrsh r3,[r7,#6]
 3661 0014 1A03     	 lsls r2,r3,#12
 3662 0016 B7F90430 	 ldrsh r3,[r7,#4]
 3663 001a 92FBF3F3 	 sdiv r3,r2,r3
 362:../cleanflight/src/main/common/maths.c **** }
 3664              	 .loc 1 362 0
 3665 001e 1846     	 mov r0,r3
 3666 0020 0C37     	 adds r7,r7,#12
 3667              	.LCFI170:
 3668              	 .cfi_def_cfa_offset 4
 3669 0022 BD46     	 mov sp,r7
 3670              	.LCFI171:
 3671              	 .cfi_def_cfa_register 13
 3672              	 
 3673 0024 5DF8047B 	 ldr r7,[sp],#4
 3674              	.LCFI172:
 3675              	 .cfi_restore 7
 3676              	 .cfi_def_cfa_offset 0
 3677 0028 7047     	 bx lr
 3678              	 .cfi_endproc
 3679              	.LFE31:
 3681 002a 00BF     	 .text
 3682              	.Letext0:
 3683              	 .file 2 "d:\\xmc\\dave-ide-4.4.2-64bit\\eclipse\\arm-gcc-49\\arm-none-eabi\\include\\machine\\_default_types.h"
 3684              	 .file 3 "d:\\xmc\\dave-ide-4.4.2-64bit\\eclipse\\arm-gcc-49\\arm-none-eabi\\include\\stdint.h"
 3685              	 .file 4 "../cleanflight/src/main/common/maths.h"
 3686              	 .file 5 "../cleanflight/src/main/common/axis.h"