   1              	 .syntax unified
   2              	 .cpu cortex-m4
   3              	 .eabi_attribute 27,3
   4              	 .fpu fpv4-sp-d16
   5              	 .eabi_attribute 20,1
   6              	 .eabi_attribute 21,1
   7              	 .eabi_attribute 23,3
   8              	 .eabi_attribute 24,1
   9              	 .eabi_attribute 25,1
  10              	 .eabi_attribute 26,1
  11              	 .eabi_attribute 30,6
  12              	 .eabi_attribute 34,1
  13              	 .eabi_attribute 18,4
  14              	 .thumb
  15              	 .file "pid.c"
  16              	 .text
  17              	.Ltext0:
  18              	 .cfi_sections .debug_frame
  19              	 .section .text.constrainf,"ax",%progbits
  20              	 .align 2
  21              	 .thumb
  22              	 .thumb_func
  24              	constrainf:
  25              	.LFB522:
  26              	 .file 1 "D:/XMC/Projekte/Temp/CF_XMC4700/cleanflight/src/main/common/maths.h"
   1:D:/XMC/Projekte/Temp/CF_XMC4700/cleanflight/src/main/common\maths.h **** /*
   2:D:/XMC/Projekte/Temp/CF_XMC4700/cleanflight/src/main/common\maths.h ****  * This file is part of Cleanflight and Betaflight.
   3:D:/XMC/Projekte/Temp/CF_XMC4700/cleanflight/src/main/common\maths.h ****  *
   4:D:/XMC/Projekte/Temp/CF_XMC4700/cleanflight/src/main/common\maths.h ****  * Cleanflight and Betaflight are free software. You can redistribute
   5:D:/XMC/Projekte/Temp/CF_XMC4700/cleanflight/src/main/common\maths.h ****  * this software and/or modify this software under the terms of the
   6:D:/XMC/Projekte/Temp/CF_XMC4700/cleanflight/src/main/common\maths.h ****  * GNU General Public License as published by the Free Software
   7:D:/XMC/Projekte/Temp/CF_XMC4700/cleanflight/src/main/common\maths.h ****  * Foundation, either version 3 of the License, or (at your option)
   8:D:/XMC/Projekte/Temp/CF_XMC4700/cleanflight/src/main/common\maths.h ****  * any later version.
   9:D:/XMC/Projekte/Temp/CF_XMC4700/cleanflight/src/main/common\maths.h ****  *
  10:D:/XMC/Projekte/Temp/CF_XMC4700/cleanflight/src/main/common\maths.h ****  * Cleanflight and Betaflight are distributed in the hope that they
  11:D:/XMC/Projekte/Temp/CF_XMC4700/cleanflight/src/main/common\maths.h ****  * will be useful, but WITHOUT ANY WARRANTY; without even the implied
  12:D:/XMC/Projekte/Temp/CF_XMC4700/cleanflight/src/main/common\maths.h ****  * warranty of MERCHANTABILITY or FITNESS FOR A PARTICULAR PURPOSE.
  13:D:/XMC/Projekte/Temp/CF_XMC4700/cleanflight/src/main/common\maths.h ****  * See the GNU General Public License for more details.
  14:D:/XMC/Projekte/Temp/CF_XMC4700/cleanflight/src/main/common\maths.h ****  *
  15:D:/XMC/Projekte/Temp/CF_XMC4700/cleanflight/src/main/common\maths.h ****  * You should have received a copy of the GNU General Public License
  16:D:/XMC/Projekte/Temp/CF_XMC4700/cleanflight/src/main/common\maths.h ****  * along with this software.
  17:D:/XMC/Projekte/Temp/CF_XMC4700/cleanflight/src/main/common\maths.h ****  *
  18:D:/XMC/Projekte/Temp/CF_XMC4700/cleanflight/src/main/common\maths.h ****  * If not, see <http://www.gnu.org/licenses/>.
  19:D:/XMC/Projekte/Temp/CF_XMC4700/cleanflight/src/main/common\maths.h ****  */
  20:D:/XMC/Projekte/Temp/CF_XMC4700/cleanflight/src/main/common\maths.h **** 
  21:D:/XMC/Projekte/Temp/CF_XMC4700/cleanflight/src/main/common\maths.h **** #pragma once
  22:D:/XMC/Projekte/Temp/CF_XMC4700/cleanflight/src/main/common\maths.h **** 
  23:D:/XMC/Projekte/Temp/CF_XMC4700/cleanflight/src/main/common\maths.h **** #include <stdint.h>
  24:D:/XMC/Projekte/Temp/CF_XMC4700/cleanflight/src/main/common\maths.h **** 
  25:D:/XMC/Projekte/Temp/CF_XMC4700/cleanflight/src/main/common\maths.h **** #ifndef sq
  26:D:/XMC/Projekte/Temp/CF_XMC4700/cleanflight/src/main/common\maths.h **** #define sq(x) ((x)*(x))
  27:D:/XMC/Projekte/Temp/CF_XMC4700/cleanflight/src/main/common\maths.h **** #endif
  28:D:/XMC/Projekte/Temp/CF_XMC4700/cleanflight/src/main/common\maths.h **** #define power3(x) ((x)*(x)*(x))
  29:D:/XMC/Projekte/Temp/CF_XMC4700/cleanflight/src/main/common\maths.h **** 
  30:D:/XMC/Projekte/Temp/CF_XMC4700/cleanflight/src/main/common\maths.h **** // Undefine this for use libc sinf/cosf. Keep this defined to use fast sin/cos approximations
  31:D:/XMC/Projekte/Temp/CF_XMC4700/cleanflight/src/main/common\maths.h **** #define FAST_MATH             // order 9 approximation
  32:D:/XMC/Projekte/Temp/CF_XMC4700/cleanflight/src/main/common\maths.h **** #define VERY_FAST_MATH      // order 7 approximation
  33:D:/XMC/Projekte/Temp/CF_XMC4700/cleanflight/src/main/common\maths.h **** 
  34:D:/XMC/Projekte/Temp/CF_XMC4700/cleanflight/src/main/common\maths.h **** // Use floating point M_PI instead explicitly.
  35:D:/XMC/Projekte/Temp/CF_XMC4700/cleanflight/src/main/common\maths.h **** #define M_PIf       3.14159265358979323846f
  36:D:/XMC/Projekte/Temp/CF_XMC4700/cleanflight/src/main/common\maths.h **** 
  37:D:/XMC/Projekte/Temp/CF_XMC4700/cleanflight/src/main/common\maths.h **** #define RAD    (M_PIf / 180.0f)
  38:D:/XMC/Projekte/Temp/CF_XMC4700/cleanflight/src/main/common\maths.h **** #define DEGREES_TO_DECIDEGREES(angle) ((angle) * 10)
  39:D:/XMC/Projekte/Temp/CF_XMC4700/cleanflight/src/main/common\maths.h **** #define DECIDEGREES_TO_DEGREES(angle) ((angle) / 10)
  40:D:/XMC/Projekte/Temp/CF_XMC4700/cleanflight/src/main/common\maths.h **** #define DECIDEGREES_TO_RADIANS(angle) ((angle) / 10.0f * 0.0174532925f)
  41:D:/XMC/Projekte/Temp/CF_XMC4700/cleanflight/src/main/common\maths.h **** #define DEGREES_TO_RADIANS(angle) ((angle) * 0.0174532925f)
  42:D:/XMC/Projekte/Temp/CF_XMC4700/cleanflight/src/main/common\maths.h **** 
  43:D:/XMC/Projekte/Temp/CF_XMC4700/cleanflight/src/main/common\maths.h **** #define CM_S_TO_KM_H(centimetersPerSecond) ((centimetersPerSecond) * 36 / 1000)
  44:D:/XMC/Projekte/Temp/CF_XMC4700/cleanflight/src/main/common\maths.h **** #define CM_S_TO_MPH(centimetersPerSecond) ((centimetersPerSecond) * 10000 / 5080 / 88)
  45:D:/XMC/Projekte/Temp/CF_XMC4700/cleanflight/src/main/common\maths.h **** 
  46:D:/XMC/Projekte/Temp/CF_XMC4700/cleanflight/src/main/common\maths.h **** #define MIN(a,b) \
  47:D:/XMC/Projekte/Temp/CF_XMC4700/cleanflight/src/main/common\maths.h ****   __extension__ ({ __typeof__ (a) _a = (a); \
  48:D:/XMC/Projekte/Temp/CF_XMC4700/cleanflight/src/main/common\maths.h ****   __typeof__ (b) _b = (b); \
  49:D:/XMC/Projekte/Temp/CF_XMC4700/cleanflight/src/main/common\maths.h ****   _a < _b ? _a : _b; })
  50:D:/XMC/Projekte/Temp/CF_XMC4700/cleanflight/src/main/common\maths.h **** #define MAX(a,b) \
  51:D:/XMC/Projekte/Temp/CF_XMC4700/cleanflight/src/main/common\maths.h ****   __extension__ ({ __typeof__ (a) _a = (a); \
  52:D:/XMC/Projekte/Temp/CF_XMC4700/cleanflight/src/main/common\maths.h ****   __typeof__ (b) _b = (b); \
  53:D:/XMC/Projekte/Temp/CF_XMC4700/cleanflight/src/main/common\maths.h ****   _a > _b ? _a : _b; })
  54:D:/XMC/Projekte/Temp/CF_XMC4700/cleanflight/src/main/common\maths.h **** #define ABS(x) \
  55:D:/XMC/Projekte/Temp/CF_XMC4700/cleanflight/src/main/common\maths.h ****   __extension__ ({ __typeof__ (x) _x = (x); \
  56:D:/XMC/Projekte/Temp/CF_XMC4700/cleanflight/src/main/common\maths.h ****   _x > 0 ? _x : -_x; })
  57:D:/XMC/Projekte/Temp/CF_XMC4700/cleanflight/src/main/common\maths.h **** 
  58:D:/XMC/Projekte/Temp/CF_XMC4700/cleanflight/src/main/common\maths.h **** #define Q12 (1 << 12)
  59:D:/XMC/Projekte/Temp/CF_XMC4700/cleanflight/src/main/common\maths.h **** 
  60:D:/XMC/Projekte/Temp/CF_XMC4700/cleanflight/src/main/common\maths.h **** #define HZ_TO_INTERVAL_US(x) (1000000 / (x))
  61:D:/XMC/Projekte/Temp/CF_XMC4700/cleanflight/src/main/common\maths.h **** 
  62:D:/XMC/Projekte/Temp/CF_XMC4700/cleanflight/src/main/common\maths.h **** typedef int32_t fix12_t;
  63:D:/XMC/Projekte/Temp/CF_XMC4700/cleanflight/src/main/common\maths.h **** 
  64:D:/XMC/Projekte/Temp/CF_XMC4700/cleanflight/src/main/common\maths.h **** typedef struct stdev_s
  65:D:/XMC/Projekte/Temp/CF_XMC4700/cleanflight/src/main/common\maths.h **** {
  66:D:/XMC/Projekte/Temp/CF_XMC4700/cleanflight/src/main/common\maths.h ****     float m_oldM, m_newM, m_oldS, m_newS;
  67:D:/XMC/Projekte/Temp/CF_XMC4700/cleanflight/src/main/common\maths.h ****     int m_n;
  68:D:/XMC/Projekte/Temp/CF_XMC4700/cleanflight/src/main/common\maths.h **** } stdev_t;
  69:D:/XMC/Projekte/Temp/CF_XMC4700/cleanflight/src/main/common\maths.h **** 
  70:D:/XMC/Projekte/Temp/CF_XMC4700/cleanflight/src/main/common\maths.h **** // Floating point 3 vector.
  71:D:/XMC/Projekte/Temp/CF_XMC4700/cleanflight/src/main/common\maths.h **** typedef struct fp_vector {
  72:D:/XMC/Projekte/Temp/CF_XMC4700/cleanflight/src/main/common\maths.h ****     float X;
  73:D:/XMC/Projekte/Temp/CF_XMC4700/cleanflight/src/main/common\maths.h ****     float Y;
  74:D:/XMC/Projekte/Temp/CF_XMC4700/cleanflight/src/main/common\maths.h ****     float Z;
  75:D:/XMC/Projekte/Temp/CF_XMC4700/cleanflight/src/main/common\maths.h **** } t_fp_vector_def;
  76:D:/XMC/Projekte/Temp/CF_XMC4700/cleanflight/src/main/common\maths.h **** 
  77:D:/XMC/Projekte/Temp/CF_XMC4700/cleanflight/src/main/common\maths.h **** typedef union u_fp_vector {
  78:D:/XMC/Projekte/Temp/CF_XMC4700/cleanflight/src/main/common\maths.h ****     float A[3];
  79:D:/XMC/Projekte/Temp/CF_XMC4700/cleanflight/src/main/common\maths.h ****     t_fp_vector_def V;
  80:D:/XMC/Projekte/Temp/CF_XMC4700/cleanflight/src/main/common\maths.h **** } t_fp_vector;
  81:D:/XMC/Projekte/Temp/CF_XMC4700/cleanflight/src/main/common\maths.h **** 
  82:D:/XMC/Projekte/Temp/CF_XMC4700/cleanflight/src/main/common\maths.h **** // Floating point Euler angles.
  83:D:/XMC/Projekte/Temp/CF_XMC4700/cleanflight/src/main/common\maths.h **** // Be carefull, could be either of degrees or radians.
  84:D:/XMC/Projekte/Temp/CF_XMC4700/cleanflight/src/main/common\maths.h **** typedef struct fp_angles {
  85:D:/XMC/Projekte/Temp/CF_XMC4700/cleanflight/src/main/common\maths.h ****     float roll;
  86:D:/XMC/Projekte/Temp/CF_XMC4700/cleanflight/src/main/common\maths.h ****     float pitch;
  87:D:/XMC/Projekte/Temp/CF_XMC4700/cleanflight/src/main/common\maths.h ****     float yaw;
  88:D:/XMC/Projekte/Temp/CF_XMC4700/cleanflight/src/main/common\maths.h **** } fp_angles_def;
  89:D:/XMC/Projekte/Temp/CF_XMC4700/cleanflight/src/main/common\maths.h **** 
  90:D:/XMC/Projekte/Temp/CF_XMC4700/cleanflight/src/main/common\maths.h **** typedef union {
  91:D:/XMC/Projekte/Temp/CF_XMC4700/cleanflight/src/main/common\maths.h ****     float raw[3];
  92:D:/XMC/Projekte/Temp/CF_XMC4700/cleanflight/src/main/common\maths.h ****     fp_angles_def angles;
  93:D:/XMC/Projekte/Temp/CF_XMC4700/cleanflight/src/main/common\maths.h **** } fp_angles_t;
  94:D:/XMC/Projekte/Temp/CF_XMC4700/cleanflight/src/main/common\maths.h **** 
  95:D:/XMC/Projekte/Temp/CF_XMC4700/cleanflight/src/main/common\maths.h **** int gcd(int num, int denom);
  96:D:/XMC/Projekte/Temp/CF_XMC4700/cleanflight/src/main/common\maths.h **** float powerf(float base, int exp);
  97:D:/XMC/Projekte/Temp/CF_XMC4700/cleanflight/src/main/common\maths.h **** int32_t applyDeadband(int32_t value, int32_t deadband);
  98:D:/XMC/Projekte/Temp/CF_XMC4700/cleanflight/src/main/common\maths.h **** float fapplyDeadband(float value, float deadband);
  99:D:/XMC/Projekte/Temp/CF_XMC4700/cleanflight/src/main/common\maths.h **** 
 100:D:/XMC/Projekte/Temp/CF_XMC4700/cleanflight/src/main/common\maths.h **** void devClear(stdev_t *dev);
 101:D:/XMC/Projekte/Temp/CF_XMC4700/cleanflight/src/main/common\maths.h **** void devPush(stdev_t *dev, float x);
 102:D:/XMC/Projekte/Temp/CF_XMC4700/cleanflight/src/main/common\maths.h **** float devVariance(stdev_t *dev);
 103:D:/XMC/Projekte/Temp/CF_XMC4700/cleanflight/src/main/common\maths.h **** float devStandardDeviation(stdev_t *dev);
 104:D:/XMC/Projekte/Temp/CF_XMC4700/cleanflight/src/main/common\maths.h **** float degreesToRadians(int16_t degrees);
 105:D:/XMC/Projekte/Temp/CF_XMC4700/cleanflight/src/main/common\maths.h **** 
 106:D:/XMC/Projekte/Temp/CF_XMC4700/cleanflight/src/main/common\maths.h **** int scaleRange(int x, int srcFrom, int srcTo, int destFrom, int destTo);
 107:D:/XMC/Projekte/Temp/CF_XMC4700/cleanflight/src/main/common\maths.h **** float scaleRangef(float x, float srcFrom, float srcTo, float destFrom, float destTo);
 108:D:/XMC/Projekte/Temp/CF_XMC4700/cleanflight/src/main/common\maths.h **** 
 109:D:/XMC/Projekte/Temp/CF_XMC4700/cleanflight/src/main/common\maths.h **** void normalizeV(struct fp_vector *src, struct fp_vector *dest);
 110:D:/XMC/Projekte/Temp/CF_XMC4700/cleanflight/src/main/common\maths.h **** 
 111:D:/XMC/Projekte/Temp/CF_XMC4700/cleanflight/src/main/common\maths.h **** void rotateV(struct fp_vector *v, fp_angles_t *delta);
 112:D:/XMC/Projekte/Temp/CF_XMC4700/cleanflight/src/main/common\maths.h **** void buildRotationMatrix(fp_angles_t *delta, float matrix[3][3]);
 113:D:/XMC/Projekte/Temp/CF_XMC4700/cleanflight/src/main/common\maths.h **** 
 114:D:/XMC/Projekte/Temp/CF_XMC4700/cleanflight/src/main/common\maths.h **** int32_t quickMedianFilter3(int32_t * v);
 115:D:/XMC/Projekte/Temp/CF_XMC4700/cleanflight/src/main/common\maths.h **** int32_t quickMedianFilter5(int32_t * v);
 116:D:/XMC/Projekte/Temp/CF_XMC4700/cleanflight/src/main/common\maths.h **** int32_t quickMedianFilter7(int32_t * v);
 117:D:/XMC/Projekte/Temp/CF_XMC4700/cleanflight/src/main/common\maths.h **** int32_t quickMedianFilter9(int32_t * v);
 118:D:/XMC/Projekte/Temp/CF_XMC4700/cleanflight/src/main/common\maths.h **** 
 119:D:/XMC/Projekte/Temp/CF_XMC4700/cleanflight/src/main/common\maths.h **** float quickMedianFilter3f(float * v);
 120:D:/XMC/Projekte/Temp/CF_XMC4700/cleanflight/src/main/common\maths.h **** float quickMedianFilter5f(float * v);
 121:D:/XMC/Projekte/Temp/CF_XMC4700/cleanflight/src/main/common\maths.h **** float quickMedianFilter7f(float * v);
 122:D:/XMC/Projekte/Temp/CF_XMC4700/cleanflight/src/main/common\maths.h **** float quickMedianFilter9f(float * v);
 123:D:/XMC/Projekte/Temp/CF_XMC4700/cleanflight/src/main/common\maths.h **** 
 124:D:/XMC/Projekte/Temp/CF_XMC4700/cleanflight/src/main/common\maths.h **** #if defined(FAST_MATH) || defined(VERY_FAST_MATH)
 125:D:/XMC/Projekte/Temp/CF_XMC4700/cleanflight/src/main/common\maths.h **** float sin_approx(float x);
 126:D:/XMC/Projekte/Temp/CF_XMC4700/cleanflight/src/main/common\maths.h **** float cos_approx(float x);
 127:D:/XMC/Projekte/Temp/CF_XMC4700/cleanflight/src/main/common\maths.h **** float atan2_approx(float y, float x);
 128:D:/XMC/Projekte/Temp/CF_XMC4700/cleanflight/src/main/common\maths.h **** float acos_approx(float x);
 129:D:/XMC/Projekte/Temp/CF_XMC4700/cleanflight/src/main/common\maths.h **** #define tan_approx(x)       (sin_approx(x) / cos_approx(x))
 130:D:/XMC/Projekte/Temp/CF_XMC4700/cleanflight/src/main/common\maths.h **** float exp_approx(float val);
 131:D:/XMC/Projekte/Temp/CF_XMC4700/cleanflight/src/main/common\maths.h **** float log_approx(float val);
 132:D:/XMC/Projekte/Temp/CF_XMC4700/cleanflight/src/main/common\maths.h **** float pow_approx(float a, float b);
 133:D:/XMC/Projekte/Temp/CF_XMC4700/cleanflight/src/main/common\maths.h **** #else
 134:D:/XMC/Projekte/Temp/CF_XMC4700/cleanflight/src/main/common\maths.h **** #define sin_approx(x)   sinf(x)
 135:D:/XMC/Projekte/Temp/CF_XMC4700/cleanflight/src/main/common\maths.h **** #define cos_approx(x)   cosf(x)
 136:D:/XMC/Projekte/Temp/CF_XMC4700/cleanflight/src/main/common\maths.h **** #define atan2_approx(y,x)   atan2f(y,x)
 137:D:/XMC/Projekte/Temp/CF_XMC4700/cleanflight/src/main/common\maths.h **** #define acos_approx(x)      acosf(x)
 138:D:/XMC/Projekte/Temp/CF_XMC4700/cleanflight/src/main/common\maths.h **** #define tan_approx(x)       tanf(x)
 139:D:/XMC/Projekte/Temp/CF_XMC4700/cleanflight/src/main/common\maths.h **** #define exp_approx(x)       expf(x)
 140:D:/XMC/Projekte/Temp/CF_XMC4700/cleanflight/src/main/common\maths.h **** #define log_approx(x)       logf(x)
 141:D:/XMC/Projekte/Temp/CF_XMC4700/cleanflight/src/main/common\maths.h **** #define pow_approx(a, b)    powf(b, a)
 142:D:/XMC/Projekte/Temp/CF_XMC4700/cleanflight/src/main/common\maths.h **** #endif
 143:D:/XMC/Projekte/Temp/CF_XMC4700/cleanflight/src/main/common\maths.h **** 
 144:D:/XMC/Projekte/Temp/CF_XMC4700/cleanflight/src/main/common\maths.h **** void arraySubInt32(int32_t *dest, int32_t *array1, int32_t *array2, int count);
 145:D:/XMC/Projekte/Temp/CF_XMC4700/cleanflight/src/main/common\maths.h **** 
 146:D:/XMC/Projekte/Temp/CF_XMC4700/cleanflight/src/main/common\maths.h **** int16_t qPercent(fix12_t q);
 147:D:/XMC/Projekte/Temp/CF_XMC4700/cleanflight/src/main/common\maths.h **** int16_t qMultiply(fix12_t q, int16_t input);
 148:D:/XMC/Projekte/Temp/CF_XMC4700/cleanflight/src/main/common\maths.h **** fix12_t qConstruct(int16_t num, int16_t den);
 149:D:/XMC/Projekte/Temp/CF_XMC4700/cleanflight/src/main/common\maths.h **** 
 150:D:/XMC/Projekte/Temp/CF_XMC4700/cleanflight/src/main/common\maths.h **** static inline int constrain(int amt, int low, int high)
 151:D:/XMC/Projekte/Temp/CF_XMC4700/cleanflight/src/main/common\maths.h **** {
 152:D:/XMC/Projekte/Temp/CF_XMC4700/cleanflight/src/main/common\maths.h ****     if (amt < low)
 153:D:/XMC/Projekte/Temp/CF_XMC4700/cleanflight/src/main/common\maths.h ****         return low;
 154:D:/XMC/Projekte/Temp/CF_XMC4700/cleanflight/src/main/common\maths.h ****     else if (amt > high)
 155:D:/XMC/Projekte/Temp/CF_XMC4700/cleanflight/src/main/common\maths.h ****         return high;
 156:D:/XMC/Projekte/Temp/CF_XMC4700/cleanflight/src/main/common\maths.h ****     else
 157:D:/XMC/Projekte/Temp/CF_XMC4700/cleanflight/src/main/common\maths.h ****         return amt;
 158:D:/XMC/Projekte/Temp/CF_XMC4700/cleanflight/src/main/common\maths.h **** }
 159:D:/XMC/Projekte/Temp/CF_XMC4700/cleanflight/src/main/common\maths.h **** 
 160:D:/XMC/Projekte/Temp/CF_XMC4700/cleanflight/src/main/common\maths.h **** static inline float constrainf(float amt, float low, float high)
 161:D:/XMC/Projekte/Temp/CF_XMC4700/cleanflight/src/main/common\maths.h **** {
  27              	 .loc 1 161 0
  28              	 .cfi_startproc
  29              	 
  30              	 
  31              	 
  32 0000 80B4     	 push {r7}
  33              	.LCFI0:
  34              	 .cfi_def_cfa_offset 4
  35              	 .cfi_offset 7,-4
  36 0002 85B0     	 sub sp,sp,#20
  37              	.LCFI1:
  38              	 .cfi_def_cfa_offset 24
  39 0004 00AF     	 add r7,sp,#0
  40              	.LCFI2:
  41              	 .cfi_def_cfa_register 7
  42 0006 87ED030A 	 fsts s0,[r7,#12]
  43 000a C7ED020A 	 fsts s1,[r7,#8]
  44 000e 87ED011A 	 fsts s2,[r7,#4]
 162:D:/XMC/Projekte/Temp/CF_XMC4700/cleanflight/src/main/common\maths.h ****     if (amt < low)
  45              	 .loc 1 162 0
  46 0012 97ED037A 	 flds s14,[r7,#12]
  47 0016 D7ED027A 	 flds s15,[r7,#8]
  48 001a B4EEE77A 	 fcmpes s14,s15
  49 001e F1EE10FA 	 fmstat
  50 0022 01D5     	 bpl .L9
 163:D:/XMC/Projekte/Temp/CF_XMC4700/cleanflight/src/main/common\maths.h ****         return low;
  51              	 .loc 1 163 0
  52 0024 BB68     	 ldr r3,[r7,#8]
  53 0026 0BE0     	 b .L4
  54              	.L9:
 164:D:/XMC/Projekte/Temp/CF_XMC4700/cleanflight/src/main/common\maths.h ****     else if (amt > high)
  55              	 .loc 1 164 0
  56 0028 97ED037A 	 flds s14,[r7,#12]
  57 002c D7ED017A 	 flds s15,[r7,#4]
  58 0030 B4EEE77A 	 fcmpes s14,s15
  59 0034 F1EE10FA 	 fmstat
  60 0038 01DD     	 ble .L10
 165:D:/XMC/Projekte/Temp/CF_XMC4700/cleanflight/src/main/common\maths.h ****         return high;
  61              	 .loc 1 165 0
  62 003a 7B68     	 ldr r3,[r7,#4]
  63 003c 00E0     	 b .L4
  64              	.L10:
 166:D:/XMC/Projekte/Temp/CF_XMC4700/cleanflight/src/main/common\maths.h ****     else
 167:D:/XMC/Projekte/Temp/CF_XMC4700/cleanflight/src/main/common\maths.h ****         return amt;
  65              	 .loc 1 167 0
  66 003e FB68     	 ldr r3,[r7,#12]
  67              	.L4:
  68 0040 07EE903A 	 fmsr s15,r3
 168:D:/XMC/Projekte/Temp/CF_XMC4700/cleanflight/src/main/common\maths.h **** }
  69              	 .loc 1 168 0
  70 0044 B0EE670A 	 fcpys s0,s15
  71 0048 1437     	 adds r7,r7,#20
  72              	.LCFI3:
  73              	 .cfi_def_cfa_offset 4
  74 004a BD46     	 mov sp,r7
  75              	.LCFI4:
  76              	 .cfi_def_cfa_register 13
  77              	 
  78 004c 5DF8047B 	 ldr r7,[sp],#4
  79              	.LCFI5:
  80              	 .cfi_restore 7
  81              	 .cfi_def_cfa_offset 0
  82 0050 7047     	 bx lr
  83              	 .cfi_endproc
  84              	.LFE522:
  86 0052 00BF     	 .section .text.cmpTimeUs,"ax",%progbits
  87              	 .align 2
  88              	 .thumb
  89              	 .thumb_func
  91              	cmpTimeUs:
  92              	.LFB526:
  93              	 .file 2 "D:/XMC/Projekte/Temp/CF_XMC4700/cleanflight/src/main/common/time.h"
   1:D:/XMC/Projekte/Temp/CF_XMC4700/cleanflight/src/main/common\time.h **** /*
   2:D:/XMC/Projekte/Temp/CF_XMC4700/cleanflight/src/main/common\time.h ****  * This file is part of Cleanflight and Betaflight.
   3:D:/XMC/Projekte/Temp/CF_XMC4700/cleanflight/src/main/common\time.h ****  *
   4:D:/XMC/Projekte/Temp/CF_XMC4700/cleanflight/src/main/common\time.h ****  * Cleanflight and Betaflight are free software. You can redistribute
   5:D:/XMC/Projekte/Temp/CF_XMC4700/cleanflight/src/main/common\time.h ****  * this software and/or modify this software under the terms of the
   6:D:/XMC/Projekte/Temp/CF_XMC4700/cleanflight/src/main/common\time.h ****  * GNU General Public License as published by the Free Software
   7:D:/XMC/Projekte/Temp/CF_XMC4700/cleanflight/src/main/common\time.h ****  * Foundation, either version 3 of the License, or (at your option)
   8:D:/XMC/Projekte/Temp/CF_XMC4700/cleanflight/src/main/common\time.h ****  * any later version.
   9:D:/XMC/Projekte/Temp/CF_XMC4700/cleanflight/src/main/common\time.h ****  *
  10:D:/XMC/Projekte/Temp/CF_XMC4700/cleanflight/src/main/common\time.h ****  * Cleanflight and Betaflight are distributed in the hope that they
  11:D:/XMC/Projekte/Temp/CF_XMC4700/cleanflight/src/main/common\time.h ****  * will be useful, but WITHOUT ANY WARRANTY; without even the implied
  12:D:/XMC/Projekte/Temp/CF_XMC4700/cleanflight/src/main/common\time.h ****  * warranty of MERCHANTABILITY or FITNESS FOR A PARTICULAR PURPOSE.
  13:D:/XMC/Projekte/Temp/CF_XMC4700/cleanflight/src/main/common\time.h ****  * See the GNU General Public License for more details.
  14:D:/XMC/Projekte/Temp/CF_XMC4700/cleanflight/src/main/common\time.h ****  *
  15:D:/XMC/Projekte/Temp/CF_XMC4700/cleanflight/src/main/common\time.h ****  * You should have received a copy of the GNU General Public License
  16:D:/XMC/Projekte/Temp/CF_XMC4700/cleanflight/src/main/common\time.h ****  * along with this software.
  17:D:/XMC/Projekte/Temp/CF_XMC4700/cleanflight/src/main/common\time.h ****  *
  18:D:/XMC/Projekte/Temp/CF_XMC4700/cleanflight/src/main/common\time.h ****  * If not, see <http://www.gnu.org/licenses/>.
  19:D:/XMC/Projekte/Temp/CF_XMC4700/cleanflight/src/main/common\time.h ****  */
  20:D:/XMC/Projekte/Temp/CF_XMC4700/cleanflight/src/main/common\time.h **** 
  21:D:/XMC/Projekte/Temp/CF_XMC4700/cleanflight/src/main/common\time.h **** #pragma once
  22:D:/XMC/Projekte/Temp/CF_XMC4700/cleanflight/src/main/common\time.h **** 
  23:D:/XMC/Projekte/Temp/CF_XMC4700/cleanflight/src/main/common\time.h **** #include <stdbool.h>
  24:D:/XMC/Projekte/Temp/CF_XMC4700/cleanflight/src/main/common\time.h **** #include <stdint.h>
  25:D:/XMC/Projekte/Temp/CF_XMC4700/cleanflight/src/main/common\time.h **** 
  26:D:/XMC/Projekte/Temp/CF_XMC4700/cleanflight/src/main/common\time.h **** #include "platform.h"
  27:D:/XMC/Projekte/Temp/CF_XMC4700/cleanflight/src/main/common\time.h **** 
  28:D:/XMC/Projekte/Temp/CF_XMC4700/cleanflight/src/main/common\time.h **** #include "pg/pg.h"
  29:D:/XMC/Projekte/Temp/CF_XMC4700/cleanflight/src/main/common\time.h **** 
  30:D:/XMC/Projekte/Temp/CF_XMC4700/cleanflight/src/main/common\time.h **** // time difference, 32 bits always sufficient
  31:D:/XMC/Projekte/Temp/CF_XMC4700/cleanflight/src/main/common\time.h **** typedef int32_t timeDelta_t;
  32:D:/XMC/Projekte/Temp/CF_XMC4700/cleanflight/src/main/common\time.h **** // millisecond time
  33:D:/XMC/Projekte/Temp/CF_XMC4700/cleanflight/src/main/common\time.h **** typedef uint32_t timeMs_t ;
  34:D:/XMC/Projekte/Temp/CF_XMC4700/cleanflight/src/main/common\time.h **** // microsecond time
  35:D:/XMC/Projekte/Temp/CF_XMC4700/cleanflight/src/main/common\time.h **** #ifdef USE_64BIT_TIME
  36:D:/XMC/Projekte/Temp/CF_XMC4700/cleanflight/src/main/common\time.h **** typedef uint64_t timeUs_t;
  37:D:/XMC/Projekte/Temp/CF_XMC4700/cleanflight/src/main/common\time.h **** #define TIMEUS_MAX UINT64_MAX
  38:D:/XMC/Projekte/Temp/CF_XMC4700/cleanflight/src/main/common\time.h **** #else
  39:D:/XMC/Projekte/Temp/CF_XMC4700/cleanflight/src/main/common\time.h **** typedef uint32_t timeUs_t;
  40:D:/XMC/Projekte/Temp/CF_XMC4700/cleanflight/src/main/common\time.h **** #define TIMEUS_MAX UINT32_MAX
  41:D:/XMC/Projekte/Temp/CF_XMC4700/cleanflight/src/main/common\time.h **** #endif
  42:D:/XMC/Projekte/Temp/CF_XMC4700/cleanflight/src/main/common\time.h **** 
  43:D:/XMC/Projekte/Temp/CF_XMC4700/cleanflight/src/main/common\time.h **** static inline timeDelta_t cmpTimeUs(timeUs_t a, timeUs_t b) { return (timeDelta_t)(a - b); }
  94              	 .loc 2 43 0
  95              	 .cfi_startproc
  96              	 
  97              	 
  98              	 
  99 0000 80B4     	 push {r7}
 100              	.LCFI6:
 101              	 .cfi_def_cfa_offset 4
 102              	 .cfi_offset 7,-4
 103 0002 83B0     	 sub sp,sp,#12
 104              	.LCFI7:
 105              	 .cfi_def_cfa_offset 16
 106 0004 00AF     	 add r7,sp,#0
 107              	.LCFI8:
 108              	 .cfi_def_cfa_register 7
 109 0006 7860     	 str r0,[r7,#4]
 110 0008 3960     	 str r1,[r7]
 111              	 .loc 2 43 0
 112 000a 7A68     	 ldr r2,[r7,#4]
 113 000c 3B68     	 ldr r3,[r7]
 114 000e D31A     	 subs r3,r2,r3
 115 0010 1846     	 mov r0,r3
 116 0012 0C37     	 adds r7,r7,#12
 117              	.LCFI9:
 118              	 .cfi_def_cfa_offset 4
 119 0014 BD46     	 mov sp,r7
 120              	.LCFI10:
 121              	 .cfi_def_cfa_register 13
 122              	 
 123 0016 5DF8047B 	 ldr r7,[sp],#4
 124              	.LCFI11:
 125              	 .cfi_restore 7
 126              	 .cfi_def_cfa_offset 0
 127 001a 7047     	 bx lr
 128              	 .cfi_endproc
 129              	.LFE526:
 131              	 .section .text.pidProfilesMutable,"ax",%progbits
 132              	 .align 2
 133              	 .thumb
 134              	 .thumb_func
 136              	pidProfilesMutable:
 137              	.LFB538:
 138              	 .file 3 "D:/XMC/Projekte/Temp/CF_XMC4700/cleanflight/src/main/flight/pid.h"
   1:D:/XMC/Projekte/Temp/CF_XMC4700/cleanflight/src/main/flight\pid.h **** /*
   2:D:/XMC/Projekte/Temp/CF_XMC4700/cleanflight/src/main/flight\pid.h ****  * This file is part of Cleanflight and Betaflight.
   3:D:/XMC/Projekte/Temp/CF_XMC4700/cleanflight/src/main/flight\pid.h ****  *
   4:D:/XMC/Projekte/Temp/CF_XMC4700/cleanflight/src/main/flight\pid.h ****  * Cleanflight and Betaflight are free software. You can redistribute
   5:D:/XMC/Projekte/Temp/CF_XMC4700/cleanflight/src/main/flight\pid.h ****  * this software and/or modify this software under the terms of the
   6:D:/XMC/Projekte/Temp/CF_XMC4700/cleanflight/src/main/flight\pid.h ****  * GNU General Public License as published by the Free Software
   7:D:/XMC/Projekte/Temp/CF_XMC4700/cleanflight/src/main/flight\pid.h ****  * Foundation, either version 3 of the License, or (at your option)
   8:D:/XMC/Projekte/Temp/CF_XMC4700/cleanflight/src/main/flight\pid.h ****  * any later version.
   9:D:/XMC/Projekte/Temp/CF_XMC4700/cleanflight/src/main/flight\pid.h ****  *
  10:D:/XMC/Projekte/Temp/CF_XMC4700/cleanflight/src/main/flight\pid.h ****  * Cleanflight and Betaflight are distributed in the hope that they
  11:D:/XMC/Projekte/Temp/CF_XMC4700/cleanflight/src/main/flight\pid.h ****  * will be useful, but WITHOUT ANY WARRANTY; without even the implied
  12:D:/XMC/Projekte/Temp/CF_XMC4700/cleanflight/src/main/flight\pid.h ****  * warranty of MERCHANTABILITY or FITNESS FOR A PARTICULAR PURPOSE.
  13:D:/XMC/Projekte/Temp/CF_XMC4700/cleanflight/src/main/flight\pid.h ****  * See the GNU General Public License for more details.
  14:D:/XMC/Projekte/Temp/CF_XMC4700/cleanflight/src/main/flight\pid.h ****  *
  15:D:/XMC/Projekte/Temp/CF_XMC4700/cleanflight/src/main/flight\pid.h ****  * You should have received a copy of the GNU General Public License
  16:D:/XMC/Projekte/Temp/CF_XMC4700/cleanflight/src/main/flight\pid.h ****  * along with this software.
  17:D:/XMC/Projekte/Temp/CF_XMC4700/cleanflight/src/main/flight\pid.h ****  *
  18:D:/XMC/Projekte/Temp/CF_XMC4700/cleanflight/src/main/flight\pid.h ****  * If not, see <http://www.gnu.org/licenses/>.
  19:D:/XMC/Projekte/Temp/CF_XMC4700/cleanflight/src/main/flight\pid.h ****  */
  20:D:/XMC/Projekte/Temp/CF_XMC4700/cleanflight/src/main/flight\pid.h **** 
  21:D:/XMC/Projekte/Temp/CF_XMC4700/cleanflight/src/main/flight\pid.h **** #pragma once
  22:D:/XMC/Projekte/Temp/CF_XMC4700/cleanflight/src/main/flight\pid.h **** 
  23:D:/XMC/Projekte/Temp/CF_XMC4700/cleanflight/src/main/flight\pid.h **** #include <stdbool.h>
  24:D:/XMC/Projekte/Temp/CF_XMC4700/cleanflight/src/main/flight\pid.h **** #include "common/time.h"
  25:D:/XMC/Projekte/Temp/CF_XMC4700/cleanflight/src/main/flight\pid.h **** #include "common/filter.h"
  26:D:/XMC/Projekte/Temp/CF_XMC4700/cleanflight/src/main/flight\pid.h **** #include "pg/pg.h"
  27:D:/XMC/Projekte/Temp/CF_XMC4700/cleanflight/src/main/flight\pid.h **** 
  28:D:/XMC/Projekte/Temp/CF_XMC4700/cleanflight/src/main/flight\pid.h **** #define MAX_PID_PROCESS_DENOM       16
  29:D:/XMC/Projekte/Temp/CF_XMC4700/cleanflight/src/main/flight\pid.h **** #define PID_CONTROLLER_BETAFLIGHT   1
  30:D:/XMC/Projekte/Temp/CF_XMC4700/cleanflight/src/main/flight\pid.h **** #define PID_MIXER_SCALING           1000.0f
  31:D:/XMC/Projekte/Temp/CF_XMC4700/cleanflight/src/main/flight\pid.h **** #define PID_SERVO_MIXER_SCALING     0.7f
  32:D:/XMC/Projekte/Temp/CF_XMC4700/cleanflight/src/main/flight\pid.h **** #define PIDSUM_LIMIT                500
  33:D:/XMC/Projekte/Temp/CF_XMC4700/cleanflight/src/main/flight\pid.h **** #define PIDSUM_LIMIT_YAW            400
  34:D:/XMC/Projekte/Temp/CF_XMC4700/cleanflight/src/main/flight\pid.h **** #define PIDSUM_LIMIT_MIN            100
  35:D:/XMC/Projekte/Temp/CF_XMC4700/cleanflight/src/main/flight\pid.h **** #define PIDSUM_LIMIT_MAX            1000
  36:D:/XMC/Projekte/Temp/CF_XMC4700/cleanflight/src/main/flight\pid.h **** 
  37:D:/XMC/Projekte/Temp/CF_XMC4700/cleanflight/src/main/flight\pid.h **** // Scaling factors for Pids for better tunable range in configurator for betaflight pid controller.
  38:D:/XMC/Projekte/Temp/CF_XMC4700/cleanflight/src/main/flight\pid.h **** #define PTERM_SCALE 0.032029f
  39:D:/XMC/Projekte/Temp/CF_XMC4700/cleanflight/src/main/flight\pid.h **** #define ITERM_SCALE 0.244381f
  40:D:/XMC/Projekte/Temp/CF_XMC4700/cleanflight/src/main/flight\pid.h **** #define DTERM_SCALE 0.000529f
  41:D:/XMC/Projekte/Temp/CF_XMC4700/cleanflight/src/main/flight\pid.h **** 
  42:D:/XMC/Projekte/Temp/CF_XMC4700/cleanflight/src/main/flight\pid.h **** // The constant scale factor to replace the Kd component of the feedforward calculation.
  43:D:/XMC/Projekte/Temp/CF_XMC4700/cleanflight/src/main/flight\pid.h **** // This value gives the same "feel" as the previous Kd default of 26 (26 * DTERM_SCALE)
  44:D:/XMC/Projekte/Temp/CF_XMC4700/cleanflight/src/main/flight\pid.h **** #define FEEDFORWARD_SCALE 0.013754f
  45:D:/XMC/Projekte/Temp/CF_XMC4700/cleanflight/src/main/flight\pid.h **** 
  46:D:/XMC/Projekte/Temp/CF_XMC4700/cleanflight/src/main/flight\pid.h **** typedef enum {
  47:D:/XMC/Projekte/Temp/CF_XMC4700/cleanflight/src/main/flight\pid.h ****     PID_ROLL,
  48:D:/XMC/Projekte/Temp/CF_XMC4700/cleanflight/src/main/flight\pid.h ****     PID_PITCH,
  49:D:/XMC/Projekte/Temp/CF_XMC4700/cleanflight/src/main/flight\pid.h ****     PID_YAW,
  50:D:/XMC/Projekte/Temp/CF_XMC4700/cleanflight/src/main/flight\pid.h ****     PID_LEVEL,
  51:D:/XMC/Projekte/Temp/CF_XMC4700/cleanflight/src/main/flight\pid.h ****     PID_MAG,
  52:D:/XMC/Projekte/Temp/CF_XMC4700/cleanflight/src/main/flight\pid.h ****     PID_ITEM_COUNT
  53:D:/XMC/Projekte/Temp/CF_XMC4700/cleanflight/src/main/flight\pid.h **** } pidIndex_e;
  54:D:/XMC/Projekte/Temp/CF_XMC4700/cleanflight/src/main/flight\pid.h **** 
  55:D:/XMC/Projekte/Temp/CF_XMC4700/cleanflight/src/main/flight\pid.h **** typedef enum {
  56:D:/XMC/Projekte/Temp/CF_XMC4700/cleanflight/src/main/flight\pid.h ****     SUPEREXPO_YAW_OFF = 0,
  57:D:/XMC/Projekte/Temp/CF_XMC4700/cleanflight/src/main/flight\pid.h ****     SUPEREXPO_YAW_ON,
  58:D:/XMC/Projekte/Temp/CF_XMC4700/cleanflight/src/main/flight\pid.h ****     SUPEREXPO_YAW_ALWAYS
  59:D:/XMC/Projekte/Temp/CF_XMC4700/cleanflight/src/main/flight\pid.h **** } pidSuperExpoYaw_e;
  60:D:/XMC/Projekte/Temp/CF_XMC4700/cleanflight/src/main/flight\pid.h **** 
  61:D:/XMC/Projekte/Temp/CF_XMC4700/cleanflight/src/main/flight\pid.h **** typedef enum {
  62:D:/XMC/Projekte/Temp/CF_XMC4700/cleanflight/src/main/flight\pid.h ****     PID_STABILISATION_OFF = 0,
  63:D:/XMC/Projekte/Temp/CF_XMC4700/cleanflight/src/main/flight\pid.h ****     PID_STABILISATION_ON
  64:D:/XMC/Projekte/Temp/CF_XMC4700/cleanflight/src/main/flight\pid.h **** } pidStabilisationState_e;
  65:D:/XMC/Projekte/Temp/CF_XMC4700/cleanflight/src/main/flight\pid.h **** 
  66:D:/XMC/Projekte/Temp/CF_XMC4700/cleanflight/src/main/flight\pid.h **** typedef enum {
  67:D:/XMC/Projekte/Temp/CF_XMC4700/cleanflight/src/main/flight\pid.h ****     PID_CRASH_RECOVERY_OFF = 0,
  68:D:/XMC/Projekte/Temp/CF_XMC4700/cleanflight/src/main/flight\pid.h ****     PID_CRASH_RECOVERY_ON,
  69:D:/XMC/Projekte/Temp/CF_XMC4700/cleanflight/src/main/flight\pid.h ****     PID_CRASH_RECOVERY_BEEP
  70:D:/XMC/Projekte/Temp/CF_XMC4700/cleanflight/src/main/flight\pid.h **** } pidCrashRecovery_e;
  71:D:/XMC/Projekte/Temp/CF_XMC4700/cleanflight/src/main/flight\pid.h **** 
  72:D:/XMC/Projekte/Temp/CF_XMC4700/cleanflight/src/main/flight\pid.h **** typedef struct pidf_s {
  73:D:/XMC/Projekte/Temp/CF_XMC4700/cleanflight/src/main/flight\pid.h ****     uint8_t P;
  74:D:/XMC/Projekte/Temp/CF_XMC4700/cleanflight/src/main/flight\pid.h ****     uint8_t I;
  75:D:/XMC/Projekte/Temp/CF_XMC4700/cleanflight/src/main/flight\pid.h ****     uint8_t D;
  76:D:/XMC/Projekte/Temp/CF_XMC4700/cleanflight/src/main/flight\pid.h ****     uint16_t F;
  77:D:/XMC/Projekte/Temp/CF_XMC4700/cleanflight/src/main/flight\pid.h **** } pidf_t;
  78:D:/XMC/Projekte/Temp/CF_XMC4700/cleanflight/src/main/flight\pid.h **** 
  79:D:/XMC/Projekte/Temp/CF_XMC4700/cleanflight/src/main/flight\pid.h **** typedef enum {
  80:D:/XMC/Projekte/Temp/CF_XMC4700/cleanflight/src/main/flight\pid.h ****     ANTI_GRAVITY_SMOOTH,
  81:D:/XMC/Projekte/Temp/CF_XMC4700/cleanflight/src/main/flight\pid.h ****     ANTI_GRAVITY_STEP
  82:D:/XMC/Projekte/Temp/CF_XMC4700/cleanflight/src/main/flight\pid.h **** } antiGravityMode_e;
  83:D:/XMC/Projekte/Temp/CF_XMC4700/cleanflight/src/main/flight\pid.h **** 
  84:D:/XMC/Projekte/Temp/CF_XMC4700/cleanflight/src/main/flight\pid.h **** typedef enum {
  85:D:/XMC/Projekte/Temp/CF_XMC4700/cleanflight/src/main/flight\pid.h ****     ITERM_RELAX_OFF,
  86:D:/XMC/Projekte/Temp/CF_XMC4700/cleanflight/src/main/flight\pid.h ****     ITERM_RELAX_RP,
  87:D:/XMC/Projekte/Temp/CF_XMC4700/cleanflight/src/main/flight\pid.h ****     ITERM_RELAX_RPY,
  88:D:/XMC/Projekte/Temp/CF_XMC4700/cleanflight/src/main/flight\pid.h ****     ITERM_RELAX_RP_INC,
  89:D:/XMC/Projekte/Temp/CF_XMC4700/cleanflight/src/main/flight\pid.h ****     ITERM_RELAX_RPY_INC
  90:D:/XMC/Projekte/Temp/CF_XMC4700/cleanflight/src/main/flight\pid.h **** } itermRelax_e;
  91:D:/XMC/Projekte/Temp/CF_XMC4700/cleanflight/src/main/flight\pid.h **** 
  92:D:/XMC/Projekte/Temp/CF_XMC4700/cleanflight/src/main/flight\pid.h **** typedef enum {
  93:D:/XMC/Projekte/Temp/CF_XMC4700/cleanflight/src/main/flight\pid.h ****     ITERM_RELAX_GYRO,
  94:D:/XMC/Projekte/Temp/CF_XMC4700/cleanflight/src/main/flight\pid.h ****     ITERM_RELAX_SETPOINT
  95:D:/XMC/Projekte/Temp/CF_XMC4700/cleanflight/src/main/flight\pid.h **** } itermRelaxType_e;
  96:D:/XMC/Projekte/Temp/CF_XMC4700/cleanflight/src/main/flight\pid.h **** 
  97:D:/XMC/Projekte/Temp/CF_XMC4700/cleanflight/src/main/flight\pid.h **** typedef struct pidProfile_s {
  98:D:/XMC/Projekte/Temp/CF_XMC4700/cleanflight/src/main/flight\pid.h ****     uint16_t yaw_lowpass_hz;                // Additional yaw filter when yaw axis too noisy
  99:D:/XMC/Projekte/Temp/CF_XMC4700/cleanflight/src/main/flight\pid.h ****     uint16_t dterm_lowpass_hz;              // Delta Filter in hz
 100:D:/XMC/Projekte/Temp/CF_XMC4700/cleanflight/src/main/flight\pid.h ****     uint16_t dterm_notch_hz;                // Biquad dterm notch hz
 101:D:/XMC/Projekte/Temp/CF_XMC4700/cleanflight/src/main/flight\pid.h ****     uint16_t dterm_notch_cutoff;            // Biquad dterm notch low cutoff
 102:D:/XMC/Projekte/Temp/CF_XMC4700/cleanflight/src/main/flight\pid.h **** 
 103:D:/XMC/Projekte/Temp/CF_XMC4700/cleanflight/src/main/flight\pid.h ****     pidf_t  pid[PID_ITEM_COUNT];
 104:D:/XMC/Projekte/Temp/CF_XMC4700/cleanflight/src/main/flight\pid.h **** 
 105:D:/XMC/Projekte/Temp/CF_XMC4700/cleanflight/src/main/flight\pid.h ****     uint8_t dterm_filter_type;              // Filter selection for dterm
 106:D:/XMC/Projekte/Temp/CF_XMC4700/cleanflight/src/main/flight\pid.h ****     uint8_t itermWindupPointPercent;        // Experimental ITerm windup threshold, percent motor s
 107:D:/XMC/Projekte/Temp/CF_XMC4700/cleanflight/src/main/flight\pid.h ****     uint16_t pidSumLimit;
 108:D:/XMC/Projekte/Temp/CF_XMC4700/cleanflight/src/main/flight\pid.h ****     uint16_t pidSumLimitYaw;
 109:D:/XMC/Projekte/Temp/CF_XMC4700/cleanflight/src/main/flight\pid.h ****     uint8_t pidAtMinThrottle;               // Disable/Enable pids on zero throttle. Normally even 
 110:D:/XMC/Projekte/Temp/CF_XMC4700/cleanflight/src/main/flight\pid.h ****     uint8_t levelAngleLimit;                // Max angle in degrees in level mode
 111:D:/XMC/Projekte/Temp/CF_XMC4700/cleanflight/src/main/flight\pid.h **** 
 112:D:/XMC/Projekte/Temp/CF_XMC4700/cleanflight/src/main/flight\pid.h ****     uint8_t horizon_tilt_effect;            // inclination factor for Horizon mode
 113:D:/XMC/Projekte/Temp/CF_XMC4700/cleanflight/src/main/flight\pid.h ****     uint8_t horizon_tilt_expert_mode;       // OFF or ON
 114:D:/XMC/Projekte/Temp/CF_XMC4700/cleanflight/src/main/flight\pid.h **** 
 115:D:/XMC/Projekte/Temp/CF_XMC4700/cleanflight/src/main/flight\pid.h ****     // Betaflight PID controller parameters
 116:D:/XMC/Projekte/Temp/CF_XMC4700/cleanflight/src/main/flight\pid.h ****     uint8_t  antiGravityMode;             // type of anti gravity method
 117:D:/XMC/Projekte/Temp/CF_XMC4700/cleanflight/src/main/flight\pid.h ****     uint16_t itermThrottleThreshold;        // max allowed throttle delta before iterm accelerated 
 118:D:/XMC/Projekte/Temp/CF_XMC4700/cleanflight/src/main/flight\pid.h ****     uint16_t itermAcceleratorGain;          // Iterm Accelerator Gain when itermThrottlethreshold i
 119:D:/XMC/Projekte/Temp/CF_XMC4700/cleanflight/src/main/flight\pid.h ****     uint16_t yawRateAccelLimit;             // yaw accel limiter for deg/sec/ms
 120:D:/XMC/Projekte/Temp/CF_XMC4700/cleanflight/src/main/flight\pid.h ****     uint16_t rateAccelLimit;                // accel limiter roll/pitch deg/sec/ms
 121:D:/XMC/Projekte/Temp/CF_XMC4700/cleanflight/src/main/flight\pid.h ****     uint16_t crash_dthreshold;              // dterm crash value
 122:D:/XMC/Projekte/Temp/CF_XMC4700/cleanflight/src/main/flight\pid.h ****     uint16_t crash_gthreshold;              // gyro crash value
 123:D:/XMC/Projekte/Temp/CF_XMC4700/cleanflight/src/main/flight\pid.h ****     uint16_t crash_setpoint_threshold;      // setpoint must be below this value to detect crash, s
 124:D:/XMC/Projekte/Temp/CF_XMC4700/cleanflight/src/main/flight\pid.h ****     uint16_t crash_time;                    // ms
 125:D:/XMC/Projekte/Temp/CF_XMC4700/cleanflight/src/main/flight\pid.h ****     uint16_t crash_delay;                   // ms
 126:D:/XMC/Projekte/Temp/CF_XMC4700/cleanflight/src/main/flight\pid.h ****     uint8_t crash_recovery_angle;           // degrees
 127:D:/XMC/Projekte/Temp/CF_XMC4700/cleanflight/src/main/flight\pid.h ****     uint8_t crash_recovery_rate;            // degree/second
 128:D:/XMC/Projekte/Temp/CF_XMC4700/cleanflight/src/main/flight\pid.h ****     uint8_t vbatPidCompensation;            // Scale PIDsum to battery voltage
 129:D:/XMC/Projekte/Temp/CF_XMC4700/cleanflight/src/main/flight\pid.h ****     uint8_t feedForwardTransition;          // Feed forward weight transition
 130:D:/XMC/Projekte/Temp/CF_XMC4700/cleanflight/src/main/flight\pid.h ****     uint16_t crash_limit_yaw;               // limits yaw errorRate, so crashes don't cause huge th
 131:D:/XMC/Projekte/Temp/CF_XMC4700/cleanflight/src/main/flight\pid.h ****     uint16_t itermLimit;
 132:D:/XMC/Projekte/Temp/CF_XMC4700/cleanflight/src/main/flight\pid.h ****     uint16_t dterm_lowpass2_hz;             // Extra PT1 Filter on D in hz
 133:D:/XMC/Projekte/Temp/CF_XMC4700/cleanflight/src/main/flight\pid.h ****     uint8_t crash_recovery;                 // off, on, on and beeps when it is in crash recovery m
 134:D:/XMC/Projekte/Temp/CF_XMC4700/cleanflight/src/main/flight\pid.h ****     uint8_t throttle_boost;                 // how much should throttle be boosted during transient
 135:D:/XMC/Projekte/Temp/CF_XMC4700/cleanflight/src/main/flight\pid.h ****     uint8_t throttle_boost_cutoff;          // Which cutoff frequency to use for throttle boost. hi
 136:D:/XMC/Projekte/Temp/CF_XMC4700/cleanflight/src/main/flight\pid.h ****     uint8_t iterm_rotation;                 // rotates iterm to translate world errors to local coo
 137:D:/XMC/Projekte/Temp/CF_XMC4700/cleanflight/src/main/flight\pid.h ****     uint8_t smart_feedforward;              // takes only the larger of P and the D weight feed for
 138:D:/XMC/Projekte/Temp/CF_XMC4700/cleanflight/src/main/flight\pid.h ****     uint8_t iterm_relax_type;               // Specifies type of relax algorithm
 139:D:/XMC/Projekte/Temp/CF_XMC4700/cleanflight/src/main/flight\pid.h ****     uint8_t iterm_relax_cutoff;             // This cutoff frequency specifies a low pass filter wh
 140:D:/XMC/Projekte/Temp/CF_XMC4700/cleanflight/src/main/flight\pid.h ****     uint8_t iterm_relax;                    // Enable iterm suppression during stick input
 141:D:/XMC/Projekte/Temp/CF_XMC4700/cleanflight/src/main/flight\pid.h ****     uint8_t acro_trainer_angle_limit;       // Acro trainer roll/pitch angle limit in degrees
 142:D:/XMC/Projekte/Temp/CF_XMC4700/cleanflight/src/main/flight\pid.h ****     uint8_t acro_trainer_debug_axis;        // The axis for which record debugging values are captu
 143:D:/XMC/Projekte/Temp/CF_XMC4700/cleanflight/src/main/flight\pid.h ****     uint8_t acro_trainer_gain;              // The strength of the limiting. Raising may reduce ove
 144:D:/XMC/Projekte/Temp/CF_XMC4700/cleanflight/src/main/flight\pid.h ****     uint16_t acro_trainer_lookahead_ms;     // The lookahead window in milliseconds used to reduce 
 145:D:/XMC/Projekte/Temp/CF_XMC4700/cleanflight/src/main/flight\pid.h ****     uint8_t abs_control_gain;               // How strongly should the absolute accumulated error b
 146:D:/XMC/Projekte/Temp/CF_XMC4700/cleanflight/src/main/flight\pid.h ****     uint8_t abs_control_limit;              // Limit to the correction
 147:D:/XMC/Projekte/Temp/CF_XMC4700/cleanflight/src/main/flight\pid.h ****     uint8_t abs_control_error_limit;        // Limit to the accumulated error
 148:D:/XMC/Projekte/Temp/CF_XMC4700/cleanflight/src/main/flight\pid.h **** } pidProfile_t;
 149:D:/XMC/Projekte/Temp/CF_XMC4700/cleanflight/src/main/flight\pid.h **** 
 150:D:/XMC/Projekte/Temp/CF_XMC4700/cleanflight/src/main/flight\pid.h **** #ifndef USE_OSD_SLAVE
 151:D:/XMC/Projekte/Temp/CF_XMC4700/cleanflight/src/main/flight\pid.h **** PG_DECLARE_ARRAY(pidProfile_t, MAX_PROFILE_COUNT, pidProfiles);
 139              	 .loc 3 151 0
 140              	 .cfi_startproc
 141              	 
 142              	 
 143              	 
 144 0000 80B4     	 push {r7}
 145              	.LCFI12:
 146              	 .cfi_def_cfa_offset 4
 147              	 .cfi_offset 7,-4
 148 0002 83B0     	 sub sp,sp,#12
 149              	.LCFI13:
 150              	 .cfi_def_cfa_offset 16
 151 0004 00AF     	 add r7,sp,#0
 152              	.LCFI14:
 153              	 .cfi_def_cfa_register 7
 154 0006 7860     	 str r0,[r7,#4]
 155              	 .loc 3 151 0
 156 0008 7B68     	 ldr r3,[r7,#4]
 157 000a 5822     	 movs r2,#88
 158 000c 02FB03F3 	 mul r3,r2,r3
 159 0010 034A     	 ldr r2,.L15
 160 0012 1344     	 add r3,r3,r2
 161 0014 1846     	 mov r0,r3
 162 0016 0C37     	 adds r7,r7,#12
 163              	.LCFI15:
 164              	 .cfi_def_cfa_offset 4
 165 0018 BD46     	 mov sp,r7
 166              	.LCFI16:
 167              	 .cfi_def_cfa_register 13
 168              	 
 169 001a 5DF8047B 	 ldr r7,[sp],#4
 170              	.LCFI17:
 171              	 .cfi_restore 7
 172              	 .cfi_def_cfa_offset 0
 173 001e 7047     	 bx lr
 174              	.L16:
 175              	 .align 2
 176              	.L15:
 177 0020 00000000 	 .word pidProfiles_SystemArray
 178              	 .cfi_endproc
 179              	.LFE538:
 181              	 .section .text.pidConfig,"ax",%progbits
 182              	 .align 2
 183              	 .thumb
 184              	 .thumb_func
 186              	pidConfig:
 187              	.LFB540:
 152:D:/XMC/Projekte/Temp/CF_XMC4700/cleanflight/src/main/flight\pid.h **** #endif
 153:D:/XMC/Projekte/Temp/CF_XMC4700/cleanflight/src/main/flight\pid.h **** 
 154:D:/XMC/Projekte/Temp/CF_XMC4700/cleanflight/src/main/flight\pid.h **** typedef struct pidConfig_s {
 155:D:/XMC/Projekte/Temp/CF_XMC4700/cleanflight/src/main/flight\pid.h ****     uint8_t pid_process_denom;              // Processing denominator for PID controller vs gyro sa
 156:D:/XMC/Projekte/Temp/CF_XMC4700/cleanflight/src/main/flight\pid.h ****     uint8_t runaway_takeoff_prevention;          // off, on - enables pidsum runaway disarm logic
 157:D:/XMC/Projekte/Temp/CF_XMC4700/cleanflight/src/main/flight\pid.h ****     uint16_t runaway_takeoff_deactivate_delay;   // delay in ms for "in-flight" conditions before d
 158:D:/XMC/Projekte/Temp/CF_XMC4700/cleanflight/src/main/flight\pid.h ****     uint8_t runaway_takeoff_deactivate_throttle; // minimum throttle percent required during deacti
 159:D:/XMC/Projekte/Temp/CF_XMC4700/cleanflight/src/main/flight\pid.h **** } pidConfig_t;
 160:D:/XMC/Projekte/Temp/CF_XMC4700/cleanflight/src/main/flight\pid.h **** 
 161:D:/XMC/Projekte/Temp/CF_XMC4700/cleanflight/src/main/flight\pid.h **** PG_DECLARE(pidConfig_t, pidConfig);
 188              	 .loc 3 161 0
 189              	 .cfi_startproc
 190              	 
 191              	 
 192              	 
 193 0000 80B4     	 push {r7}
 194              	.LCFI18:
 195              	 .cfi_def_cfa_offset 4
 196              	 .cfi_offset 7,-4
 197 0002 00AF     	 add r7,sp,#0
 198              	.LCFI19:
 199              	 .cfi_def_cfa_register 7
 200              	 .loc 3 161 0
 201 0004 024B     	 ldr r3,.L19
 202 0006 1846     	 mov r0,r3
 203 0008 BD46     	 mov sp,r7
 204              	.LCFI20:
 205              	 .cfi_def_cfa_register 13
 206              	 
 207 000a 5DF8047B 	 ldr r7,[sp],#4
 208              	.LCFI21:
 209              	 .cfi_restore 7
 210              	 .cfi_def_cfa_offset 0
 211 000e 7047     	 bx lr
 212              	.L20:
 213              	 .align 2
 214              	.L19:
 215 0010 00000000 	 .word pidConfig_System
 216              	 .cfi_endproc
 217              	.LFE540:
 219              	 .global pidNames
 220              	 .section .rodata.pidNames,"a",%progbits
 221              	 .align 2
 224              	pidNames:
 225 0000 524F4C4C 	 .ascii "ROLL;PITCH;YAW;LEVEL;MAG;\000"
 225      3B504954 
 225      43483B59 
 225      41573B4C 
 225      4556454C 
 226              	 .comm targetPidLooptime,4,4
 227              	 .comm pidData,60,4
 228 001a 0000     	 .section .bss.pidStabilisationEnabled,"aw",%nobits
 231              	pidStabilisationEnabled:
 232 0000 00       	 .space 1
 233              	 .section .bss.inCrashRecoveryMode,"aw",%nobits
 236              	inCrashRecoveryMode:
 237 0000 00       	 .space 1
 238              	 .section .bss.dT,"aw",%nobits
 239              	 .align 2
 242              	dT:
 243 0000 00000000 	 .space 4
 244              	 .section .bss.pidFrequency,"aw",%nobits
 245              	 .align 2
 248              	pidFrequency:
 249 0000 00000000 	 .space 4
 250              	 .section .bss.antiGravityMode,"aw",%nobits
 253              	antiGravityMode:
 254 0000 00       	 .space 1
 255              	 .section .bss.antiGravityThrottleHpf,"aw",%nobits
 256              	 .align 2
 259              	antiGravityThrottleHpf:
 260 0000 00000000 	 .space 4
 261              	 .section .bss.itermAcceleratorGain,"aw",%nobits
 262              	 .align 1
 265              	itermAcceleratorGain:
 266 0000 0000     	 .space 2
 267              	 .section .data.antiGravityOsdCutoff,"aw",%progbits
 268              	 .align 2
 271              	antiGravityOsdCutoff:
 272 0000 0000803F 	 .word 1065353216
 273              	 .section .bss.antiGravityEnabled,"aw",%nobits
 276              	antiGravityEnabled:
 277 0000 00       	 .space 1
 278              	 .comm pidConfig_System,5,4
 279              	 .comm pidConfig_Copy,5,4
 280              	 .global pidConfig_Registry
 281              	 .section .pg_registry,"a",%progbits
 282              	 .align 2
 285              	pidConfig_Registry:
 286 0000 F821     	 .short 8696
 287 0002 0500     	 .short 5
 288 0004 00000000 	 .word pidConfig_System
 289 0008 00000000 	 .word pidConfig_Copy
 290 000c 00000000 	 .word 0
 291 0010 00000000 	 .word pgResetTemplate_pidConfig
 292              	 .global pgResetTemplate_pidConfig
 293              	 .section .pg_resetdata,"a",%progbits
 294              	 .align 1
 297              	pgResetTemplate_pidConfig:
 298 0000 02       	 .byte 2
 299 0001 01       	 .byte 1
 300 0002 F401     	 .short 500
 301 0004 19       	 .byte 25
 302              	 .comm pidProfiles_SystemArray,264,4
 303              	 .comm pidProfiles_CopyArray,264,4
 304              	 .global pidProfiles_Registry
 305 0005 00       	 .section .pg_registry
 306              	 .align 2
 309              	pidProfiles_Registry:
 310 0014 0E50     	 .short 20494
 311 0016 0801     	 .short 264
 312 0018 00000000 	 .word pidProfiles_SystemArray
 313 001c 00000000 	 .word pidProfiles_CopyArray
 314 0020 00000000 	 .word 0
 315 0024 00000000 	 .word pgResetFn_pidProfiles
 316              	 .section .text.resetPidProfile,"ax",%progbits
 317              	 .align 2
 318              	 .global resetPidProfile
 319              	 .thumb
 320              	 .thumb_func
 322              	resetPidProfile:
 323              	.LFB563:
 324              	 .file 4 "../cleanflight/src/main/flight/pid.c"
   1:../cleanflight/src/main/flight/pid.c **** /*
   2:../cleanflight/src/main/flight/pid.c ****  * This file is part of Cleanflight and Betaflight.
   3:../cleanflight/src/main/flight/pid.c ****  *
   4:../cleanflight/src/main/flight/pid.c ****  * Cleanflight and Betaflight are free software. You can redistribute
   5:../cleanflight/src/main/flight/pid.c ****  * this software and/or modify this software under the terms of the
   6:../cleanflight/src/main/flight/pid.c ****  * GNU General Public License as published by the Free Software
   7:../cleanflight/src/main/flight/pid.c ****  * Foundation, either version 3 of the License, or (at your option)
   8:../cleanflight/src/main/flight/pid.c ****  * any later version.
   9:../cleanflight/src/main/flight/pid.c ****  *
  10:../cleanflight/src/main/flight/pid.c ****  * Cleanflight and Betaflight are distributed in the hope that they
  11:../cleanflight/src/main/flight/pid.c ****  * will be useful, but WITHOUT ANY WARRANTY; without even the implied
  12:../cleanflight/src/main/flight/pid.c ****  * warranty of MERCHANTABILITY or FITNESS FOR A PARTICULAR PURPOSE.
  13:../cleanflight/src/main/flight/pid.c ****  * See the GNU General Public License for more details.
  14:../cleanflight/src/main/flight/pid.c ****  *
  15:../cleanflight/src/main/flight/pid.c ****  * You should have received a copy of the GNU General Public License
  16:../cleanflight/src/main/flight/pid.c ****  * along with this software.
  17:../cleanflight/src/main/flight/pid.c ****  *
  18:../cleanflight/src/main/flight/pid.c ****  * If not, see <http://www.gnu.org/licenses/>.
  19:../cleanflight/src/main/flight/pid.c ****  */
  20:../cleanflight/src/main/flight/pid.c **** 
  21:../cleanflight/src/main/flight/pid.c **** #include <stdbool.h>
  22:../cleanflight/src/main/flight/pid.c **** #include <stdint.h>
  23:../cleanflight/src/main/flight/pid.c **** #include <string.h>
  24:../cleanflight/src/main/flight/pid.c **** #include <math.h>
  25:../cleanflight/src/main/flight/pid.c **** 
  26:../cleanflight/src/main/flight/pid.c **** #include "platform.h"
  27:../cleanflight/src/main/flight/pid.c **** 
  28:../cleanflight/src/main/flight/pid.c **** #include "build/build_config.h"
  29:../cleanflight/src/main/flight/pid.c **** #include "build/debug.h"
  30:../cleanflight/src/main/flight/pid.c **** 
  31:../cleanflight/src/main/flight/pid.c **** #include "common/axis.h"
  32:../cleanflight/src/main/flight/pid.c **** #include "common/maths.h"
  33:../cleanflight/src/main/flight/pid.c **** #include "common/filter.h"
  34:../cleanflight/src/main/flight/pid.c **** 
  35:../cleanflight/src/main/flight/pid.c **** #include "config/config_reset.h"
  36:../cleanflight/src/main/flight/pid.c **** #include "pg/pg.h"
  37:../cleanflight/src/main/flight/pid.c **** #include "pg/pg_ids.h"
  38:../cleanflight/src/main/flight/pid.c **** 
  39:../cleanflight/src/main/flight/pid.c **** #include "drivers/sound_beeper.h"
  40:../cleanflight/src/main/flight/pid.c **** #include "drivers/time.h"
  41:../cleanflight/src/main/flight/pid.c **** 
  42:../cleanflight/src/main/flight/pid.c **** #include "fc/fc_core.h"
  43:../cleanflight/src/main/flight/pid.c **** #include "fc/fc_rc.h"
  44:../cleanflight/src/main/flight/pid.c **** 
  45:../cleanflight/src/main/flight/pid.c **** #include "fc/rc_controls.h"
  46:../cleanflight/src/main/flight/pid.c **** #include "fc/runtime_config.h"
  47:../cleanflight/src/main/flight/pid.c **** 
  48:../cleanflight/src/main/flight/pid.c **** #include "flight/pid.h"
  49:../cleanflight/src/main/flight/pid.c **** #include "flight/imu.h"
  50:../cleanflight/src/main/flight/pid.c **** #include "flight/gps_rescue.h"
  51:../cleanflight/src/main/flight/pid.c **** #include "flight/mixer.h"
  52:../cleanflight/src/main/flight/pid.c **** 
  53:../cleanflight/src/main/flight/pid.c **** #include "io/gps.h"
  54:../cleanflight/src/main/flight/pid.c **** 
  55:../cleanflight/src/main/flight/pid.c **** #include "sensors/gyro.h"
  56:../cleanflight/src/main/flight/pid.c **** #include "sensors/acceleration.h"
  57:../cleanflight/src/main/flight/pid.c **** 
  58:../cleanflight/src/main/flight/pid.c **** 
  59:../cleanflight/src/main/flight/pid.c **** #define ITERM_RELAX_SETPOINT_THRESHOLD 30.0f
  60:../cleanflight/src/main/flight/pid.c **** 
  61:../cleanflight/src/main/flight/pid.c **** const char pidNames[] =
  62:../cleanflight/src/main/flight/pid.c ****     "ROLL;"
  63:../cleanflight/src/main/flight/pid.c ****     "PITCH;"
  64:../cleanflight/src/main/flight/pid.c ****     "YAW;"
  65:../cleanflight/src/main/flight/pid.c ****     "LEVEL;"
  66:../cleanflight/src/main/flight/pid.c ****     "MAG;";
  67:../cleanflight/src/main/flight/pid.c **** 
  68:../cleanflight/src/main/flight/pid.c **** FAST_RAM_ZERO_INIT uint32_t targetPidLooptime;
  69:../cleanflight/src/main/flight/pid.c **** FAST_RAM_ZERO_INIT pidAxisData_t pidData[XYZ_AXIS_COUNT];
  70:../cleanflight/src/main/flight/pid.c **** 
  71:../cleanflight/src/main/flight/pid.c **** static FAST_RAM_ZERO_INIT bool pidStabilisationEnabled;
  72:../cleanflight/src/main/flight/pid.c **** 
  73:../cleanflight/src/main/flight/pid.c **** static FAST_RAM_ZERO_INIT bool inCrashRecoveryMode = false;
  74:../cleanflight/src/main/flight/pid.c **** 
  75:../cleanflight/src/main/flight/pid.c **** static FAST_RAM_ZERO_INIT float dT;
  76:../cleanflight/src/main/flight/pid.c **** static FAST_RAM_ZERO_INIT float pidFrequency;
  77:../cleanflight/src/main/flight/pid.c **** 
  78:../cleanflight/src/main/flight/pid.c **** static FAST_RAM_ZERO_INIT uint8_t antiGravityMode;
  79:../cleanflight/src/main/flight/pid.c **** static FAST_RAM_ZERO_INIT float antiGravityThrottleHpf;
  80:../cleanflight/src/main/flight/pid.c **** static FAST_RAM_ZERO_INIT uint16_t itermAcceleratorGain;
  81:../cleanflight/src/main/flight/pid.c **** static FAST_RAM float antiGravityOsdCutoff = 1.0f;
  82:../cleanflight/src/main/flight/pid.c **** static FAST_RAM_ZERO_INIT bool antiGravityEnabled;
  83:../cleanflight/src/main/flight/pid.c **** 
  84:../cleanflight/src/main/flight/pid.c **** PG_REGISTER_WITH_RESET_TEMPLATE(pidConfig_t, pidConfig, PG_PID_CONFIG, 2);
  85:../cleanflight/src/main/flight/pid.c **** 
  86:../cleanflight/src/main/flight/pid.c **** #ifdef STM32F10X
  87:../cleanflight/src/main/flight/pid.c **** #define PID_PROCESS_DENOM_DEFAULT       1
  88:../cleanflight/src/main/flight/pid.c **** #elif defined(USE_GYRO_SPI_MPU6000) || defined(USE_GYRO_SPI_MPU6500)  || defined(USE_GYRO_SPI_ICM20
  89:../cleanflight/src/main/flight/pid.c **** #define PID_PROCESS_DENOM_DEFAULT       4
  90:../cleanflight/src/main/flight/pid.c **** #else
  91:../cleanflight/src/main/flight/pid.c **** #define PID_PROCESS_DENOM_DEFAULT       2
  92:../cleanflight/src/main/flight/pid.c **** #endif
  93:../cleanflight/src/main/flight/pid.c **** 
  94:../cleanflight/src/main/flight/pid.c **** #ifdef USE_RUNAWAY_TAKEOFF
  95:../cleanflight/src/main/flight/pid.c **** PG_RESET_TEMPLATE(pidConfig_t, pidConfig,
  96:../cleanflight/src/main/flight/pid.c ****     .pid_process_denom = PID_PROCESS_DENOM_DEFAULT,
  97:../cleanflight/src/main/flight/pid.c ****     .runaway_takeoff_prevention = true,
  98:../cleanflight/src/main/flight/pid.c ****     .runaway_takeoff_deactivate_throttle = 25,  // throttle level % needed to accumulate deactivati
  99:../cleanflight/src/main/flight/pid.c ****     .runaway_takeoff_deactivate_delay = 500     // Accumulated time (in milliseconds) before deacti
 100:../cleanflight/src/main/flight/pid.c **** );
 101:../cleanflight/src/main/flight/pid.c **** #else
 102:../cleanflight/src/main/flight/pid.c **** PG_RESET_TEMPLATE(pidConfig_t, pidConfig,
 103:../cleanflight/src/main/flight/pid.c ****     .pid_process_denom = PID_PROCESS_DENOM_DEFAULT
 104:../cleanflight/src/main/flight/pid.c **** );
 105:../cleanflight/src/main/flight/pid.c **** #endif
 106:../cleanflight/src/main/flight/pid.c **** 
 107:../cleanflight/src/main/flight/pid.c **** #ifdef USE_ACRO_TRAINER
 108:../cleanflight/src/main/flight/pid.c **** #define ACRO_TRAINER_LOOKAHEAD_RATE_LIMIT 500.0f  // Max gyro rate for lookahead time scaling
 109:../cleanflight/src/main/flight/pid.c **** #define ACRO_TRAINER_SETPOINT_LIMIT       1000.0f // Limit the correcting setpoint
 110:../cleanflight/src/main/flight/pid.c **** #endif // USE_ACRO_TRAINER
 111:../cleanflight/src/main/flight/pid.c **** 
 112:../cleanflight/src/main/flight/pid.c **** #define ANTI_GRAVITY_THROTTLE_FILTER_CUTOFF 15  // The anti gravity throttle highpass filter cutoff
 113:../cleanflight/src/main/flight/pid.c **** 
 114:../cleanflight/src/main/flight/pid.c **** PG_REGISTER_ARRAY_WITH_RESET_FN(pidProfile_t, MAX_PROFILE_COUNT, pidProfiles, PG_PID_PROFILE, 5);
 115:../cleanflight/src/main/flight/pid.c **** 
 116:../cleanflight/src/main/flight/pid.c **** void resetPidProfile(pidProfile_t *pidProfile)
 117:../cleanflight/src/main/flight/pid.c **** {
 325              	 .loc 4 117 0
 326              	 .cfi_startproc
 327              	 
 328              	 
 329 0000 80B5     	 push {r7,lr}
 330              	.LCFI22:
 331              	 .cfi_def_cfa_offset 8
 332              	 .cfi_offset 7,-8
 333              	 .cfi_offset 14,-4
 334 0002 82B0     	 sub sp,sp,#8
 335              	.LCFI23:
 336              	 .cfi_def_cfa_offset 16
 337 0004 00AF     	 add r7,sp,#0
 338              	.LCFI24:
 339              	 .cfi_def_cfa_register 7
 340 0006 7860     	 str r0,[r7,#4]
 118:../cleanflight/src/main/flight/pid.c ****     RESET_CONFIG(pidProfile_t, pidProfile,
 341              	 .loc 4 118 0
 342 0008 7B68     	 ldr r3,[r7,#4]
 343 000a 054A     	 ldr r2,.L22
 344 000c 1946     	 mov r1,r3
 345 000e 5823     	 movs r3,#88
 346 0010 0846     	 mov r0,r1
 347 0012 1146     	 mov r1,r2
 348 0014 1A46     	 mov r2,r3
 349 0016 FFF7FEFF 	 bl memcpy
 119:../cleanflight/src/main/flight/pid.c ****         .pid = {
 120:../cleanflight/src/main/flight/pid.c ****             [PID_ROLL] =  { 46, 45, 25, 60 },
 121:../cleanflight/src/main/flight/pid.c ****             [PID_PITCH] = { 50, 50, 27, 60 },
 122:../cleanflight/src/main/flight/pid.c ****             [PID_YAW] =   { 65, 45, 0 , 60 },
 123:../cleanflight/src/main/flight/pid.c ****             [PID_LEVEL] = { 50, 50, 75, 0 },
 124:../cleanflight/src/main/flight/pid.c ****             [PID_MAG] =   { 40, 0, 0, 0 },
 125:../cleanflight/src/main/flight/pid.c ****         },
 126:../cleanflight/src/main/flight/pid.c **** 
 127:../cleanflight/src/main/flight/pid.c ****         .pidSumLimit = PIDSUM_LIMIT,
 128:../cleanflight/src/main/flight/pid.c ****         .pidSumLimitYaw = PIDSUM_LIMIT_YAW,
 129:../cleanflight/src/main/flight/pid.c ****         .yaw_lowpass_hz = 0,
 130:../cleanflight/src/main/flight/pid.c ****         .dterm_lowpass_hz = 100,    // dual PT1 filtering ON by default
 131:../cleanflight/src/main/flight/pid.c ****         .dterm_lowpass2_hz = 200,   // second Dterm LPF ON by default
 132:../cleanflight/src/main/flight/pid.c ****         .dterm_notch_hz = 0,
 133:../cleanflight/src/main/flight/pid.c ****         .dterm_notch_cutoff = 160,
 134:../cleanflight/src/main/flight/pid.c ****         .dterm_filter_type = FILTER_PT1,
 135:../cleanflight/src/main/flight/pid.c ****         .itermWindupPointPercent = 40,
 136:../cleanflight/src/main/flight/pid.c ****         .vbatPidCompensation = 0,
 137:../cleanflight/src/main/flight/pid.c ****         .pidAtMinThrottle = PID_STABILISATION_ON,
 138:../cleanflight/src/main/flight/pid.c ****         .levelAngleLimit = 55,
 139:../cleanflight/src/main/flight/pid.c ****         .feedForwardTransition = 0,
 140:../cleanflight/src/main/flight/pid.c ****         .yawRateAccelLimit = 100,
 141:../cleanflight/src/main/flight/pid.c ****         .rateAccelLimit = 0,
 142:../cleanflight/src/main/flight/pid.c ****         .itermThrottleThreshold = 250,
 143:../cleanflight/src/main/flight/pid.c ****         .itermAcceleratorGain = 5000,
 144:../cleanflight/src/main/flight/pid.c ****         .crash_time = 500,          // ms
 145:../cleanflight/src/main/flight/pid.c ****         .crash_delay = 0,           // ms
 146:../cleanflight/src/main/flight/pid.c ****         .crash_recovery_angle = 10, // degrees
 147:../cleanflight/src/main/flight/pid.c ****         .crash_recovery_rate = 100, // degrees/second
 148:../cleanflight/src/main/flight/pid.c ****         .crash_dthreshold = 50,     // degrees/second/second
 149:../cleanflight/src/main/flight/pid.c ****         .crash_gthreshold = 400,    // degrees/second
 150:../cleanflight/src/main/flight/pid.c ****         .crash_setpoint_threshold = 350, // degrees/second
 151:../cleanflight/src/main/flight/pid.c ****         .crash_recovery = PID_CRASH_RECOVERY_OFF, // off by default
 152:../cleanflight/src/main/flight/pid.c ****         .horizon_tilt_effect = 75,
 153:../cleanflight/src/main/flight/pid.c ****         .horizon_tilt_expert_mode = false,
 154:../cleanflight/src/main/flight/pid.c ****         .crash_limit_yaw = 200,
 155:../cleanflight/src/main/flight/pid.c ****         .itermLimit = 150,
 156:../cleanflight/src/main/flight/pid.c ****         .throttle_boost = 5,
 157:../cleanflight/src/main/flight/pid.c ****         .throttle_boost_cutoff = 15,
 158:../cleanflight/src/main/flight/pid.c ****         .iterm_rotation = true,
 159:../cleanflight/src/main/flight/pid.c ****         .smart_feedforward = false,
 160:../cleanflight/src/main/flight/pid.c ****         .iterm_relax = ITERM_RELAX_OFF,
 161:../cleanflight/src/main/flight/pid.c ****         .iterm_relax_cutoff = 11,
 162:../cleanflight/src/main/flight/pid.c ****         .iterm_relax_type = ITERM_RELAX_GYRO,
 163:../cleanflight/src/main/flight/pid.c ****         .acro_trainer_angle_limit = 20,
 164:../cleanflight/src/main/flight/pid.c ****         .acro_trainer_lookahead_ms = 50,
 165:../cleanflight/src/main/flight/pid.c ****         .acro_trainer_debug_axis = FD_ROLL,
 166:../cleanflight/src/main/flight/pid.c ****         .acro_trainer_gain = 75,
 167:../cleanflight/src/main/flight/pid.c ****         .abs_control_gain = 0,
 168:../cleanflight/src/main/flight/pid.c ****         .abs_control_limit = 90,
 169:../cleanflight/src/main/flight/pid.c ****         .abs_control_error_limit = 20,
 170:../cleanflight/src/main/flight/pid.c ****         .antiGravityMode = ANTI_GRAVITY_SMOOTH,
 171:../cleanflight/src/main/flight/pid.c ****     );
 172:../cleanflight/src/main/flight/pid.c **** }
 350              	 .loc 4 172 0
 351 001a 0837     	 adds r7,r7,#8
 352              	.LCFI25:
 353              	 .cfi_def_cfa_offset 8
 354 001c BD46     	 mov sp,r7
 355              	.LCFI26:
 356              	 .cfi_def_cfa_register 13
 357              	 
 358 001e 80BD     	 pop {r7,pc}
 359              	.L23:
 360              	 .align 2
 361              	.L22:
 362 0020 00000000 	 .word _reset_template_171.14008
 363              	 .cfi_endproc
 364              	.LFE563:
 366              	 .section .text.pgResetFn_pidProfiles,"ax",%progbits
 367              	 .align 2
 368              	 .global pgResetFn_pidProfiles
 369              	 .thumb
 370              	 .thumb_func
 372              	pgResetFn_pidProfiles:
 373              	.LFB564:
 173:../cleanflight/src/main/flight/pid.c **** 
 174:../cleanflight/src/main/flight/pid.c **** void pgResetFn_pidProfiles(pidProfile_t *pidProfiles)
 175:../cleanflight/src/main/flight/pid.c **** {
 374              	 .loc 4 175 0
 375              	 .cfi_startproc
 376              	 
 377              	 
 378 0000 80B5     	 push {r7,lr}
 379              	.LCFI27:
 380              	 .cfi_def_cfa_offset 8
 381              	 .cfi_offset 7,-8
 382              	 .cfi_offset 14,-4
 383 0002 84B0     	 sub sp,sp,#16
 384              	.LCFI28:
 385              	 .cfi_def_cfa_offset 24
 386 0004 00AF     	 add r7,sp,#0
 387              	.LCFI29:
 388              	 .cfi_def_cfa_register 7
 389 0006 7860     	 str r0,[r7,#4]
 390              	.LBB2:
 176:../cleanflight/src/main/flight/pid.c ****     for (int i = 0; i < MAX_PROFILE_COUNT; i++) {
 391              	 .loc 4 176 0
 392 0008 0023     	 movs r3,#0
 393 000a FB60     	 str r3,[r7,#12]
 394 000c 0BE0     	 b .L25
 395              	.L26:
 177:../cleanflight/src/main/flight/pid.c ****         resetPidProfile(&pidProfiles[i]);
 396              	 .loc 4 177 0 discriminator 3
 397 000e FB68     	 ldr r3,[r7,#12]
 398 0010 5822     	 movs r2,#88
 399 0012 02FB03F3 	 mul r3,r2,r3
 400 0016 7A68     	 ldr r2,[r7,#4]
 401 0018 1344     	 add r3,r3,r2
 402 001a 1846     	 mov r0,r3
 403 001c FFF7FEFF 	 bl resetPidProfile
 176:../cleanflight/src/main/flight/pid.c ****     for (int i = 0; i < MAX_PROFILE_COUNT; i++) {
 404              	 .loc 4 176 0 discriminator 3
 405 0020 FB68     	 ldr r3,[r7,#12]
 406 0022 0133     	 adds r3,r3,#1
 407 0024 FB60     	 str r3,[r7,#12]
 408              	.L25:
 176:../cleanflight/src/main/flight/pid.c ****     for (int i = 0; i < MAX_PROFILE_COUNT; i++) {
 409              	 .loc 4 176 0 is_stmt 0 discriminator 1
 410 0026 FB68     	 ldr r3,[r7,#12]
 411 0028 022B     	 cmp r3,#2
 412 002a F0DD     	 ble .L26
 413              	.LBE2:
 178:../cleanflight/src/main/flight/pid.c ****     }
 179:../cleanflight/src/main/flight/pid.c **** }
 414              	 .loc 4 179 0 is_stmt 1
 415 002c 1037     	 adds r7,r7,#16
 416              	.LCFI30:
 417              	 .cfi_def_cfa_offset 8
 418 002e BD46     	 mov sp,r7
 419              	.LCFI31:
 420              	 .cfi_def_cfa_register 13
 421              	 
 422 0030 80BD     	 pop {r7,pc}
 423              	 .cfi_endproc
 424              	.LFE564:
 426 0032 00BF     	 .section .text.pidSetTargetLooptime,"ax",%progbits
 427              	 .align 2
 428              	 .thumb
 429              	 .thumb_func
 431              	pidSetTargetLooptime:
 432              	.LFB565:
 180:../cleanflight/src/main/flight/pid.c **** 
 181:../cleanflight/src/main/flight/pid.c **** static void pidSetTargetLooptime(uint32_t pidLooptime)
 182:../cleanflight/src/main/flight/pid.c **** {
 433              	 .loc 4 182 0
 434              	 .cfi_startproc
 435              	 
 436              	 
 437              	 
 438 0000 80B4     	 push {r7}
 439              	.LCFI32:
 440              	 .cfi_def_cfa_offset 4
 441              	 .cfi_offset 7,-4
 442 0002 83B0     	 sub sp,sp,#12
 443              	.LCFI33:
 444              	 .cfi_def_cfa_offset 16
 445 0004 00AF     	 add r7,sp,#0
 446              	.LCFI34:
 447              	 .cfi_def_cfa_register 7
 448 0006 7860     	 str r0,[r7,#4]
 183:../cleanflight/src/main/flight/pid.c ****     targetPidLooptime = pidLooptime;
 449              	 .loc 4 183 0
 450 0008 0F4A     	 ldr r2,.L28
 451 000a 7B68     	 ldr r3,[r7,#4]
 452 000c 1360     	 str r3,[r2]
 184:../cleanflight/src/main/flight/pid.c ****     dT = targetPidLooptime * 1e-6f;
 453              	 .loc 4 184 0
 454 000e 0E4B     	 ldr r3,.L28
 455 0010 1B68     	 ldr r3,[r3]
 456 0012 07EE903A 	 fmsr s15,r3
 457 0016 F8EE677A 	 fuitos s15,s15
 458 001a 9FED0C7A 	 flds s14,.L28+4
 459 001e 67EE877A 	 fmuls s15,s15,s14
 460 0022 0B4B     	 ldr r3,.L28+8
 461 0024 C3ED007A 	 fsts s15,[r3]
 185:../cleanflight/src/main/flight/pid.c ****     pidFrequency = 1.0f / dT;
 462              	 .loc 4 185 0
 463 0028 094B     	 ldr r3,.L28+8
 464 002a D3ED007A 	 flds s15,[r3]
 465 002e B7EE007A 	 fconsts s14,#112
 466 0032 C7EE277A 	 fdivs s15,s14,s15
 467 0036 074B     	 ldr r3,.L28+12
 468 0038 C3ED007A 	 fsts s15,[r3]
 186:../cleanflight/src/main/flight/pid.c **** }
 469              	 .loc 4 186 0
 470 003c 0C37     	 adds r7,r7,#12
 471              	.LCFI35:
 472              	 .cfi_def_cfa_offset 4
 473 003e BD46     	 mov sp,r7
 474              	.LCFI36:
 475              	 .cfi_def_cfa_register 13
 476              	 
 477 0040 5DF8047B 	 ldr r7,[sp],#4
 478              	.LCFI37:
 479              	 .cfi_restore 7
 480              	 .cfi_def_cfa_offset 0
 481 0044 7047     	 bx lr
 482              	.L29:
 483 0046 00BF     	 .align 2
 484              	.L28:
 485 0048 00000000 	 .word targetPidLooptime
 486 004c BD378635 	 .word 897988541
 487 0050 00000000 	 .word dT
 488 0054 00000000 	 .word pidFrequency
 489              	 .cfi_endproc
 490              	.LFE565:
 492              	 .section .data.itermAccelerator,"aw",%progbits
 493              	 .align 2
 496              	itermAccelerator:
 497 0000 0000803F 	 .word 1065353216
 498              	 .section .text.pidSetItermAccelerator,"ax",%progbits
 499              	 .align 2
 500              	 .global pidSetItermAccelerator
 501              	 .thumb
 502              	 .thumb_func
 504              	pidSetItermAccelerator:
 505              	.LFB566:
 187:../cleanflight/src/main/flight/pid.c **** 
 188:../cleanflight/src/main/flight/pid.c **** static FAST_RAM float itermAccelerator = 1.0f;
 189:../cleanflight/src/main/flight/pid.c **** 
 190:../cleanflight/src/main/flight/pid.c **** void pidSetItermAccelerator(float newItermAccelerator)
 191:../cleanflight/src/main/flight/pid.c **** {
 506              	 .loc 4 191 0
 507              	 .cfi_startproc
 508              	 
 509              	 
 510              	 
 511 0000 80B4     	 push {r7}
 512              	.LCFI38:
 513              	 .cfi_def_cfa_offset 4
 514              	 .cfi_offset 7,-4
 515 0002 83B0     	 sub sp,sp,#12
 516              	.LCFI39:
 517              	 .cfi_def_cfa_offset 16
 518 0004 00AF     	 add r7,sp,#0
 519              	.LCFI40:
 520              	 .cfi_def_cfa_register 7
 521 0006 7860     	 str r0,[r7,#4]
 192:../cleanflight/src/main/flight/pid.c ****     itermAccelerator = newItermAccelerator;
 522              	 .loc 4 192 0
 523 0008 034A     	 ldr r2,.L31
 524 000a 7B68     	 ldr r3,[r7,#4]
 525 000c 1360     	 str r3,[r2]
 193:../cleanflight/src/main/flight/pid.c **** }
 526              	 .loc 4 193 0
 527 000e 0C37     	 adds r7,r7,#12
 528              	.LCFI41:
 529              	 .cfi_def_cfa_offset 4
 530 0010 BD46     	 mov sp,r7
 531              	.LCFI42:
 532              	 .cfi_def_cfa_register 13
 533              	 
 534 0012 5DF8047B 	 ldr r7,[sp],#4
 535              	.LCFI43:
 536              	 .cfi_restore 7
 537              	 .cfi_def_cfa_offset 0
 538 0016 7047     	 bx lr
 539              	.L32:
 540              	 .align 2
 541              	.L31:
 542 0018 00000000 	 .word itermAccelerator
 543              	 .cfi_endproc
 544              	.LFE566:
 546              	 .section .text.pidOsdAntiGravityActive,"ax",%progbits
 547              	 .align 2
 548              	 .global pidOsdAntiGravityActive
 549              	 .thumb
 550              	 .thumb_func
 552              	pidOsdAntiGravityActive:
 553              	.LFB567:
 194:../cleanflight/src/main/flight/pid.c **** 
 195:../cleanflight/src/main/flight/pid.c **** bool pidOsdAntiGravityActive(void)
 196:../cleanflight/src/main/flight/pid.c **** {
 554              	 .loc 4 196 0
 555              	 .cfi_startproc
 556              	 
 557              	 
 558              	 
 559 0000 80B4     	 push {r7}
 560              	.LCFI44:
 561              	 .cfi_def_cfa_offset 4
 562              	 .cfi_offset 7,-4
 563 0002 00AF     	 add r7,sp,#0
 564              	.LCFI45:
 565              	 .cfi_def_cfa_register 7
 197:../cleanflight/src/main/flight/pid.c ****     return (itermAccelerator > antiGravityOsdCutoff);
 566              	 .loc 4 197 0
 567 0004 094B     	 ldr r3,.L35
 568 0006 93ED007A 	 flds s14,[r3]
 569 000a 094B     	 ldr r3,.L35+4
 570 000c D3ED007A 	 flds s15,[r3]
 571 0010 B4EEE77A 	 fcmpes s14,s15
 572 0014 F1EE10FA 	 fmstat
 573 0018 CCBF     	 ite gt
 574 001a 0123     	 movgt r3,#1
 575 001c 0023     	 movle r3,#0
 576 001e DBB2     	 uxtb r3,r3
 198:../cleanflight/src/main/flight/pid.c **** }
 577              	 .loc 4 198 0
 578 0020 1846     	 mov r0,r3
 579 0022 BD46     	 mov sp,r7
 580              	.LCFI46:
 581              	 .cfi_def_cfa_register 13
 582              	 
 583 0024 5DF8047B 	 ldr r7,[sp],#4
 584              	.LCFI47:
 585              	 .cfi_restore 7
 586              	 .cfi_def_cfa_offset 0
 587 0028 7047     	 bx lr
 588              	.L36:
 589 002a 00BF     	 .align 2
 590              	.L35:
 591 002c 00000000 	 .word itermAccelerator
 592 0030 00000000 	 .word antiGravityOsdCutoff
 593              	 .cfi_endproc
 594              	.LFE567:
 596              	 .section .text.pidStabilisationState,"ax",%progbits
 597              	 .align 2
 598              	 .global pidStabilisationState
 599              	 .thumb
 600              	 .thumb_func
 602              	pidStabilisationState:
 603              	.LFB568:
 199:../cleanflight/src/main/flight/pid.c **** 
 200:../cleanflight/src/main/flight/pid.c **** void pidStabilisationState(pidStabilisationState_e pidControllerState)
 201:../cleanflight/src/main/flight/pid.c **** {
 604              	 .loc 4 201 0
 605              	 .cfi_startproc
 606              	 
 607              	 
 608              	 
 609 0000 80B4     	 push {r7}
 610              	.LCFI48:
 611              	 .cfi_def_cfa_offset 4
 612              	 .cfi_offset 7,-4
 613 0002 83B0     	 sub sp,sp,#12
 614              	.LCFI49:
 615              	 .cfi_def_cfa_offset 16
 616 0004 00AF     	 add r7,sp,#0
 617              	.LCFI50:
 618              	 .cfi_def_cfa_register 7
 619 0006 0346     	 mov r3,r0
 620 0008 FB71     	 strb r3,[r7,#7]
 202:../cleanflight/src/main/flight/pid.c ****     pidStabilisationEnabled = (pidControllerState == PID_STABILISATION_ON) ? true : false;
 621              	 .loc 4 202 0
 622 000a FB79     	 ldrb r3,[r7,#7]
 623 000c 012B     	 cmp r3,#1
 624 000e 0CBF     	 ite eq
 625 0010 0123     	 moveq r3,#1
 626 0012 0023     	 movne r3,#0
 627 0014 DAB2     	 uxtb r2,r3
 628 0016 034B     	 ldr r3,.L38
 629 0018 1A70     	 strb r2,[r3]
 203:../cleanflight/src/main/flight/pid.c **** }
 630              	 .loc 4 203 0
 631 001a 0C37     	 adds r7,r7,#12
 632              	.LCFI51:
 633              	 .cfi_def_cfa_offset 4
 634 001c BD46     	 mov sp,r7
 635              	.LCFI52:
 636              	 .cfi_def_cfa_register 13
 637              	 
 638 001e 5DF8047B 	 ldr r7,[sp],#4
 639              	.LCFI53:
 640              	 .cfi_restore 7
 641              	 .cfi_def_cfa_offset 0
 642 0022 7047     	 bx lr
 643              	.L39:
 644              	 .align 2
 645              	.L38:
 646 0024 00000000 	 .word pidStabilisationEnabled
 647              	 .cfi_endproc
 648              	.LFE568:
 650              	 .global rcAliasToAngleIndexMap
 651              	 .section .rodata.rcAliasToAngleIndexMap,"a",%progbits
 652              	 .align 2
 655              	rcAliasToAngleIndexMap:
 656 0000 00       	 .byte 0
 657 0001 01       	 .byte 1
 658 0002 0000     	 .section .bss.dtermNotchApplyFn,"aw",%nobits
 659              	 .align 2
 662              	dtermNotchApplyFn:
 663 0000 00000000 	 .space 4
 664              	 .section .bss.dtermNotch,"aw",%nobits
 665              	 .align 2
 668              	dtermNotch:
 669 0000 00000000 	 .space 108
 669      00000000 
 669      00000000 
 669      00000000 
 669      00000000 
 670              	 .section .bss.dtermLowpassApplyFn,"aw",%nobits
 671              	 .align 2
 674              	dtermLowpassApplyFn:
 675 0000 00000000 	 .space 4
 676              	 .section .bss.dtermLowpass,"aw",%nobits
 677              	 .align 2
 680              	dtermLowpass:
 681 0000 00000000 	 .space 108
 681      00000000 
 681      00000000 
 681      00000000 
 681      00000000 
 682              	 .section .bss.dtermLowpass2ApplyFn,"aw",%nobits
 683              	 .align 2
 686              	dtermLowpass2ApplyFn:
 687 0000 00000000 	 .space 4
 688              	 .section .bss.dtermLowpass2,"aw",%nobits
 689              	 .align 2
 692              	dtermLowpass2:
 693 0000 00000000 	 .space 24
 693      00000000 
 693      00000000 
 693      00000000 
 693      00000000 
 694              	 .section .bss.ptermYawLowpassApplyFn,"aw",%nobits
 695              	 .align 2
 698              	ptermYawLowpassApplyFn:
 699 0000 00000000 	 .space 4
 700              	 .section .bss.ptermYawLowpass,"aw",%nobits
 701              	 .align 2
 704              	ptermYawLowpass:
 705 0000 00000000 	 .space 8
 705      00000000 
 706              	 .section .bss.windupLpf,"aw",%nobits
 707              	 .align 2
 710              	windupLpf:
 711 0000 00000000 	 .space 24
 711      00000000 
 711      00000000 
 711      00000000 
 711      00000000 
 712              	 .section .bss.itermRelax,"aw",%nobits
 715              	itermRelax:
 716 0000 00       	 .space 1
 717              	 .section .bss.itermRelaxType,"aw",%nobits
 720              	itermRelaxType:
 721 0000 00       	 .space 1
 722              	 .section .bss.itermRelaxCutoff,"aw",%nobits
 725              	itermRelaxCutoff:
 726 0000 00       	 .space 1
 727              	 .section .bss.setpointDerivativePt1,"aw",%nobits
 728              	 .align 2
 731              	setpointDerivativePt1:
 732 0000 00000000 	 .space 24
 732      00000000 
 732      00000000 
 732      00000000 
 732      00000000 
 733              	 .section .bss.setpointDerivativeBiquad,"aw",%nobits
 734              	 .align 2
 737              	setpointDerivativeBiquad:
 738 0000 00000000 	 .space 108
 738      00000000 
 738      00000000 
 738      00000000 
 738      00000000 
 739              	 .section .bss.setpointDerivativeLpfInitialized,"aw",%nobits
 742              	setpointDerivativeLpfInitialized:
 743 0000 00       	 .space 1
 744              	 .section .bss.rcSmoothingDebugAxis,"aw",%nobits
 747              	rcSmoothingDebugAxis:
 748 0000 00       	 .space 1
 749              	 .section .bss.rcSmoothingFilterType,"aw",%nobits
 752              	rcSmoothingFilterType:
 753 0000 00       	 .space 1
 754              	 .section .bss.antiGravityThrottleLpf,"aw",%nobits
 755              	 .align 2
 758              	antiGravityThrottleLpf:
 759 0000 00000000 	 .space 8
 759      00000000 
 760              	 .section .text.pidInitFilters,"ax",%progbits
 761              	 .align 2
 762              	 .global pidInitFilters
 763              	 .thumb
 764              	 .thumb_func
 766              	pidInitFilters:
 767              	.LFB569:
 204:../cleanflight/src/main/flight/pid.c **** 
 205:../cleanflight/src/main/flight/pid.c **** const angle_index_t rcAliasToAngleIndexMap[] = { AI_ROLL, AI_PITCH };
 206:../cleanflight/src/main/flight/pid.c **** 
 207:../cleanflight/src/main/flight/pid.c **** typedef union dtermLowpass_u {
 208:../cleanflight/src/main/flight/pid.c ****     pt1Filter_t pt1Filter;
 209:../cleanflight/src/main/flight/pid.c ****     biquadFilter_t biquadFilter;
 210:../cleanflight/src/main/flight/pid.c **** } dtermLowpass_t;
 211:../cleanflight/src/main/flight/pid.c **** 
 212:../cleanflight/src/main/flight/pid.c **** static FAST_RAM_ZERO_INIT filterApplyFnPtr dtermNotchApplyFn;
 213:../cleanflight/src/main/flight/pid.c **** static FAST_RAM_ZERO_INIT biquadFilter_t dtermNotch[XYZ_AXIS_COUNT];
 214:../cleanflight/src/main/flight/pid.c **** static FAST_RAM_ZERO_INIT filterApplyFnPtr dtermLowpassApplyFn;
 215:../cleanflight/src/main/flight/pid.c **** static FAST_RAM_ZERO_INIT dtermLowpass_t dtermLowpass[XYZ_AXIS_COUNT];
 216:../cleanflight/src/main/flight/pid.c **** static FAST_RAM_ZERO_INIT filterApplyFnPtr dtermLowpass2ApplyFn;
 217:../cleanflight/src/main/flight/pid.c **** static FAST_RAM_ZERO_INIT pt1Filter_t dtermLowpass2[XYZ_AXIS_COUNT];
 218:../cleanflight/src/main/flight/pid.c **** static FAST_RAM_ZERO_INIT filterApplyFnPtr ptermYawLowpassApplyFn;
 219:../cleanflight/src/main/flight/pid.c **** static FAST_RAM_ZERO_INIT pt1Filter_t ptermYawLowpass;
 220:../cleanflight/src/main/flight/pid.c **** #if defined(USE_ITERM_RELAX)
 221:../cleanflight/src/main/flight/pid.c **** static FAST_RAM_ZERO_INIT pt1Filter_t windupLpf[XYZ_AXIS_COUNT];
 222:../cleanflight/src/main/flight/pid.c **** static FAST_RAM_ZERO_INIT uint8_t itermRelax;
 223:../cleanflight/src/main/flight/pid.c **** static FAST_RAM_ZERO_INIT uint8_t itermRelaxType;
 224:../cleanflight/src/main/flight/pid.c **** static FAST_RAM_ZERO_INIT uint8_t itermRelaxCutoff;
 225:../cleanflight/src/main/flight/pid.c **** #endif
 226:../cleanflight/src/main/flight/pid.c **** 
 227:../cleanflight/src/main/flight/pid.c **** #ifdef USE_RC_SMOOTHING_FILTER
 228:../cleanflight/src/main/flight/pid.c **** static FAST_RAM_ZERO_INIT pt1Filter_t setpointDerivativePt1[XYZ_AXIS_COUNT];
 229:../cleanflight/src/main/flight/pid.c **** static FAST_RAM_ZERO_INIT biquadFilter_t setpointDerivativeBiquad[XYZ_AXIS_COUNT];
 230:../cleanflight/src/main/flight/pid.c **** static FAST_RAM_ZERO_INIT bool setpointDerivativeLpfInitialized;
 231:../cleanflight/src/main/flight/pid.c **** static FAST_RAM_ZERO_INIT uint8_t rcSmoothingDebugAxis;
 232:../cleanflight/src/main/flight/pid.c **** static FAST_RAM_ZERO_INIT uint8_t rcSmoothingFilterType;
 233:../cleanflight/src/main/flight/pid.c **** #endif // USE_RC_SMOOTHING_FILTER
 234:../cleanflight/src/main/flight/pid.c **** 
 235:../cleanflight/src/main/flight/pid.c **** static FAST_RAM_ZERO_INIT pt1Filter_t antiGravityThrottleLpf;
 236:../cleanflight/src/main/flight/pid.c **** 
 237:../cleanflight/src/main/flight/pid.c **** void pidInitFilters(const pidProfile_t *pidProfile)
 238:../cleanflight/src/main/flight/pid.c **** {
 768              	 .loc 4 238 0
 769              	 .cfi_startproc
 770              	 
 771              	 
 772 0000 90B5     	 push {r4,r7,lr}
 773              	.LCFI54:
 774              	 .cfi_def_cfa_offset 12
 775              	 .cfi_offset 4,-12
 776              	 .cfi_offset 7,-8
 777              	 .cfi_offset 14,-4
 778 0002 8DB0     	 sub sp,sp,#52
 779              	.LCFI55:
 780              	 .cfi_def_cfa_offset 64
 781 0004 02AF     	 add r7,sp,#8
 782              	.LCFI56:
 783              	 .cfi_def_cfa 7,56
 784 0006 7860     	 str r0,[r7,#4]
 239:../cleanflight/src/main/flight/pid.c ****     BUILD_BUG_ON(FD_YAW != 2); // ensure yaw axis is 2
 240:../cleanflight/src/main/flight/pid.c **** 
 241:../cleanflight/src/main/flight/pid.c ****     if (targetPidLooptime == 0) {
 785              	 .loc 4 241 0
 786 0008 9E4B     	 ldr r3,.L71
 787 000a 1B68     	 ldr r3,[r3]
 788 000c 002B     	 cmp r3,#0
 789 000e 09D1     	 bne .L41
 242:../cleanflight/src/main/flight/pid.c ****         // no looptime set, so set all the filters to null
 243:../cleanflight/src/main/flight/pid.c ****         dtermNotchApplyFn = nullFilterApply;
 790              	 .loc 4 243 0
 791 0010 9D4B     	 ldr r3,.L71+4
 792 0012 9E4A     	 ldr r2,.L71+8
 793 0014 1A60     	 str r2,[r3]
 244:../cleanflight/src/main/flight/pid.c ****         dtermLowpassApplyFn = nullFilterApply;
 794              	 .loc 4 244 0
 795 0016 9E4B     	 ldr r3,.L71+12
 796 0018 9C4A     	 ldr r2,.L71+8
 797 001a 1A60     	 str r2,[r3]
 245:../cleanflight/src/main/flight/pid.c ****         ptermYawLowpassApplyFn = nullFilterApply;
 798              	 .loc 4 245 0
 799 001c 9D4B     	 ldr r3,.L71+16
 800 001e 9B4A     	 ldr r2,.L71+8
 801 0020 1A60     	 str r2,[r3]
 246:../cleanflight/src/main/flight/pid.c ****         return;
 802              	 .loc 4 246 0
 803 0022 72E1     	 b .L40
 804              	.L41:
 247:../cleanflight/src/main/flight/pid.c ****     }
 248:../cleanflight/src/main/flight/pid.c **** 
 249:../cleanflight/src/main/flight/pid.c ****     const uint32_t pidFrequencyNyquist = pidFrequency / 2; // No rounding needed
 805              	 .loc 4 249 0
 806 0024 9C4B     	 ldr r3,.L71+20
 807 0026 D3ED007A 	 flds s15,[r3]
 808 002a B0EE007A 	 fconsts s14,#0
 809 002e C7EE877A 	 fdivs s15,s15,s14
 810 0032 FCEEE77A 	 ftouizs s15,s15
 811 0036 17EE903A 	 fmrs r3,s15
 812 003a FB60     	 str r3,[r7,#12]
 250:../cleanflight/src/main/flight/pid.c **** 
 251:../cleanflight/src/main/flight/pid.c ****     uint16_t dTermNotchHz;
 252:../cleanflight/src/main/flight/pid.c ****     if (pidProfile->dterm_notch_hz <= pidFrequencyNyquist) {
 813              	 .loc 4 252 0
 814 003c 7B68     	 ldr r3,[r7,#4]
 815 003e 9B88     	 ldrh r3,[r3,#4]
 816 0040 9BB2     	 uxth r3,r3
 817 0042 1A46     	 mov r2,r3
 818 0044 FB68     	 ldr r3,[r7,#12]
 819 0046 9A42     	 cmp r2,r3
 820 0048 06D8     	 bhi .L43
 253:../cleanflight/src/main/flight/pid.c ****         dTermNotchHz = pidProfile->dterm_notch_hz;
 821              	 .loc 4 253 0
 822 004a 7B68     	 ldr r3,[r7,#4]
 823 004c 1A79     	 ldrb r2,[r3,#4]
 824 004e 5B79     	 ldrb r3,[r3,#5]
 825 0050 1B02     	 lsls r3,r3,#8
 826 0052 1343     	 orrs r3,r3,r2
 827 0054 FB84     	 strh r3,[r7,#38]
 828 0056 0BE0     	 b .L44
 829              	.L43:
 254:../cleanflight/src/main/flight/pid.c ****     } else {
 255:../cleanflight/src/main/flight/pid.c ****         if (pidProfile->dterm_notch_cutoff < pidFrequencyNyquist) {
 830              	 .loc 4 255 0
 831 0058 7B68     	 ldr r3,[r7,#4]
 832 005a DB88     	 ldrh r3,[r3,#6]
 833 005c 9BB2     	 uxth r3,r3
 834 005e 1A46     	 mov r2,r3
 835 0060 FB68     	 ldr r3,[r7,#12]
 836 0062 9A42     	 cmp r2,r3
 837 0064 02D2     	 bcs .L45
 256:../cleanflight/src/main/flight/pid.c ****             dTermNotchHz = pidFrequencyNyquist;
 838              	 .loc 4 256 0
 839 0066 FB68     	 ldr r3,[r7,#12]
 840 0068 FB84     	 strh r3,[r7,#38]
 841 006a 01E0     	 b .L44
 842              	.L45:
 257:../cleanflight/src/main/flight/pid.c ****         } else {
 258:../cleanflight/src/main/flight/pid.c ****             dTermNotchHz = 0;
 843              	 .loc 4 258 0
 844 006c 0023     	 movs r3,#0
 845 006e FB84     	 strh r3,[r7,#38]
 846              	.L44:
 259:../cleanflight/src/main/flight/pid.c ****         }
 260:../cleanflight/src/main/flight/pid.c ****     }
 261:../cleanflight/src/main/flight/pid.c **** 
 262:../cleanflight/src/main/flight/pid.c ****     if (dTermNotchHz != 0 && pidProfile->dterm_notch_cutoff != 0) {
 847              	 .loc 4 262 0
 848 0070 FB8C     	 ldrh r3,[r7,#38]
 849 0072 002B     	 cmp r3,#0
 850 0074 3AD0     	 beq .L46
 851              	 .loc 4 262 0 is_stmt 0 discriminator 1
 852 0076 7B68     	 ldr r3,[r7,#4]
 853 0078 DB88     	 ldrh r3,[r3,#6]
 854 007a 9BB2     	 uxth r3,r3
 855 007c 002B     	 cmp r3,#0
 856 007e 35D0     	 beq .L46
 857              	.LBB3:
 263:../cleanflight/src/main/flight/pid.c ****         dtermNotchApplyFn = (filterApplyFnPtr)biquadFilterApply;
 858              	 .loc 4 263 0 is_stmt 1
 859 0080 814B     	 ldr r3,.L71+4
 860 0082 864A     	 ldr r2,.L71+24
 861 0084 1A60     	 str r2,[r3]
 264:../cleanflight/src/main/flight/pid.c ****         const float notchQ = filterGetNotchQ(dTermNotchHz, pidProfile->dterm_notch_cutoff);
 862              	 .loc 4 264 0
 863 0086 FB8C     	 ldrh r3,[r7,#38]
 864 0088 07EE903A 	 fmsr s15,r3
 865 008c B8EE677A 	 fuitos s14,s15
 866 0090 7B68     	 ldr r3,[r7,#4]
 867 0092 DB88     	 ldrh r3,[r3,#6]
 868 0094 9BB2     	 uxth r3,r3
 869 0096 07EE903A 	 fmsr s15,r3
 870 009a F8EE677A 	 fuitos s15,s15
 871 009e 17EE100A 	 fmrs r0,s14
 872 00a2 17EE901A 	 fmrs r1,s15
 873 00a6 FFF7FEFF 	 bl filterGetNotchQ
 874 00aa B860     	 str r0,[r7,#8]
 875              	.LBB4:
 265:../cleanflight/src/main/flight/pid.c ****         for (int axis = FD_ROLL; axis <= FD_YAW; axis++) {
 876              	 .loc 4 265 0
 877 00ac 0023     	 movs r3,#0
 878 00ae 3B62     	 str r3,[r7,#32]
 879 00b0 18E0     	 b .L47
 880              	.L48:
 266:../cleanflight/src/main/flight/pid.c ****             biquadFilterInit(&dtermNotch[axis], dTermNotchHz, targetPidLooptime, notchQ, FILTER_NOT
 881              	 .loc 4 266 0 discriminator 3
 882 00b2 3A6A     	 ldr r2,[r7,#32]
 883 00b4 1346     	 mov r3,r2
 884 00b6 DB00     	 lsls r3,r3,#3
 885 00b8 1344     	 add r3,r3,r2
 886 00ba 9B00     	 lsls r3,r3,#2
 887 00bc 784A     	 ldr r2,.L71+28
 888 00be 9918     	 adds r1,r3,r2
 889 00c0 FB8C     	 ldrh r3,[r7,#38]
 890 00c2 07EE903A 	 fmsr s15,r3
 891 00c6 F8EE677A 	 fuitos s15,s15
 892 00ca 6E4B     	 ldr r3,.L71
 893 00cc 1A68     	 ldr r2,[r3]
 894 00ce 0123     	 movs r3,#1
 895 00d0 0093     	 str r3,[sp]
 896 00d2 0846     	 mov r0,r1
 897 00d4 17EE901A 	 fmrs r1,s15
 898 00d8 BB68     	 ldr r3,[r7,#8]
 899 00da FFF7FEFF 	 bl biquadFilterInit
 265:../cleanflight/src/main/flight/pid.c ****         for (int axis = FD_ROLL; axis <= FD_YAW; axis++) {
 900              	 .loc 4 265 0 discriminator 3
 901 00de 3B6A     	 ldr r3,[r7,#32]
 902 00e0 0133     	 adds r3,r3,#1
 903 00e2 3B62     	 str r3,[r7,#32]
 904              	.L47:
 265:../cleanflight/src/main/flight/pid.c ****         for (int axis = FD_ROLL; axis <= FD_YAW; axis++) {
 905              	 .loc 4 265 0 is_stmt 0 discriminator 1
 906 00e4 3B6A     	 ldr r3,[r7,#32]
 907 00e6 022B     	 cmp r3,#2
 908 00e8 E3DD     	 ble .L48
 909              	.LBE4:
 910              	.LBE3:
 262:../cleanflight/src/main/flight/pid.c ****         dtermNotchApplyFn = (filterApplyFnPtr)biquadFilterApply;
 911              	 .loc 4 262 0 is_stmt 1
 912 00ea 02E0     	 b .L49
 913              	.L46:
 267:../cleanflight/src/main/flight/pid.c ****         }
 268:../cleanflight/src/main/flight/pid.c ****     } else {
 269:../cleanflight/src/main/flight/pid.c ****         dtermNotchApplyFn = nullFilterApply;
 914              	 .loc 4 269 0
 915 00ec 664B     	 ldr r3,.L71+4
 916 00ee 674A     	 ldr r2,.L71+8
 917 00f0 1A60     	 str r2,[r3]
 918              	.L49:
 270:../cleanflight/src/main/flight/pid.c ****     }
 271:../cleanflight/src/main/flight/pid.c **** 
 272:../cleanflight/src/main/flight/pid.c ****     //2nd Dterm Lowpass Filter
 273:../cleanflight/src/main/flight/pid.c ****     if (pidProfile->dterm_lowpass2_hz == 0 || pidProfile->dterm_lowpass2_hz > pidFrequencyNyquist) 
 919              	 .loc 4 273 0
 920 00f2 7B68     	 ldr r3,[r7,#4]
 921 00f4 B3F84630 	 ldrh r3,[r3,#70]
 922 00f8 9BB2     	 uxth r3,r3
 923 00fa 002B     	 cmp r3,#0
 924 00fc 07D0     	 beq .L50
 925              	 .loc 4 273 0 is_stmt 0 discriminator 1
 926 00fe 7B68     	 ldr r3,[r7,#4]
 927 0100 B3F84630 	 ldrh r3,[r3,#70]
 928 0104 9BB2     	 uxth r3,r3
 929 0106 1A46     	 mov r2,r3
 930 0108 FB68     	 ldr r3,[r7,#12]
 931 010a 9A42     	 cmp r2,r3
 932 010c 03D9     	 bls .L51
 933              	.L50:
 274:../cleanflight/src/main/flight/pid.c ****     	dtermLowpass2ApplyFn = nullFilterApply;
 934              	 .loc 4 274 0 is_stmt 1
 935 010e 654B     	 ldr r3,.L71+32
 936 0110 5E4A     	 ldr r2,.L71+8
 937 0112 1A60     	 str r2,[r3]
 938 0114 1EE0     	 b .L52
 939              	.L51:
 275:../cleanflight/src/main/flight/pid.c ****     } else {
 276:../cleanflight/src/main/flight/pid.c ****         dtermLowpass2ApplyFn = (filterApplyFnPtr)pt1FilterApply;
 940              	 .loc 4 276 0
 941 0116 634B     	 ldr r3,.L71+32
 942 0118 634A     	 ldr r2,.L71+36
 943 011a 1A60     	 str r2,[r3]
 944              	.LBB5:
 277:../cleanflight/src/main/flight/pid.c ****         for (int axis = FD_ROLL; axis <= FD_YAW; axis++) {
 945              	 .loc 4 277 0
 946 011c 0023     	 movs r3,#0
 947 011e FB61     	 str r3,[r7,#28]
 948 0120 15E0     	 b .L53
 949              	.L54:
 278:../cleanflight/src/main/flight/pid.c ****             pt1FilterInit(&dtermLowpass2[axis], pt1FilterGain(pidProfile->dterm_lowpass2_hz, dT));
 950              	 .loc 4 278 0 discriminator 3
 951 0122 FB69     	 ldr r3,[r7,#28]
 952 0124 DB00     	 lsls r3,r3,#3
 953 0126 614A     	 ldr r2,.L71+40
 954 0128 9C18     	 adds r4,r3,r2
 955 012a 7B68     	 ldr r3,[r7,#4]
 956 012c B3F84630 	 ldrh r3,[r3,#70]
 957 0130 9AB2     	 uxth r2,r3
 958 0132 5F4B     	 ldr r3,.L71+44
 959 0134 1B68     	 ldr r3,[r3]
 960 0136 1046     	 mov r0,r2
 961 0138 1946     	 mov r1,r3
 962 013a FFF7FEFF 	 bl pt1FilterGain
 963 013e 0346     	 mov r3,r0
 964 0140 2046     	 mov r0,r4
 965 0142 1946     	 mov r1,r3
 966 0144 FFF7FEFF 	 bl pt1FilterInit
 277:../cleanflight/src/main/flight/pid.c ****         for (int axis = FD_ROLL; axis <= FD_YAW; axis++) {
 967              	 .loc 4 277 0 discriminator 3
 968 0148 FB69     	 ldr r3,[r7,#28]
 969 014a 0133     	 adds r3,r3,#1
 970 014c FB61     	 str r3,[r7,#28]
 971              	.L53:
 277:../cleanflight/src/main/flight/pid.c ****         for (int axis = FD_ROLL; axis <= FD_YAW; axis++) {
 972              	 .loc 4 277 0 is_stmt 0 discriminator 1
 973 014e FB69     	 ldr r3,[r7,#28]
 974 0150 022B     	 cmp r3,#2
 975 0152 E6DD     	 ble .L54
 976              	.L52:
 977              	.LBE5:
 279:../cleanflight/src/main/flight/pid.c ****         }
 280:../cleanflight/src/main/flight/pid.c ****     }
 281:../cleanflight/src/main/flight/pid.c **** 
 282:../cleanflight/src/main/flight/pid.c ****     if (pidProfile->dterm_lowpass_hz == 0 || pidProfile->dterm_lowpass_hz > pidFrequencyNyquist) {
 978              	 .loc 4 282 0 is_stmt 1
 979 0154 7B68     	 ldr r3,[r7,#4]
 980 0156 5B88     	 ldrh r3,[r3,#2]
 981 0158 9BB2     	 uxth r3,r3
 982 015a 002B     	 cmp r3,#0
 983 015c 06D0     	 beq .L55
 984              	 .loc 4 282 0 is_stmt 0 discriminator 1
 985 015e 7B68     	 ldr r3,[r7,#4]
 986 0160 5B88     	 ldrh r3,[r3,#2]
 987 0162 9BB2     	 uxth r3,r3
 988 0164 1A46     	 mov r2,r3
 989 0166 FB68     	 ldr r3,[r7,#12]
 990 0168 9A42     	 cmp r2,r3
 991 016a 03D9     	 bls .L56
 992              	.L55:
 283:../cleanflight/src/main/flight/pid.c ****         dtermLowpassApplyFn = nullFilterApply;
 993              	 .loc 4 283 0 is_stmt 1
 994 016c 484B     	 ldr r3,.L71+12
 995 016e 474A     	 ldr r2,.L71+8
 996 0170 1A60     	 str r2,[r3]
 997 0172 4FE0     	 b .L57
 998              	.L56:
 284:../cleanflight/src/main/flight/pid.c ****     } else {
 285:../cleanflight/src/main/flight/pid.c ****         switch (pidProfile->dterm_filter_type) {
 999              	 .loc 4 285 0
 1000 0174 7B68     	 ldr r3,[r7,#4]
 1001 0176 93F82130 	 ldrb r3,[r3,#33]
 1002 017a 002B     	 cmp r3,#0
 1003 017c 05D0     	 beq .L59
 1004 017e 012B     	 cmp r3,#1
 1005 0180 25D0     	 beq .L60
 286:../cleanflight/src/main/flight/pid.c ****         default:
 287:../cleanflight/src/main/flight/pid.c ****             dtermLowpassApplyFn = nullFilterApply;
 1006              	 .loc 4 287 0
 1007 0182 434B     	 ldr r3,.L71+12
 1008 0184 414A     	 ldr r2,.L71+8
 1009 0186 1A60     	 str r2,[r3]
 288:../cleanflight/src/main/flight/pid.c ****             break;
 1010              	 .loc 4 288 0
 1011 0188 44E0     	 b .L57
 1012              	.L59:
 289:../cleanflight/src/main/flight/pid.c ****         case FILTER_PT1:
 290:../cleanflight/src/main/flight/pid.c ****             dtermLowpassApplyFn = (filterApplyFnPtr)pt1FilterApply;
 1013              	 .loc 4 290 0
 1014 018a 414B     	 ldr r3,.L71+12
 1015 018c 464A     	 ldr r2,.L71+36
 1016 018e 1A60     	 str r2,[r3]
 1017              	.LBB6:
 291:../cleanflight/src/main/flight/pid.c ****             for (int axis = FD_ROLL; axis <= FD_YAW; axis++) {
 1018              	 .loc 4 291 0
 1019 0190 0023     	 movs r3,#0
 1020 0192 BB61     	 str r3,[r7,#24]
 1021 0194 17E0     	 b .L61
 1022              	.L62:
 292:../cleanflight/src/main/flight/pid.c ****                 pt1FilterInit(&dtermLowpass[axis].pt1Filter, pt1FilterGain(pidProfile->dterm_lowpas
 1023              	 .loc 4 292 0 discriminator 3
 1024 0196 BA69     	 ldr r2,[r7,#24]
 1025 0198 1346     	 mov r3,r2
 1026 019a DB00     	 lsls r3,r3,#3
 1027 019c 1344     	 add r3,r3,r2
 1028 019e 9B00     	 lsls r3,r3,#2
 1029 01a0 444A     	 ldr r2,.L71+48
 1030 01a2 9C18     	 adds r4,r3,r2
 1031 01a4 7B68     	 ldr r3,[r7,#4]
 1032 01a6 5B88     	 ldrh r3,[r3,#2]
 1033 01a8 9AB2     	 uxth r2,r3
 1034 01aa 414B     	 ldr r3,.L71+44
 1035 01ac 1B68     	 ldr r3,[r3]
 1036 01ae 1046     	 mov r0,r2
 1037 01b0 1946     	 mov r1,r3
 1038 01b2 FFF7FEFF 	 bl pt1FilterGain
 1039 01b6 0346     	 mov r3,r0
 1040 01b8 2046     	 mov r0,r4
 1041 01ba 1946     	 mov r1,r3
 1042 01bc FFF7FEFF 	 bl pt1FilterInit
 291:../cleanflight/src/main/flight/pid.c ****             for (int axis = FD_ROLL; axis <= FD_YAW; axis++) {
 1043              	 .loc 4 291 0 discriminator 3
 1044 01c0 BB69     	 ldr r3,[r7,#24]
 1045 01c2 0133     	 adds r3,r3,#1
 1046 01c4 BB61     	 str r3,[r7,#24]
 1047              	.L61:
 291:../cleanflight/src/main/flight/pid.c ****             for (int axis = FD_ROLL; axis <= FD_YAW; axis++) {
 1048              	 .loc 4 291 0 is_stmt 0 discriminator 1
 1049 01c6 BB69     	 ldr r3,[r7,#24]
 1050 01c8 022B     	 cmp r3,#2
 1051 01ca E4DD     	 ble .L62
 1052              	.LBE6:
 293:../cleanflight/src/main/flight/pid.c ****             }
 294:../cleanflight/src/main/flight/pid.c ****             break;
 1053              	 .loc 4 294 0 is_stmt 1
 1054 01cc 22E0     	 b .L57
 1055              	.L60:
 295:../cleanflight/src/main/flight/pid.c ****         case FILTER_BIQUAD:
 296:../cleanflight/src/main/flight/pid.c ****             dtermLowpassApplyFn = (filterApplyFnPtr)biquadFilterApply;
 1056              	 .loc 4 296 0
 1057 01ce 304B     	 ldr r3,.L71+12
 1058 01d0 324A     	 ldr r2,.L71+24
 1059 01d2 1A60     	 str r2,[r3]
 1060              	.LBB7:
 297:../cleanflight/src/main/flight/pid.c ****             for (int axis = FD_ROLL; axis <= FD_YAW; axis++) {
 1061              	 .loc 4 297 0
 1062 01d4 0023     	 movs r3,#0
 1063 01d6 7B61     	 str r3,[r7,#20]
 1064 01d8 18E0     	 b .L63
 1065              	.L64:
 298:../cleanflight/src/main/flight/pid.c ****                 biquadFilterInitLPF(&dtermLowpass[axis].biquadFilter, pidProfile->dterm_lowpass_hz,
 1066              	 .loc 4 298 0 discriminator 3
 1067 01da 7A69     	 ldr r2,[r7,#20]
 1068 01dc 1346     	 mov r3,r2
 1069 01de DB00     	 lsls r3,r3,#3
 1070 01e0 1344     	 add r3,r3,r2
 1071 01e2 9B00     	 lsls r3,r3,#2
 1072 01e4 334A     	 ldr r2,.L71+48
 1073 01e6 1A44     	 add r2,r2,r3
 1074 01e8 7B68     	 ldr r3,[r7,#4]
 1075 01ea 5B88     	 ldrh r3,[r3,#2]
 1076 01ec 9BB2     	 uxth r3,r3
 1077 01ee 07EE903A 	 fmsr s15,r3
 1078 01f2 F8EE677A 	 fuitos s15,s15
 1079 01f6 234B     	 ldr r3,.L71
 1080 01f8 1B68     	 ldr r3,[r3]
 1081 01fa 1046     	 mov r0,r2
 1082 01fc 17EE901A 	 fmrs r1,s15
 1083 0200 1A46     	 mov r2,r3
 1084 0202 FFF7FEFF 	 bl biquadFilterInitLPF
 297:../cleanflight/src/main/flight/pid.c ****             for (int axis = FD_ROLL; axis <= FD_YAW; axis++) {
 1085              	 .loc 4 297 0 discriminator 3
 1086 0206 7B69     	 ldr r3,[r7,#20]
 1087 0208 0133     	 adds r3,r3,#1
 1088 020a 7B61     	 str r3,[r7,#20]
 1089              	.L63:
 297:../cleanflight/src/main/flight/pid.c ****             for (int axis = FD_ROLL; axis <= FD_YAW; axis++) {
 1090              	 .loc 4 297 0 is_stmt 0 discriminator 1
 1091 020c 7B69     	 ldr r3,[r7,#20]
 1092 020e 022B     	 cmp r3,#2
 1093 0210 E3DD     	 ble .L64
 1094              	.LBE7:
 299:../cleanflight/src/main/flight/pid.c ****             }
 300:../cleanflight/src/main/flight/pid.c ****             break;
 1095              	 .loc 4 300 0 is_stmt 1
 1096 0212 00BF     	 nop
 1097              	.L57:
 301:../cleanflight/src/main/flight/pid.c ****         }
 302:../cleanflight/src/main/flight/pid.c ****     }
 303:../cleanflight/src/main/flight/pid.c **** 
 304:../cleanflight/src/main/flight/pid.c ****     if (pidProfile->yaw_lowpass_hz == 0 || pidProfile->yaw_lowpass_hz > pidFrequencyNyquist) {
 1098              	 .loc 4 304 0
 1099 0214 7B68     	 ldr r3,[r7,#4]
 1100 0216 1B88     	 ldrh r3,[r3]
 1101 0218 9BB2     	 uxth r3,r3
 1102 021a 002B     	 cmp r3,#0
 1103 021c 06D0     	 beq .L65
 1104              	 .loc 4 304 0 is_stmt 0 discriminator 1
 1105 021e 7B68     	 ldr r3,[r7,#4]
 1106 0220 1B88     	 ldrh r3,[r3]
 1107 0222 9BB2     	 uxth r3,r3
 1108 0224 1A46     	 mov r2,r3
 1109 0226 FB68     	 ldr r3,[r7,#12]
 1110 0228 9A42     	 cmp r2,r3
 1111 022a 03D9     	 bls .L66
 1112              	.L65:
 305:../cleanflight/src/main/flight/pid.c ****         ptermYawLowpassApplyFn = nullFilterApply;
 1113              	 .loc 4 305 0 is_stmt 1
 1114 022c 194B     	 ldr r3,.L71+16
 1115 022e 174A     	 ldr r2,.L71+8
 1116 0230 1A60     	 str r2,[r3]
 1117 0232 10E0     	 b .L67
 1118              	.L66:
 306:../cleanflight/src/main/flight/pid.c ****     } else {
 307:../cleanflight/src/main/flight/pid.c ****         ptermYawLowpassApplyFn = (filterApplyFnPtr)pt1FilterApply;
 1119              	 .loc 4 307 0
 1120 0234 174B     	 ldr r3,.L71+16
 1121 0236 1C4A     	 ldr r2,.L71+36
 1122 0238 1A60     	 str r2,[r3]
 308:../cleanflight/src/main/flight/pid.c ****         pt1FilterInit(&ptermYawLowpass, pt1FilterGain(pidProfile->yaw_lowpass_hz, dT));
 1123              	 .loc 4 308 0
 1124 023a 7B68     	 ldr r3,[r7,#4]
 1125 023c 1B88     	 ldrh r3,[r3]
 1126 023e 9AB2     	 uxth r2,r3
 1127 0240 1B4B     	 ldr r3,.L71+44
 1128 0242 1B68     	 ldr r3,[r3]
 1129 0244 1046     	 mov r0,r2
 1130 0246 1946     	 mov r1,r3
 1131 0248 FFF7FEFF 	 bl pt1FilterGain
 1132 024c 0346     	 mov r3,r0
 1133 024e 1A48     	 ldr r0,.L71+52
 1134 0250 1946     	 mov r1,r3
 1135 0252 FFF7FEFF 	 bl pt1FilterInit
 1136              	.L67:
 309:../cleanflight/src/main/flight/pid.c ****     }
 310:../cleanflight/src/main/flight/pid.c **** 
 311:../cleanflight/src/main/flight/pid.c **** #if defined(USE_THROTTLE_BOOST)
 312:../cleanflight/src/main/flight/pid.c ****     pt1FilterInit(&throttleLpf, pt1FilterGain(pidProfile->throttle_boost_cutoff, dT));
 1137              	 .loc 4 312 0
 1138 0256 7B68     	 ldr r3,[r7,#4]
 1139 0258 93F84A30 	 ldrb r3,[r3,#74]
 1140 025c 9AB2     	 uxth r2,r3
 1141 025e 144B     	 ldr r3,.L71+44
 1142 0260 1B68     	 ldr r3,[r3]
 1143 0262 1046     	 mov r0,r2
 1144 0264 1946     	 mov r1,r3
 1145 0266 FFF7FEFF 	 bl pt1FilterGain
 1146 026a 0346     	 mov r3,r0
 1147 026c 1348     	 ldr r0,.L71+56
 1148 026e 1946     	 mov r1,r3
 1149 0270 FFF7FEFF 	 bl pt1FilterInit
 313:../cleanflight/src/main/flight/pid.c **** #endif
 314:../cleanflight/src/main/flight/pid.c **** #if defined(USE_ITERM_RELAX)
 315:../cleanflight/src/main/flight/pid.c ****     if (itermRelax) {
 1150              	 .loc 4 315 0
 1151 0274 124B     	 ldr r3,.L71+60
 1152 0276 1B78     	 ldrb r3,[r3]
 1153 0278 002B     	 cmp r3,#0
 1154 027a 3BD0     	 beq .L68
 1155              	.LBB8:
 316:../cleanflight/src/main/flight/pid.c ****         for (int i = 0; i < XYZ_AXIS_COUNT; i++) {
 1156              	 .loc 4 316 0
 1157 027c 0023     	 movs r3,#0
 1158 027e 3B61     	 str r3,[r7,#16]
 1159 0280 35E0     	 b .L69
 1160              	.L72:
 1161 0282 00BF     	 .align 2
 1162              	.L71:
 1163 0284 00000000 	 .word targetPidLooptime
 1164 0288 00000000 	 .word dtermNotchApplyFn
 1165 028c 00000000 	 .word nullFilterApply
 1166 0290 00000000 	 .word dtermLowpassApplyFn
 1167 0294 00000000 	 .word ptermYawLowpassApplyFn
 1168 0298 00000000 	 .word pidFrequency
 1169 029c 00000000 	 .word biquadFilterApply
 1170 02a0 00000000 	 .word dtermNotch
 1171 02a4 00000000 	 .word dtermLowpass2ApplyFn
 1172 02a8 00000000 	 .word pt1FilterApply
 1173 02ac 00000000 	 .word dtermLowpass2
 1174 02b0 00000000 	 .word dT
 1175 02b4 00000000 	 .word dtermLowpass
 1176 02b8 00000000 	 .word ptermYawLowpass
 1177 02bc 00000000 	 .word throttleLpf
 1178 02c0 00000000 	 .word itermRelax
 1179              	.L70:
 317:../cleanflight/src/main/flight/pid.c ****             pt1FilterInit(&windupLpf[i], pt1FilterGain(itermRelaxCutoff, dT));
 1180              	 .loc 4 317 0 discriminator 3
 1181 02c4 3B69     	 ldr r3,[r7,#16]
 1182 02c6 DB00     	 lsls r3,r3,#3
 1183 02c8 114A     	 ldr r2,.L73
 1184 02ca 9C18     	 adds r4,r3,r2
 1185 02cc 114B     	 ldr r3,.L73+4
 1186 02ce 1B78     	 ldrb r3,[r3]
 1187 02d0 9AB2     	 uxth r2,r3
 1188 02d2 114B     	 ldr r3,.L73+8
 1189 02d4 1B68     	 ldr r3,[r3]
 1190 02d6 1046     	 mov r0,r2
 1191 02d8 1946     	 mov r1,r3
 1192 02da FFF7FEFF 	 bl pt1FilterGain
 1193 02de 0346     	 mov r3,r0
 1194 02e0 2046     	 mov r0,r4
 1195 02e2 1946     	 mov r1,r3
 1196 02e4 FFF7FEFF 	 bl pt1FilterInit
 316:../cleanflight/src/main/flight/pid.c ****         for (int i = 0; i < XYZ_AXIS_COUNT; i++) {
 1197              	 .loc 4 316 0 discriminator 3
 1198 02e8 3B69     	 ldr r3,[r7,#16]
 1199 02ea 0133     	 adds r3,r3,#1
 1200 02ec 3B61     	 str r3,[r7,#16]
 1201              	.L69:
 316:../cleanflight/src/main/flight/pid.c ****         for (int i = 0; i < XYZ_AXIS_COUNT; i++) {
 1202              	 .loc 4 316 0 is_stmt 0 discriminator 1
 1203 02ee 3B69     	 ldr r3,[r7,#16]
 1204 02f0 022B     	 cmp r3,#2
 1205 02f2 E7DD     	 ble .L70
 1206              	.L68:
 1207              	.LBE8:
 318:../cleanflight/src/main/flight/pid.c ****         }
 319:../cleanflight/src/main/flight/pid.c ****     }
 320:../cleanflight/src/main/flight/pid.c **** #endif
 321:../cleanflight/src/main/flight/pid.c **** 
 322:../cleanflight/src/main/flight/pid.c ****     pt1FilterInit(&antiGravityThrottleLpf, pt1FilterGain(ANTI_GRAVITY_THROTTLE_FILTER_CUTOFF, dT));
 1208              	 .loc 4 322 0 is_stmt 1
 1209 02f4 084B     	 ldr r3,.L73+8
 1210 02f6 1B68     	 ldr r3,[r3]
 1211 02f8 0F20     	 movs r0,#15
 1212 02fa 1946     	 mov r1,r3
 1213 02fc FFF7FEFF 	 bl pt1FilterGain
 1214 0300 0346     	 mov r3,r0
 1215 0302 0648     	 ldr r0,.L73+12
 1216 0304 1946     	 mov r1,r3
 1217 0306 FFF7FEFF 	 bl pt1FilterInit
 1218              	.L40:
 323:../cleanflight/src/main/flight/pid.c **** }
 1219              	 .loc 4 323 0
 1220 030a 2C37     	 adds r7,r7,#44
 1221              	.LCFI57:
 1222              	 .cfi_def_cfa_offset 12
 1223 030c BD46     	 mov sp,r7
 1224              	.LCFI58:
 1225              	 .cfi_def_cfa_register 13
 1226              	 
 1227 030e 90BD     	 pop {r4,r7,pc}
 1228              	.L74:
 1229              	 .align 2
 1230              	.L73:
 1231 0310 00000000 	 .word windupLpf
 1232 0314 00000000 	 .word itermRelaxCutoff
 1233 0318 00000000 	 .word dT
 1234 031c 00000000 	 .word antiGravityThrottleLpf
 1235              	 .cfi_endproc
 1236              	.LFE569:
 1238              	 .section .text.pidInitSetpointDerivativeLpf,"ax",%progbits
 1239              	 .align 2
 1240              	 .global pidInitSetpointDerivativeLpf
 1241              	 .thumb
 1242              	 .thumb_func
 1244              	pidInitSetpointDerivativeLpf:
 1245              	.LFB570:
 324:../cleanflight/src/main/flight/pid.c **** 
 325:../cleanflight/src/main/flight/pid.c **** #ifdef USE_RC_SMOOTHING_FILTER
 326:../cleanflight/src/main/flight/pid.c **** void pidInitSetpointDerivativeLpf(uint16_t filterCutoff, uint8_t debugAxis, uint8_t filterType)
 327:../cleanflight/src/main/flight/pid.c **** {
 1246              	 .loc 4 327 0
 1247              	 .cfi_startproc
 1248              	 
 1249              	 
 1250 0000 90B5     	 push {r4,r7,lr}
 1251              	.LCFI59:
 1252              	 .cfi_def_cfa_offset 12
 1253              	 .cfi_offset 4,-12
 1254              	 .cfi_offset 7,-8
 1255              	 .cfi_offset 14,-4
 1256 0002 85B0     	 sub sp,sp,#20
 1257              	.LCFI60:
 1258              	 .cfi_def_cfa_offset 32
 1259 0004 00AF     	 add r7,sp,#0
 1260              	.LCFI61:
 1261              	 .cfi_def_cfa_register 7
 1262 0006 0346     	 mov r3,r0
 1263 0008 FB80     	 strh r3,[r7,#6]
 1264 000a 0B46     	 mov r3,r1
 1265 000c 7B71     	 strb r3,[r7,#5]
 1266 000e 1346     	 mov r3,r2
 1267 0010 3B71     	 strb r3,[r7,#4]
 328:../cleanflight/src/main/flight/pid.c ****     rcSmoothingDebugAxis = debugAxis;
 1268              	 .loc 4 328 0
 1269 0012 244A     	 ldr r2,.L82
 1270 0014 7B79     	 ldrb r3,[r7,#5]
 1271 0016 1370     	 strb r3,[r2]
 329:../cleanflight/src/main/flight/pid.c ****     rcSmoothingFilterType = filterType;
 1272              	 .loc 4 329 0
 1273 0018 234A     	 ldr r2,.L82+4
 1274 001a 3B79     	 ldrb r3,[r7,#4]
 1275 001c 1370     	 strb r3,[r2]
 330:../cleanflight/src/main/flight/pid.c ****     if ((filterCutoff > 0) && (rcSmoothingFilterType != RC_SMOOTHING_DERIVATIVE_OFF)) {
 1276              	 .loc 4 330 0
 1277 001e FB88     	 ldrh r3,[r7,#6]
 1278 0020 002B     	 cmp r3,#0
 1279 0022 3CD0     	 beq .L75
 1280              	 .loc 4 330 0 is_stmt 0 discriminator 1
 1281 0024 204B     	 ldr r3,.L82+4
 1282 0026 1B78     	 ldrb r3,[r3]
 1283 0028 002B     	 cmp r3,#0
 1284 002a 38D0     	 beq .L75
 331:../cleanflight/src/main/flight/pid.c ****         setpointDerivativeLpfInitialized = true;
 1285              	 .loc 4 331 0 is_stmt 1
 1286 002c 1F4B     	 ldr r3,.L82+8
 1287 002e 0122     	 movs r2,#1
 1288 0030 1A70     	 strb r2,[r3]
 1289              	.LBB9:
 332:../cleanflight/src/main/flight/pid.c ****         for (int axis = FD_ROLL; axis <= FD_YAW; axis++) {
 1290              	 .loc 4 332 0
 1291 0032 0023     	 movs r3,#0
 1292 0034 FB60     	 str r3,[r7,#12]
 1293 0036 2FE0     	 b .L77
 1294              	.L81:
 333:../cleanflight/src/main/flight/pid.c ****             switch (rcSmoothingFilterType) {
 1295              	 .loc 4 333 0
 1296 0038 1B4B     	 ldr r3,.L82+4
 1297 003a 1B78     	 ldrb r3,[r3]
 1298 003c 012B     	 cmp r3,#1
 1299 003e 02D0     	 beq .L79
 1300 0040 022B     	 cmp r3,#2
 1301 0042 11D0     	 beq .L80
 1302 0044 25E0     	 b .L78
 1303              	.L79:
 334:../cleanflight/src/main/flight/pid.c ****                 case RC_SMOOTHING_DERIVATIVE_PT1:
 335:../cleanflight/src/main/flight/pid.c ****                     pt1FilterInit(&setpointDerivativePt1[axis], pt1FilterGain(filterCutoff, dT));
 1304              	 .loc 4 335 0
 1305 0046 FB68     	 ldr r3,[r7,#12]
 1306 0048 DB00     	 lsls r3,r3,#3
 1307 004a 194A     	 ldr r2,.L82+12
 1308 004c 9C18     	 adds r4,r3,r2
 1309 004e 194B     	 ldr r3,.L82+16
 1310 0050 1B68     	 ldr r3,[r3]
 1311 0052 FA88     	 ldrh r2,[r7,#6]
 1312 0054 1046     	 mov r0,r2
 1313 0056 1946     	 mov r1,r3
 1314 0058 FFF7FEFF 	 bl pt1FilterGain
 1315 005c 0346     	 mov r3,r0
 1316 005e 2046     	 mov r0,r4
 1317 0060 1946     	 mov r1,r3
 1318 0062 FFF7FEFF 	 bl pt1FilterInit
 336:../cleanflight/src/main/flight/pid.c ****                     break;
 1319              	 .loc 4 336 0
 1320 0066 14E0     	 b .L78
 1321              	.L80:
 337:../cleanflight/src/main/flight/pid.c ****                 case RC_SMOOTHING_DERIVATIVE_BIQUAD:
 338:../cleanflight/src/main/flight/pid.c ****                     biquadFilterInitLPF(&setpointDerivativeBiquad[axis], filterCutoff, targetPidLoo
 1322              	 .loc 4 338 0
 1323 0068 FA68     	 ldr r2,[r7,#12]
 1324 006a 1346     	 mov r3,r2
 1325 006c DB00     	 lsls r3,r3,#3
 1326 006e 1344     	 add r3,r3,r2
 1327 0070 9B00     	 lsls r3,r3,#2
 1328 0072 114A     	 ldr r2,.L82+20
 1329 0074 1A44     	 add r2,r2,r3
 1330 0076 FB88     	 ldrh r3,[r7,#6]
 1331 0078 07EE903A 	 fmsr s15,r3
 1332 007c F8EE677A 	 fuitos s15,s15
 1333 0080 0E4B     	 ldr r3,.L82+24
 1334 0082 1B68     	 ldr r3,[r3]
 1335 0084 1046     	 mov r0,r2
 1336 0086 17EE901A 	 fmrs r1,s15
 1337 008a 1A46     	 mov r2,r3
 1338 008c FFF7FEFF 	 bl biquadFilterInitLPF
 339:../cleanflight/src/main/flight/pid.c ****                     break;
 1339              	 .loc 4 339 0
 1340 0090 00BF     	 nop
 1341              	.L78:
 332:../cleanflight/src/main/flight/pid.c ****             switch (rcSmoothingFilterType) {
 1342              	 .loc 4 332 0 discriminator 2
 1343 0092 FB68     	 ldr r3,[r7,#12]
 1344 0094 0133     	 adds r3,r3,#1
 1345 0096 FB60     	 str r3,[r7,#12]
 1346              	.L77:
 332:../cleanflight/src/main/flight/pid.c ****             switch (rcSmoothingFilterType) {
 1347              	 .loc 4 332 0 is_stmt 0 discriminator 1
 1348 0098 FB68     	 ldr r3,[r7,#12]
 1349 009a 022B     	 cmp r3,#2
 1350 009c CCDD     	 ble .L81
 1351              	.L75:
 1352              	.LBE9:
 340:../cleanflight/src/main/flight/pid.c ****             }
 341:../cleanflight/src/main/flight/pid.c ****         }
 342:../cleanflight/src/main/flight/pid.c ****     }
 343:../cleanflight/src/main/flight/pid.c **** }
 1353              	 .loc 4 343 0 is_stmt 1
 1354 009e 1437     	 adds r7,r7,#20
 1355              	.LCFI62:
 1356              	 .cfi_def_cfa_offset 12
 1357 00a0 BD46     	 mov sp,r7
 1358              	.LCFI63:
 1359              	 .cfi_def_cfa_register 13
 1360              	 
 1361 00a2 90BD     	 pop {r4,r7,pc}
 1362              	.L83:
 1363              	 .align 2
 1364              	.L82:
 1365 00a4 00000000 	 .word rcSmoothingDebugAxis
 1366 00a8 00000000 	 .word rcSmoothingFilterType
 1367 00ac 00000000 	 .word setpointDerivativeLpfInitialized
 1368 00b0 00000000 	 .word setpointDerivativePt1
 1369 00b4 00000000 	 .word dT
 1370 00b8 00000000 	 .word setpointDerivativeBiquad
 1371 00bc 00000000 	 .word targetPidLooptime
 1372              	 .cfi_endproc
 1373              	.LFE570:
 1375              	 .section .text.pidUpdateSetpointDerivativeLpf,"ax",%progbits
 1376              	 .align 2
 1377              	 .global pidUpdateSetpointDerivativeLpf
 1378              	 .thumb
 1379              	 .thumb_func
 1381              	pidUpdateSetpointDerivativeLpf:
 1382              	.LFB571:
 344:../cleanflight/src/main/flight/pid.c **** 
 345:../cleanflight/src/main/flight/pid.c **** void pidUpdateSetpointDerivativeLpf(uint16_t filterCutoff)
 346:../cleanflight/src/main/flight/pid.c **** {
 1383              	 .loc 4 346 0
 1384              	 .cfi_startproc
 1385              	 
 1386              	 
 1387 0000 90B5     	 push {r4,r7,lr}
 1388              	.LCFI64:
 1389              	 .cfi_def_cfa_offset 12
 1390              	 .cfi_offset 4,-12
 1391              	 .cfi_offset 7,-8
 1392              	 .cfi_offset 14,-4
 1393 0002 85B0     	 sub sp,sp,#20
 1394              	.LCFI65:
 1395              	 .cfi_def_cfa_offset 32
 1396 0004 00AF     	 add r7,sp,#0
 1397              	.LCFI66:
 1398              	 .cfi_def_cfa_register 7
 1399 0006 0346     	 mov r3,r0
 1400 0008 FB80     	 strh r3,[r7,#6]
 347:../cleanflight/src/main/flight/pid.c ****     if ((filterCutoff > 0) && (rcSmoothingFilterType != RC_SMOOTHING_DERIVATIVE_OFF)) {
 1401              	 .loc 4 347 0
 1402 000a FB88     	 ldrh r3,[r7,#6]
 1403 000c 002B     	 cmp r3,#0
 1404 000e 39D0     	 beq .L84
 1405              	 .loc 4 347 0 is_stmt 0 discriminator 1
 1406 0010 1E4B     	 ldr r3,.L91
 1407 0012 1B78     	 ldrb r3,[r3]
 1408 0014 002B     	 cmp r3,#0
 1409 0016 35D0     	 beq .L84
 1410              	.LBB10:
 348:../cleanflight/src/main/flight/pid.c ****         for (int axis = FD_ROLL; axis <= FD_YAW; axis++) {
 1411              	 .loc 4 348 0 is_stmt 1
 1412 0018 0023     	 movs r3,#0
 1413 001a FB60     	 str r3,[r7,#12]
 1414 001c 2FE0     	 b .L86
 1415              	.L90:
 349:../cleanflight/src/main/flight/pid.c ****             switch (rcSmoothingFilterType) {
 1416              	 .loc 4 349 0
 1417 001e 1B4B     	 ldr r3,.L91
 1418 0020 1B78     	 ldrb r3,[r3]
 1419 0022 012B     	 cmp r3,#1
 1420 0024 02D0     	 beq .L88
 1421 0026 022B     	 cmp r3,#2
 1422 0028 11D0     	 beq .L89
 1423 002a 25E0     	 b .L87
 1424              	.L88:
 350:../cleanflight/src/main/flight/pid.c ****                 case RC_SMOOTHING_DERIVATIVE_PT1:
 351:../cleanflight/src/main/flight/pid.c ****                     pt1FilterUpdateCutoff(&setpointDerivativePt1[axis], pt1FilterGain(filterCutoff,
 1425              	 .loc 4 351 0
 1426 002c FB68     	 ldr r3,[r7,#12]
 1427 002e DB00     	 lsls r3,r3,#3
 1428 0030 174A     	 ldr r2,.L91+4
 1429 0032 9C18     	 adds r4,r3,r2
 1430 0034 174B     	 ldr r3,.L91+8
 1431 0036 1B68     	 ldr r3,[r3]
 1432 0038 FA88     	 ldrh r2,[r7,#6]
 1433 003a 1046     	 mov r0,r2
 1434 003c 1946     	 mov r1,r3
 1435 003e FFF7FEFF 	 bl pt1FilterGain
 1436 0042 0346     	 mov r3,r0
 1437 0044 2046     	 mov r0,r4
 1438 0046 1946     	 mov r1,r3
 1439 0048 FFF7FEFF 	 bl pt1FilterUpdateCutoff
 352:../cleanflight/src/main/flight/pid.c ****                     break;
 1440              	 .loc 4 352 0
 1441 004c 14E0     	 b .L87
 1442              	.L89:
 353:../cleanflight/src/main/flight/pid.c ****                 case RC_SMOOTHING_DERIVATIVE_BIQUAD:
 354:../cleanflight/src/main/flight/pid.c ****                     biquadFilterUpdateLPF(&setpointDerivativeBiquad[axis], filterCutoff, targetPidL
 1443              	 .loc 4 354 0
 1444 004e FA68     	 ldr r2,[r7,#12]
 1445 0050 1346     	 mov r3,r2
 1446 0052 DB00     	 lsls r3,r3,#3
 1447 0054 1344     	 add r3,r3,r2
 1448 0056 9B00     	 lsls r3,r3,#2
 1449 0058 0F4A     	 ldr r2,.L91+12
 1450 005a 1A44     	 add r2,r2,r3
 1451 005c FB88     	 ldrh r3,[r7,#6]
 1452 005e 07EE903A 	 fmsr s15,r3
 1453 0062 F8EE677A 	 fuitos s15,s15
 1454 0066 0D4B     	 ldr r3,.L91+16
 1455 0068 1B68     	 ldr r3,[r3]
 1456 006a 1046     	 mov r0,r2
 1457 006c 17EE901A 	 fmrs r1,s15
 1458 0070 1A46     	 mov r2,r3
 1459 0072 FFF7FEFF 	 bl biquadFilterUpdateLPF
 355:../cleanflight/src/main/flight/pid.c ****                     break;
 1460              	 .loc 4 355 0
 1461 0076 00BF     	 nop
 1462              	.L87:
 348:../cleanflight/src/main/flight/pid.c ****             switch (rcSmoothingFilterType) {
 1463              	 .loc 4 348 0 discriminator 2
 1464 0078 FB68     	 ldr r3,[r7,#12]
 1465 007a 0133     	 adds r3,r3,#1
 1466 007c FB60     	 str r3,[r7,#12]
 1467              	.L86:
 348:../cleanflight/src/main/flight/pid.c ****             switch (rcSmoothingFilterType) {
 1468              	 .loc 4 348 0 is_stmt 0 discriminator 1
 1469 007e FB68     	 ldr r3,[r7,#12]
 1470 0080 022B     	 cmp r3,#2
 1471 0082 CCDD     	 ble .L90
 1472              	.L84:
 1473              	.LBE10:
 356:../cleanflight/src/main/flight/pid.c ****             }
 357:../cleanflight/src/main/flight/pid.c ****         }
 358:../cleanflight/src/main/flight/pid.c ****     }
 359:../cleanflight/src/main/flight/pid.c **** }
 1474              	 .loc 4 359 0 is_stmt 1
 1475 0084 1437     	 adds r7,r7,#20
 1476              	.LCFI67:
 1477              	 .cfi_def_cfa_offset 12
 1478 0086 BD46     	 mov sp,r7
 1479              	.LCFI68:
 1480              	 .cfi_def_cfa_register 13
 1481              	 
 1482 0088 90BD     	 pop {r4,r7,pc}
 1483              	.L92:
 1484 008a 00BF     	 .align 2
 1485              	.L91:
 1486 008c 00000000 	 .word rcSmoothingFilterType
 1487 0090 00000000 	 .word setpointDerivativePt1
 1488 0094 00000000 	 .word dT
 1489 0098 00000000 	 .word setpointDerivativeBiquad
 1490 009c 00000000 	 .word targetPidLooptime
 1491              	 .cfi_endproc
 1492              	.LFE571:
 1494              	 .section .bss.pidCoefficient,"aw",%nobits
 1495              	 .align 2
 1498              	pidCoefficient:
 1499 0000 00000000 	 .space 48
 1499      00000000 
 1499      00000000 
 1499      00000000 
 1499      00000000 
 1500              	 .section .bss.maxVelocity,"aw",%nobits
 1501              	 .align 2
 1504              	maxVelocity:
 1505 0000 00000000 	 .space 12
 1505      00000000 
 1505      00000000 
 1506              	 .section .bss.feedForwardTransition,"aw",%nobits
 1507              	 .align 2
 1510              	feedForwardTransition:
 1511 0000 00000000 	 .space 4
 1512              	 .section .bss.levelGain,"aw",%nobits
 1513              	 .align 2
 1516              	levelGain:
 1517 0000 00000000 	 .space 4
 1518              	 .section .bss.horizonGain,"aw",%nobits
 1519              	 .align 2
 1522              	horizonGain:
 1523 0000 00000000 	 .space 4
 1524              	 .section .bss.horizonTransition,"aw",%nobits
 1525              	 .align 2
 1528              	horizonTransition:
 1529 0000 00000000 	 .space 4
 1530              	 .section .bss.horizonCutoffDegrees,"aw",%nobits
 1531              	 .align 2
 1534              	horizonCutoffDegrees:
 1535 0000 00000000 	 .space 4
 1536              	 .section .bss.horizonFactorRatio,"aw",%nobits
 1537              	 .align 2
 1540              	horizonFactorRatio:
 1541 0000 00000000 	 .space 4
 1542              	 .section .bss.ITermWindupPointInv,"aw",%nobits
 1543              	 .align 2
 1546              	ITermWindupPointInv:
 1547 0000 00000000 	 .space 4
 1548              	 .section .bss.horizonTiltExpertMode,"aw",%nobits
 1551              	horizonTiltExpertMode:
 1552 0000 00       	 .space 1
 1553              	 .section .bss.crashTimeLimitUs,"aw",%nobits
 1554              	 .align 2
 1557              	crashTimeLimitUs:
 1558 0000 00000000 	 .space 4
 1559              	 .section .bss.crashTimeDelayUs,"aw",%nobits
 1560              	 .align 2
 1563              	crashTimeDelayUs:
 1564 0000 00000000 	 .space 4
 1565              	 .section .bss.crashRecoveryAngleDeciDegrees,"aw",%nobits
 1566              	 .align 2
 1569              	crashRecoveryAngleDeciDegrees:
 1570 0000 00000000 	 .space 4
 1571              	 .section .bss.crashRecoveryRate,"aw",%nobits
 1572              	 .align 2
 1575              	crashRecoveryRate:
 1576 0000 00000000 	 .space 4
 1577              	 .section .bss.crashDtermThreshold,"aw",%nobits
 1578              	 .align 2
 1581              	crashDtermThreshold:
 1582 0000 00000000 	 .space 4
 1583              	 .section .bss.crashGyroThreshold,"aw",%nobits
 1584              	 .align 2
 1587              	crashGyroThreshold:
 1588 0000 00000000 	 .space 4
 1589              	 .section .bss.crashSetpointThreshold,"aw",%nobits
 1590              	 .align 2
 1593              	crashSetpointThreshold:
 1594 0000 00000000 	 .space 4
 1595              	 .section .bss.crashLimitYaw,"aw",%nobits
 1596              	 .align 2
 1599              	crashLimitYaw:
 1600 0000 00000000 	 .space 4
 1601              	 .section .bss.itermLimit,"aw",%nobits
 1602              	 .align 2
 1605              	itermLimit:
 1606 0000 00000000 	 .space 4
 1607              	 .comm throttleBoost,4,4
 1608              	 .comm throttleLpf,8,4
 1609              	 .section .bss.itermRotation,"aw",%nobits
 1612              	itermRotation:
 1613 0000 00       	 .space 1
 1614              	 .section .bss.smartFeedforward,"aw",%nobits
 1617              	smartFeedforward:
 1618 0000 00       	 .space 1
 1619              	 .section .bss.axisError,"aw",%nobits
 1620              	 .align 2
 1623              	axisError:
 1624 0000 00000000 	 .space 12
 1624      00000000 
 1624      00000000 
 1625              	 .section .bss.acGain,"aw",%nobits
 1626              	 .align 2
 1629              	acGain:
 1630 0000 00000000 	 .space 4
 1631              	 .section .bss.acLimit,"aw",%nobits
 1632              	 .align 2
 1635              	acLimit:
 1636 0000 00000000 	 .space 4
 1637              	 .section .bss.acErrorLimit,"aw",%nobits
 1638              	 .align 2
 1641              	acErrorLimit:
 1642 0000 00000000 	 .space 4
 1643              	 .section .text.pidResetITerm,"ax",%progbits
 1644              	 .align 2
 1645              	 .global pidResetITerm
 1646              	 .thumb
 1647              	 .thumb_func
 1649              	pidResetITerm:
 1650              	.LFB572:
 360:../cleanflight/src/main/flight/pid.c **** #endif // USE_RC_SMOOTHING_FILTER
 361:../cleanflight/src/main/flight/pid.c **** 
 362:../cleanflight/src/main/flight/pid.c **** typedef struct pidCoefficient_s {
 363:../cleanflight/src/main/flight/pid.c ****     float Kp;
 364:../cleanflight/src/main/flight/pid.c ****     float Ki;
 365:../cleanflight/src/main/flight/pid.c ****     float Kd;
 366:../cleanflight/src/main/flight/pid.c ****     float Kf;
 367:../cleanflight/src/main/flight/pid.c **** } pidCoefficient_t;
 368:../cleanflight/src/main/flight/pid.c **** 
 369:../cleanflight/src/main/flight/pid.c **** static FAST_RAM_ZERO_INIT pidCoefficient_t pidCoefficient[XYZ_AXIS_COUNT];
 370:../cleanflight/src/main/flight/pid.c **** static FAST_RAM_ZERO_INIT float maxVelocity[XYZ_AXIS_COUNT];
 371:../cleanflight/src/main/flight/pid.c **** static FAST_RAM_ZERO_INIT float feedForwardTransition;
 372:../cleanflight/src/main/flight/pid.c **** static FAST_RAM_ZERO_INIT float levelGain, horizonGain, horizonTransition, horizonCutoffDegrees, ho
 373:../cleanflight/src/main/flight/pid.c **** static FAST_RAM_ZERO_INIT float ITermWindupPointInv;
 374:../cleanflight/src/main/flight/pid.c **** static FAST_RAM_ZERO_INIT uint8_t horizonTiltExpertMode;
 375:../cleanflight/src/main/flight/pid.c **** static FAST_RAM_ZERO_INIT timeDelta_t crashTimeLimitUs;
 376:../cleanflight/src/main/flight/pid.c **** static FAST_RAM_ZERO_INIT timeDelta_t crashTimeDelayUs;
 377:../cleanflight/src/main/flight/pid.c **** static FAST_RAM_ZERO_INIT int32_t crashRecoveryAngleDeciDegrees;
 378:../cleanflight/src/main/flight/pid.c **** static FAST_RAM_ZERO_INIT float crashRecoveryRate;
 379:../cleanflight/src/main/flight/pid.c **** static FAST_RAM_ZERO_INIT float crashDtermThreshold;
 380:../cleanflight/src/main/flight/pid.c **** static FAST_RAM_ZERO_INIT float crashGyroThreshold;
 381:../cleanflight/src/main/flight/pid.c **** static FAST_RAM_ZERO_INIT float crashSetpointThreshold;
 382:../cleanflight/src/main/flight/pid.c **** static FAST_RAM_ZERO_INIT float crashLimitYaw;
 383:../cleanflight/src/main/flight/pid.c **** static FAST_RAM_ZERO_INIT float itermLimit;
 384:../cleanflight/src/main/flight/pid.c **** #if defined(USE_THROTTLE_BOOST)
 385:../cleanflight/src/main/flight/pid.c **** FAST_RAM_ZERO_INIT float throttleBoost;
 386:../cleanflight/src/main/flight/pid.c **** pt1Filter_t throttleLpf;
 387:../cleanflight/src/main/flight/pid.c **** #endif
 388:../cleanflight/src/main/flight/pid.c **** static FAST_RAM_ZERO_INIT bool itermRotation;
 389:../cleanflight/src/main/flight/pid.c **** 
 390:../cleanflight/src/main/flight/pid.c **** #if defined(USE_SMART_FEEDFORWARD)
 391:../cleanflight/src/main/flight/pid.c **** static FAST_RAM_ZERO_INIT bool smartFeedforward;
 392:../cleanflight/src/main/flight/pid.c **** #endif
 393:../cleanflight/src/main/flight/pid.c **** #if defined(USE_ABSOLUTE_CONTROL)
 394:../cleanflight/src/main/flight/pid.c **** static FAST_RAM_ZERO_INIT float axisError[XYZ_AXIS_COUNT];
 395:../cleanflight/src/main/flight/pid.c **** static FAST_RAM_ZERO_INIT float acGain;
 396:../cleanflight/src/main/flight/pid.c **** static FAST_RAM_ZERO_INIT float acLimit;
 397:../cleanflight/src/main/flight/pid.c **** static FAST_RAM_ZERO_INIT float acErrorLimit;
 398:../cleanflight/src/main/flight/pid.c **** #endif
 399:../cleanflight/src/main/flight/pid.c **** 
 400:../cleanflight/src/main/flight/pid.c **** void pidResetITerm(void)
 401:../cleanflight/src/main/flight/pid.c **** {
 1651              	 .loc 4 401 0
 1652              	 .cfi_startproc
 1653              	 
 1654              	 
 1655              	 
 1656 0000 80B4     	 push {r7}
 1657              	.LCFI69:
 1658              	 .cfi_def_cfa_offset 4
 1659              	 .cfi_offset 7,-4
 1660 0002 83B0     	 sub sp,sp,#12
 1661              	.LCFI70:
 1662              	 .cfi_def_cfa_offset 16
 1663 0004 00AF     	 add r7,sp,#0
 1664              	.LCFI71:
 1665              	 .cfi_def_cfa_register 7
 1666              	.LBB11:
 402:../cleanflight/src/main/flight/pid.c ****     for (int axis = 0; axis < 3; axis++) {
 1667              	 .loc 4 402 0
 1668 0006 0023     	 movs r3,#0
 1669 0008 7B60     	 str r3,[r7,#4]
 1670 000a 13E0     	 b .L94
 1671              	.L95:
 403:../cleanflight/src/main/flight/pid.c ****         pidData[axis].I = 0.0f;
 1672              	 .loc 4 403 0 discriminator 3
 1673 000c 0D49     	 ldr r1,.L96
 1674 000e 7A68     	 ldr r2,[r7,#4]
 1675 0010 1346     	 mov r3,r2
 1676 0012 9B00     	 lsls r3,r3,#2
 1677 0014 1344     	 add r3,r3,r2
 1678 0016 9B00     	 lsls r3,r3,#2
 1679 0018 0B44     	 add r3,r3,r1
 1680 001a 4FF00002 	 mov r2,#0
 1681 001e 5A60     	 str r2,[r3,#4]
 404:../cleanflight/src/main/flight/pid.c **** #if defined(USE_ABSOLUTE_CONTROL)
 405:../cleanflight/src/main/flight/pid.c ****         axisError[axis] = 0.0f;
 1682              	 .loc 4 405 0 discriminator 3
 1683 0020 094A     	 ldr r2,.L96+4
 1684 0022 7B68     	 ldr r3,[r7,#4]
 1685 0024 9B00     	 lsls r3,r3,#2
 1686 0026 1344     	 add r3,r3,r2
 1687 0028 4FF00002 	 mov r2,#0
 1688 002c 1A60     	 str r2,[r3]
 402:../cleanflight/src/main/flight/pid.c ****         pidData[axis].I = 0.0f;
 1689              	 .loc 4 402 0 discriminator 3
 1690 002e 7B68     	 ldr r3,[r7,#4]
 1691 0030 0133     	 adds r3,r3,#1
 1692 0032 7B60     	 str r3,[r7,#4]
 1693              	.L94:
 402:../cleanflight/src/main/flight/pid.c ****         pidData[axis].I = 0.0f;
 1694              	 .loc 4 402 0 is_stmt 0 discriminator 1
 1695 0034 7B68     	 ldr r3,[r7,#4]
 1696 0036 022B     	 cmp r3,#2
 1697 0038 E8DD     	 ble .L95
 1698              	.LBE11:
 406:../cleanflight/src/main/flight/pid.c **** #endif
 407:../cleanflight/src/main/flight/pid.c ****     }
 408:../cleanflight/src/main/flight/pid.c **** }
 1699              	 .loc 4 408 0 is_stmt 1
 1700 003a 0C37     	 adds r7,r7,#12
 1701              	.LCFI72:
 1702              	 .cfi_def_cfa_offset 4
 1703 003c BD46     	 mov sp,r7
 1704              	.LCFI73:
 1705              	 .cfi_def_cfa_register 13
 1706              	 
 1707 003e 5DF8047B 	 ldr r7,[sp],#4
 1708              	.LCFI74:
 1709              	 .cfi_restore 7
 1710              	 .cfi_def_cfa_offset 0
 1711 0042 7047     	 bx lr
 1712              	.L97:
 1713              	 .align 2
 1714              	.L96:
 1715 0044 00000000 	 .word pidData
 1716 0048 00000000 	 .word axisError
 1717              	 .cfi_endproc
 1718              	.LFE572:
 1720              	 .section .bss.acroTrainerAngleLimit,"aw",%nobits
 1721              	 .align 2
 1724              	acroTrainerAngleLimit:
 1725 0000 00000000 	 .space 4
 1726              	 .section .bss.acroTrainerLookaheadTime,"aw",%nobits
 1727              	 .align 2
 1730              	acroTrainerLookaheadTime:
 1731 0000 00000000 	 .space 4
 1732              	 .section .bss.acroTrainerDebugAxis,"aw",%nobits
 1735              	acroTrainerDebugAxis:
 1736 0000 00       	 .space 1
 1737              	 .section .bss.acroTrainerActive,"aw",%nobits
 1740              	acroTrainerActive:
 1741 0000 00       	 .space 1
 1742              	 .section .bss.acroTrainerAxisState,"aw",%nobits
 1743              	 .align 2
 1746              	acroTrainerAxisState:
 1747 0000 00000000 	 .space 8
 1747      00000000 
 1748              	 .section .bss.acroTrainerGain,"aw",%nobits
 1749              	 .align 2
 1752              	acroTrainerGain:
 1753 0000 00000000 	 .space 4
 1754              	 .section .text.pidUpdateAntiGravityThrottleFilter,"ax",%progbits
 1755              	 .align 2
 1756              	 .global pidUpdateAntiGravityThrottleFilter
 1757              	 .thumb
 1758              	 .thumb_func
 1760              	pidUpdateAntiGravityThrottleFilter:
 1761              	.LFB573:
 409:../cleanflight/src/main/flight/pid.c **** 
 410:../cleanflight/src/main/flight/pid.c **** #ifdef USE_ACRO_TRAINER
 411:../cleanflight/src/main/flight/pid.c **** static FAST_RAM_ZERO_INIT float acroTrainerAngleLimit;
 412:../cleanflight/src/main/flight/pid.c **** static FAST_RAM_ZERO_INIT float acroTrainerLookaheadTime;
 413:../cleanflight/src/main/flight/pid.c **** static FAST_RAM_ZERO_INIT uint8_t acroTrainerDebugAxis;
 414:../cleanflight/src/main/flight/pid.c **** static FAST_RAM_ZERO_INIT bool acroTrainerActive;
 415:../cleanflight/src/main/flight/pid.c **** static FAST_RAM_ZERO_INIT int acroTrainerAxisState[2];  // only need roll and pitch
 416:../cleanflight/src/main/flight/pid.c **** static FAST_RAM_ZERO_INIT float acroTrainerGain;
 417:../cleanflight/src/main/flight/pid.c **** #endif // USE_ACRO_TRAINER
 418:../cleanflight/src/main/flight/pid.c **** 
 419:../cleanflight/src/main/flight/pid.c **** void pidUpdateAntiGravityThrottleFilter(float throttle)
 420:../cleanflight/src/main/flight/pid.c **** {
 1762              	 .loc 4 420 0
 1763              	 .cfi_startproc
 1764              	 
 1765              	 
 1766 0000 80B5     	 push {r7,lr}
 1767              	.LCFI75:
 1768              	 .cfi_def_cfa_offset 8
 1769              	 .cfi_offset 7,-8
 1770              	 .cfi_offset 14,-4
 1771 0002 82B0     	 sub sp,sp,#8
 1772              	.LCFI76:
 1773              	 .cfi_def_cfa_offset 16
 1774 0004 00AF     	 add r7,sp,#0
 1775              	.LCFI77:
 1776              	 .cfi_def_cfa_register 7
 1777 0006 7860     	 str r0,[r7,#4]
 421:../cleanflight/src/main/flight/pid.c ****     if (antiGravityMode == ANTI_GRAVITY_SMOOTH) {
 1778              	 .loc 4 421 0
 1779 0008 094B     	 ldr r3,.L100
 1780 000a 1B78     	 ldrb r3,[r3]
 1781 000c 002B     	 cmp r3,#0
 1782 000e 0CD1     	 bne .L98
 422:../cleanflight/src/main/flight/pid.c ****         antiGravityThrottleHpf = throttle - pt1FilterApply(&antiGravityThrottleLpf, throttle);
 1783              	 .loc 4 422 0
 1784 0010 0848     	 ldr r0,.L100+4
 1785 0012 7968     	 ldr r1,[r7,#4]
 1786 0014 FFF7FEFF 	 bl pt1FilterApply
 1787 0018 07EE100A 	 fmsr s14,r0
 1788 001c D7ED017A 	 flds s15,[r7,#4]
 1789 0020 77EEC77A 	 fsubs s15,s15,s14
 1790 0024 044B     	 ldr r3,.L100+8
 1791 0026 C3ED007A 	 fsts s15,[r3]
 1792              	.L98:
 423:../cleanflight/src/main/flight/pid.c ****     }
 424:../cleanflight/src/main/flight/pid.c **** }
 1793              	 .loc 4 424 0
 1794 002a 0837     	 adds r7,r7,#8
 1795              	.LCFI78:
 1796              	 .cfi_def_cfa_offset 8
 1797 002c BD46     	 mov sp,r7
 1798              	.LCFI79:
 1799              	 .cfi_def_cfa_register 13
 1800              	 
 1801 002e 80BD     	 pop {r7,pc}
 1802              	.L101:
 1803              	 .align 2
 1804              	.L100:
 1805 0030 00000000 	 .word antiGravityMode
 1806 0034 00000000 	 .word antiGravityThrottleLpf
 1807 0038 00000000 	 .word antiGravityThrottleHpf
 1808              	 .cfi_endproc
 1809              	.LFE573:
 1811              	 .section .text.pidInitConfig,"ax",%progbits
 1812              	 .align 2
 1813              	 .global pidInitConfig
 1814              	 .thumb
 1815              	 .thumb_func
 1817              	pidInitConfig:
 1818              	.LFB574:
 425:../cleanflight/src/main/flight/pid.c **** 
 426:../cleanflight/src/main/flight/pid.c **** void pidInitConfig(const pidProfile_t *pidProfile)
 427:../cleanflight/src/main/flight/pid.c **** {
 1819              	 .loc 4 427 0
 1820              	 .cfi_startproc
 1821              	 
 1822              	 
 1823              	 
 1824 0000 80B4     	 push {r7}
 1825              	.LCFI80:
 1826              	 .cfi_def_cfa_offset 4
 1827              	 .cfi_offset 7,-4
 1828 0002 85B0     	 sub sp,sp,#20
 1829              	.LCFI81:
 1830              	 .cfi_def_cfa_offset 24
 1831 0004 00AF     	 add r7,sp,#0
 1832              	.LCFI82:
 1833              	 .cfi_def_cfa_register 7
 1834 0006 7860     	 str r0,[r7,#4]
 428:../cleanflight/src/main/flight/pid.c ****     if (pidProfile->feedForwardTransition == 0) {
 1835              	 .loc 4 428 0
 1836 0008 7B68     	 ldr r3,[r7,#4]
 1837 000a 93F84130 	 ldrb r3,[r3,#65]
 1838 000e 002B     	 cmp r3,#0
 1839 0010 04D1     	 bne .L103
 429:../cleanflight/src/main/flight/pid.c ****         feedForwardTransition = 0;
 1840              	 .loc 4 429 0
 1841 0012 0B4B     	 ldr r3,.L108
 1842 0014 4FF00002 	 mov r2,#0
 1843 0018 1A60     	 str r2,[r3]
 1844 001a 0DE0     	 b .L104
 1845              	.L103:
 430:../cleanflight/src/main/flight/pid.c ****     } else {
 431:../cleanflight/src/main/flight/pid.c ****         feedForwardTransition = 100.0f / pidProfile->feedForwardTransition;
 1846              	 .loc 4 431 0
 1847 001c 7B68     	 ldr r3,[r7,#4]
 1848 001e 93F84130 	 ldrb r3,[r3,#65]
 1849 0022 07EE903A 	 fmsr s15,r3
 1850 0026 F8EEE77A 	 fsitos s15,s15
 1851 002a 9FED067A 	 flds s14,.L108+4
 1852 002e C7EE277A 	 fdivs s15,s14,s15
 1853 0032 034B     	 ldr r3,.L108
 1854 0034 C3ED007A 	 fsts s15,[r3]
 1855              	.L104:
 1856              	.LBB12:
 432:../cleanflight/src/main/flight/pid.c ****     }
 433:../cleanflight/src/main/flight/pid.c ****     for (int axis = FD_ROLL; axis <= FD_YAW; axis++) {
 1857              	 .loc 4 433 0
 1858 0038 0023     	 movs r3,#0
 1859 003a FB60     	 str r3,[r7,#12]
 1860 003c 69E0     	 b .L105
 1861              	.L109:
 1862 003e 00BF     	 .align 2
 1863              	.L108:
 1864 0040 00000000 	 .word feedForwardTransition
 1865 0044 0000C842 	 .word 1120403456
 1866 0048 D730033D 	 .word 1023619287
 1867              	.L106:
 434:../cleanflight/src/main/flight/pid.c ****         pidCoefficient[axis].Kp = PTERM_SCALE * pidProfile->pid[axis].P;
 1868              	 .loc 4 434 0 discriminator 3
 1869 004c 7968     	 ldr r1,[r7,#4]
 1870 004e FA68     	 ldr r2,[r7,#12]
 1871 0050 1346     	 mov r3,r2
 1872 0052 9B00     	 lsls r3,r3,#2
 1873 0054 1344     	 add r3,r3,r2
 1874 0056 0B44     	 add r3,r3,r1
 1875 0058 0833     	 adds r3,r3,#8
 1876 005a 1B78     	 ldrb r3,[r3]
 1877 005c 07EE903A 	 fmsr s15,r3
 1878 0060 F8EEE77A 	 fsitos s15,s15
 1879 0064 1FED087A 	 flds s14,.L108+8
 1880 0068 67EE877A 	 fmuls s15,s15,s14
 1881 006c C74A     	 ldr r2,.L110
 1882 006e FB68     	 ldr r3,[r7,#12]
 1883 0070 1B01     	 lsls r3,r3,#4
 1884 0072 1344     	 add r3,r3,r2
 1885 0074 C3ED007A 	 fsts s15,[r3]
 435:../cleanflight/src/main/flight/pid.c ****         pidCoefficient[axis].Ki = ITERM_SCALE * pidProfile->pid[axis].I;
 1886              	 .loc 4 435 0 discriminator 3
 1887 0078 7968     	 ldr r1,[r7,#4]
 1888 007a FA68     	 ldr r2,[r7,#12]
 1889 007c 1346     	 mov r3,r2
 1890 007e 9B00     	 lsls r3,r3,#2
 1891 0080 1344     	 add r3,r3,r2
 1892 0082 0B44     	 add r3,r3,r1
 1893 0084 0833     	 adds r3,r3,#8
 1894 0086 5B78     	 ldrb r3,[r3,#1]
 1895 0088 07EE903A 	 fmsr s15,r3
 1896 008c F8EEE77A 	 fsitos s15,s15
 1897 0090 9FEDBF7A 	 flds s14,.L110+4
 1898 0094 67EE877A 	 fmuls s15,s15,s14
 1899 0098 BC4A     	 ldr r2,.L110
 1900 009a FB68     	 ldr r3,[r7,#12]
 1901 009c 1B01     	 lsls r3,r3,#4
 1902 009e 1344     	 add r3,r3,r2
 1903 00a0 C3ED017A 	 fsts s15,[r3,#4]
 436:../cleanflight/src/main/flight/pid.c ****         pidCoefficient[axis].Kd = DTERM_SCALE * pidProfile->pid[axis].D;
 1904              	 .loc 4 436 0 discriminator 3
 1905 00a4 7968     	 ldr r1,[r7,#4]
 1906 00a6 FA68     	 ldr r2,[r7,#12]
 1907 00a8 1346     	 mov r3,r2
 1908 00aa 9B00     	 lsls r3,r3,#2
 1909 00ac 1344     	 add r3,r3,r2
 1910 00ae 0B44     	 add r3,r3,r1
 1911 00b0 0833     	 adds r3,r3,#8
 1912 00b2 9B78     	 ldrb r3,[r3,#2]
 1913 00b4 07EE903A 	 fmsr s15,r3
 1914 00b8 F8EEE77A 	 fsitos s15,s15
 1915 00bc 9FEDB57A 	 flds s14,.L110+8
 1916 00c0 67EE877A 	 fmuls s15,s15,s14
 1917 00c4 B14A     	 ldr r2,.L110
 1918 00c6 FB68     	 ldr r3,[r7,#12]
 1919 00c8 1B01     	 lsls r3,r3,#4
 1920 00ca 1344     	 add r3,r3,r2
 1921 00cc 0833     	 adds r3,r3,#8
 1922 00ce C3ED007A 	 fsts s15,[r3]
 437:../cleanflight/src/main/flight/pid.c ****         pidCoefficient[axis].Kf = FEEDFORWARD_SCALE * (pidProfile->pid[axis].F / 100.0f);
 1923              	 .loc 4 437 0 discriminator 3
 1924 00d2 7968     	 ldr r1,[r7,#4]
 1925 00d4 FA68     	 ldr r2,[r7,#12]
 1926 00d6 1346     	 mov r3,r2
 1927 00d8 9B00     	 lsls r3,r3,#2
 1928 00da 1344     	 add r3,r3,r2
 1929 00dc 0B44     	 add r3,r3,r1
 1930 00de 0833     	 adds r3,r3,#8
 1931 00e0 B3F80330 	 ldrh r3,[r3,#3]
 1932 00e4 9BB2     	 uxth r3,r3
 1933 00e6 07EE903A 	 fmsr s15,r3
 1934 00ea F8EEE77A 	 fsitos s15,s15
 1935 00ee 9FEDAA7A 	 flds s14,.L110+12
 1936 00f2 C7EE877A 	 fdivs s15,s15,s14
 1937 00f6 9FEDA97A 	 flds s14,.L110+16
 1938 00fa 67EE877A 	 fmuls s15,s15,s14
 1939 00fe A34A     	 ldr r2,.L110
 1940 0100 FB68     	 ldr r3,[r7,#12]
 1941 0102 1B01     	 lsls r3,r3,#4
 1942 0104 1344     	 add r3,r3,r2
 1943 0106 0833     	 adds r3,r3,#8
 1944 0108 C3ED017A 	 fsts s15,[r3,#4]
 433:../cleanflight/src/main/flight/pid.c ****         pidCoefficient[axis].Kp = PTERM_SCALE * pidProfile->pid[axis].P;
 1945              	 .loc 4 433 0 discriminator 3
 1946 010c FB68     	 ldr r3,[r7,#12]
 1947 010e 0133     	 adds r3,r3,#1
 1948 0110 FB60     	 str r3,[r7,#12]
 1949              	.L105:
 433:../cleanflight/src/main/flight/pid.c ****         pidCoefficient[axis].Kp = PTERM_SCALE * pidProfile->pid[axis].P;
 1950              	 .loc 4 433 0 is_stmt 0 discriminator 1
 1951 0112 FB68     	 ldr r3,[r7,#12]
 1952 0114 022B     	 cmp r3,#2
 1953 0116 99DD     	 ble .L106
 1954              	.LBE12:
 438:../cleanflight/src/main/flight/pid.c ****     }
 439:../cleanflight/src/main/flight/pid.c **** 
 440:../cleanflight/src/main/flight/pid.c ****     levelGain = pidProfile->pid[PID_LEVEL].P / 10.0f;
 1955              	 .loc 4 440 0 is_stmt 1
 1956 0118 7B68     	 ldr r3,[r7,#4]
 1957 011a DB7D     	 ldrb r3,[r3,#23]
 1958 011c 07EE903A 	 fmsr s15,r3
 1959 0120 F8EEE77A 	 fsitos s15,s15
 1960 0124 B2EE047A 	 fconsts s14,#36
 1961 0128 C7EE877A 	 fdivs s15,s15,s14
 1962 012c 9C4B     	 ldr r3,.L110+20
 1963 012e C3ED007A 	 fsts s15,[r3]
 441:../cleanflight/src/main/flight/pid.c ****     horizonGain = pidProfile->pid[PID_LEVEL].I / 10.0f;
 1964              	 .loc 4 441 0
 1965 0132 7B68     	 ldr r3,[r7,#4]
 1966 0134 1B7E     	 ldrb r3,[r3,#24]
 1967 0136 07EE903A 	 fmsr s15,r3
 1968 013a F8EEE77A 	 fsitos s15,s15
 1969 013e B2EE047A 	 fconsts s14,#36
 1970 0142 C7EE877A 	 fdivs s15,s15,s14
 1971 0146 974B     	 ldr r3,.L110+24
 1972 0148 C3ED007A 	 fsts s15,[r3]
 442:../cleanflight/src/main/flight/pid.c ****     horizonTransition = (float)pidProfile->pid[PID_LEVEL].D;
 1973              	 .loc 4 442 0
 1974 014c 7B68     	 ldr r3,[r7,#4]
 1975 014e 5B7E     	 ldrb r3,[r3,#25]
 1976 0150 07EE903A 	 fmsr s15,r3
 1977 0154 F8EE677A 	 fuitos s15,s15
 1978 0158 934B     	 ldr r3,.L110+28
 1979 015a C3ED007A 	 fsts s15,[r3]
 443:../cleanflight/src/main/flight/pid.c ****     horizonTiltExpertMode = pidProfile->horizon_tilt_expert_mode;
 1980              	 .loc 4 443 0
 1981 015e 7B68     	 ldr r3,[r7,#4]
 1982 0160 93F82A20 	 ldrb r2,[r3,#42]
 1983 0164 914B     	 ldr r3,.L110+32
 1984 0166 1A70     	 strb r2,[r3]
 444:../cleanflight/src/main/flight/pid.c ****     horizonCutoffDegrees = (175 - pidProfile->horizon_tilt_effect) * 1.8f;
 1985              	 .loc 4 444 0
 1986 0168 7B68     	 ldr r3,[r7,#4]
 1987 016a 93F82930 	 ldrb r3,[r3,#41]
 1988 016e C3F1AF03 	 rsb r3,r3,#175
 1989 0172 07EE903A 	 fmsr s15,r3
 1990 0176 F8EEE77A 	 fsitos s15,s15
 1991 017a 9FED8D7A 	 flds s14,.L110+36
 1992 017e 67EE877A 	 fmuls s15,s15,s14
 1993 0182 8C4B     	 ldr r3,.L110+40
 1994 0184 C3ED007A 	 fsts s15,[r3]
 445:../cleanflight/src/main/flight/pid.c ****     horizonFactorRatio = (100 - pidProfile->horizon_tilt_effect) * 0.01f;
 1995              	 .loc 4 445 0
 1996 0188 7B68     	 ldr r3,[r7,#4]
 1997 018a 93F82930 	 ldrb r3,[r3,#41]
 1998 018e C3F16403 	 rsb r3,r3,#100
 1999 0192 07EE903A 	 fmsr s15,r3
 2000 0196 F8EEE77A 	 fsitos s15,s15
 2001 019a 9FED877A 	 flds s14,.L110+44
 2002 019e 67EE877A 	 fmuls s15,s15,s14
 2003 01a2 864B     	 ldr r3,.L110+48
 2004 01a4 C3ED007A 	 fsts s15,[r3]
 446:../cleanflight/src/main/flight/pid.c ****     maxVelocity[FD_ROLL] = maxVelocity[FD_PITCH] = pidProfile->rateAccelLimit * 100 * dT;
 2005              	 .loc 4 446 0
 2006 01a8 7B68     	 ldr r3,[r7,#4]
 2007 01aa 5B8E     	 ldrh r3,[r3,#50]
 2008 01ac 9BB2     	 uxth r3,r3
 2009 01ae 1A46     	 mov r2,r3
 2010 01b0 6423     	 movs r3,#100
 2011 01b2 03FB02F3 	 mul r3,r3,r2
 2012 01b6 07EE903A 	 fmsr s15,r3
 2013 01ba B8EEE77A 	 fsitos s14,s15
 2014 01be 804B     	 ldr r3,.L110+52
 2015 01c0 D3ED007A 	 flds s15,[r3]
 2016 01c4 67EE277A 	 fmuls s15,s14,s15
 2017 01c8 7E4B     	 ldr r3,.L110+56
 2018 01ca C3ED017A 	 fsts s15,[r3,#4]
 2019 01ce 7D4B     	 ldr r3,.L110+56
 2020 01d0 5B68     	 ldr r3,[r3,#4]
 2021 01d2 7C4A     	 ldr r2,.L110+56
 2022 01d4 1360     	 str r3,[r2]
 447:../cleanflight/src/main/flight/pid.c ****     maxVelocity[FD_YAW] = pidProfile->yawRateAccelLimit * 100 * dT;
 2023              	 .loc 4 447 0
 2024 01d6 7B68     	 ldr r3,[r7,#4]
 2025 01d8 1B8E     	 ldrh r3,[r3,#48]
 2026 01da 9BB2     	 uxth r3,r3
 2027 01dc 1A46     	 mov r2,r3
 2028 01de 6423     	 movs r3,#100
 2029 01e0 03FB02F3 	 mul r3,r3,r2
 2030 01e4 07EE903A 	 fmsr s15,r3
 2031 01e8 B8EEE77A 	 fsitos s14,s15
 2032 01ec 744B     	 ldr r3,.L110+52
 2033 01ee D3ED007A 	 flds s15,[r3]
 2034 01f2 67EE277A 	 fmuls s15,s14,s15
 2035 01f6 734B     	 ldr r3,.L110+56
 2036 01f8 C3ED027A 	 fsts s15,[r3,#8]
 448:../cleanflight/src/main/flight/pid.c ****     const float ITermWindupPoint = (float)pidProfile->itermWindupPointPercent / 100.0f;
 2037              	 .loc 4 448 0
 2038 01fc 7B68     	 ldr r3,[r7,#4]
 2039 01fe 93F82230 	 ldrb r3,[r3,#34]
 2040 0202 07EE903A 	 fmsr s15,r3
 2041 0206 F8EE677A 	 fuitos s15,s15
 2042 020a 9FED637A 	 flds s14,.L110+12
 2043 020e C7EE877A 	 fdivs s15,s15,s14
 2044 0212 C7ED027A 	 fsts s15,[r7,#8]
 449:../cleanflight/src/main/flight/pid.c ****     ITermWindupPointInv = 1.0f / (1.0f - ITermWindupPoint);
 2045              	 .loc 4 449 0
 2046 0216 B7EE007A 	 fconsts s14,#112
 2047 021a D7ED027A 	 flds s15,[r7,#8]
 2048 021e 77EE677A 	 fsubs s15,s14,s15
 2049 0222 B7EE007A 	 fconsts s14,#112
 2050 0226 C7EE277A 	 fdivs s15,s14,s15
 2051 022a 674B     	 ldr r3,.L110+60
 2052 022c C3ED007A 	 fsts s15,[r3]
 450:../cleanflight/src/main/flight/pid.c ****     itermAcceleratorGain = pidProfile->itermAcceleratorGain;
 2053              	 .loc 4 450 0
 2054 0230 7B68     	 ldr r3,[r7,#4]
 2055 0232 DB8D     	 ldrh r3,[r3,#46]
 2056 0234 9AB2     	 uxth r2,r3
 2057 0236 654B     	 ldr r3,.L110+64
 2058 0238 1A80     	 strh r2,[r3]
 451:../cleanflight/src/main/flight/pid.c ****     crashTimeLimitUs = pidProfile->crash_time * 1000;
 2059              	 .loc 4 451 0
 2060 023a 7B68     	 ldr r3,[r7,#4]
 2061 023c 5B8F     	 ldrh r3,[r3,#58]
 2062 023e 9BB2     	 uxth r3,r3
 2063 0240 1A46     	 mov r2,r3
 2064 0242 4FF47A73 	 mov r3,#1000
 2065 0246 03FB02F3 	 mul r3,r3,r2
 2066 024a 614A     	 ldr r2,.L110+68
 2067 024c 1360     	 str r3,[r2]
 452:../cleanflight/src/main/flight/pid.c ****     crashTimeDelayUs = pidProfile->crash_delay * 1000;
 2068              	 .loc 4 452 0
 2069 024e 7B68     	 ldr r3,[r7,#4]
 2070 0250 9B8F     	 ldrh r3,[r3,#60]
 2071 0252 9BB2     	 uxth r3,r3
 2072 0254 1A46     	 mov r2,r3
 2073 0256 4FF47A73 	 mov r3,#1000
 2074 025a 03FB02F3 	 mul r3,r3,r2
 2075 025e 5D4A     	 ldr r2,.L110+72
 2076 0260 1360     	 str r3,[r2]
 453:../cleanflight/src/main/flight/pid.c ****     crashRecoveryAngleDeciDegrees = pidProfile->crash_recovery_angle * 10;
 2077              	 .loc 4 453 0
 2078 0262 7B68     	 ldr r3,[r7,#4]
 2079 0264 93F83E30 	 ldrb r3,[r3,#62]
 2080 0268 1A46     	 mov r2,r3
 2081 026a 1346     	 mov r3,r2
 2082 026c 9B00     	 lsls r3,r3,#2
 2083 026e 1344     	 add r3,r3,r2
 2084 0270 5B00     	 lsls r3,r3,#1
 2085 0272 1A46     	 mov r2,r3
 2086 0274 584B     	 ldr r3,.L110+76
 2087 0276 1A60     	 str r2,[r3]
 454:../cleanflight/src/main/flight/pid.c ****     crashRecoveryRate = pidProfile->crash_recovery_rate;
 2088              	 .loc 4 454 0
 2089 0278 7B68     	 ldr r3,[r7,#4]
 2090 027a 93F83F30 	 ldrb r3,[r3,#63]
 2091 027e 07EE903A 	 fmsr s15,r3
 2092 0282 F8EE677A 	 fuitos s15,s15
 2093 0286 554B     	 ldr r3,.L110+80
 2094 0288 C3ED007A 	 fsts s15,[r3]
 455:../cleanflight/src/main/flight/pid.c ****     crashGyroThreshold = pidProfile->crash_gthreshold;
 2095              	 .loc 4 455 0
 2096 028c 7B68     	 ldr r3,[r7,#4]
 2097 028e DB8E     	 ldrh r3,[r3,#54]
 2098 0290 9BB2     	 uxth r3,r3
 2099 0292 07EE903A 	 fmsr s15,r3
 2100 0296 F8EE677A 	 fuitos s15,s15
 2101 029a 514B     	 ldr r3,.L110+84
 2102 029c C3ED007A 	 fsts s15,[r3]
 456:../cleanflight/src/main/flight/pid.c ****     crashDtermThreshold = pidProfile->crash_dthreshold;
 2103              	 .loc 4 456 0
 2104 02a0 7B68     	 ldr r3,[r7,#4]
 2105 02a2 9B8E     	 ldrh r3,[r3,#52]
 2106 02a4 9BB2     	 uxth r3,r3
 2107 02a6 07EE903A 	 fmsr s15,r3
 2108 02aa F8EE677A 	 fuitos s15,s15
 2109 02ae 4D4B     	 ldr r3,.L110+88
 2110 02b0 C3ED007A 	 fsts s15,[r3]
 457:../cleanflight/src/main/flight/pid.c ****     crashSetpointThreshold = pidProfile->crash_setpoint_threshold;
 2111              	 .loc 4 457 0
 2112 02b4 7B68     	 ldr r3,[r7,#4]
 2113 02b6 1B8F     	 ldrh r3,[r3,#56]
 2114 02b8 9BB2     	 uxth r3,r3
 2115 02ba 07EE903A 	 fmsr s15,r3
 2116 02be F8EE677A 	 fuitos s15,s15
 2117 02c2 494B     	 ldr r3,.L110+92
 2118 02c4 C3ED007A 	 fsts s15,[r3]
 458:../cleanflight/src/main/flight/pid.c ****     crashLimitYaw = pidProfile->crash_limit_yaw;
 2119              	 .loc 4 458 0
 2120 02c8 7B68     	 ldr r3,[r7,#4]
 2121 02ca B3F84230 	 ldrh r3,[r3,#66]
 2122 02ce 9BB2     	 uxth r3,r3
 2123 02d0 07EE903A 	 fmsr s15,r3
 2124 02d4 F8EE677A 	 fuitos s15,s15
 2125 02d8 444B     	 ldr r3,.L110+96
 2126 02da C3ED007A 	 fsts s15,[r3]
 459:../cleanflight/src/main/flight/pid.c ****     itermLimit = pidProfile->itermLimit;
 2127              	 .loc 4 459 0
 2128 02de 7B68     	 ldr r3,[r7,#4]
 2129 02e0 B3F84430 	 ldrh r3,[r3,#68]
 2130 02e4 9BB2     	 uxth r3,r3
 2131 02e6 07EE903A 	 fmsr s15,r3
 2132 02ea F8EE677A 	 fuitos s15,s15
 2133 02ee 404B     	 ldr r3,.L110+100
 2134 02f0 C3ED007A 	 fsts s15,[r3]
 460:../cleanflight/src/main/flight/pid.c **** #if defined(USE_THROTTLE_BOOST)
 461:../cleanflight/src/main/flight/pid.c ****     throttleBoost = pidProfile->throttle_boost * 0.1f;
 2135              	 .loc 4 461 0
 2136 02f4 7B68     	 ldr r3,[r7,#4]
 2137 02f6 93F84930 	 ldrb r3,[r3,#73]
 2138 02fa 07EE903A 	 fmsr s15,r3
 2139 02fe F8EEE77A 	 fsitos s15,s15
 2140 0302 9FED3C7A 	 flds s14,.L110+104
 2141 0306 67EE877A 	 fmuls s15,s15,s14
 2142 030a 3B4B     	 ldr r3,.L110+108
 2143 030c C3ED007A 	 fsts s15,[r3]
 462:../cleanflight/src/main/flight/pid.c **** #endif
 463:../cleanflight/src/main/flight/pid.c ****     itermRotation = pidProfile->iterm_rotation;
 2144              	 .loc 4 463 0
 2145 0310 7B68     	 ldr r3,[r7,#4]
 2146 0312 93F84B30 	 ldrb r3,[r3,#75]
 2147 0316 002B     	 cmp r3,#0
 2148 0318 14BF     	 ite ne
 2149 031a 0123     	 movne r3,#1
 2150 031c 0023     	 moveq r3,#0
 2151 031e DAB2     	 uxtb r2,r3
 2152 0320 364B     	 ldr r3,.L110+112
 2153 0322 1A70     	 strb r2,[r3]
 464:../cleanflight/src/main/flight/pid.c ****     antiGravityMode = pidProfile->antiGravityMode;
 2154              	 .loc 4 464 0
 2155 0324 7B68     	 ldr r3,[r7,#4]
 2156 0326 93F82B20 	 ldrb r2,[r3,#43]
 2157 032a 354B     	 ldr r3,.L110+116
 2158 032c 1A70     	 strb r2,[r3]
 465:../cleanflight/src/main/flight/pid.c ****     
 466:../cleanflight/src/main/flight/pid.c ****     // Calculate the anti-gravity value that will trigger the OSD display.
 467:../cleanflight/src/main/flight/pid.c ****     // For classic AG it's either 1.0 for off and > 1.0 for on.
 468:../cleanflight/src/main/flight/pid.c ****     // For the new AG it's a continuous floating value so we want to trigger the OSD
 469:../cleanflight/src/main/flight/pid.c ****     // display when it exceeds 25% of its possible range. This gives a useful indication
 470:../cleanflight/src/main/flight/pid.c ****     // of AG activity without excessive display.
 471:../cleanflight/src/main/flight/pid.c ****     antiGravityOsdCutoff = 1.0f;
 2159              	 .loc 4 471 0
 2160 032e 354B     	 ldr r3,.L110+120
 2161 0330 4FF07E52 	 mov r2,#1065353216
 2162 0334 1A60     	 str r2,[r3]
 472:../cleanflight/src/main/flight/pid.c ****     if (antiGravityMode == ANTI_GRAVITY_SMOOTH) {
 2163              	 .loc 4 472 0
 2164 0336 324B     	 ldr r3,.L110+116
 2165 0338 1B78     	 ldrb r3,[r3]
 2166 033a 002B     	 cmp r3,#0
 2167 033c 17D1     	 bne .L107
 473:../cleanflight/src/main/flight/pid.c ****         antiGravityOsdCutoff += ((itermAcceleratorGain - 1000) / 1000.0f) * 0.25f;
 2168              	 .loc 4 473 0
 2169 033e 234B     	 ldr r3,.L110+64
 2170 0340 1B88     	 ldrh r3,[r3]
 2171 0342 A3F57A73 	 sub r3,r3,#1000
 2172 0346 07EE903A 	 fmsr s15,r3
 2173 034a F8EEE77A 	 fsitos s15,s15
 2174 034e 9FED2E7A 	 flds s14,.L110+124
 2175 0352 C7EE877A 	 fdivs s15,s15,s14
 2176 0356 B5EE007A 	 fconsts s14,#80
 2177 035a 27EE877A 	 fmuls s14,s15,s14
 2178 035e 294B     	 ldr r3,.L110+120
 2179 0360 D3ED007A 	 flds s15,[r3]
 2180 0364 77EE277A 	 fadds s15,s14,s15
 2181 0368 264B     	 ldr r3,.L110+120
 2182 036a C3ED007A 	 fsts s15,[r3]
 2183              	.L107:
 474:../cleanflight/src/main/flight/pid.c ****     }
 475:../cleanflight/src/main/flight/pid.c **** 
 476:../cleanflight/src/main/flight/pid.c **** #if defined(USE_SMART_FEEDFORWARD)
 477:../cleanflight/src/main/flight/pid.c ****     smartFeedforward = pidProfile->smart_feedforward;
 2184              	 .loc 4 477 0
 2185 036e 7B68     	 ldr r3,[r7,#4]
 2186 0370 93F84C30 	 ldrb r3,[r3,#76]
 2187 0374 002B     	 cmp r3,#0
 2188 0376 14BF     	 ite ne
 2189 0378 0123     	 movne r3,#1
 2190 037a 0023     	 moveq r3,#0
 2191 037c DAB2     	 uxtb r2,r3
 2192 037e 234B     	 ldr r3,.L110+128
 2193 0380 1A70     	 strb r2,[r3]
 478:../cleanflight/src/main/flight/pid.c **** #endif
 479:../cleanflight/src/main/flight/pid.c **** #if defined(USE_ITERM_RELAX)
 480:../cleanflight/src/main/flight/pid.c ****     itermRelax = pidProfile->iterm_relax;
 2194              	 .loc 4 480 0
 2195 0382 7B68     	 ldr r3,[r7,#4]
 2196 0384 93F84F20 	 ldrb r2,[r3,#79]
 2197 0388 42E0     	 b .L111
 2198              	.L112:
 2199 038a 00BF     	 .align 2
 2200              	.L110:
 2201 038c 00000000 	 .word pidCoefficient
 2202 0390 033F7A3E 	 .word 1048198915
 2203 0394 97AC0A3A 	 .word 973778071
 2204 0398 0000C842 	 .word 1120403456
 2205 039c 7558613C 	 .word 1013012597
 2206 03a0 00000000 	 .word levelGain
 2207 03a4 00000000 	 .word horizonGain
 2208 03a8 00000000 	 .word horizonTransition
 2209 03ac 00000000 	 .word horizonTiltExpertMode
 2210 03b0 6666E63F 	 .word 1072064102
 2211 03b4 00000000 	 .word horizonCutoffDegrees
 2212 03b8 0AD7233C 	 .word 1008981770
 2213 03bc 00000000 	 .word horizonFactorRatio
 2214 03c0 00000000 	 .word dT
 2215 03c4 00000000 	 .word maxVelocity
 2216 03c8 00000000 	 .word ITermWindupPointInv
 2217 03cc 00000000 	 .word itermAcceleratorGain
 2218 03d0 00000000 	 .word crashTimeLimitUs
 2219 03d4 00000000 	 .word crashTimeDelayUs
 2220 03d8 00000000 	 .word crashRecoveryAngleDeciDegrees
 2221 03dc 00000000 	 .word crashRecoveryRate
 2222 03e0 00000000 	 .word crashGyroThreshold
 2223 03e4 00000000 	 .word crashDtermThreshold
 2224 03e8 00000000 	 .word crashSetpointThreshold
 2225 03ec 00000000 	 .word crashLimitYaw
 2226 03f0 00000000 	 .word itermLimit
 2227 03f4 CDCCCC3D 	 .word 1036831949
 2228 03f8 00000000 	 .word throttleBoost
 2229 03fc 00000000 	 .word itermRotation
 2230 0400 00000000 	 .word antiGravityMode
 2231 0404 00000000 	 .word antiGravityOsdCutoff
 2232 0408 00007A44 	 .word 1148846080
 2233 040c 00000000 	 .word smartFeedforward
 2234              	.L111:
 2235 0410 2D4B     	 ldr r3,.L113
 2236 0412 1A70     	 strb r2,[r3]
 481:../cleanflight/src/main/flight/pid.c ****     itermRelaxType = pidProfile->iterm_relax_type;
 2237              	 .loc 4 481 0
 2238 0414 7B68     	 ldr r3,[r7,#4]
 2239 0416 93F84D20 	 ldrb r2,[r3,#77]
 2240 041a 2C4B     	 ldr r3,.L113+4
 2241 041c 1A70     	 strb r2,[r3]
 482:../cleanflight/src/main/flight/pid.c ****     itermRelaxCutoff = pidProfile->iterm_relax_cutoff;
 2242              	 .loc 4 482 0
 2243 041e 7B68     	 ldr r3,[r7,#4]
 2244 0420 93F84E20 	 ldrb r2,[r3,#78]
 2245 0424 2A4B     	 ldr r3,.L113+8
 2246 0426 1A70     	 strb r2,[r3]
 483:../cleanflight/src/main/flight/pid.c **** #endif
 484:../cleanflight/src/main/flight/pid.c **** 
 485:../cleanflight/src/main/flight/pid.c **** #ifdef USE_ACRO_TRAINER
 486:../cleanflight/src/main/flight/pid.c ****     acroTrainerAngleLimit = pidProfile->acro_trainer_angle_limit;
 2247              	 .loc 4 486 0
 2248 0428 7B68     	 ldr r3,[r7,#4]
 2249 042a 93F85030 	 ldrb r3,[r3,#80]
 2250 042e 07EE903A 	 fmsr s15,r3
 2251 0432 F8EE677A 	 fuitos s15,s15
 2252 0436 274B     	 ldr r3,.L113+12
 2253 0438 C3ED007A 	 fsts s15,[r3]
 487:../cleanflight/src/main/flight/pid.c ****     acroTrainerLookaheadTime = (float)pidProfile->acro_trainer_lookahead_ms / 1000.0f;
 2254              	 .loc 4 487 0
 2255 043c 7B68     	 ldr r3,[r7,#4]
 2256 043e B3F85330 	 ldrh r3,[r3,#83]
 2257 0442 9BB2     	 uxth r3,r3
 2258 0444 07EE903A 	 fmsr s15,r3
 2259 0448 F8EE677A 	 fuitos s15,s15
 2260 044c 9FED227A 	 flds s14,.L113+16
 2261 0450 C7EE877A 	 fdivs s15,s15,s14
 2262 0454 214B     	 ldr r3,.L113+20
 2263 0456 C3ED007A 	 fsts s15,[r3]
 488:../cleanflight/src/main/flight/pid.c ****     acroTrainerDebugAxis = pidProfile->acro_trainer_debug_axis;
 2264              	 .loc 4 488 0
 2265 045a 7B68     	 ldr r3,[r7,#4]
 2266 045c 93F85120 	 ldrb r2,[r3,#81]
 2267 0460 1F4B     	 ldr r3,.L113+24
 2268 0462 1A70     	 strb r2,[r3]
 489:../cleanflight/src/main/flight/pid.c ****     acroTrainerGain = (float)pidProfile->acro_trainer_gain / 10.0f;
 2269              	 .loc 4 489 0
 2270 0464 7B68     	 ldr r3,[r7,#4]
 2271 0466 93F85230 	 ldrb r3,[r3,#82]
 2272 046a 07EE903A 	 fmsr s15,r3
 2273 046e F8EE677A 	 fuitos s15,s15
 2274 0472 B2EE047A 	 fconsts s14,#36
 2275 0476 C7EE877A 	 fdivs s15,s15,s14
 2276 047a 1A4B     	 ldr r3,.L113+28
 2277 047c C3ED007A 	 fsts s15,[r3]
 490:../cleanflight/src/main/flight/pid.c **** #endif // USE_ACRO_TRAINER
 491:../cleanflight/src/main/flight/pid.c **** 
 492:../cleanflight/src/main/flight/pid.c **** #if defined(USE_ABSOLUTE_CONTROL)
 493:../cleanflight/src/main/flight/pid.c ****     acGain = (float)pidProfile->abs_control_gain;
 2278              	 .loc 4 493 0
 2279 0480 7B68     	 ldr r3,[r7,#4]
 2280 0482 93F85530 	 ldrb r3,[r3,#85]
 2281 0486 07EE903A 	 fmsr s15,r3
 2282 048a F8EE677A 	 fuitos s15,s15
 2283 048e 164B     	 ldr r3,.L113+32
 2284 0490 C3ED007A 	 fsts s15,[r3]
 494:../cleanflight/src/main/flight/pid.c ****     acLimit = (float)pidProfile->abs_control_limit;
 2285              	 .loc 4 494 0
 2286 0494 7B68     	 ldr r3,[r7,#4]
 2287 0496 93F85630 	 ldrb r3,[r3,#86]
 2288 049a 07EE903A 	 fmsr s15,r3
 2289 049e F8EE677A 	 fuitos s15,s15
 2290 04a2 124B     	 ldr r3,.L113+36
 2291 04a4 C3ED007A 	 fsts s15,[r3]
 495:../cleanflight/src/main/flight/pid.c ****     acErrorLimit = (float)pidProfile->abs_control_error_limit;
 2292              	 .loc 4 495 0
 2293 04a8 7B68     	 ldr r3,[r7,#4]
 2294 04aa 93F85730 	 ldrb r3,[r3,#87]
 2295 04ae 07EE903A 	 fmsr s15,r3
 2296 04b2 F8EE677A 	 fuitos s15,s15
 2297 04b6 0E4B     	 ldr r3,.L113+40
 2298 04b8 C3ED007A 	 fsts s15,[r3]
 496:../cleanflight/src/main/flight/pid.c **** #endif
 497:../cleanflight/src/main/flight/pid.c **** }
 2299              	 .loc 4 497 0
 2300 04bc 1437     	 adds r7,r7,#20
 2301              	.LCFI83:
 2302              	 .cfi_def_cfa_offset 4
 2303 04be BD46     	 mov sp,r7
 2304              	.LCFI84:
 2305              	 .cfi_def_cfa_register 13
 2306              	 
 2307 04c0 5DF8047B 	 ldr r7,[sp],#4
 2308              	.LCFI85:
 2309              	 .cfi_restore 7
 2310              	 .cfi_def_cfa_offset 0
 2311 04c4 7047     	 bx lr
 2312              	.L114:
 2313 04c6 00BF     	 .align 2
 2314              	.L113:
 2315 04c8 00000000 	 .word itermRelax
 2316 04cc 00000000 	 .word itermRelaxType
 2317 04d0 00000000 	 .word itermRelaxCutoff
 2318 04d4 00000000 	 .word acroTrainerAngleLimit
 2319 04d8 00007A44 	 .word 1148846080
 2320 04dc 00000000 	 .word acroTrainerLookaheadTime
 2321 04e0 00000000 	 .word acroTrainerDebugAxis
 2322 04e4 00000000 	 .word acroTrainerGain
 2323 04e8 00000000 	 .word acGain
 2324 04ec 00000000 	 .word acLimit
 2325 04f0 00000000 	 .word acErrorLimit
 2326              	 .cfi_endproc
 2327              	.LFE574:
 2329              	 .section .text.pidInit,"ax",%progbits
 2330              	 .align 2
 2331              	 .global pidInit
 2332              	 .thumb
 2333              	 .thumb_func
 2335              	pidInit:
 2336              	.LFB575:
 498:../cleanflight/src/main/flight/pid.c **** 
 499:../cleanflight/src/main/flight/pid.c **** void pidInit(const pidProfile_t *pidProfile)
 500:../cleanflight/src/main/flight/pid.c **** {
 2337              	 .loc 4 500 0
 2338              	 .cfi_startproc
 2339              	 
 2340              	 
 2341 0000 90B5     	 push {r4,r7,lr}
 2342              	.LCFI86:
 2343              	 .cfi_def_cfa_offset 12
 2344              	 .cfi_offset 4,-12
 2345              	 .cfi_offset 7,-8
 2346              	 .cfi_offset 14,-4
 2347 0002 83B0     	 sub sp,sp,#12
 2348              	.LCFI87:
 2349              	 .cfi_def_cfa_offset 24
 2350 0004 00AF     	 add r7,sp,#0
 2351              	.LCFI88:
 2352              	 .cfi_def_cfa_register 7
 2353 0006 7860     	 str r0,[r7,#4]
 501:../cleanflight/src/main/flight/pid.c ****     pidSetTargetLooptime(gyro.targetLooptime * pidConfig()->pid_process_denom); // Initialize pid l
 2354              	 .loc 4 501 0
 2355 0008 094B     	 ldr r3,.L116
 2356 000a 1C68     	 ldr r4,[r3]
 2357 000c FFF7FEFF 	 bl pidConfig
 2358 0010 0346     	 mov r3,r0
 2359 0012 1B78     	 ldrb r3,[r3]
 2360 0014 03FB04F3 	 mul r3,r3,r4
 2361 0018 1846     	 mov r0,r3
 2362 001a FFF7FEFF 	 bl pidSetTargetLooptime
 502:../cleanflight/src/main/flight/pid.c ****     pidInitFilters(pidProfile);
 2363              	 .loc 4 502 0
 2364 001e 7868     	 ldr r0,[r7,#4]
 2365 0020 FFF7FEFF 	 bl pidInitFilters
 503:../cleanflight/src/main/flight/pid.c ****     pidInitConfig(pidProfile);
 2366              	 .loc 4 503 0
 2367 0024 7868     	 ldr r0,[r7,#4]
 2368 0026 FFF7FEFF 	 bl pidInitConfig
 504:../cleanflight/src/main/flight/pid.c **** }
 2369              	 .loc 4 504 0
 2370 002a 0C37     	 adds r7,r7,#12
 2371              	.LCFI89:
 2372              	 .cfi_def_cfa_offset 12
 2373 002c BD46     	 mov sp,r7
 2374              	.LCFI90:
 2375              	 .cfi_def_cfa_register 13
 2376              	 
 2377 002e 90BD     	 pop {r4,r7,pc}
 2378              	.L117:
 2379              	 .align 2
 2380              	.L116:
 2381 0030 00000000 	 .word gyro
 2382              	 .cfi_endproc
 2383              	.LFE575:
 2385              	 .section .text.pidAcroTrainerInit,"ax",%progbits
 2386              	 .align 2
 2387              	 .global pidAcroTrainerInit
 2388              	 .thumb
 2389              	 .thumb_func
 2391              	pidAcroTrainerInit:
 2392              	.LFB576:
 505:../cleanflight/src/main/flight/pid.c **** 
 506:../cleanflight/src/main/flight/pid.c **** #ifdef USE_ACRO_TRAINER
 507:../cleanflight/src/main/flight/pid.c **** void pidAcroTrainerInit(void)
 508:../cleanflight/src/main/flight/pid.c **** {
 2393              	 .loc 4 508 0
 2394              	 .cfi_startproc
 2395              	 
 2396              	 
 2397              	 
 2398 0000 80B4     	 push {r7}
 2399              	.LCFI91:
 2400              	 .cfi_def_cfa_offset 4
 2401              	 .cfi_offset 7,-4
 2402 0002 00AF     	 add r7,sp,#0
 2403              	.LCFI92:
 2404              	 .cfi_def_cfa_register 7
 509:../cleanflight/src/main/flight/pid.c ****     acroTrainerAxisState[FD_ROLL] = 0;
 2405              	 .loc 4 509 0
 2406 0004 044B     	 ldr r3,.L119
 2407 0006 0022     	 movs r2,#0
 2408 0008 1A60     	 str r2,[r3]
 510:../cleanflight/src/main/flight/pid.c ****     acroTrainerAxisState[FD_PITCH] = 0;
 2409              	 .loc 4 510 0
 2410 000a 034B     	 ldr r3,.L119
 2411 000c 0022     	 movs r2,#0
 2412 000e 5A60     	 str r2,[r3,#4]
 511:../cleanflight/src/main/flight/pid.c **** }
 2413              	 .loc 4 511 0
 2414 0010 BD46     	 mov sp,r7
 2415              	.LCFI93:
 2416              	 .cfi_def_cfa_register 13
 2417              	 
 2418 0012 5DF8047B 	 ldr r7,[sp],#4
 2419              	.LCFI94:
 2420              	 .cfi_restore 7
 2421              	 .cfi_def_cfa_offset 0
 2422 0016 7047     	 bx lr
 2423              	.L120:
 2424              	 .align 2
 2425              	.L119:
 2426 0018 00000000 	 .word acroTrainerAxisState
 2427              	 .cfi_endproc
 2428              	.LFE576:
 2430              	 .section .text.pidCopyProfile,"ax",%progbits
 2431              	 .align 2
 2432              	 .global pidCopyProfile
 2433              	 .thumb
 2434              	 .thumb_func
 2436              	pidCopyProfile:
 2437              	.LFB577:
 512:../cleanflight/src/main/flight/pid.c **** #endif // USE_ACRO_TRAINER
 513:../cleanflight/src/main/flight/pid.c **** 
 514:../cleanflight/src/main/flight/pid.c **** void pidCopyProfile(uint8_t dstPidProfileIndex, uint8_t srcPidProfileIndex)
 515:../cleanflight/src/main/flight/pid.c **** {
 2438              	 .loc 4 515 0
 2439              	 .cfi_startproc
 2440              	 
 2441              	 
 2442 0000 90B5     	 push {r4,r7,lr}
 2443              	.LCFI95:
 2444              	 .cfi_def_cfa_offset 12
 2445              	 .cfi_offset 4,-12
 2446              	 .cfi_offset 7,-8
 2447              	 .cfi_offset 14,-4
 2448 0002 83B0     	 sub sp,sp,#12
 2449              	.LCFI96:
 2450              	 .cfi_def_cfa_offset 24
 2451 0004 00AF     	 add r7,sp,#0
 2452              	.LCFI97:
 2453              	 .cfi_def_cfa_register 7
 2454 0006 0346     	 mov r3,r0
 2455 0008 0A46     	 mov r2,r1
 2456 000a FB71     	 strb r3,[r7,#7]
 2457 000c 1346     	 mov r3,r2
 2458 000e BB71     	 strb r3,[r7,#6]
 516:../cleanflight/src/main/flight/pid.c ****     if ((dstPidProfileIndex < MAX_PROFILE_COUNT-1 && srcPidProfileIndex < MAX_PROFILE_COUNT-1)
 2459              	 .loc 4 516 0
 2460 0010 FB79     	 ldrb r3,[r7,#7]
 2461 0012 012B     	 cmp r3,#1
 2462 0014 15D8     	 bhi .L121
 2463              	 .loc 4 516 0 is_stmt 0 discriminator 1
 2464 0016 BB79     	 ldrb r3,[r7,#6]
 2465 0018 012B     	 cmp r3,#1
 2466 001a 12D8     	 bhi .L121
 517:../cleanflight/src/main/flight/pid.c ****         && dstPidProfileIndex != srcPidProfileIndex
 2467              	 .loc 4 517 0 is_stmt 1
 2468 001c FA79     	 ldrb r2,[r7,#7]
 2469 001e BB79     	 ldrb r3,[r7,#6]
 2470 0020 9A42     	 cmp r2,r3
 2471 0022 0ED0     	 beq .L121
 518:../cleanflight/src/main/flight/pid.c ****     ) {
 519:../cleanflight/src/main/flight/pid.c ****         memcpy(pidProfilesMutable(dstPidProfileIndex), pidProfilesMutable(srcPidProfileIndex), size
 2472              	 .loc 4 519 0
 2473 0024 FB79     	 ldrb r3,[r7,#7]
 2474 0026 1846     	 mov r0,r3
 2475 0028 FFF7FEFF 	 bl pidProfilesMutable
 2476 002c 0446     	 mov r4,r0
 2477 002e BB79     	 ldrb r3,[r7,#6]
 2478 0030 1846     	 mov r0,r3
 2479 0032 FFF7FEFF 	 bl pidProfilesMutable
 2480 0036 0346     	 mov r3,r0
 2481 0038 2046     	 mov r0,r4
 2482 003a 1946     	 mov r1,r3
 2483 003c 5822     	 movs r2,#88
 2484 003e FFF7FEFF 	 bl memcpy
 2485              	.L121:
 520:../cleanflight/src/main/flight/pid.c ****     }
 521:../cleanflight/src/main/flight/pid.c **** }
 2486              	 .loc 4 521 0
 2487 0042 0C37     	 adds r7,r7,#12
 2488              	.LCFI98:
 2489              	 .cfi_def_cfa_offset 12
 2490 0044 BD46     	 mov sp,r7
 2491              	.LCFI99:
 2492              	 .cfi_def_cfa_register 13
 2493              	 
 2494 0046 90BD     	 pop {r4,r7,pc}
 2495              	 .cfi_endproc
 2496              	.LFE577:
 2498              	 .section .text.calcHorizonLevelStrength,"ax",%progbits
 2499              	 .align 2
 2500              	 .thumb
 2501              	 .thumb_func
 2503              	calcHorizonLevelStrength:
 2504              	.LFB578:
 522:../cleanflight/src/main/flight/pid.c **** 
 523:../cleanflight/src/main/flight/pid.c **** // calculates strength of horizon leveling; 0 = none, 1.0 = most leveling
 524:../cleanflight/src/main/flight/pid.c **** static float calcHorizonLevelStrength(void)
 525:../cleanflight/src/main/flight/pid.c **** {
 2505              	 .loc 4 525 0
 2506              	 .cfi_startproc
 2507              	 
 2508              	 
 2509 0000 80B5     	 push {r7,lr}
 2510              	.LCFI100:
 2511              	 .cfi_def_cfa_offset 8
 2512              	 .cfi_offset 7,-8
 2513              	 .cfi_offset 14,-4
 2514 0002 8CB0     	 sub sp,sp,#48
 2515              	.LCFI101:
 2516              	 .cfi_def_cfa_offset 56
 2517 0004 00AF     	 add r7,sp,#0
 2518              	.LCFI102:
 2519              	 .cfi_def_cfa_register 7
 2520              	.LBB13:
 526:../cleanflight/src/main/flight/pid.c ****     // start with 1.0 at center stick, 0.0 at max stick deflection:
 527:../cleanflight/src/main/flight/pid.c ****     float horizonLevelStrength = 1.0f - MAX(getRcDeflectionAbs(FD_ROLL), getRcDeflectionAbs(FD_PITC
 2521              	 .loc 4 527 0
 2522 0006 0020     	 movs r0,#0
 2523 0008 FFF7FEFF 	 bl getRcDeflectionAbs
 2524 000c 7862     	 str r0,[r7,#36]
 2525 000e 0120     	 movs r0,#1
 2526 0010 FFF7FEFF 	 bl getRcDeflectionAbs
 2527 0014 3862     	 str r0,[r7,#32]
 2528 0016 97ED097A 	 flds s14,[r7,#36]
 2529 001a D7ED087A 	 flds s15,[r7,#32]
 2530 001e B4EEE77A 	 fcmpes s14,s15
 2531 0022 F1EE10FA 	 fmstat
 2532 0026 02DD     	 ble .L144
 2533              	 .loc 4 527 0 is_stmt 0 discriminator 1
 2534 0028 D7ED097A 	 flds s15,[r7,#36]
 2535 002c 01E0     	 b .L126
 2536              	.L144:
 2537              	 .loc 4 527 0 discriminator 2
 2538 002e D7ED087A 	 flds s15,[r7,#32]
 2539              	.L126:
 2540              	.LBE13:
 2541              	 .loc 4 527 0 discriminator 4
 2542 0032 B7EE007A 	 fconsts s14,#112
 2543 0036 77EE677A 	 fsubs s15,s14,s15
 2544 003a C7ED0B7A 	 fsts s15,[r7,#44]
 2545              	.LBB14:
 2546              	.LBB15:
 528:../cleanflight/src/main/flight/pid.c **** 
 529:../cleanflight/src/main/flight/pid.c ****     // 0 at level, 90 at vertical, 180 at inverted (degrees):
 530:../cleanflight/src/main/flight/pid.c ****     const float currentInclination = MAX(ABS(attitude.values.roll), ABS(attitude.values.pitch)) / 1
 2547              	 .loc 4 530 0 is_stmt 1 discriminator 4
 2548 003e 6C4B     	 ldr r3,.L147
 2549 0040 1A78     	 ldrb r2,[r3]
 2550 0042 5B78     	 ldrb r3,[r3,#1]
 2551 0044 1B02     	 lsls r3,r3,#8
 2552 0046 1343     	 orrs r3,r3,r2
 2553 0048 1B04     	 lsls r3,r3,#16
 2554 004a 1B14     	 asrs r3,r3,#16
 2555 004c FB83     	 strh r3,[r7,#30]
 2556 004e B7F91E30 	 ldrsh r3,[r7,#30]
 2557 0052 002B     	 cmp r3,#0
 2558 0054 B8BF     	 it lt
 2559 0056 5B42     	 rsblt r3,r3,#0
 2560              	.LBE15:
 2561 0058 BB61     	 str r3,[r7,#24]
 2562              	.LBB16:
 2563 005a 654B     	 ldr r3,.L147
 2564 005c 9A78     	 ldrb r2,[r3,#2]
 2565 005e DB78     	 ldrb r3,[r3,#3]
 2566 0060 1B02     	 lsls r3,r3,#8
 2567 0062 1343     	 orrs r3,r3,r2
 2568 0064 1B04     	 lsls r3,r3,#16
 2569 0066 1B14     	 asrs r3,r3,#16
 2570 0068 FB82     	 strh r3,[r7,#22]
 2571 006a B7F91630 	 ldrsh r3,[r7,#22]
 2572 006e 002B     	 cmp r3,#0
 2573 0070 B8BF     	 it lt
 2574 0072 5B42     	 rsblt r3,r3,#0
 2575              	.LBE16:
 2576 0074 3B61     	 str r3,[r7,#16]
 2577 0076 3A69     	 ldr r2,[r7,#16]
 2578 0078 BB69     	 ldr r3,[r7,#24]
 2579 007a 9342     	 cmp r3,r2
 2580 007c B8BF     	 it lt
 2581 007e 1346     	 movlt r3,r2
 2582              	.LBE14:
 2583 0080 07EE903A 	 fmsr s15,r3
 2584 0084 F8EEE77A 	 fsitos s15,s15
 2585 0088 B2EE047A 	 fconsts s14,#36
 2586 008c C7EE877A 	 fdivs s15,s15,s14
 2587 0090 C7ED037A 	 fsts s15,[r7,#12]
 531:../cleanflight/src/main/flight/pid.c **** 
 532:../cleanflight/src/main/flight/pid.c ****     // horizonTiltExpertMode:  0 = leveling always active when sticks centered,
 533:../cleanflight/src/main/flight/pid.c ****     //                         1 = leveling can be totally off when inverted
 534:../cleanflight/src/main/flight/pid.c ****     if (horizonTiltExpertMode) {
 2588              	 .loc 4 534 0 discriminator 4
 2589 0094 574B     	 ldr r3,.L147+4
 2590 0096 1B78     	 ldrb r3,[r3]
 2591 0098 002B     	 cmp r3,#0
 2592 009a 48D0     	 beq .L127
 535:../cleanflight/src/main/flight/pid.c ****         if (horizonTransition > 0 && horizonCutoffDegrees > 0) {
 2593              	 .loc 4 535 0
 2594 009c 564B     	 ldr r3,.L147+8
 2595 009e D3ED007A 	 flds s15,[r3]
 2596 00a2 F5EEC07A 	 fcmpezs s15
 2597 00a6 F1EE10FA 	 fmstat
 2598 00aa 3CDD     	 ble .L128
 2599              	 .loc 4 535 0 is_stmt 0 discriminator 1
 2600 00ac 534B     	 ldr r3,.L147+12
 2601 00ae D3ED007A 	 flds s15,[r3]
 2602 00b2 F5EEC07A 	 fcmpezs s15
 2603 00b6 F1EE10FA 	 fmstat
 2604 00ba 34DD     	 ble .L128
 2605              	.LBB17:
 536:../cleanflight/src/main/flight/pid.c ****                     // if d_level > 0 and horizonTiltEffect < 175
 537:../cleanflight/src/main/flight/pid.c ****             // horizonCutoffDegrees: 0 to 125 => 270 to 90 (represents where leveling goes to zero)
 538:../cleanflight/src/main/flight/pid.c ****             // inclinationLevelRatio (0.0 to 1.0) is smaller (less leveling)
 539:../cleanflight/src/main/flight/pid.c ****             //  for larger inclinations; 0.0 at horizonCutoffDegrees value:
 540:../cleanflight/src/main/flight/pid.c ****             const float inclinationLevelRatio = constrainf((horizonCutoffDegrees-currentInclination
 2606              	 .loc 4 540 0 is_stmt 1
 2607 00bc 4F4B     	 ldr r3,.L147+12
 2608 00be 93ED007A 	 flds s14,[r3]
 2609 00c2 D7ED037A 	 flds s15,[r7,#12]
 2610 00c6 37EE677A 	 fsubs s14,s14,s15
 2611 00ca 4C4B     	 ldr r3,.L147+12
 2612 00cc D3ED007A 	 flds s15,[r3]
 2613 00d0 C7EE277A 	 fdivs s15,s14,s15
 2614 00d4 B0EE670A 	 fcpys s0,s15
 2615 00d8 DFED490A 	 flds s1,.L147+16
 2616 00dc B7EE001A 	 fconsts s2,#112
 2617 00e0 FFF7FEFF 	 bl constrainf
 2618 00e4 87ED020A 	 fsts s0,[r7,#8]
 541:../cleanflight/src/main/flight/pid.c ****             // apply configured horizon sensitivity:
 542:../cleanflight/src/main/flight/pid.c ****                 // when stick is near center (horizonLevelStrength ~= 1.0)
 543:../cleanflight/src/main/flight/pid.c ****                 //  H_sensitivity value has little effect,
 544:../cleanflight/src/main/flight/pid.c ****                 // when stick is deflected (horizonLevelStrength near 0.0)
 545:../cleanflight/src/main/flight/pid.c ****                 //  H_sensitivity value has more effect:
 546:../cleanflight/src/main/flight/pid.c ****             horizonLevelStrength = (horizonLevelStrength - 1) * 100 / horizonTransition + 1;
 2619              	 .loc 4 546 0
 2620 00e8 D7ED0B7A 	 flds s15,[r7,#44]
 2621 00ec B7EE007A 	 fconsts s14,#112
 2622 00f0 77EEC77A 	 fsubs s15,s15,s14
 2623 00f4 9FED437A 	 flds s14,.L147+20
 2624 00f8 27EE877A 	 fmuls s14,s15,s14
 2625 00fc 3E4B     	 ldr r3,.L147+8
 2626 00fe D3ED007A 	 flds s15,[r3]
 2627 0102 C7EE277A 	 fdivs s15,s14,s15
 2628 0106 B7EE007A 	 fconsts s14,#112
 2629 010a 77EE877A 	 fadds s15,s15,s14
 2630 010e C7ED0B7A 	 fsts s15,[r7,#44]
 547:../cleanflight/src/main/flight/pid.c ****             // apply inclination ratio, which may lower leveling
 548:../cleanflight/src/main/flight/pid.c ****             //  to zero regardless of stick position:
 549:../cleanflight/src/main/flight/pid.c ****             horizonLevelStrength *= inclinationLevelRatio;
 2631              	 .loc 4 549 0
 2632 0112 97ED0B7A 	 flds s14,[r7,#44]
 2633 0116 D7ED027A 	 flds s15,[r7,#8]
 2634 011a 67EE277A 	 fmuls s15,s14,s15
 2635 011e C7ED0B7A 	 fsts s15,[r7,#44]
 2636              	.LBE17:
 535:../cleanflight/src/main/flight/pid.c ****                     // if d_level > 0 and horizonTiltEffect < 175
 2637              	 .loc 4 535 0
 2638 0122 00BF     	 nop
 2639 0124 53E0     	 b .L132
 2640              	.L128:
 550:../cleanflight/src/main/flight/pid.c ****         } else  { // d_level=0 or horizon_tilt_effect>=175 means no leveling
 551:../cleanflight/src/main/flight/pid.c ****           horizonLevelStrength = 0;
 2641              	 .loc 4 551 0
 2642 0126 4FF00003 	 mov r3,#0
 2643 012a FB62     	 str r3,[r7,#44]
 2644 012c 4FE0     	 b .L132
 2645              	.L127:
 2646              	.LBB18:
 552:../cleanflight/src/main/flight/pid.c ****         }
 553:../cleanflight/src/main/flight/pid.c ****     } else { // horizon_tilt_expert_mode = 0 (leveling always active when sticks centered)
 554:../cleanflight/src/main/flight/pid.c ****         float sensitFact;
 555:../cleanflight/src/main/flight/pid.c ****         if (horizonFactorRatio < 1.01f) { // if horizonTiltEffect > 0
 2647              	 .loc 4 555 0
 2648 012e 364B     	 ldr r3,.L147+24
 2649 0130 D3ED007A 	 flds s15,[r3]
 2650 0134 9FED357A 	 flds s14,.L147+28
 2651 0138 F4EEC77A 	 fcmpes s15,s14
 2652 013c F1EE10FA 	 fmstat
 2653 0140 23D5     	 bpl .L145
 2654              	.LBB19:
 556:../cleanflight/src/main/flight/pid.c ****             // horizonFactorRatio: 1.0 to 0.0 (larger means more leveling)
 557:../cleanflight/src/main/flight/pid.c ****             // inclinationLevelRatio (0.0 to 1.0) is smaller (less leveling)
 558:../cleanflight/src/main/flight/pid.c ****             //  for larger inclinations, goes to 1.0 at inclination==level:
 559:../cleanflight/src/main/flight/pid.c ****             const float inclinationLevelRatio = (180-currentInclination)/180 * (1.0f-horizonFactorR
 2655              	 .loc 4 559 0
 2656 0142 9FED337A 	 flds s14,.L147+32
 2657 0146 D7ED037A 	 flds s15,[r7,#12]
 2658 014a 77EE677A 	 fsubs s15,s14,s15
 2659 014e 9FED307A 	 flds s14,.L147+32
 2660 0152 87EE877A 	 fdivs s14,s15,s14
 2661 0156 2C4B     	 ldr r3,.L147+24
 2662 0158 D3ED007A 	 flds s15,[r3]
 2663 015c F7EE006A 	 fconsts s13,#112
 2664 0160 76EEE77A 	 fsubs s15,s13,s15
 2665 0164 27EE277A 	 fmuls s14,s14,s15
 2666 0168 274B     	 ldr r3,.L147+24
 2667 016a D3ED007A 	 flds s15,[r3]
 2668 016e 77EE277A 	 fadds s15,s14,s15
 2669 0172 C7ED017A 	 fsts s15,[r7,#4]
 560:../cleanflight/src/main/flight/pid.c ****             // apply ratio to configured horizon sensitivity:
 561:../cleanflight/src/main/flight/pid.c ****             sensitFact = horizonTransition * inclinationLevelRatio;
 2670              	 .loc 4 561 0
 2671 0176 204B     	 ldr r3,.L147+8
 2672 0178 93ED007A 	 flds s14,[r3]
 2673 017c D7ED017A 	 flds s15,[r7,#4]
 2674 0180 67EE277A 	 fmuls s15,s14,s15
 2675 0184 C7ED0A7A 	 fsts s15,[r7,#40]
 2676              	.LBE19:
 2677 0188 02E0     	 b .L135
 2678              	.L145:
 562:../cleanflight/src/main/flight/pid.c ****         } else { // horizonTiltEffect=0 for "old" functionality
 563:../cleanflight/src/main/flight/pid.c ****             sensitFact = horizonTransition;
 2679              	 .loc 4 563 0
 2680 018a 1B4B     	 ldr r3,.L147+8
 2681 018c 1B68     	 ldr r3,[r3]
 2682 018e BB62     	 str r3,[r7,#40]
 2683              	.L135:
 564:../cleanflight/src/main/flight/pid.c ****         }
 565:../cleanflight/src/main/flight/pid.c **** 
 566:../cleanflight/src/main/flight/pid.c ****         if (sensitFact <= 0) {           // zero means no leveling
 2684              	 .loc 4 566 0
 2685 0190 D7ED0A7A 	 flds s15,[r7,#40]
 2686 0194 F5EEC07A 	 fcmpezs s15
 2687 0198 F1EE10FA 	 fmstat
 2688 019c 03D8     	 bhi .L146
 567:../cleanflight/src/main/flight/pid.c ****             horizonLevelStrength = 0;
 2689              	 .loc 4 567 0
 2690 019e 4FF00003 	 mov r3,#0
 2691 01a2 FB62     	 str r3,[r7,#44]
 2692 01a4 13E0     	 b .L132
 2693              	.L146:
 568:../cleanflight/src/main/flight/pid.c ****         } else {
 569:../cleanflight/src/main/flight/pid.c ****             // when stick is near center (horizonLevelStrength ~= 1.0)
 570:../cleanflight/src/main/flight/pid.c ****             //  sensitFact value has little effect,
 571:../cleanflight/src/main/flight/pid.c ****             // when stick is deflected (horizonLevelStrength near 0.0)
 572:../cleanflight/src/main/flight/pid.c ****             //  sensitFact value has more effect:
 573:../cleanflight/src/main/flight/pid.c ****             horizonLevelStrength = ((horizonLevelStrength - 1) * (100 / sensitFact)) + 1;
 2694              	 .loc 4 573 0
 2695 01a6 D7ED0B7A 	 flds s15,[r7,#44]
 2696 01aa B7EE007A 	 fconsts s14,#112
 2697 01ae 37EEC77A 	 fsubs s14,s15,s14
 2698 01b2 DFED146A 	 flds s13,.L147+20
 2699 01b6 D7ED0A7A 	 flds s15,[r7,#40]
 2700 01ba C6EEA77A 	 fdivs s15,s13,s15
 2701 01be 67EE277A 	 fmuls s15,s14,s15
 2702 01c2 B7EE007A 	 fconsts s14,#112
 2703 01c6 77EE877A 	 fadds s15,s15,s14
 2704 01ca C7ED0B7A 	 fsts s15,[r7,#44]
 2705              	.L132:
 2706              	.LBE18:
 574:../cleanflight/src/main/flight/pid.c ****         }
 575:../cleanflight/src/main/flight/pid.c ****     }
 576:../cleanflight/src/main/flight/pid.c ****     return constrainf(horizonLevelStrength, 0, 1);
 2707              	 .loc 4 576 0
 2708 01ce 97ED0B0A 	 flds s0,[r7,#44]
 2709 01d2 DFED0B0A 	 flds s1,.L147+16
 2710 01d6 B7EE001A 	 fconsts s2,#112
 2711 01da FFF7FEFF 	 bl constrainf
 2712 01de F0EE407A 	 fcpys s15,s0
 2713 01e2 17EE903A 	 fmrs r3,s15
 577:../cleanflight/src/main/flight/pid.c **** }
 2714              	 .loc 4 577 0
 2715 01e6 1846     	 mov r0,r3
 2716 01e8 3037     	 adds r7,r7,#48
 2717              	.LCFI103:
 2718              	 .cfi_def_cfa_offset 8
 2719 01ea BD46     	 mov sp,r7
 2720              	.LCFI104:
 2721              	 .cfi_def_cfa_register 13
 2722              	 
 2723 01ec 80BD     	 pop {r7,pc}
 2724              	.L148:
 2725 01ee 00BF     	 .align 2
 2726              	.L147:
 2727 01f0 00000000 	 .word attitude
 2728 01f4 00000000 	 .word horizonTiltExpertMode
 2729 01f8 00000000 	 .word horizonTransition
 2730 01fc 00000000 	 .word horizonCutoffDegrees
 2731 0200 00000000 	 .word 0
 2732 0204 0000C842 	 .word 1120403456
 2733 0208 00000000 	 .word horizonFactorRatio
 2734 020c AE47813F 	 .word 1065437102
 2735 0210 00003443 	 .word 1127481344
 2736              	 .cfi_endproc
 2737              	.LFE578:
 2739              	 .section .text.pidLevel,"ax",%progbits
 2740              	 .align 2
 2741              	 .thumb
 2742              	 .thumb_func
 2744              	pidLevel:
 2745              	.LFB579:
 578:../cleanflight/src/main/flight/pid.c **** 
 579:../cleanflight/src/main/flight/pid.c **** static float pidLevel(int axis, const pidProfile_t *pidProfile, const rollAndPitchTrims_t *angleTri
 2746              	 .loc 4 579 0
 2747              	 .cfi_startproc
 2748              	 
 2749              	 
 2750 0000 80B5     	 push {r7,lr}
 2751              	.LCFI105:
 2752              	 .cfi_def_cfa_offset 8
 2753              	 .cfi_offset 7,-8
 2754              	 .cfi_offset 14,-4
 2755 0002 2DED028B 	 fstmfdd sp!,{d8}
 2756              	.LCFI106:
 2757              	 .cfi_def_cfa_offset 16
 2758              	 .cfi_offset 80,-16
 2759              	 .cfi_offset 81,-12
 2760 0006 88B0     	 sub sp,sp,#32
 2761              	.LCFI107:
 2762              	 .cfi_def_cfa_offset 48
 2763 0008 00AF     	 add r7,sp,#0
 2764              	.LCFI108:
 2765              	 .cfi_def_cfa_register 7
 2766 000a F860     	 str r0,[r7,#12]
 2767 000c B960     	 str r1,[r7,#8]
 2768 000e 7A60     	 str r2,[r7,#4]
 2769 0010 3B60     	 str r3,[r7]
 580:../cleanflight/src/main/flight/pid.c ****     // calculate error angle and limit the angle to the max inclination
 581:../cleanflight/src/main/flight/pid.c ****     // rcDeflection is in range [-1.0, 1.0]
 582:../cleanflight/src/main/flight/pid.c ****     float angle = pidProfile->levelAngleLimit * getRcDeflection(axis);
 2770              	 .loc 4 582 0
 2771 0012 BB68     	 ldr r3,[r7,#8]
 2772 0014 93F82830 	 ldrb r3,[r3,#40]
 2773 0018 07EE903A 	 fmsr s15,r3
 2774 001c B8EEE78A 	 fsitos s16,s15
 2775 0020 F868     	 ldr r0,[r7,#12]
 2776 0022 FFF7FEFF 	 bl getRcDeflection
 2777 0026 07EE900A 	 fmsr s15,r0
 2778 002a 68EE277A 	 fmuls s15,s16,s15
 2779 002e C7ED077A 	 fsts s15,[r7,#28]
 583:../cleanflight/src/main/flight/pid.c **** #ifdef USE_GPS_RESCUE
 584:../cleanflight/src/main/flight/pid.c ****     angle += gpsRescueAngle[axis] / 100; // ANGLE IS IN CENTIDEGREES
 2780              	 .loc 4 584 0
 2781 0032 3C4A     	 ldr r2,.L154
 2782 0034 FB68     	 ldr r3,[r7,#12]
 2783 0036 52F82330 	 ldr r3,[r2,r3,lsl#2]
 2784 003a 3B4A     	 ldr r2,.L154+4
 2785 003c 82FB0312 	 smull r1,r2,r2,r3
 2786 0040 5211     	 asrs r2,r2,#5
 2787 0042 DB17     	 asrs r3,r3,#31
 2788 0044 D31A     	 subs r3,r2,r3
 2789 0046 07EE903A 	 fmsr s15,r3
 2790 004a F8EEE77A 	 fsitos s15,s15
 2791 004e 97ED077A 	 flds s14,[r7,#28]
 2792 0052 77EE277A 	 fadds s15,s14,s15
 2793 0056 C7ED077A 	 fsts s15,[r7,#28]
 585:../cleanflight/src/main/flight/pid.c **** #endif
 586:../cleanflight/src/main/flight/pid.c ****     angle = constrainf(angle, -pidProfile->levelAngleLimit, pidProfile->levelAngleLimit);
 2794              	 .loc 4 586 0
 2795 005a BB68     	 ldr r3,[r7,#8]
 2796 005c 93F82830 	 ldrb r3,[r3,#40]
 2797 0060 5B42     	 negs r3,r3
 2798 0062 07EE903A 	 fmsr s15,r3
 2799 0066 B8EEE77A 	 fsitos s14,s15
 2800 006a BB68     	 ldr r3,[r7,#8]
 2801 006c 93F82830 	 ldrb r3,[r3,#40]
 2802 0070 07EE903A 	 fmsr s15,r3
 2803 0074 F8EE677A 	 fuitos s15,s15
 2804 0078 97ED070A 	 flds s0,[r7,#28]
 2805 007c F0EE470A 	 fcpys s1,s14
 2806 0080 B0EE671A 	 fcpys s2,s15
 2807 0084 FFF7FEFF 	 bl constrainf
 2808 0088 87ED070A 	 fsts s0,[r7,#28]
 587:../cleanflight/src/main/flight/pid.c ****     const float errorAngle = angle - ((attitude.raw[axis] - angleTrim->raw[axis]) / 10.0f);
 2809              	 .loc 4 587 0
 2810 008c 274A     	 ldr r2,.L154+8
 2811 008e FB68     	 ldr r3,[r7,#12]
 2812 0090 32F91330 	 ldrsh r3,[r2,r3,lsl#1]
 2813 0094 9BB2     	 uxth r3,r3
 2814 0096 1AB2     	 sxth r2,r3
 2815 0098 7B68     	 ldr r3,[r7,#4]
 2816 009a F968     	 ldr r1,[r7,#12]
 2817 009c 33F91130 	 ldrsh r3,[r3,r1,lsl#1]
 2818 00a0 9BB2     	 uxth r3,r3
 2819 00a2 1BB2     	 sxth r3,r3
 2820 00a4 D31A     	 subs r3,r2,r3
 2821 00a6 07EE903A 	 fmsr s15,r3
 2822 00aa F8EEE77A 	 fsitos s15,s15
 2823 00ae B2EE047A 	 fconsts s14,#36
 2824 00b2 C7EE877A 	 fdivs s15,s15,s14
 2825 00b6 97ED077A 	 flds s14,[r7,#28]
 2826 00ba 77EE677A 	 fsubs s15,s14,s15
 2827 00be C7ED067A 	 fsts s15,[r7,#24]
 588:../cleanflight/src/main/flight/pid.c ****     if (FLIGHT_MODE(ANGLE_MODE) || FLIGHT_MODE(GPS_RESCUE_MODE)) {
 2828              	 .loc 4 588 0
 2829 00c2 1B4B     	 ldr r3,.L154+12
 2830 00c4 1B88     	 ldrh r3,[r3]
 2831 00c6 03F00103 	 and r3,r3,#1
 2832 00ca 002B     	 cmp r3,#0
 2833 00cc 05D1     	 bne .L150
 2834              	 .loc 4 588 0 is_stmt 0 discriminator 1
 2835 00ce 184B     	 ldr r3,.L154+12
 2836 00d0 1B88     	 ldrh r3,[r3]
 2837 00d2 03F40063 	 and r3,r3,#2048
 2838 00d6 002B     	 cmp r3,#0
 2839 00d8 09D0     	 beq .L151
 2840              	.L150:
 589:../cleanflight/src/main/flight/pid.c ****         // ANGLE mode - control is angle based
 590:../cleanflight/src/main/flight/pid.c ****         currentPidSetpoint = errorAngle * levelGain;
 2841              	 .loc 4 590 0 is_stmt 1
 2842 00da 164B     	 ldr r3,.L154+16
 2843 00dc D3ED007A 	 flds s15,[r3]
 2844 00e0 97ED067A 	 flds s14,[r7,#24]
 2845 00e4 67EE277A 	 fmuls s15,s14,s15
 2846 00e8 C7ED007A 	 fsts s15,[r7]
 2847 00ec 13E0     	 b .L152
 2848              	.L151:
 2849              	.LBB20:
 591:../cleanflight/src/main/flight/pid.c ****     } else {
 592:../cleanflight/src/main/flight/pid.c ****         // HORIZON mode - mix of ANGLE and ACRO modes
 593:../cleanflight/src/main/flight/pid.c ****         // mix in errorAngle to currentPidSetpoint to add a little auto-level feel
 594:../cleanflight/src/main/flight/pid.c ****         const float horizonLevelStrength = calcHorizonLevelStrength();
 2850              	 .loc 4 594 0
 2851 00ee FFF7FEFF 	 bl calcHorizonLevelStrength
 2852 00f2 7861     	 str r0,[r7,#20]
 595:../cleanflight/src/main/flight/pid.c ****         currentPidSetpoint = currentPidSetpoint + (errorAngle * horizonGain * horizonLevelStrength)
 2853              	 .loc 4 595 0
 2854 00f4 104B     	 ldr r3,.L154+20
 2855 00f6 93ED007A 	 flds s14,[r3]
 2856 00fa D7ED067A 	 flds s15,[r7,#24]
 2857 00fe 27EE277A 	 fmuls s14,s14,s15
 2858 0102 D7ED057A 	 flds s15,[r7,#20]
 2859 0106 67EE277A 	 fmuls s15,s14,s15
 2860 010a 97ED007A 	 flds s14,[r7]
 2861 010e 77EE277A 	 fadds s15,s14,s15
 2862 0112 C7ED007A 	 fsts s15,[r7]
 2863              	.L152:
 2864              	.LBE20:
 596:../cleanflight/src/main/flight/pid.c ****     }
 597:../cleanflight/src/main/flight/pid.c ****     return currentPidSetpoint;
 2865              	 .loc 4 597 0
 2866 0116 3B68     	 ldr r3,[r7]
 598:../cleanflight/src/main/flight/pid.c **** }
 2867              	 .loc 4 598 0
 2868 0118 1846     	 mov r0,r3
 2869 011a 2037     	 adds r7,r7,#32
 2870              	.LCFI109:
 2871              	 .cfi_def_cfa_offset 16
 2872 011c BD46     	 mov sp,r7
 2873              	.LCFI110:
 2874              	 .cfi_def_cfa_register 13
 2875              	 
 2876 011e BDEC028B 	 fldmfdd sp!,{d8}
 2877              	.LCFI111:
 2878              	 .cfi_restore 80
 2879              	 .cfi_restore 81
 2880              	 .cfi_def_cfa_offset 8
 2881 0122 80BD     	 pop {r7,pc}
 2882              	.L155:
 2883              	 .align 2
 2884              	.L154:
 2885 0124 00000000 	 .word gpsRescueAngle
 2886 0128 1F85EB51 	 .word 1374389535
 2887 012c 00000000 	 .word attitude
 2888 0130 00000000 	 .word flightModeFlags
 2889 0134 00000000 	 .word levelGain
 2890 0138 00000000 	 .word horizonGain
 2891              	 .cfi_endproc
 2892              	.LFE579:
 2894              	 .section .text.accelerationLimit,"ax",%progbits
 2895              	 .align 2
 2896              	 .thumb
 2897              	 .thumb_func
 2899              	accelerationLimit:
 2900              	.LFB580:
 599:../cleanflight/src/main/flight/pid.c **** 
 600:../cleanflight/src/main/flight/pid.c **** static float accelerationLimit(int axis, float currentPidSetpoint)
 601:../cleanflight/src/main/flight/pid.c **** {
 2901              	 .loc 4 601 0
 2902              	 .cfi_startproc
 2903              	 
 2904              	 
 2905              	 
 2906 0000 80B4     	 push {r7}
 2907              	.LCFI112:
 2908              	 .cfi_def_cfa_offset 4
 2909              	 .cfi_offset 7,-4
 2910 0002 85B0     	 sub sp,sp,#20
 2911              	.LCFI113:
 2912              	 .cfi_def_cfa_offset 24
 2913 0004 00AF     	 add r7,sp,#0
 2914              	.LCFI114:
 2915              	 .cfi_def_cfa_register 7
 2916 0006 7860     	 str r0,[r7,#4]
 2917 0008 3960     	 str r1,[r7]
 602:../cleanflight/src/main/flight/pid.c ****     static float previousSetpoint[XYZ_AXIS_COUNT];
 603:../cleanflight/src/main/flight/pid.c ****     const float currentVelocity = currentPidSetpoint - previousSetpoint[axis];
 2918              	 .loc 4 603 0
 2919 000a 2D4A     	 ldr r2,.L171
 2920 000c 7B68     	 ldr r3,[r7,#4]
 2921 000e 9B00     	 lsls r3,r3,#2
 2922 0010 1344     	 add r3,r3,r2
 2923 0012 D3ED007A 	 flds s15,[r3]
 2924 0016 97ED007A 	 flds s14,[r7]
 2925 001a 77EE677A 	 fsubs s15,s14,s15
 2926 001e C7ED037A 	 fsts s15,[r7,#12]
 2927              	.LBB21:
 604:../cleanflight/src/main/flight/pid.c **** 
 605:../cleanflight/src/main/flight/pid.c ****     if (ABS(currentVelocity) > maxVelocity[axis]) {
 2928              	 .loc 4 605 0
 2929 0022 FB68     	 ldr r3,[r7,#12]
 2930 0024 BB60     	 str r3,[r7,#8]
 2931 0026 D7ED027A 	 flds s15,[r7,#8]
 2932 002a F5EEC07A 	 fcmpezs s15
 2933 002e F1EE10FA 	 fmstat
 2934 0032 02DD     	 ble .L169
 2935              	 .loc 4 605 0 is_stmt 0 discriminator 1
 2936 0034 D7ED027A 	 flds s15,[r7,#8]
 2937 0038 03E0     	 b .L159
 2938              	.L169:
 2939              	 .loc 4 605 0 discriminator 2
 2940 003a D7ED027A 	 flds s15,[r7,#8]
 2941 003e F1EE677A 	 fnegs s15,s15
 2942              	.L159:
 2943              	.LBE21:
 2944              	 .loc 4 605 0 discriminator 4
 2945 0042 204A     	 ldr r2,.L171+4
 2946 0044 7B68     	 ldr r3,[r7,#4]
 2947 0046 9B00     	 lsls r3,r3,#2
 2948 0048 1344     	 add r3,r3,r2
 2949 004a 93ED007A 	 flds s14,[r3]
 2950 004e F4EEC77A 	 fcmpes s15,s14
 2951 0052 F1EE10FA 	 fmstat
 2952 0056 25DD     	 ble .L160
 606:../cleanflight/src/main/flight/pid.c ****         currentPidSetpoint = (currentVelocity > 0) ? previousSetpoint[axis] + maxVelocity[axis] : p
 2953              	 .loc 4 606 0 is_stmt 1
 2954 0058 D7ED037A 	 flds s15,[r7,#12]
 2955 005c F5EEC07A 	 fcmpezs s15
 2956 0060 F1EE10FA 	 fmstat
 2957 0064 0EDD     	 ble .L170
 2958              	 .loc 4 606 0 is_stmt 0 discriminator 1
 2959 0066 164A     	 ldr r2,.L171
 2960 0068 7B68     	 ldr r3,[r7,#4]
 2961 006a 9B00     	 lsls r3,r3,#2
 2962 006c 1344     	 add r3,r3,r2
 2963 006e 93ED007A 	 flds s14,[r3]
 2964 0072 144A     	 ldr r2,.L171+4
 2965 0074 7B68     	 ldr r3,[r7,#4]
 2966 0076 9B00     	 lsls r3,r3,#2
 2967 0078 1344     	 add r3,r3,r2
 2968 007a D3ED007A 	 flds s15,[r3]
 2969 007e 77EE277A 	 fadds s15,s14,s15
 2970 0082 0DE0     	 b .L164
 2971              	.L170:
 2972              	 .loc 4 606 0 discriminator 2
 2973 0084 0E4A     	 ldr r2,.L171
 2974 0086 7B68     	 ldr r3,[r7,#4]
 2975 0088 9B00     	 lsls r3,r3,#2
 2976 008a 1344     	 add r3,r3,r2
 2977 008c 93ED007A 	 flds s14,[r3]
 2978 0090 0C4A     	 ldr r2,.L171+4
 2979 0092 7B68     	 ldr r3,[r7,#4]
 2980 0094 9B00     	 lsls r3,r3,#2
 2981 0096 1344     	 add r3,r3,r2
 2982 0098 D3ED007A 	 flds s15,[r3]
 2983 009c 77EE677A 	 fsubs s15,s14,s15
 2984              	.L164:
 2985              	 .loc 4 606 0 discriminator 4
 2986 00a0 C7ED007A 	 fsts s15,[r7]
 2987              	.L160:
 607:../cleanflight/src/main/flight/pid.c ****     }
 608:../cleanflight/src/main/flight/pid.c **** 
 609:../cleanflight/src/main/flight/pid.c ****     previousSetpoint[axis] = currentPidSetpoint;
 2988              	 .loc 4 609 0 is_stmt 1
 2989 00a4 064A     	 ldr r2,.L171
 2990 00a6 7B68     	 ldr r3,[r7,#4]
 2991 00a8 9B00     	 lsls r3,r3,#2
 2992 00aa 1344     	 add r3,r3,r2
 2993 00ac 3A68     	 ldr r2,[r7]
 2994 00ae 1A60     	 str r2,[r3]
 610:../cleanflight/src/main/flight/pid.c ****     return currentPidSetpoint;
 2995              	 .loc 4 610 0
 2996 00b0 3B68     	 ldr r3,[r7]
 611:../cleanflight/src/main/flight/pid.c **** }
 2997              	 .loc 4 611 0
 2998 00b2 1846     	 mov r0,r3
 2999 00b4 1437     	 adds r7,r7,#20
 3000              	.LCFI115:
 3001              	 .cfi_def_cfa_offset 4
 3002 00b6 BD46     	 mov sp,r7
 3003              	.LCFI116:
 3004              	 .cfi_def_cfa_register 13
 3005              	 
 3006 00b8 5DF8047B 	 ldr r7,[sp],#4
 3007              	.LCFI117:
 3008              	 .cfi_restore 7
 3009              	 .cfi_def_cfa_offset 0
 3010 00bc 7047     	 bx lr
 3011              	.L172:
 3012 00be 00BF     	 .align 2
 3013              	.L171:
 3014 00c0 00000000 	 .word previousSetpoint.14206
 3015 00c4 00000000 	 .word maxVelocity
 3016              	 .cfi_endproc
 3017              	.LFE580:
 3019              	 .section .bss.crashDetectedAtUs,"aw",%nobits
 3020              	 .align 2
 3023              	crashDetectedAtUs:
 3024 0000 00000000 	 .space 4
 3025              	 .section .text.handleCrashRecovery,"ax",%progbits
 3026              	 .align 2
 3027              	 .thumb
 3028              	 .thumb_func
 3030              	handleCrashRecovery:
 3031              	.LFB581:
 612:../cleanflight/src/main/flight/pid.c **** 
 613:../cleanflight/src/main/flight/pid.c **** static timeUs_t crashDetectedAtUs;
 614:../cleanflight/src/main/flight/pid.c **** 
 615:../cleanflight/src/main/flight/pid.c **** static void handleCrashRecovery(
 616:../cleanflight/src/main/flight/pid.c ****     const pidCrashRecovery_e crash_recovery, const rollAndPitchTrims_t *angleTrim,
 617:../cleanflight/src/main/flight/pid.c ****     const int axis, const timeUs_t currentTimeUs, const float gyroRate, float *currentPidSetpoint, 
 618:../cleanflight/src/main/flight/pid.c **** {
 3032              	 .loc 4 618 0
 3033              	 .cfi_startproc
 3034              	 
 3035              	 
 3036 0000 80B5     	 push {r7,lr}
 3037              	.LCFI118:
 3038              	 .cfi_def_cfa_offset 8
 3039              	 .cfi_offset 7,-8
 3040              	 .cfi_offset 14,-4
 3041 0002 8AB0     	 sub sp,sp,#40
 3042              	.LCFI119:
 3043              	 .cfi_def_cfa_offset 48
 3044 0004 00AF     	 add r7,sp,#0
 3045              	.LCFI120:
 3046              	 .cfi_def_cfa_register 7
 3047 0006 B960     	 str r1,[r7,#8]
 3048 0008 7A60     	 str r2,[r7,#4]
 3049 000a 3B60     	 str r3,[r7]
 3050 000c 0346     	 mov r3,r0
 3051 000e FB73     	 strb r3,[r7,#15]
 619:../cleanflight/src/main/flight/pid.c ****     if (inCrashRecoveryMode && cmpTimeUs(currentTimeUs, crashDetectedAtUs) > crashTimeDelayUs) {
 3052              	 .loc 4 619 0
 3053 0010 814B     	 ldr r3,.L202
 3054 0012 1B78     	 ldrb r3,[r3]
 3055 0014 002B     	 cmp r3,#0
 3056 0016 00F0FC80 	 beq .L173
 3057              	 .loc 4 619 0 is_stmt 0 discriminator 1
 3058 001a 804B     	 ldr r3,.L202+4
 3059 001c 1B68     	 ldr r3,[r3]
 3060 001e 3868     	 ldr r0,[r7]
 3061 0020 1946     	 mov r1,r3
 3062 0022 FFF7FEFF 	 bl cmpTimeUs
 3063 0026 0246     	 mov r2,r0
 3064 0028 7D4B     	 ldr r3,.L202+8
 3065 002a 1B68     	 ldr r3,[r3]
 3066 002c 9A42     	 cmp r2,r3
 3067 002e 40F3F080 	 ble .L173
 620:../cleanflight/src/main/flight/pid.c ****         if (crash_recovery == PID_CRASH_RECOVERY_BEEP) {
 621:../cleanflight/src/main/flight/pid.c ****             BEEP_ON;
 622:../cleanflight/src/main/flight/pid.c ****         }
 623:../cleanflight/src/main/flight/pid.c ****         if (axis == FD_YAW) {
 3068              	 .loc 4 623 0 is_stmt 1
 3069 0032 7B68     	 ldr r3,[r7,#4]
 3070 0034 022B     	 cmp r3,#2
 3071 0036 18D1     	 bne .L175
 624:../cleanflight/src/main/flight/pid.c ****             *errorRate = constrainf(*errorRate, -crashLimitYaw, crashLimitYaw);
 3072              	 .loc 4 624 0
 3073 0038 BB6B     	 ldr r3,[r7,#56]
 3074 003a D3ED006A 	 flds s13,[r3]
 3075 003e 794B     	 ldr r3,.L202+12
 3076 0040 D3ED007A 	 flds s15,[r3]
 3077 0044 B1EE677A 	 fnegs s14,s15
 3078 0048 764B     	 ldr r3,.L202+12
 3079 004a D3ED007A 	 flds s15,[r3]
 3080 004e B0EE660A 	 fcpys s0,s13
 3081 0052 F0EE470A 	 fcpys s1,s14
 3082 0056 B0EE671A 	 fcpys s2,s15
 3083 005a FFF7FEFF 	 bl constrainf
 3084 005e F0EE407A 	 fcpys s15,s0
 3085 0062 BB6B     	 ldr r3,[r7,#56]
 3086 0064 C3ED007A 	 fsts s15,[r3]
 3087 0068 30E0     	 b .L176
 3088              	.L175:
 625:../cleanflight/src/main/flight/pid.c ****         } else {
 626:../cleanflight/src/main/flight/pid.c ****             // on roll and pitch axes calculate currentPidSetpoint and errorRate to level the aircr
 627:../cleanflight/src/main/flight/pid.c ****             if (sensors(SENSOR_ACC)) {
 3089              	 .loc 4 627 0
 3090 006a 0220     	 movs r0,#2
 3091 006c FFF7FEFF 	 bl sensors
 3092 0070 0346     	 mov r3,r0
 3093 0072 002B     	 cmp r3,#0
 3094 0074 2AD0     	 beq .L176
 3095              	.LBB22:
 628:../cleanflight/src/main/flight/pid.c ****                 // errorAngle is deviation from horizontal
 629:../cleanflight/src/main/flight/pid.c ****                 const float errorAngle =  -(attitude.raw[axis] - angleTrim->raw[axis]) / 10.0f;
 3096              	 .loc 4 629 0
 3097 0076 BB68     	 ldr r3,[r7,#8]
 3098 0078 7A68     	 ldr r2,[r7,#4]
 3099 007a 33F91230 	 ldrsh r3,[r3,r2,lsl#1]
 3100 007e 9BB2     	 uxth r3,r3
 3101 0080 1AB2     	 sxth r2,r3
 3102 0082 6949     	 ldr r1,.L202+16
 3103 0084 7B68     	 ldr r3,[r7,#4]
 3104 0086 31F91330 	 ldrsh r3,[r1,r3,lsl#1]
 3105 008a 9BB2     	 uxth r3,r3
 3106 008c 1BB2     	 sxth r3,r3
 3107 008e D31A     	 subs r3,r2,r3
 3108 0090 07EE903A 	 fmsr s15,r3
 3109 0094 F8EEE77A 	 fsitos s15,s15
 3110 0098 B2EE047A 	 fconsts s14,#36
 3111 009c C7EE877A 	 fdivs s15,s15,s14
 3112 00a0 C7ED097A 	 fsts s15,[r7,#36]
 630:../cleanflight/src/main/flight/pid.c ****                 *currentPidSetpoint = errorAngle * levelGain;
 3113              	 .loc 4 630 0
 3114 00a4 614B     	 ldr r3,.L202+20
 3115 00a6 93ED007A 	 flds s14,[r3]
 3116 00aa D7ED097A 	 flds s15,[r7,#36]
 3117 00ae 67EE277A 	 fmuls s15,s14,s15
 3118 00b2 7B6B     	 ldr r3,[r7,#52]
 3119 00b4 C3ED007A 	 fsts s15,[r3]
 631:../cleanflight/src/main/flight/pid.c ****                 *errorRate = *currentPidSetpoint - gyroRate;
 3120              	 .loc 4 631 0
 3121 00b8 7B6B     	 ldr r3,[r7,#52]
 3122 00ba 93ED007A 	 flds s14,[r3]
 3123 00be D7ED0C7A 	 flds s15,[r7,#48]
 3124 00c2 77EE677A 	 fsubs s15,s14,s15
 3125 00c6 BB6B     	 ldr r3,[r7,#56]
 3126 00c8 C3ED007A 	 fsts s15,[r3]
 3127              	.L176:
 3128              	.LBE22:
 632:../cleanflight/src/main/flight/pid.c ****             }
 633:../cleanflight/src/main/flight/pid.c ****         }
 634:../cleanflight/src/main/flight/pid.c ****         // reset ITerm, since accumulated error before crash is now meaningless
 635:../cleanflight/src/main/flight/pid.c ****         // and ITerm windup during crash recovery can be extreme, especially on yaw axis
 636:../cleanflight/src/main/flight/pid.c ****         pidData[axis].I = 0.0f;
 3129              	 .loc 4 636 0
 3130 00cc 5849     	 ldr r1,.L202+24
 3131 00ce 7A68     	 ldr r2,[r7,#4]
 3132 00d0 1346     	 mov r3,r2
 3133 00d2 9B00     	 lsls r3,r3,#2
 3134 00d4 1344     	 add r3,r3,r2
 3135 00d6 9B00     	 lsls r3,r3,#2
 3136 00d8 0B44     	 add r3,r3,r1
 3137 00da 4FF00002 	 mov r2,#0
 3138 00de 5A60     	 str r2,[r3,#4]
 637:../cleanflight/src/main/flight/pid.c ****         if (cmpTimeUs(currentTimeUs, crashDetectedAtUs) > crashTimeLimitUs
 3139              	 .loc 4 637 0
 3140 00e0 4E4B     	 ldr r3,.L202+4
 3141 00e2 1B68     	 ldr r3,[r3]
 3142 00e4 3868     	 ldr r0,[r7]
 3143 00e6 1946     	 mov r1,r3
 3144 00e8 FFF7FEFF 	 bl cmpTimeUs
 3145 00ec 0246     	 mov r2,r0
 3146 00ee 514B     	 ldr r3,.L202+28
 3147 00f0 1B68     	 ldr r3,[r3]
 3148 00f2 9A42     	 cmp r2,r3
 3149 00f4 56DC     	 bgt .L177
 638:../cleanflight/src/main/flight/pid.c ****             || (getMotorMixRange() < 1.0f
 3150              	 .loc 4 638 0
 3151 00f6 FFF7FEFF 	 bl getMotorMixRange
 3152 00fa 07EE100A 	 fmsr s14,r0
 3153 00fe F7EE007A 	 fconsts s15,#112
 3154 0102 B4EEE77A 	 fcmpes s14,s15
 3155 0106 F1EE10FA 	 fmstat
 3156 010a 40F18280 	 bpl .L173
 3157              	.LBB23:
 639:../cleanflight/src/main/flight/pid.c ****                    && ABS(gyro.gyroADCf[FD_ROLL]) < crashRecoveryRate
 3158              	 .loc 4 639 0
 3159 010e 4A4B     	 ldr r3,.L202+32
 3160 0110 5B68     	 ldr r3,[r3,#4]
 3161 0112 3B62     	 str r3,[r7,#32]
 3162 0114 D7ED087A 	 flds s15,[r7,#32]
 3163 0118 F5EEC07A 	 fcmpezs s15
 3164 011c F1EE10FA 	 fmstat
 3165 0120 02DD     	 ble .L199
 3166              	 .loc 4 639 0 is_stmt 0 discriminator 1
 3167 0122 D7ED087A 	 flds s15,[r7,#32]
 3168 0126 03E0     	 b .L181
 3169              	.L199:
 3170              	 .loc 4 639 0 discriminator 2
 3171 0128 D7ED087A 	 flds s15,[r7,#32]
 3172 012c F1EE677A 	 fnegs s15,s15
 3173              	.L181:
 3174              	.LBE23:
 3175              	 .loc 4 639 0 discriminator 4
 3176 0130 424B     	 ldr r3,.L202+36
 3177 0132 93ED007A 	 flds s14,[r3]
 3178 0136 F4EEC77A 	 fcmpes s15,s14
 3179 013a F1EE10FA 	 fmstat
 3180 013e 68D5     	 bpl .L173
 3181              	.LBB24:
 640:../cleanflight/src/main/flight/pid.c ****                    && ABS(gyro.gyroADCf[FD_PITCH]) < crashRecoveryRate
 3182              	 .loc 4 640 0 is_stmt 1
 3183 0140 3D4B     	 ldr r3,.L202+32
 3184 0142 9B68     	 ldr r3,[r3,#8]
 3185 0144 FB61     	 str r3,[r7,#28]
 3186 0146 D7ED077A 	 flds s15,[r7,#28]
 3187 014a F5EEC07A 	 fcmpezs s15
 3188 014e F1EE10FA 	 fmstat
 3189 0152 02DD     	 ble .L200
 3190              	 .loc 4 640 0 is_stmt 0 discriminator 1
 3191 0154 D7ED077A 	 flds s15,[r7,#28]
 3192 0158 03E0     	 b .L185
 3193              	.L200:
 3194              	 .loc 4 640 0 discriminator 2
 3195 015a D7ED077A 	 flds s15,[r7,#28]
 3196 015e F1EE677A 	 fnegs s15,s15
 3197              	.L185:
 3198              	.LBE24:
 3199              	 .loc 4 640 0 discriminator 4
 3200 0162 364B     	 ldr r3,.L202+36
 3201 0164 93ED007A 	 flds s14,[r3]
 3202 0168 F4EEC77A 	 fcmpes s15,s14
 3203 016c F1EE10FA 	 fmstat
 3204 0170 4FD5     	 bpl .L173
 3205              	.LBB25:
 641:../cleanflight/src/main/flight/pid.c ****                    && ABS(gyro.gyroADCf[FD_YAW]) < crashRecoveryRate)) {
 3206              	 .loc 4 641 0 is_stmt 1
 3207 0172 314B     	 ldr r3,.L202+32
 3208 0174 DB68     	 ldr r3,[r3,#12]
 3209 0176 BB61     	 str r3,[r7,#24]
 3210 0178 D7ED067A 	 flds s15,[r7,#24]
 3211 017c F5EEC07A 	 fcmpezs s15
 3212 0180 F1EE10FA 	 fmstat
 3213 0184 02DD     	 ble .L201
 3214              	 .loc 4 641 0 is_stmt 0 discriminator 1
 3215 0186 D7ED067A 	 flds s15,[r7,#24]
 3216 018a 03E0     	 b .L189
 3217              	.L201:
 3218              	 .loc 4 641 0 discriminator 2
 3219 018c D7ED067A 	 flds s15,[r7,#24]
 3220 0190 F1EE677A 	 fnegs s15,s15
 3221              	.L189:
 3222              	.LBE25:
 3223              	 .loc 4 641 0 discriminator 4
 3224 0194 294B     	 ldr r3,.L202+36
 3225 0196 93ED007A 	 flds s14,[r3]
 3226 019a F4EEC77A 	 fcmpes s15,s14
 3227 019e F1EE10FA 	 fmstat
 3228 01a2 36D5     	 bpl .L173
 3229              	.L177:
 642:../cleanflight/src/main/flight/pid.c ****             if (sensors(SENSOR_ACC)) {
 3230              	 .loc 4 642 0 is_stmt 1
 3231 01a4 0220     	 movs r0,#2
 3232 01a6 FFF7FEFF 	 bl sensors
 3233 01aa 0346     	 mov r3,r0
 3234 01ac 002B     	 cmp r3,#0
 3235 01ae 2DD0     	 beq .L191
 3236              	.LBB26:
 643:../cleanflight/src/main/flight/pid.c ****                 // check aircraft nearly level
 644:../cleanflight/src/main/flight/pid.c ****                 if (ABS(attitude.raw[FD_ROLL] - angleTrim->raw[FD_ROLL]) < crashRecoveryAngleDeciDe
 3237              	 .loc 4 644 0
 3238 01b0 1D4B     	 ldr r3,.L202+16
 3239 01b2 B3F90030 	 ldrsh r3,[r3]
 3240 01b6 9BB2     	 uxth r3,r3
 3241 01b8 1AB2     	 sxth r2,r3
 3242 01ba BB68     	 ldr r3,[r7,#8]
 3243 01bc B3F90030 	 ldrsh r3,[r3]
 3244 01c0 9BB2     	 uxth r3,r3
 3245 01c2 1BB2     	 sxth r3,r3
 3246 01c4 D31A     	 subs r3,r2,r3
 3247 01c6 7B61     	 str r3,[r7,#20]
 3248 01c8 7B69     	 ldr r3,[r7,#20]
 3249 01ca 83EAE372 	 eor r2,r3,r3,asr#31
 3250 01ce A2EBE372 	 sub r2,r2,r3,asr#31
 3251              	.LBE26:
 3252 01d2 1B4B     	 ldr r3,.L202+40
 3253 01d4 1B68     	 ldr r3,[r3]
 3254 01d6 9A42     	 cmp r2,r3
 3255 01d8 1BDA     	 bge .L173
 3256              	.LBB27:
 645:../cleanflight/src/main/flight/pid.c ****                    && ABS(attitude.raw[FD_PITCH] - angleTrim->raw[FD_PITCH]) < crashRecoveryAngleDe
 3257              	 .loc 4 645 0
 3258 01da 134B     	 ldr r3,.L202+16
 3259 01dc B3F90230 	 ldrsh r3,[r3,#2]
 3260 01e0 9BB2     	 uxth r3,r3
 3261 01e2 1AB2     	 sxth r2,r3
 3262 01e4 BB68     	 ldr r3,[r7,#8]
 3263 01e6 B3F90230 	 ldrsh r3,[r3,#2]
 3264 01ea 9BB2     	 uxth r3,r3
 3265 01ec 1BB2     	 sxth r3,r3
 3266 01ee D31A     	 subs r3,r2,r3
 3267 01f0 3B61     	 str r3,[r7,#16]
 3268 01f2 3B69     	 ldr r3,[r7,#16]
 3269 01f4 83EAE372 	 eor r2,r3,r3,asr#31
 3270 01f8 A2EBE372 	 sub r2,r2,r3,asr#31
 3271              	.LBE27:
 3272 01fc 104B     	 ldr r3,.L202+40
 3273 01fe 1B68     	 ldr r3,[r3]
 3274 0200 9A42     	 cmp r2,r3
 3275 0202 06DA     	 bge .L173
 646:../cleanflight/src/main/flight/pid.c ****                     inCrashRecoveryMode = false;
 3276              	 .loc 4 646 0
 3277 0204 044B     	 ldr r3,.L202
 3278 0206 0022     	 movs r2,#0
 3279 0208 1A70     	 strb r2,[r3]
 3280 020a 02E0     	 b .L173
 3281              	.L191:
 647:../cleanflight/src/main/flight/pid.c ****                     BEEP_OFF;
 648:../cleanflight/src/main/flight/pid.c ****                 }
 649:../cleanflight/src/main/flight/pid.c ****             } else {
 650:../cleanflight/src/main/flight/pid.c ****                 inCrashRecoveryMode = false;
 3282              	 .loc 4 650 0
 3283 020c 024B     	 ldr r3,.L202
 3284 020e 0022     	 movs r2,#0
 3285 0210 1A70     	 strb r2,[r3]
 3286              	.L173:
 651:../cleanflight/src/main/flight/pid.c ****                 BEEP_OFF;
 652:../cleanflight/src/main/flight/pid.c ****             }
 653:../cleanflight/src/main/flight/pid.c ****         }
 654:../cleanflight/src/main/flight/pid.c ****     }
 655:../cleanflight/src/main/flight/pid.c **** }
 3287              	 .loc 4 655 0
 3288 0212 2837     	 adds r7,r7,#40
 3289              	.LCFI121:
 3290              	 .cfi_def_cfa_offset 8
 3291 0214 BD46     	 mov sp,r7
 3292              	.LCFI122:
 3293              	 .cfi_def_cfa_register 13
 3294              	 
 3295 0216 80BD     	 pop {r7,pc}
 3296              	.L203:
 3297              	 .align 2
 3298              	.L202:
 3299 0218 00000000 	 .word inCrashRecoveryMode
 3300 021c 00000000 	 .word crashDetectedAtUs
 3301 0220 00000000 	 .word crashTimeDelayUs
 3302 0224 00000000 	 .word crashLimitYaw
 3303 0228 00000000 	 .word attitude
 3304 022c 00000000 	 .word levelGain
 3305 0230 00000000 	 .word pidData
 3306 0234 00000000 	 .word crashTimeLimitUs
 3307 0238 00000000 	 .word gyro
 3308 023c 00000000 	 .word crashRecoveryRate
 3309 0240 00000000 	 .word crashRecoveryAngleDeciDegrees
 3310              	 .cfi_endproc
 3311              	.LFE581:
 3313              	 .section .text.detectAndSetCrashRecovery,"ax",%progbits
 3314              	 .align 2
 3315              	 .thumb
 3316              	 .thumb_func
 3318              	detectAndSetCrashRecovery:
 3319              	.LFB582:
 656:../cleanflight/src/main/flight/pid.c **** 
 657:../cleanflight/src/main/flight/pid.c **** static void detectAndSetCrashRecovery(
 658:../cleanflight/src/main/flight/pid.c ****     const pidCrashRecovery_e crash_recovery, const int axis,
 659:../cleanflight/src/main/flight/pid.c ****     const timeUs_t currentTimeUs, const float delta, const float errorRate)
 660:../cleanflight/src/main/flight/pid.c **** {
 3320              	 .loc 4 660 0
 3321              	 .cfi_startproc
 3322              	 
 3323              	 
 3324 0000 80B5     	 push {r7,lr}
 3325              	.LCFI123:
 3326              	 .cfi_def_cfa_offset 8
 3327              	 .cfi_offset 7,-8
 3328              	 .cfi_offset 14,-4
 3329 0002 8AB0     	 sub sp,sp,#40
 3330              	.LCFI124:
 3331              	 .cfi_def_cfa_offset 48
 3332 0004 00AF     	 add r7,sp,#0
 3333              	.LCFI125:
 3334              	 .cfi_def_cfa_register 7
 3335 0006 B960     	 str r1,[r7,#8]
 3336 0008 7A60     	 str r2,[r7,#4]
 3337 000a 3B60     	 str r3,[r7]
 3338 000c 0346     	 mov r3,r0
 3339 000e FB73     	 strb r3,[r7,#15]
 661:../cleanflight/src/main/flight/pid.c ****     // if crash recovery is on and accelerometer enabled and there is no gyro overflow, then check 
 662:../cleanflight/src/main/flight/pid.c ****     // no point in trying to recover if the crash is so severe that the gyro overflows
 663:../cleanflight/src/main/flight/pid.c ****     if ((crash_recovery || FLIGHT_MODE(GPS_RESCUE_MODE)) && !gyroOverflowDetected()) {
 3340              	 .loc 4 663 0
 3341 0010 FB7B     	 ldrb r3,[r7,#15]
 3342 0012 002B     	 cmp r3,#0
 3343 0014 06D1     	 bne .L205
 3344              	 .loc 4 663 0 is_stmt 0 discriminator 2
 3345 0016 644B     	 ldr r3,.L245
 3346 0018 1B88     	 ldrh r3,[r3]
 3347 001a 03F40063 	 and r3,r3,#2048
 3348 001e 002B     	 cmp r3,#0
 3349 0020 00F0BF80 	 beq .L204
 3350              	.L205:
 3351              	 .loc 4 663 0 discriminator 3
 3352 0024 FFF7FEFF 	 bl gyroOverflowDetected
 3353 0028 0346     	 mov r3,r0
 3354 002a 83F00103 	 eor r3,r3,#1
 3355 002e DBB2     	 uxtb r3,r3
 3356 0030 002B     	 cmp r3,#0
 3357 0032 00F0B680 	 beq .L204
 664:../cleanflight/src/main/flight/pid.c ****         if (ARMING_FLAG(ARMED)) {
 3358              	 .loc 4 664 0 is_stmt 1
 3359 0036 5D4B     	 ldr r3,.L245+4
 3360 0038 1B78     	 ldrb r3,[r3]
 3361 003a 03F00103 	 and r3,r3,#1
 3362 003e 002B     	 cmp r3,#0
 3363 0040 00F0A880 	 beq .L207
 665:../cleanflight/src/main/flight/pid.c ****             if (getMotorMixRange() >= 1.0f && !inCrashRecoveryMode
 3364              	 .loc 4 665 0
 3365 0044 FFF7FEFF 	 bl getMotorMixRange
 3366 0048 07EE100A 	 fmsr s14,r0
 3367 004c F7EE007A 	 fconsts s15,#112
 3368 0050 B4EEE77A 	 fcmpes s14,s15
 3369 0054 F1EE10FA 	 fmstat
 3370 0058 56DB     	 blt .L208
 3371              	 .loc 4 665 0 is_stmt 0 discriminator 1
 3372 005a 554B     	 ldr r3,.L245+8
 3373 005c 1B78     	 ldrb r3,[r3]
 3374 005e 83F00103 	 eor r3,r3,#1
 3375 0062 DBB2     	 uxtb r3,r3
 3376 0064 002B     	 cmp r3,#0
 3377 0066 4FD0     	 beq .L208
 3378              	.LBB28:
 666:../cleanflight/src/main/flight/pid.c ****                 && ABS(delta) > crashDtermThreshold
 3379              	 .loc 4 666 0 is_stmt 1
 3380 0068 3B68     	 ldr r3,[r7]
 3381 006a 7B62     	 str r3,[r7,#36]
 3382 006c D7ED097A 	 flds s15,[r7,#36]
 3383 0070 F5EEC07A 	 fcmpezs s15
 3384 0074 F1EE10FA 	 fmstat
 3385 0078 02DD     	 ble .L240
 3386              	 .loc 4 666 0 is_stmt 0 discriminator 1
 3387 007a D7ED097A 	 flds s15,[r7,#36]
 3388 007e 03E0     	 b .L212
 3389              	.L240:
 3390              	 .loc 4 666 0 discriminator 2
 3391 0080 D7ED097A 	 flds s15,[r7,#36]
 3392 0084 F1EE677A 	 fnegs s15,s15
 3393              	.L212:
 3394              	.LBE28:
 3395              	 .loc 4 666 0 discriminator 4
 3396 0088 4A4B     	 ldr r3,.L245+12
 3397 008a 93ED007A 	 flds s14,[r3]
 3398 008e F4EEC77A 	 fcmpes s15,s14
 3399 0092 F1EE10FA 	 fmstat
 3400 0096 37DD     	 ble .L208
 3401              	.LBB29:
 667:../cleanflight/src/main/flight/pid.c ****                 && ABS(errorRate) > crashGyroThreshold
 3402              	 .loc 4 667 0 is_stmt 1
 3403 0098 3B6B     	 ldr r3,[r7,#48]
 3404 009a 3B62     	 str r3,[r7,#32]
 3405 009c D7ED087A 	 flds s15,[r7,#32]
 3406 00a0 F5EEC07A 	 fcmpezs s15
 3407 00a4 F1EE10FA 	 fmstat
 3408 00a8 02DD     	 ble .L241
 3409              	 .loc 4 667 0 is_stmt 0 discriminator 1
 3410 00aa D7ED087A 	 flds s15,[r7,#32]
 3411 00ae 03E0     	 b .L216
 3412              	.L241:
 3413              	 .loc 4 667 0 discriminator 2
 3414 00b0 D7ED087A 	 flds s15,[r7,#32]
 3415 00b4 F1EE677A 	 fnegs s15,s15
 3416              	.L216:
 3417              	.LBE29:
 3418              	 .loc 4 667 0 discriminator 4
 3419 00b8 3F4B     	 ldr r3,.L245+16
 3420 00ba 93ED007A 	 flds s14,[r3]
 3421 00be F4EEC77A 	 fcmpes s15,s14
 3422 00c2 F1EE10FA 	 fmstat
 3423 00c6 1FDD     	 ble .L208
 3424              	.LBB30:
 668:../cleanflight/src/main/flight/pid.c ****                 && ABS(getSetpointRate(axis)) < crashSetpointThreshold) {
 3425              	 .loc 4 668 0 is_stmt 1
 3426 00c8 B868     	 ldr r0,[r7,#8]
 3427 00ca FFF7FEFF 	 bl getSetpointRate
 3428 00ce F861     	 str r0,[r7,#28]
 3429 00d0 D7ED077A 	 flds s15,[r7,#28]
 3430 00d4 F5EEC07A 	 fcmpezs s15
 3431 00d8 F1EE10FA 	 fmstat
 3432 00dc 02DD     	 ble .L242
 3433              	 .loc 4 668 0 is_stmt 0 discriminator 1
 3434 00de D7ED077A 	 flds s15,[r7,#28]
 3435 00e2 03E0     	 b .L220
 3436              	.L242:
 3437              	 .loc 4 668 0 discriminator 2
 3438 00e4 D7ED077A 	 flds s15,[r7,#28]
 3439 00e8 F1EE677A 	 fnegs s15,s15
 3440              	.L220:
 3441              	.LBE30:
 3442              	 .loc 4 668 0 discriminator 4
 3443 00ec 334B     	 ldr r3,.L245+20
 3444 00ee 93ED007A 	 flds s14,[r3]
 3445 00f2 F4EEC77A 	 fcmpes s15,s14
 3446 00f6 F1EE10FA 	 fmstat
 3447 00fa 05D5     	 bpl .L208
 669:../cleanflight/src/main/flight/pid.c ****                 inCrashRecoveryMode = true;
 3448              	 .loc 4 669 0 is_stmt 1
 3449 00fc 2C4B     	 ldr r3,.L245+8
 3450 00fe 0122     	 movs r2,#1
 3451 0100 1A70     	 strb r2,[r3]
 670:../cleanflight/src/main/flight/pid.c ****                 crashDetectedAtUs = currentTimeUs;
 3452              	 .loc 4 670 0
 3453 0102 2F4A     	 ldr r2,.L245+24
 3454 0104 7B68     	 ldr r3,[r7,#4]
 3455 0106 1360     	 str r3,[r2]
 3456              	.L208:
 671:../cleanflight/src/main/flight/pid.c ****             }
 672:../cleanflight/src/main/flight/pid.c ****             if (inCrashRecoveryMode && cmpTimeUs(currentTimeUs, crashDetectedAtUs) < crashTimeDelay
 3457              	 .loc 4 672 0
 3458 0108 294B     	 ldr r3,.L245+8
 3459 010a 1B78     	 ldrb r3,[r3]
 3460 010c 002B     	 cmp r3,#0
 3461 010e 48D0     	 beq .L204
 3462              	 .loc 4 672 0 is_stmt 0 discriminator 1
 3463 0110 2B4B     	 ldr r3,.L245+24
 3464 0112 1B68     	 ldr r3,[r3]
 3465 0114 7868     	 ldr r0,[r7,#4]
 3466 0116 1946     	 mov r1,r3
 3467 0118 FFF7FEFF 	 bl cmpTimeUs
 3468 011c 0246     	 mov r2,r0
 3469 011e 294B     	 ldr r3,.L245+28
 3470 0120 1B68     	 ldr r3,[r3]
 3471 0122 9A42     	 cmp r2,r3
 3472 0124 3DDA     	 bge .L204
 3473              	.LBB31:
 3474              	 .loc 4 672 0 discriminator 2
 3475 0126 3B6B     	 ldr r3,[r7,#48]
 3476 0128 BB61     	 str r3,[r7,#24]
 3477 012a D7ED067A 	 flds s15,[r7,#24]
 3478 012e F5EEC07A 	 fcmpezs s15
 3479 0132 F1EE10FA 	 fmstat
 3480 0136 02DD     	 ble .L243
 3481              	 .loc 4 672 0 discriminator 3
 3482 0138 D7ED067A 	 flds s15,[r7,#24]
 3483 013c 03E0     	 b .L225
 3484              	.L243:
 3485              	 .loc 4 672 0 discriminator 4
 3486 013e D7ED067A 	 flds s15,[r7,#24]
 3487 0142 F1EE677A 	 fnegs s15,s15
 3488              	.L225:
 3489              	.LBE31:
 3490              	 .loc 4 672 0 discriminator 6
 3491 0146 1C4B     	 ldr r3,.L245+16
 3492 0148 93ED007A 	 flds s14,[r3]
 3493 014c F4EEC77A 	 fcmpes s15,s14
 3494 0150 F1EE10FA 	 fmstat
 3495 0154 1AD4     	 bmi .L226
 3496              	.LBB32:
 673:../cleanflight/src/main/flight/pid.c ****                 || ABS(getSetpointRate(axis)) > crashSetpointThreshold)) {
 3497              	 .loc 4 673 0 is_stmt 1
 3498 0156 B868     	 ldr r0,[r7,#8]
 3499 0158 FFF7FEFF 	 bl getSetpointRate
 3500 015c 7861     	 str r0,[r7,#20]
 3501 015e D7ED057A 	 flds s15,[r7,#20]
 3502 0162 F5EEC07A 	 fcmpezs s15
 3503 0166 F1EE10FA 	 fmstat
 3504 016a 02DD     	 ble .L244
 3505              	 .loc 4 673 0 is_stmt 0 discriminator 1
 3506 016c D7ED057A 	 flds s15,[r7,#20]
 3507 0170 03E0     	 b .L229
 3508              	.L244:
 3509              	 .loc 4 673 0 discriminator 2
 3510 0172 D7ED057A 	 flds s15,[r7,#20]
 3511 0176 F1EE677A 	 fnegs s15,s15
 3512              	.L229:
 3513              	.LBE32:
 3514              	 .loc 4 673 0 discriminator 4
 3515 017a 104B     	 ldr r3,.L245+20
 3516 017c 93ED007A 	 flds s14,[r3]
 3517 0180 F4EEC77A 	 fcmpes s15,s14
 3518 0184 F1EE10FA 	 fmstat
 3519 0188 00DC     	 bgt .L226
 3520 018a 0AE0     	 b .L204
 3521              	.L226:
 674:../cleanflight/src/main/flight/pid.c ****                 inCrashRecoveryMode = false;
 3522              	 .loc 4 674 0 is_stmt 1
 3523 018c 084B     	 ldr r3,.L245+8
 3524 018e 0022     	 movs r2,#0
 3525 0190 1A70     	 strb r2,[r3]
 3526 0192 06E0     	 b .L204
 3527              	.L207:
 675:../cleanflight/src/main/flight/pid.c ****                 BEEP_OFF;
 676:../cleanflight/src/main/flight/pid.c ****             }
 677:../cleanflight/src/main/flight/pid.c ****         } else if (inCrashRecoveryMode) {
 3528              	 .loc 4 677 0
 3529 0194 064B     	 ldr r3,.L245+8
 3530 0196 1B78     	 ldrb r3,[r3]
 3531 0198 002B     	 cmp r3,#0
 3532 019a 02D0     	 beq .L204
 678:../cleanflight/src/main/flight/pid.c ****             inCrashRecoveryMode = false;
 3533              	 .loc 4 678 0
 3534 019c 044B     	 ldr r3,.L245+8
 3535 019e 0022     	 movs r2,#0
 3536 01a0 1A70     	 strb r2,[r3]
 3537              	.L204:
 679:../cleanflight/src/main/flight/pid.c ****             BEEP_OFF;
 680:../cleanflight/src/main/flight/pid.c ****         }
 681:../cleanflight/src/main/flight/pid.c ****     }
 682:../cleanflight/src/main/flight/pid.c **** }
 3538              	 .loc 4 682 0
 3539 01a2 2837     	 adds r7,r7,#40
 3540              	.LCFI126:
 3541              	 .cfi_def_cfa_offset 8
 3542 01a4 BD46     	 mov sp,r7
 3543              	.LCFI127:
 3544              	 .cfi_def_cfa_register 13
 3545              	 
 3546 01a6 80BD     	 pop {r7,pc}
 3547              	.L246:
 3548              	 .align 2
 3549              	.L245:
 3550 01a8 00000000 	 .word flightModeFlags
 3551 01ac 00000000 	 .word armingFlags
 3552 01b0 00000000 	 .word inCrashRecoveryMode
 3553 01b4 00000000 	 .word crashDtermThreshold
 3554 01b8 00000000 	 .word crashGyroThreshold
 3555 01bc 00000000 	 .word crashSetpointThreshold
 3556 01c0 00000000 	 .word crashDetectedAtUs
 3557 01c4 00000000 	 .word crashTimeDelayUs
 3558              	 .cfi_endproc
 3559              	.LFE582:
 3561              	 .section .text.rotateVector,"ax",%progbits
 3562              	 .align 2
 3563              	 .thumb
 3564              	 .thumb_func
 3566              	rotateVector:
 3567              	.LFB583:
 683:../cleanflight/src/main/flight/pid.c **** 
 684:../cleanflight/src/main/flight/pid.c **** static void rotateVector(float v[XYZ_AXIS_COUNT], float rotation[XYZ_AXIS_COUNT]) 
 685:../cleanflight/src/main/flight/pid.c **** {
 3568              	 .loc 4 685 0
 3569              	 .cfi_startproc
 3570              	 
 3571              	 
 3572              	 
 3573 0000 80B4     	 push {r7}
 3574              	.LCFI128:
 3575              	 .cfi_def_cfa_offset 4
 3576              	 .cfi_offset 7,-4
 3577 0002 87B0     	 sub sp,sp,#28
 3578              	.LCFI129:
 3579              	 .cfi_def_cfa_offset 32
 3580 0004 00AF     	 add r7,sp,#0
 3581              	.LCFI130:
 3582              	 .cfi_def_cfa_register 7
 3583 0006 7860     	 str r0,[r7,#4]
 3584 0008 3960     	 str r1,[r7]
 3585              	.LBB33:
 686:../cleanflight/src/main/flight/pid.c ****     // rotate v around rotation vector rotation
 687:../cleanflight/src/main/flight/pid.c ****     // rotation in radians, all elements must be small
 688:../cleanflight/src/main/flight/pid.c ****     for (int i = 0; i < XYZ_AXIS_COUNT; i++) {
 3586              	 .loc 4 688 0
 3587 000a 0023     	 movs r3,#0
 3588 000c 7B61     	 str r3,[r7,#20]
 3589 000e 54E0     	 b .L248
 3590              	.L249:
 3591              	.LBB34:
 689:../cleanflight/src/main/flight/pid.c ****         int i_1 = (i + 1) % 3;
 3592              	 .loc 4 689 0 discriminator 3
 3593 0010 7B69     	 ldr r3,[r7,#20]
 3594 0012 5A1C     	 adds r2,r3,#1
 3595 0014 2D4B     	 ldr r3,.L250
 3596 0016 83FB0231 	 smull r3,r1,r3,r2
 3597 001a D317     	 asrs r3,r2,#31
 3598 001c C91A     	 subs r1,r1,r3
 3599 001e 0B46     	 mov r3,r1
 3600 0020 5B00     	 lsls r3,r3,#1
 3601 0022 0B44     	 add r3,r3,r1
 3602 0024 D31A     	 subs r3,r2,r3
 3603 0026 3B61     	 str r3,[r7,#16]
 690:../cleanflight/src/main/flight/pid.c ****         int i_2 = (i + 2) % 3;
 3604              	 .loc 4 690 0 discriminator 3
 3605 0028 7B69     	 ldr r3,[r7,#20]
 3606 002a 9A1C     	 adds r2,r3,#2
 3607 002c 274B     	 ldr r3,.L250
 3608 002e 83FB0231 	 smull r3,r1,r3,r2
 3609 0032 D317     	 asrs r3,r2,#31
 3610 0034 C91A     	 subs r1,r1,r3
 3611 0036 0B46     	 mov r3,r1
 3612 0038 5B00     	 lsls r3,r3,#1
 3613 003a 0B44     	 add r3,r3,r1
 3614 003c D31A     	 subs r3,r2,r3
 3615 003e FB60     	 str r3,[r7,#12]
 691:../cleanflight/src/main/flight/pid.c ****         float newV = v[i_1] + v[i_2] * rotation[i];
 3616              	 .loc 4 691 0 discriminator 3
 3617 0040 3B69     	 ldr r3,[r7,#16]
 3618 0042 9B00     	 lsls r3,r3,#2
 3619 0044 7A68     	 ldr r2,[r7,#4]
 3620 0046 1344     	 add r3,r3,r2
 3621 0048 93ED007A 	 flds s14,[r3]
 3622 004c FB68     	 ldr r3,[r7,#12]
 3623 004e 9B00     	 lsls r3,r3,#2
 3624 0050 7A68     	 ldr r2,[r7,#4]
 3625 0052 1344     	 add r3,r3,r2
 3626 0054 D3ED006A 	 flds s13,[r3]
 3627 0058 7B69     	 ldr r3,[r7,#20]
 3628 005a 9B00     	 lsls r3,r3,#2
 3629 005c 3A68     	 ldr r2,[r7]
 3630 005e 1344     	 add r3,r3,r2
 3631 0060 D3ED007A 	 flds s15,[r3]
 3632 0064 66EEA77A 	 fmuls s15,s13,s15
 3633 0068 77EE277A 	 fadds s15,s14,s15
 3634 006c C7ED027A 	 fsts s15,[r7,#8]
 692:../cleanflight/src/main/flight/pid.c ****         v[i_2] -= v[i_1] * rotation[i];
 3635              	 .loc 4 692 0 discriminator 3
 3636 0070 FB68     	 ldr r3,[r7,#12]
 3637 0072 9B00     	 lsls r3,r3,#2
 3638 0074 7A68     	 ldr r2,[r7,#4]
 3639 0076 1344     	 add r3,r3,r2
 3640 0078 FA68     	 ldr r2,[r7,#12]
 3641 007a 9200     	 lsls r2,r2,#2
 3642 007c 7968     	 ldr r1,[r7,#4]
 3643 007e 0A44     	 add r2,r2,r1
 3644 0080 92ED007A 	 flds s14,[r2]
 3645 0084 3A69     	 ldr r2,[r7,#16]
 3646 0086 9200     	 lsls r2,r2,#2
 3647 0088 7968     	 ldr r1,[r7,#4]
 3648 008a 0A44     	 add r2,r2,r1
 3649 008c D2ED006A 	 flds s13,[r2]
 3650 0090 7A69     	 ldr r2,[r7,#20]
 3651 0092 9200     	 lsls r2,r2,#2
 3652 0094 3968     	 ldr r1,[r7]
 3653 0096 0A44     	 add r2,r2,r1
 3654 0098 D2ED007A 	 flds s15,[r2]
 3655 009c 66EEA77A 	 fmuls s15,s13,s15
 3656 00a0 77EE677A 	 fsubs s15,s14,s15
 3657 00a4 C3ED007A 	 fsts s15,[r3]
 693:../cleanflight/src/main/flight/pid.c ****         v[i_1] = newV;
 3658              	 .loc 4 693 0 discriminator 3
 3659 00a8 3B69     	 ldr r3,[r7,#16]
 3660 00aa 9B00     	 lsls r3,r3,#2
 3661 00ac 7A68     	 ldr r2,[r7,#4]
 3662 00ae 1344     	 add r3,r3,r2
 3663 00b0 BA68     	 ldr r2,[r7,#8]
 3664 00b2 1A60     	 str r2,[r3]
 3665              	.LBE34:
 688:../cleanflight/src/main/flight/pid.c ****         int i_1 = (i + 1) % 3;
 3666              	 .loc 4 688 0 discriminator 3
 3667 00b4 7B69     	 ldr r3,[r7,#20]
 3668 00b6 0133     	 adds r3,r3,#1
 3669 00b8 7B61     	 str r3,[r7,#20]
 3670              	.L248:
 688:../cleanflight/src/main/flight/pid.c ****         int i_1 = (i + 1) % 3;
 3671              	 .loc 4 688 0 is_stmt 0 discriminator 1
 3672 00ba 7B69     	 ldr r3,[r7,#20]
 3673 00bc 022B     	 cmp r3,#2
 3674 00be A7DD     	 ble .L249
 3675              	.LBE33:
 694:../cleanflight/src/main/flight/pid.c ****     }
 695:../cleanflight/src/main/flight/pid.c **** }
 3676              	 .loc 4 695 0 is_stmt 1
 3677 00c0 1C37     	 adds r7,r7,#28
 3678              	.LCFI131:
 3679              	 .cfi_def_cfa_offset 4
 3680 00c2 BD46     	 mov sp,r7
 3681              	.LCFI132:
 3682              	 .cfi_def_cfa_register 13
 3683              	 
 3684 00c4 5DF8047B 	 ldr r7,[sp],#4
 3685              	.LCFI133:
 3686              	 .cfi_restore 7
 3687              	 .cfi_def_cfa_offset 0
 3688 00c8 7047     	 bx lr
 3689              	.L251:
 3690 00ca 00BF     	 .align 2
 3691              	.L250:
 3692 00cc 56555555 	 .word 1431655766
 3693              	 .cfi_endproc
 3694              	.LFE583:
 3696              	 .section .text.rotateITermAndAxisError,"ax",%progbits
 3697              	 .align 2
 3698              	 .thumb
 3699              	 .thumb_func
 3701              	rotateITermAndAxisError:
 3702              	.LFB584:
 696:../cleanflight/src/main/flight/pid.c **** 
 697:../cleanflight/src/main/flight/pid.c **** static void rotateITermAndAxisError() 
 698:../cleanflight/src/main/flight/pid.c **** {
 3703              	 .loc 4 698 0
 3704              	 .cfi_startproc
 3705              	 
 3706              	 
 3707 0000 80B5     	 push {r7,lr}
 3708              	.LCFI134:
 3709              	 .cfi_def_cfa_offset 8
 3710              	 .cfi_offset 7,-8
 3711              	 .cfi_offset 14,-4
 3712 0002 8AB0     	 sub sp,sp,#40
 3713              	.LCFI135:
 3714              	 .cfi_def_cfa_offset 48
 3715 0004 00AF     	 add r7,sp,#0
 3716              	.LCFI136:
 3717              	 .cfi_def_cfa_register 7
 699:../cleanflight/src/main/flight/pid.c ****     if (itermRotation
 3718              	 .loc 4 699 0
 3719 0006 3F4B     	 ldr r3,.L266
 3720 0008 1B78     	 ldrb r3,[r3]
 3721 000a 002B     	 cmp r3,#0
 3722 000c 07D1     	 bne .L253
 700:../cleanflight/src/main/flight/pid.c **** #if defined(USE_ABSOLUTE_CONTROL)
 701:../cleanflight/src/main/flight/pid.c ****         || acGain > 0
 3723              	 .loc 4 701 0
 3724 000e 3E4B     	 ldr r3,.L266+4
 3725 0010 D3ED007A 	 flds s15,[r3]
 3726 0014 F5EEC07A 	 fcmpezs s15
 3727 0018 F1EE10FA 	 fmstat
 3728 001c 6EDD     	 ble .L252
 3729              	.L253:
 3730              	.LBB35:
 702:../cleanflight/src/main/flight/pid.c **** #endif
 703:../cleanflight/src/main/flight/pid.c ****         ) {
 704:../cleanflight/src/main/flight/pid.c ****         const float gyroToAngle = dT * RAD;
 3731              	 .loc 4 704 0
 3732 001e 3B4B     	 ldr r3,.L266+8
 3733 0020 D3ED007A 	 flds s15,[r3]
 3734 0024 9FED3A7A 	 flds s14,.L266+12
 3735 0028 67EE877A 	 fmuls s15,s15,s14
 3736 002c C7ED067A 	 fsts s15,[r7,#24]
 3737              	.LBB36:
 705:../cleanflight/src/main/flight/pid.c ****         float rotationRads[XYZ_AXIS_COUNT];
 706:../cleanflight/src/main/flight/pid.c ****         for (int i = FD_ROLL; i <= FD_YAW; i++) {
 3738              	 .loc 4 706 0
 3739 0030 0023     	 movs r3,#0
 3740 0032 7B62     	 str r3,[r7,#36]
 3741 0034 15E0     	 b .L256
 3742              	.L257:
 707:../cleanflight/src/main/flight/pid.c ****             rotationRads[i] = gyro.gyroADCf[i] * gyroToAngle;
 3743              	 .loc 4 707 0 discriminator 3
 3744 0036 374A     	 ldr r2,.L266+16
 3745 0038 7B6A     	 ldr r3,[r7,#36]
 3746 003a 9B00     	 lsls r3,r3,#2
 3747 003c 1344     	 add r3,r3,r2
 3748 003e 5B68     	 ldr r3,[r3,#4]
 3749 0040 D7ED067A 	 flds s15,[r7,#24]
 3750 0044 07EE103A 	 fmsr s14,r3
 3751 0048 67EE277A 	 fmuls s15,s14,s15
 3752 004c 7B6A     	 ldr r3,[r7,#36]
 3753 004e 9B00     	 lsls r3,r3,#2
 3754 0050 07F12802 	 add r2,r7,#40
 3755 0054 1344     	 add r3,r3,r2
 3756 0056 1C3B     	 subs r3,r3,#28
 3757 0058 C3ED007A 	 fsts s15,[r3]
 706:../cleanflight/src/main/flight/pid.c ****             rotationRads[i] = gyro.gyroADCf[i] * gyroToAngle;
 3758              	 .loc 4 706 0 discriminator 3
 3759 005c 7B6A     	 ldr r3,[r7,#36]
 3760 005e 0133     	 adds r3,r3,#1
 3761 0060 7B62     	 str r3,[r7,#36]
 3762              	.L256:
 706:../cleanflight/src/main/flight/pid.c ****             rotationRads[i] = gyro.gyroADCf[i] * gyroToAngle;
 3763              	 .loc 4 706 0 is_stmt 0 discriminator 1
 3764 0062 7B6A     	 ldr r3,[r7,#36]
 3765 0064 022B     	 cmp r3,#2
 3766 0066 E6DD     	 ble .L257
 3767              	.LBE36:
 708:../cleanflight/src/main/flight/pid.c ****         }
 709:../cleanflight/src/main/flight/pid.c **** #if defined(USE_ABSOLUTE_CONTROL)
 710:../cleanflight/src/main/flight/pid.c ****         if (acGain > 0) {
 3768              	 .loc 4 710 0 is_stmt 1
 3769 0068 274B     	 ldr r3,.L266+4
 3770 006a D3ED007A 	 flds s15,[r3]
 3771 006e F5EEC07A 	 fcmpezs s15
 3772 0072 F1EE10FA 	 fmstat
 3773 0076 05DD     	 ble .L258
 711:../cleanflight/src/main/flight/pid.c ****             rotateVector(axisError, rotationRads);
 3774              	 .loc 4 711 0
 3775 0078 07F10C03 	 add r3,r7,#12
 3776 007c 2648     	 ldr r0,.L266+20
 3777 007e 1946     	 mov r1,r3
 3778 0080 FFF7FEFF 	 bl rotateVector
 3779              	.L258:
 712:../cleanflight/src/main/flight/pid.c ****         }
 713:../cleanflight/src/main/flight/pid.c **** #endif
 714:../cleanflight/src/main/flight/pid.c ****         if (itermRotation) {
 3780              	 .loc 4 714 0
 3781 0084 1F4B     	 ldr r3,.L266
 3782 0086 1B78     	 ldrb r3,[r3]
 3783 0088 002B     	 cmp r3,#0
 3784 008a 37D0     	 beq .L252
 3785              	.LBB37:
 3786              	.LBB38:
 715:../cleanflight/src/main/flight/pid.c ****             float v[XYZ_AXIS_COUNT];
 716:../cleanflight/src/main/flight/pid.c ****             for (int i = 0; i < XYZ_AXIS_COUNT; i++) {
 3787              	 .loc 4 716 0
 3788 008c 0023     	 movs r3,#0
 3789 008e 3B62     	 str r3,[r7,#32]
 3790 0090 11E0     	 b .L261
 3791              	.L262:
 717:../cleanflight/src/main/flight/pid.c ****                 v[i] = pidData[i].I;
 3792              	 .loc 4 717 0 discriminator 3
 3793 0092 2249     	 ldr r1,.L266+24
 3794 0094 3A6A     	 ldr r2,[r7,#32]
 3795 0096 1346     	 mov r3,r2
 3796 0098 9B00     	 lsls r3,r3,#2
 3797 009a 1344     	 add r3,r3,r2
 3798 009c 9B00     	 lsls r3,r3,#2
 3799 009e 0B44     	 add r3,r3,r1
 3800 00a0 5B68     	 ldr r3,[r3,#4]
 3801 00a2 3A6A     	 ldr r2,[r7,#32]
 3802 00a4 9200     	 lsls r2,r2,#2
 3803 00a6 07F12801 	 add r1,r7,#40
 3804 00aa 0A44     	 add r2,r2,r1
 3805 00ac 283A     	 subs r2,r2,#40
 3806 00ae 1360     	 str r3,[r2]
 716:../cleanflight/src/main/flight/pid.c ****                 v[i] = pidData[i].I;
 3807              	 .loc 4 716 0 discriminator 3
 3808 00b0 3B6A     	 ldr r3,[r7,#32]
 3809 00b2 0133     	 adds r3,r3,#1
 3810 00b4 3B62     	 str r3,[r7,#32]
 3811              	.L261:
 716:../cleanflight/src/main/flight/pid.c ****                 v[i] = pidData[i].I;
 3812              	 .loc 4 716 0 is_stmt 0 discriminator 1
 3813 00b6 3B6A     	 ldr r3,[r7,#32]
 3814 00b8 022B     	 cmp r3,#2
 3815 00ba EADD     	 ble .L262
 3816              	.LBE38:
 718:../cleanflight/src/main/flight/pid.c ****             }
 719:../cleanflight/src/main/flight/pid.c ****             rotateVector(v, rotationRads );
 3817              	 .loc 4 719 0 is_stmt 1
 3818 00bc 3A46     	 mov r2,r7
 3819 00be 07F10C03 	 add r3,r7,#12
 3820 00c2 1046     	 mov r0,r2
 3821 00c4 1946     	 mov r1,r3
 3822 00c6 FFF7FEFF 	 bl rotateVector
 3823              	.LBB39:
 720:../cleanflight/src/main/flight/pid.c ****             for (int i = 0; i < XYZ_AXIS_COUNT; i++) {
 3824              	 .loc 4 720 0
 3825 00ca 0023     	 movs r3,#0
 3826 00cc FB61     	 str r3,[r7,#28]
 3827 00ce 12E0     	 b .L263
 3828              	.L264:
 721:../cleanflight/src/main/flight/pid.c ****                 pidData[i].I = v[i];
 3829              	 .loc 4 721 0 discriminator 3
 3830 00d0 FB69     	 ldr r3,[r7,#28]
 3831 00d2 9B00     	 lsls r3,r3,#2
 3832 00d4 07F12802 	 add r2,r7,#40
 3833 00d8 1344     	 add r3,r3,r2
 3834 00da 283B     	 subs r3,r3,#40
 3835 00dc 1868     	 ldr r0,[r3]
 3836 00de 0F49     	 ldr r1,.L266+24
 3837 00e0 FA69     	 ldr r2,[r7,#28]
 3838 00e2 1346     	 mov r3,r2
 3839 00e4 9B00     	 lsls r3,r3,#2
 3840 00e6 1344     	 add r3,r3,r2
 3841 00e8 9B00     	 lsls r3,r3,#2
 3842 00ea 0B44     	 add r3,r3,r1
 3843 00ec 0246     	 mov r2,r0
 3844 00ee 5A60     	 str r2,[r3,#4]
 720:../cleanflight/src/main/flight/pid.c ****             for (int i = 0; i < XYZ_AXIS_COUNT; i++) {
 3845              	 .loc 4 720 0 discriminator 3
 3846 00f0 FB69     	 ldr r3,[r7,#28]
 3847 00f2 0133     	 adds r3,r3,#1
 3848 00f4 FB61     	 str r3,[r7,#28]
 3849              	.L263:
 720:../cleanflight/src/main/flight/pid.c ****             for (int i = 0; i < XYZ_AXIS_COUNT; i++) {
 3850              	 .loc 4 720 0 is_stmt 0 discriminator 1
 3851 00f6 FB69     	 ldr r3,[r7,#28]
 3852 00f8 022B     	 cmp r3,#2
 3853 00fa E9DD     	 ble .L264
 3854              	.L252:
 3855              	.LBE39:
 3856              	.LBE37:
 3857              	.LBE35:
 722:../cleanflight/src/main/flight/pid.c ****             }
 723:../cleanflight/src/main/flight/pid.c ****         }
 724:../cleanflight/src/main/flight/pid.c ****     }
 725:../cleanflight/src/main/flight/pid.c **** }
 3858              	 .loc 4 725 0 is_stmt 1
 3859 00fc 2837     	 adds r7,r7,#40
 3860              	.LCFI137:
 3861              	 .cfi_def_cfa_offset 8
 3862 00fe BD46     	 mov sp,r7
 3863              	.LCFI138:
 3864              	 .cfi_def_cfa_register 13
 3865              	 
 3866 0100 80BD     	 pop {r7,pc}
 3867              	.L267:
 3868 0102 00BF     	 .align 2
 3869              	.L266:
 3870 0104 00000000 	 .word itermRotation
 3871 0108 00000000 	 .word acGain
 3872 010c 00000000 	 .word dT
 3873 0110 35FA8E3C 	 .word 1016003125
 3874 0114 00000000 	 .word gyro
 3875 0118 00000000 	 .word axisError
 3876 011c 00000000 	 .word pidData
 3877              	 .cfi_endproc
 3878              	.LFE584:
 3880              	 .section .text.acroTrainerSign,"ax",%progbits
 3881              	 .align 2
 3882              	 .global acroTrainerSign
 3883              	 .thumb
 3884              	 .thumb_func
 3886              	acroTrainerSign:
 3887              	.LFB585:
 726:../cleanflight/src/main/flight/pid.c **** 
 727:../cleanflight/src/main/flight/pid.c **** #ifdef USE_ACRO_TRAINER
 728:../cleanflight/src/main/flight/pid.c **** 
 729:../cleanflight/src/main/flight/pid.c **** int acroTrainerSign(float x)
 730:../cleanflight/src/main/flight/pid.c **** {
 3888              	 .loc 4 730 0
 3889              	 .cfi_startproc
 3890              	 
 3891              	 
 3892              	 
 3893 0000 80B4     	 push {r7}
 3894              	.LCFI139:
 3895              	 .cfi_def_cfa_offset 4
 3896              	 .cfi_offset 7,-4
 3897 0002 83B0     	 sub sp,sp,#12
 3898              	.LCFI140:
 3899              	 .cfi_def_cfa_offset 16
 3900 0004 00AF     	 add r7,sp,#0
 3901              	.LCFI141:
 3902              	 .cfi_def_cfa_register 7
 3903 0006 7860     	 str r0,[r7,#4]
 731:../cleanflight/src/main/flight/pid.c ****     return x > 0 ? 1 : -1;
 3904              	 .loc 4 731 0
 3905 0008 D7ED017A 	 flds s15,[r7,#4]
 3906 000c F5EEC07A 	 fcmpezs s15
 3907 0010 F1EE10FA 	 fmstat
 3908 0014 01DD     	 ble .L274
 3909              	 .loc 4 731 0 is_stmt 0 discriminator 1
 3910 0016 0123     	 movs r3,#1
 3911 0018 01E0     	 b .L271
 3912              	.L274:
 3913              	 .loc 4 731 0 discriminator 2
 3914 001a 4FF0FF33 	 mov r3,#-1
 3915              	.L271:
 732:../cleanflight/src/main/flight/pid.c **** }
 3916              	 .loc 4 732 0 is_stmt 1 discriminator 4
 3917 001e 1846     	 mov r0,r3
 3918 0020 0C37     	 adds r7,r7,#12
 3919              	.LCFI142:
 3920              	 .cfi_def_cfa_offset 4
 3921 0022 BD46     	 mov sp,r7
 3922              	.LCFI143:
 3923              	 .cfi_def_cfa_register 13
 3924              	 
 3925 0024 5DF8047B 	 ldr r7,[sp],#4
 3926              	.LCFI144:
 3927              	 .cfi_restore 7
 3928              	 .cfi_def_cfa_offset 0
 3929 0028 7047     	 bx lr
 3930              	 .cfi_endproc
 3931              	.LFE585:
 3933 002a 00BF     	 .section .text.applyAcroTrainer,"ax",%progbits
 3934              	 .align 2
 3935              	 .thumb
 3936              	 .thumb_func
 3938              	applyAcroTrainer:
 3939              	.LFB586:
 733:../cleanflight/src/main/flight/pid.c **** 
 734:../cleanflight/src/main/flight/pid.c **** // Acro Trainer - Manipulate the setPoint to limit axis angle while in acro mode
 735:../cleanflight/src/main/flight/pid.c **** // There are three states:
 736:../cleanflight/src/main/flight/pid.c **** // 1. Current angle has exceeded limit
 737:../cleanflight/src/main/flight/pid.c **** //    Apply correction to return to limit (similar to pidLevel)
 738:../cleanflight/src/main/flight/pid.c **** // 2. Future overflow has been projected based on current angle and gyro rate
 739:../cleanflight/src/main/flight/pid.c **** //    Manage the setPoint to control the gyro rate as the actual angle  approaches the limit (try t
 740:../cleanflight/src/main/flight/pid.c **** // 3. If no potential overflow is detected, then return the original setPoint
 741:../cleanflight/src/main/flight/pid.c **** 
 742:../cleanflight/src/main/flight/pid.c **** // Use the FAST_CODE_NOINLINE directive to avoid this code from being inlined into ITCM RAM. We acc
 743:../cleanflight/src/main/flight/pid.c **** // performance decrease when Acro Trainer mode is active under the assumption that user is unlikely
 744:../cleanflight/src/main/flight/pid.c **** // expecting ultimate flight performance at very high loop rates when in this mode.
 745:../cleanflight/src/main/flight/pid.c **** static FAST_CODE_NOINLINE float applyAcroTrainer(int axis, const rollAndPitchTrims_t *angleTrim, fl
 746:../cleanflight/src/main/flight/pid.c **** {
 3940              	 .loc 4 746 0
 3941              	 .cfi_startproc
 3942              	 
 3943              	 
 3944 0000 80B5     	 push {r7,lr}
 3945              	.LCFI145:
 3946              	 .cfi_def_cfa_offset 8
 3947              	 .cfi_offset 7,-8
 3948              	 .cfi_offset 14,-4
 3949 0002 8CB0     	 sub sp,sp,#48
 3950              	.LCFI146:
 3951              	 .cfi_def_cfa_offset 56
 3952 0004 00AF     	 add r7,sp,#0
 3953              	.LCFI147:
 3954              	 .cfi_def_cfa_register 7
 3955 0006 F860     	 str r0,[r7,#12]
 3956 0008 B960     	 str r1,[r7,#8]
 3957 000a 7A60     	 str r2,[r7,#4]
 747:../cleanflight/src/main/flight/pid.c ****     float ret = setPoint;
 3958              	 .loc 4 747 0
 3959 000c 7B68     	 ldr r3,[r7,#4]
 3960 000e FB62     	 str r3,[r7,#44]
 748:../cleanflight/src/main/flight/pid.c **** 
 749:../cleanflight/src/main/flight/pid.c ****     if (!FLIGHT_MODE(ANGLE_MODE) && !FLIGHT_MODE(HORIZON_MODE) && !FLIGHT_MODE(GPS_RESCUE_MODE)) {
 3961              	 .loc 4 749 0
 3962 0010 9D4B     	 ldr r3,.L290
 3963 0012 1B88     	 ldrh r3,[r3]
 3964 0014 03F00103 	 and r3,r3,#1
 3965 0018 002B     	 cmp r3,#0
 3966 001a 40F03081 	 bne .L276
 3967              	 .loc 4 749 0 is_stmt 0 discriminator 1
 3968 001e 9A4B     	 ldr r3,.L290
 3969 0020 1B88     	 ldrh r3,[r3]
 3970 0022 03F00203 	 and r3,r3,#2
 3971 0026 002B     	 cmp r3,#0
 3972 0028 40F02981 	 bne .L276
 3973              	 .loc 4 749 0 discriminator 2
 3974 002c 964B     	 ldr r3,.L290
 3975 002e 1B88     	 ldrh r3,[r3]
 3976 0030 03F40063 	 and r3,r3,#2048
 3977 0034 002B     	 cmp r3,#0
 3978 0036 40F02281 	 bne .L276
 3979              	.LBB40:
 750:../cleanflight/src/main/flight/pid.c ****         bool resetIterm = false;
 3980              	 .loc 4 750 0 is_stmt 1
 3981 003a 0023     	 movs r3,#0
 3982 003c 87F82B30 	 strb r3,[r7,#43]
 751:../cleanflight/src/main/flight/pid.c ****         float projectedAngle = 0;
 3983              	 .loc 4 751 0
 3984 0040 4FF00003 	 mov r3,#0
 3985 0044 7B62     	 str r3,[r7,#36]
 752:../cleanflight/src/main/flight/pid.c ****         const int setpointSign = acroTrainerSign(setPoint);
 3986              	 .loc 4 752 0
 3987 0046 7868     	 ldr r0,[r7,#4]
 3988 0048 FFF7FEFF 	 bl acroTrainerSign
 3989 004c 3862     	 str r0,[r7,#32]
 753:../cleanflight/src/main/flight/pid.c ****         const float currentAngle = (attitude.raw[axis] - angleTrim->raw[axis]) / 10.0f;
 3990              	 .loc 4 753 0
 3991 004e 8F4A     	 ldr r2,.L290+4
 3992 0050 FB68     	 ldr r3,[r7,#12]
 3993 0052 32F91330 	 ldrsh r3,[r2,r3,lsl#1]
 3994 0056 9BB2     	 uxth r3,r3
 3995 0058 1AB2     	 sxth r2,r3
 3996 005a BB68     	 ldr r3,[r7,#8]
 3997 005c F968     	 ldr r1,[r7,#12]
 3998 005e 33F91130 	 ldrsh r3,[r3,r1,lsl#1]
 3999 0062 9BB2     	 uxth r3,r3
 4000 0064 1BB2     	 sxth r3,r3
 4001 0066 D31A     	 subs r3,r2,r3
 4002 0068 07EE903A 	 fmsr s15,r3
 4003 006c F8EEE77A 	 fsitos s15,s15
 4004 0070 B2EE047A 	 fconsts s14,#36
 4005 0074 C7EE877A 	 fdivs s15,s15,s14
 4006 0078 C7ED077A 	 fsts s15,[r7,#28]
 754:../cleanflight/src/main/flight/pid.c ****         const int angleSign = acroTrainerSign(currentAngle);
 4007              	 .loc 4 754 0
 4008 007c F869     	 ldr r0,[r7,#28]
 4009 007e FFF7FEFF 	 bl acroTrainerSign
 4010 0082 B861     	 str r0,[r7,#24]
 755:../cleanflight/src/main/flight/pid.c **** 
 756:../cleanflight/src/main/flight/pid.c ****         if ((acroTrainerAxisState[axis] != 0) && (acroTrainerAxisState[axis] != setpointSign)) {  /
 4011              	 .loc 4 756 0
 4012 0084 824A     	 ldr r2,.L290+8
 4013 0086 FB68     	 ldr r3,[r7,#12]
 4014 0088 52F82330 	 ldr r3,[r2,r3,lsl#2]
 4015 008c 002B     	 cmp r3,#0
 4016 008e 0BD0     	 beq .L277
 4017              	 .loc 4 756 0 is_stmt 0 discriminator 1
 4018 0090 7F4A     	 ldr r2,.L290+8
 4019 0092 FB68     	 ldr r3,[r7,#12]
 4020 0094 52F82320 	 ldr r2,[r2,r3,lsl#2]
 4021 0098 3B6A     	 ldr r3,[r7,#32]
 4022 009a 9A42     	 cmp r2,r3
 4023 009c 04D0     	 beq .L277
 757:../cleanflight/src/main/flight/pid.c ****             acroTrainerAxisState[axis] = 0;
 4024              	 .loc 4 757 0 is_stmt 1
 4025 009e 7C4A     	 ldr r2,.L290+8
 4026 00a0 FB68     	 ldr r3,[r7,#12]
 4027 00a2 0021     	 movs r1,#0
 4028 00a4 42F82310 	 str r1,[r2,r3,lsl#2]
 4029              	.L277:
 758:../cleanflight/src/main/flight/pid.c ****         }
 759:../cleanflight/src/main/flight/pid.c **** 
 760:../cleanflight/src/main/flight/pid.c ****         // Limit and correct the angle when it exceeds the limit
 761:../cleanflight/src/main/flight/pid.c ****         if ((fabsf(currentAngle) > acroTrainerAngleLimit) && (acroTrainerAxisState[axis] == 0)) {
 4030              	 .loc 4 761 0
 4031 00a8 D7ED077A 	 flds s15,[r7,#28]
 4032 00ac B0EEE77A 	 fabss s14,s15
 4033 00b0 784B     	 ldr r3,.L290+12
 4034 00b2 D3ED007A 	 flds s15,[r3]
 4035 00b6 B4EEE77A 	 fcmpes s14,s15
 4036 00ba F1EE10FA 	 fmstat
 4037 00be 11DD     	 ble .L278
 4038              	 .loc 4 761 0 is_stmt 0 discriminator 1
 4039 00c0 734A     	 ldr r2,.L290+8
 4040 00c2 FB68     	 ldr r3,[r7,#12]
 4041 00c4 52F82330 	 ldr r3,[r2,r3,lsl#2]
 4042 00c8 002B     	 cmp r3,#0
 4043 00ca 0BD1     	 bne .L278
 762:../cleanflight/src/main/flight/pid.c ****             if (angleSign == setpointSign) {
 4044              	 .loc 4 762 0 is_stmt 1
 4045 00cc BA69     	 ldr r2,[r7,#24]
 4046 00ce 3B6A     	 ldr r3,[r7,#32]
 4047 00d0 9A42     	 cmp r2,r3
 4048 00d2 07D1     	 bne .L278
 763:../cleanflight/src/main/flight/pid.c ****                 acroTrainerAxisState[axis] = angleSign;
 4049              	 .loc 4 763 0
