   1              	 .syntax unified
   2              	 .cpu cortex-m4
   3              	 .eabi_attribute 27,3
   4              	 .fpu fpv4-sp-d16
   5              	 .eabi_attribute 20,1
   6              	 .eabi_attribute 21,1
   7              	 .eabi_attribute 23,3
   8              	 .eabi_attribute 24,1
   9              	 .eabi_attribute 25,1
  10              	 .eabi_attribute 26,1
  11              	 .eabi_attribute 30,6
  12              	 .eabi_attribute 34,1
  13              	 .eabi_attribute 18,4
  14              	 .thumb
  15              	 .file "accgyro_spi_icm20689.c"
  16              	 .text
  17              	.Ltext0:
  18              	 .cfi_sections .debug_frame
  19              	 .section .text.icm20689SpiInit,"ax",%progbits
  20              	 .align 2
  21              	 .thumb
  22              	 .thumb_func
  24              	icm20689SpiInit:
  25              	.LFB535:
  26              	 .file 1 "../cleanflight/src/main/drivers/accgyro/accgyro_spi_icm20689.c"
   1:../cleanflight/src/main/drivers/accgyro/accgyro_spi_icm20689.c **** /*
   2:../cleanflight/src/main/drivers/accgyro/accgyro_spi_icm20689.c ****  * This file is part of Cleanflight and Betaflight.
   3:../cleanflight/src/main/drivers/accgyro/accgyro_spi_icm20689.c ****  *
   4:../cleanflight/src/main/drivers/accgyro/accgyro_spi_icm20689.c ****  * Cleanflight and Betaflight are free software. You can redistribute
   5:../cleanflight/src/main/drivers/accgyro/accgyro_spi_icm20689.c ****  * this software and/or modify this software under the terms of the
   6:../cleanflight/src/main/drivers/accgyro/accgyro_spi_icm20689.c ****  * GNU General Public License as published by the Free Software
   7:../cleanflight/src/main/drivers/accgyro/accgyro_spi_icm20689.c ****  * Foundation, either version 3 of the License, or (at your option)
   8:../cleanflight/src/main/drivers/accgyro/accgyro_spi_icm20689.c ****  * any later version.
   9:../cleanflight/src/main/drivers/accgyro/accgyro_spi_icm20689.c ****  *
  10:../cleanflight/src/main/drivers/accgyro/accgyro_spi_icm20689.c ****  * Cleanflight and Betaflight are distributed in the hope that they
  11:../cleanflight/src/main/drivers/accgyro/accgyro_spi_icm20689.c ****  * will be useful, but WITHOUT ANY WARRANTY; without even the implied
  12:../cleanflight/src/main/drivers/accgyro/accgyro_spi_icm20689.c ****  * warranty of MERCHANTABILITY or FITNESS FOR A PARTICULAR PURPOSE.
  13:../cleanflight/src/main/drivers/accgyro/accgyro_spi_icm20689.c ****  * See the GNU General Public License for more details.
  14:../cleanflight/src/main/drivers/accgyro/accgyro_spi_icm20689.c ****  *
  15:../cleanflight/src/main/drivers/accgyro/accgyro_spi_icm20689.c ****  * You should have received a copy of the GNU General Public License
  16:../cleanflight/src/main/drivers/accgyro/accgyro_spi_icm20689.c ****  * along with this software.
  17:../cleanflight/src/main/drivers/accgyro/accgyro_spi_icm20689.c ****  *
  18:../cleanflight/src/main/drivers/accgyro/accgyro_spi_icm20689.c ****  * If not, see <http://www.gnu.org/licenses/>.
  19:../cleanflight/src/main/drivers/accgyro/accgyro_spi_icm20689.c ****  */
  20:../cleanflight/src/main/drivers/accgyro/accgyro_spi_icm20689.c **** 
  21:../cleanflight/src/main/drivers/accgyro/accgyro_spi_icm20689.c **** #include <stdbool.h>
  22:../cleanflight/src/main/drivers/accgyro/accgyro_spi_icm20689.c **** #include <stdint.h>
  23:../cleanflight/src/main/drivers/accgyro/accgyro_spi_icm20689.c **** #include <stdlib.h>
  24:../cleanflight/src/main/drivers/accgyro/accgyro_spi_icm20689.c **** 
  25:../cleanflight/src/main/drivers/accgyro/accgyro_spi_icm20689.c **** #include "platform.h"
  26:../cleanflight/src/main/drivers/accgyro/accgyro_spi_icm20689.c **** 
  27:../cleanflight/src/main/drivers/accgyro/accgyro_spi_icm20689.c **** #include "common/axis.h"
  28:../cleanflight/src/main/drivers/accgyro/accgyro_spi_icm20689.c **** #include "common/maths.h"
  29:../cleanflight/src/main/drivers/accgyro/accgyro_spi_icm20689.c **** 
  30:../cleanflight/src/main/drivers/accgyro/accgyro_spi_icm20689.c **** #include "drivers/accgyro/accgyro.h"
  31:../cleanflight/src/main/drivers/accgyro/accgyro_spi_icm20689.c **** #include "drivers/accgyro/accgyro_mpu.h"
  32:../cleanflight/src/main/drivers/accgyro/accgyro_spi_icm20689.c **** #include "drivers/accgyro/accgyro_spi_icm20689.h"
  33:../cleanflight/src/main/drivers/accgyro/accgyro_spi_icm20689.c **** #include "drivers/bus_spi.h"
  34:../cleanflight/src/main/drivers/accgyro/accgyro_spi_icm20689.c **** #include "drivers/exti.h"
  35:../cleanflight/src/main/drivers/accgyro/accgyro_spi_icm20689.c **** #include "drivers/io.h"
  36:../cleanflight/src/main/drivers/accgyro/accgyro_spi_icm20689.c **** #include "drivers/sensor.h"
  37:../cleanflight/src/main/drivers/accgyro/accgyro_spi_icm20689.c **** #include "drivers/time.h"
  38:../cleanflight/src/main/drivers/accgyro/accgyro_spi_icm20689.c **** 
  39:../cleanflight/src/main/drivers/accgyro/accgyro_spi_icm20689.c **** 
  40:../cleanflight/src/main/drivers/accgyro/accgyro_spi_icm20689.c **** static void icm20689SpiInit(const busDevice_t *bus)
  41:../cleanflight/src/main/drivers/accgyro/accgyro_spi_icm20689.c **** {
  27              	 .loc 1 41 0
  28              	 .cfi_startproc
  29              	 
  30              	 
  31 0000 80B5     	 push {r7,lr}
  32              	.LCFI0:
  33              	 .cfi_def_cfa_offset 8
  34              	 .cfi_offset 7,-8
  35              	 .cfi_offset 14,-4
  36 0002 82B0     	 sub sp,sp,#8
  37              	.LCFI1:
  38              	 .cfi_def_cfa_offset 16
  39 0004 00AF     	 add r7,sp,#0
  40              	.LCFI2:
  41              	 .cfi_def_cfa_register 7
  42 0006 7860     	 str r0,[r7,#4]
  42:../cleanflight/src/main/drivers/accgyro/accgyro_spi_icm20689.c ****     static bool hardwareInitialised = false;
  43:../cleanflight/src/main/drivers/accgyro/accgyro_spi_icm20689.c **** 
  44:../cleanflight/src/main/drivers/accgyro/accgyro_spi_icm20689.c ****     if (hardwareInitialised) {
  43              	 .loc 1 44 0
  44 0008 134B     	 ldr r3,.L4
  45 000a 1B78     	 ldrb r3,[r3]
  46 000c 002B     	 cmp r3,#0
  47 000e 00D0     	 beq .L2
  45:../cleanflight/src/main/drivers/accgyro/accgyro_spi_icm20689.c ****         return;
  48              	 .loc 1 45 0
  49 0010 1EE0     	 b .L1
  50              	.L2:
  46:../cleanflight/src/main/drivers/accgyro/accgyro_spi_icm20689.c ****     }
  47:../cleanflight/src/main/drivers/accgyro/accgyro_spi_icm20689.c **** 
  48:../cleanflight/src/main/drivers/accgyro/accgyro_spi_icm20689.c **** #ifndef USE_DUAL_GYRO
  49:../cleanflight/src/main/drivers/accgyro/accgyro_spi_icm20689.c ****     IOInit(bus->busdev_u.spi.csnPin, OWNER_MPU_CS, 0);
  51              	 .loc 1 49 0
  52 0012 7B68     	 ldr r3,[r7,#4]
  53 0014 D3F80530 	 ldr r3,[r3,#5]
  54 0018 1846     	 mov r0,r3
  55 001a 1C21     	 movs r1,#28
  56 001c 0022     	 movs r2,#0
  57 001e FFF7FEFF 	 bl IOInit
  50:../cleanflight/src/main/drivers/accgyro/accgyro_spi_icm20689.c ****     IOConfigGPIO(bus->busdev_u.spi.csnPin, SPI_IO_CS_CFG);
  58              	 .loc 1 50 0
  59 0022 7B68     	 ldr r3,[r7,#4]
  60 0024 D3F80530 	 ldr r3,[r3,#5]
  61 0028 1846     	 mov r0,r3
  62 002a 8121     	 movs r1,#129
  63 002c FFF7FEFF 	 bl IOConfigGPIO
  51:../cleanflight/src/main/drivers/accgyro/accgyro_spi_icm20689.c ****     IOHi(bus->busdev_u.spi.csnPin);
  64              	 .loc 1 51 0
  65 0030 7B68     	 ldr r3,[r7,#4]
  66 0032 D3F80530 	 ldr r3,[r3,#5]
  67 0036 1846     	 mov r0,r3
  68 0038 FFF7FEFF 	 bl IOHi
  52:../cleanflight/src/main/drivers/accgyro/accgyro_spi_icm20689.c **** #endif
  53:../cleanflight/src/main/drivers/accgyro/accgyro_spi_icm20689.c **** 
  54:../cleanflight/src/main/drivers/accgyro/accgyro_spi_icm20689.c ****     spiSetDivisor(bus->busdev_u.spi.instance, SPI_CLOCK_STANDARD);
  69              	 .loc 1 54 0
  70 003c 7B68     	 ldr r3,[r7,#4]
  71 003e D3F80130 	 ldr r3,[r3,#1]
  72 0042 1846     	 mov r0,r3
  73 0044 0421     	 movs r1,#4
  74 0046 FFF7FEFF 	 bl spiSetDivisor
  55:../cleanflight/src/main/drivers/accgyro/accgyro_spi_icm20689.c **** 
  56:../cleanflight/src/main/drivers/accgyro/accgyro_spi_icm20689.c ****     hardwareInitialised = true;
  75              	 .loc 1 56 0
  76 004a 034B     	 ldr r3,.L4
  77 004c 0122     	 movs r2,#1
  78 004e 1A70     	 strb r2,[r3]
  79              	.L1:
  57:../cleanflight/src/main/drivers/accgyro/accgyro_spi_icm20689.c **** }
  80              	 .loc 1 57 0
  81 0050 0837     	 adds r7,r7,#8
  82              	.LCFI3:
  83              	 .cfi_def_cfa_offset 8
  84 0052 BD46     	 mov sp,r7
  85              	.LCFI4:
  86              	 .cfi_def_cfa_register 13
  87              	 
  88 0054 80BD     	 pop {r7,pc}
  89              	.L5:
  90 0056 00BF     	 .align 2
  91              	.L4:
  92 0058 00000000 	 .word hardwareInitialised.12647
  93              	 .cfi_endproc
  94              	.LFE535:
  96              	 .section .text.icm20689SpiDetect,"ax",%progbits
  97              	 .align 2
  98              	 .global icm20689SpiDetect
  99              	 .thumb
 100              	 .thumb_func
 102              	icm20689SpiDetect:
 103              	.LFB536:
  58:../cleanflight/src/main/drivers/accgyro/accgyro_spi_icm20689.c **** 
  59:../cleanflight/src/main/drivers/accgyro/accgyro_spi_icm20689.c **** uint8_t icm20689SpiDetect(const busDevice_t *bus)
  60:../cleanflight/src/main/drivers/accgyro/accgyro_spi_icm20689.c **** {
 104              	 .loc 1 60 0
 105              	 .cfi_startproc
 106              	 
 107              	 
 108 0000 80B5     	 push {r7,lr}
 109              	.LCFI5:
 110              	 .cfi_def_cfa_offset 8
 111              	 .cfi_offset 7,-8
 112              	 .cfi_offset 14,-4
 113 0002 84B0     	 sub sp,sp,#16
 114              	.LCFI6:
 115              	 .cfi_def_cfa_offset 24
 116 0004 00AF     	 add r7,sp,#0
 117              	.LCFI7:
 118              	 .cfi_def_cfa_register 7
 119 0006 7860     	 str r0,[r7,#4]
  61:../cleanflight/src/main/drivers/accgyro/accgyro_spi_icm20689.c ****     icm20689SpiInit(bus);
 120              	 .loc 1 61 0
 121 0008 7868     	 ldr r0,[r7,#4]
 122 000a FFF7FEFF 	 bl icm20689SpiInit
  62:../cleanflight/src/main/drivers/accgyro/accgyro_spi_icm20689.c **** 
  63:../cleanflight/src/main/drivers/accgyro/accgyro_spi_icm20689.c ****     spiSetDivisor(bus->busdev_u.spi.instance, SPI_CLOCK_INITIALIZATON); //low speed
 123              	 .loc 1 63 0
 124 000e 7B68     	 ldr r3,[r7,#4]
 125 0010 D3F80130 	 ldr r3,[r3,#1]
 126 0014 1846     	 mov r0,r3
 127 0016 4FF48071 	 mov r1,#256
 128 001a FFF7FEFF 	 bl spiSetDivisor
  64:../cleanflight/src/main/drivers/accgyro/accgyro_spi_icm20689.c **** 
  65:../cleanflight/src/main/drivers/accgyro/accgyro_spi_icm20689.c ****     spiBusWriteRegister(bus, MPU_RA_PWR_MGMT_1, ICM20689_BIT_RESET);
 129              	 .loc 1 65 0
 130 001e 7868     	 ldr r0,[r7,#4]
 131 0020 6B21     	 movs r1,#107
 132 0022 8022     	 movs r2,#128
 133 0024 FFF7FEFF 	 bl spiBusWriteRegister
  66:../cleanflight/src/main/drivers/accgyro/accgyro_spi_icm20689.c **** 
  67:../cleanflight/src/main/drivers/accgyro/accgyro_spi_icm20689.c ****     uint8_t icmDetected = MPU_NONE;
 134              	 .loc 1 67 0
 135 0028 0023     	 movs r3,#0
 136 002a FB73     	 strb r3,[r7,#15]
  68:../cleanflight/src/main/drivers/accgyro/accgyro_spi_icm20689.c ****     uint8_t attemptsRemaining = 20;
 137              	 .loc 1 68 0
 138 002c 1423     	 movs r3,#20
 139 002e BB73     	 strb r3,[r7,#14]
 140              	.L18:
 141              	.LBB2:
  69:../cleanflight/src/main/drivers/accgyro/accgyro_spi_icm20689.c ****     do {
  70:../cleanflight/src/main/drivers/accgyro/accgyro_spi_icm20689.c ****         delay(150);
 142              	 .loc 1 70 0
 143 0030 9620     	 movs r0,#150
 144 0032 FFF7FEFF 	 bl delay
  71:../cleanflight/src/main/drivers/accgyro/accgyro_spi_icm20689.c ****         const uint8_t whoAmI = spiBusReadRegister(bus, MPU_RA_WHO_AM_I);
 145              	 .loc 1 71 0
 146 0036 7868     	 ldr r0,[r7,#4]
 147 0038 7521     	 movs r1,#117
 148 003a FFF7FEFF 	 bl spiBusReadRegister
 149 003e 0346     	 mov r3,r0
 150 0040 7B73     	 strb r3,[r7,#13]
  72:../cleanflight/src/main/drivers/accgyro/accgyro_spi_icm20689.c ****         switch (whoAmI) {
 151              	 .loc 1 72 0
 152 0042 7B7B     	 ldrb r3,[r7,#13]
 153 0044 982B     	 cmp r3,#152
 154 0046 12D0     	 beq .L8
 155 0048 982B     	 cmp r3,#152
 156 004a 02DC     	 bgt .L9
 157 004c 122B     	 cmp r3,#18
 158 004e 08D0     	 beq .L10
 159 0050 10E0     	 b .L7
 160              	.L9:
 161 0052 AC2B     	 cmp r3,#172
 162 0054 02D0     	 beq .L11
 163 0056 AF2B     	 cmp r3,#175
 164 0058 06D0     	 beq .L12
 165 005a 0BE0     	 b .L7
 166              	.L11:
  73:../cleanflight/src/main/drivers/accgyro/accgyro_spi_icm20689.c ****         case ICM20601_WHO_AM_I_CONST:
  74:../cleanflight/src/main/drivers/accgyro/accgyro_spi_icm20689.c ****             icmDetected = ICM_20601_SPI;
 167              	 .loc 1 74 0
 168 005c 0723     	 movs r3,#7
 169 005e FB73     	 strb r3,[r7,#15]
  75:../cleanflight/src/main/drivers/accgyro/accgyro_spi_icm20689.c ****             break;
 170              	 .loc 1 75 0
 171 0060 0BE0     	 b .L13
 172              	.L10:
  76:../cleanflight/src/main/drivers/accgyro/accgyro_spi_icm20689.c ****         case ICM20602_WHO_AM_I_CONST:
  77:../cleanflight/src/main/drivers/accgyro/accgyro_spi_icm20689.c ****             icmDetected = ICM_20602_SPI;
 173              	 .loc 1 77 0
 174 0062 0823     	 movs r3,#8
 175 0064 FB73     	 strb r3,[r7,#15]
  78:../cleanflight/src/main/drivers/accgyro/accgyro_spi_icm20689.c ****             break;
 176              	 .loc 1 78 0
 177 0066 08E0     	 b .L13
 178              	.L12:
  79:../cleanflight/src/main/drivers/accgyro/accgyro_spi_icm20689.c ****         case ICM20608G_WHO_AM_I_CONST:
  80:../cleanflight/src/main/drivers/accgyro/accgyro_spi_icm20689.c ****             icmDetected = ICM_20608_SPI;
 179              	 .loc 1 80 0
 180 0068 0923     	 movs r3,#9
 181 006a FB73     	 strb r3,[r7,#15]
  81:../cleanflight/src/main/drivers/accgyro/accgyro_spi_icm20689.c ****             break;
 182              	 .loc 1 81 0
 183 006c 05E0     	 b .L13
 184              	.L8:
  82:../cleanflight/src/main/drivers/accgyro/accgyro_spi_icm20689.c ****         case ICM20689_WHO_AM_I_CONST:
  83:../cleanflight/src/main/drivers/accgyro/accgyro_spi_icm20689.c ****             icmDetected = ICM_20689_SPI;
 185              	 .loc 1 83 0
 186 006e 0B23     	 movs r3,#11
 187 0070 FB73     	 strb r3,[r7,#15]
  84:../cleanflight/src/main/drivers/accgyro/accgyro_spi_icm20689.c ****             break;
 188              	 .loc 1 84 0
 189 0072 02E0     	 b .L13
 190              	.L7:
  85:../cleanflight/src/main/drivers/accgyro/accgyro_spi_icm20689.c ****         default:
  86:../cleanflight/src/main/drivers/accgyro/accgyro_spi_icm20689.c ****             icmDetected = MPU_NONE;
 191              	 .loc 1 86 0
 192 0074 0023     	 movs r3,#0
 193 0076 FB73     	 strb r3,[r7,#15]
  87:../cleanflight/src/main/drivers/accgyro/accgyro_spi_icm20689.c ****             break;
 194              	 .loc 1 87 0
 195 0078 00BF     	 nop
 196              	.L13:
  88:../cleanflight/src/main/drivers/accgyro/accgyro_spi_icm20689.c ****         }
  89:../cleanflight/src/main/drivers/accgyro/accgyro_spi_icm20689.c ****         if (icmDetected != MPU_NONE) {
 197              	 .loc 1 89 0
 198 007a FB7B     	 ldrb r3,[r7,#15]
 199 007c 002B     	 cmp r3,#0
 200 007e 00D0     	 beq .L14
  90:../cleanflight/src/main/drivers/accgyro/accgyro_spi_icm20689.c ****             break;
 201              	 .loc 1 90 0
 202 0080 09E0     	 b .L15
 203              	.L14:
  91:../cleanflight/src/main/drivers/accgyro/accgyro_spi_icm20689.c ****         }
  92:../cleanflight/src/main/drivers/accgyro/accgyro_spi_icm20689.c ****         if (!attemptsRemaining) {
 204              	 .loc 1 92 0
 205 0082 BB7B     	 ldrb r3,[r7,#14]
 206 0084 002B     	 cmp r3,#0
 207 0086 01D1     	 bne .L16
  93:../cleanflight/src/main/drivers/accgyro/accgyro_spi_icm20689.c ****             return MPU_NONE;
 208              	 .loc 1 93 0
 209 0088 0023     	 movs r3,#0
 210 008a 0CE0     	 b .L17
 211              	.L16:
 212              	.LBE2:
  94:../cleanflight/src/main/drivers/accgyro/accgyro_spi_icm20689.c ****         }
  95:../cleanflight/src/main/drivers/accgyro/accgyro_spi_icm20689.c ****     } while (attemptsRemaining--);
 213              	 .loc 1 95 0
 214 008c BB7B     	 ldrb r3,[r7,#14]
 215 008e 5A1E     	 subs r2,r3,#1
 216 0090 BA73     	 strb r2,[r7,#14]
 217 0092 002B     	 cmp r3,#0
 218 0094 CCD1     	 bne .L18
 219              	.L15:
  96:../cleanflight/src/main/drivers/accgyro/accgyro_spi_icm20689.c **** 
  97:../cleanflight/src/main/drivers/accgyro/accgyro_spi_icm20689.c ****     spiSetDivisor(bus->busdev_u.spi.instance, SPI_CLOCK_STANDARD);
 220              	 .loc 1 97 0
 221 0096 7B68     	 ldr r3,[r7,#4]
 222 0098 D3F80130 	 ldr r3,[r3,#1]
 223 009c 1846     	 mov r0,r3
 224 009e 0421     	 movs r1,#4
 225 00a0 FFF7FEFF 	 bl spiSetDivisor
  98:../cleanflight/src/main/drivers/accgyro/accgyro_spi_icm20689.c **** 
  99:../cleanflight/src/main/drivers/accgyro/accgyro_spi_icm20689.c ****     return icmDetected;
 226              	 .loc 1 99 0
 227 00a4 FB7B     	 ldrb r3,[r7,#15]
 228              	.L17:
 100:../cleanflight/src/main/drivers/accgyro/accgyro_spi_icm20689.c **** }
 229              	 .loc 1 100 0
 230 00a6 1846     	 mov r0,r3
 231 00a8 1037     	 adds r7,r7,#16
 232              	.LCFI8:
 233              	 .cfi_def_cfa_offset 8
 234 00aa BD46     	 mov sp,r7
 235              	.LCFI9:
 236              	 .cfi_def_cfa_register 13
 237              	 
 238 00ac 80BD     	 pop {r7,pc}
 239              	 .cfi_endproc
 240              	.LFE536:
 242 00ae 00BF     	 .section .text.icm20689AccInit,"ax",%progbits
 243              	 .align 2
 244              	 .global icm20689AccInit
 245              	 .thumb
 246              	 .thumb_func
 248              	icm20689AccInit:
 249              	.LFB537:
 101:../cleanflight/src/main/drivers/accgyro/accgyro_spi_icm20689.c **** 
 102:../cleanflight/src/main/drivers/accgyro/accgyro_spi_icm20689.c **** void icm20689AccInit(accDev_t *acc)
 103:../cleanflight/src/main/drivers/accgyro/accgyro_spi_icm20689.c **** {
 250              	 .loc 1 103 0
 251              	 .cfi_startproc
 252              	 
 253              	 
 254              	 
 255 0000 80B4     	 push {r7}
 256              	.LCFI10:
 257              	 .cfi_def_cfa_offset 4
 258              	 .cfi_offset 7,-4
 259 0002 83B0     	 sub sp,sp,#12
 260              	.LCFI11:
 261              	 .cfi_def_cfa_offset 16
 262 0004 00AF     	 add r7,sp,#0
 263              	.LCFI12:
 264              	 .cfi_def_cfa_register 7
 265 0006 7860     	 str r0,[r7,#4]
 104:../cleanflight/src/main/drivers/accgyro/accgyro_spi_icm20689.c ****     acc->acc_1G = 512 * 4;
 266              	 .loc 1 104 0
 267 0008 7B68     	 ldr r3,[r7,#4]
 268 000a 0022     	 movs r2,#0
 269 000c 5A74     	 strb r2,[r3,#17]
 270 000e 0022     	 movs r2,#0
 271 0010 42F00802 	 orr r2,r2,#8
 272 0014 9A74     	 strb r2,[r3,#18]
 105:../cleanflight/src/main/drivers/accgyro/accgyro_spi_icm20689.c **** }
 273              	 .loc 1 105 0
 274 0016 0C37     	 adds r7,r7,#12
 275              	.LCFI13:
 276              	 .cfi_def_cfa_offset 4
 277 0018 BD46     	 mov sp,r7
 278              	.LCFI14:
 279              	 .cfi_def_cfa_register 13
 280              	 
 281 001a 5DF8047B 	 ldr r7,[sp],#4
 282              	.LCFI15:
 283              	 .cfi_restore 7
 284              	 .cfi_def_cfa_offset 0
 285 001e 7047     	 bx lr
 286              	 .cfi_endproc
 287              	.LFE537:
 289              	 .section .text.icm20689SpiAccDetect,"ax",%progbits
 290              	 .align 2
 291              	 .global icm20689SpiAccDetect
 292              	 .thumb
 293              	 .thumb_func
 295              	icm20689SpiAccDetect:
 296              	.LFB538:
 106:../cleanflight/src/main/drivers/accgyro/accgyro_spi_icm20689.c **** 
 107:../cleanflight/src/main/drivers/accgyro/accgyro_spi_icm20689.c **** bool icm20689SpiAccDetect(accDev_t *acc)
 108:../cleanflight/src/main/drivers/accgyro/accgyro_spi_icm20689.c **** {
 297              	 .loc 1 108 0
 298              	 .cfi_startproc
 299              	 
 300              	 
 301              	 
 302 0000 80B4     	 push {r7}
 303              	.LCFI16:
 304              	 .cfi_def_cfa_offset 4
 305              	 .cfi_offset 7,-4
 306 0002 83B0     	 sub sp,sp,#12
 307              	.LCFI17:
 308              	 .cfi_def_cfa_offset 16
 309 0004 00AF     	 add r7,sp,#0
 310              	.LCFI18:
 311              	 .cfi_def_cfa_register 7
 312 0006 7860     	 str r0,[r7,#4]
 109:../cleanflight/src/main/drivers/accgyro/accgyro_spi_icm20689.c ****     switch (acc->mpuDetectionResult.sensor) {
 313              	 .loc 1 109 0
 314 0008 7B68     	 ldr r3,[r7,#4]
 315 000a 5B7E     	 ldrb r3,[r3,#25]
 316 000c 082B     	 cmp r3,#8
 317 000e 03D0     	 beq .L25
 318 0010 0B2B     	 cmp r3,#11
 319 0012 01D0     	 beq .L25
 110:../cleanflight/src/main/drivers/accgyro/accgyro_spi_icm20689.c ****     case ICM_20602_SPI:
 111:../cleanflight/src/main/drivers/accgyro/accgyro_spi_icm20689.c ****     case ICM_20689_SPI:
 112:../cleanflight/src/main/drivers/accgyro/accgyro_spi_icm20689.c ****         break;
 113:../cleanflight/src/main/drivers/accgyro/accgyro_spi_icm20689.c ****     default:
 114:../cleanflight/src/main/drivers/accgyro/accgyro_spi_icm20689.c ****         return false;
 320              	 .loc 1 114 0
 321 0014 0023     	 movs r3,#0
 322 0016 07E0     	 b .L24
 323              	.L25:
 112:../cleanflight/src/main/drivers/accgyro/accgyro_spi_icm20689.c ****     default:
 324              	 .loc 1 112 0
 325 0018 00BF     	 nop
 115:../cleanflight/src/main/drivers/accgyro/accgyro_spi_icm20689.c ****     }
 116:../cleanflight/src/main/drivers/accgyro/accgyro_spi_icm20689.c **** 
 117:../cleanflight/src/main/drivers/accgyro/accgyro_spi_icm20689.c ****     acc->initFn = icm20689AccInit;
 326              	 .loc 1 117 0
 327 001a 7B68     	 ldr r3,[r7,#4]
 328 001c 054A     	 ldr r2,.L26
 329 001e 1A60     	 str r2,[r3]
 118:../cleanflight/src/main/drivers/accgyro/accgyro_spi_icm20689.c ****     acc->readFn = mpuAccRead;
 330              	 .loc 1 118 0
 331 0020 7B68     	 ldr r3,[r7,#4]
 332 0022 054A     	 ldr r2,.L26+4
 333 0024 5A60     	 str r2,[r3,#4]
 119:../cleanflight/src/main/drivers/accgyro/accgyro_spi_icm20689.c **** 
 120:../cleanflight/src/main/drivers/accgyro/accgyro_spi_icm20689.c ****     return true;
 334              	 .loc 1 120 0
 335 0026 0123     	 movs r3,#1
 336              	.L24:
 121:../cleanflight/src/main/drivers/accgyro/accgyro_spi_icm20689.c **** }
 337              	 .loc 1 121 0
 338 0028 1846     	 mov r0,r3
 339 002a 0C37     	 adds r7,r7,#12
 340              	.LCFI19:
 341              	 .cfi_def_cfa_offset 4
 342 002c BD46     	 mov sp,r7
 343              	.LCFI20:
 344              	 .cfi_def_cfa_register 13
 345              	 
 346 002e 5DF8047B 	 ldr r7,[sp],#4
 347              	.LCFI21:
 348              	 .cfi_restore 7
 349              	 .cfi_def_cfa_offset 0
 350 0032 7047     	 bx lr
 351              	.L27:
 352              	 .align 2
 353              	.L26:
 354 0034 00000000 	 .word icm20689AccInit
 355 0038 00000000 	 .word mpuAccRead
 356              	 .cfi_endproc
 357              	.LFE538:
 359              	 .section .text.icm20689GyroInit,"ax",%progbits
 360              	 .align 2
 361              	 .global icm20689GyroInit
 362              	 .thumb
 363              	 .thumb_func
 365              	icm20689GyroInit:
 366              	.LFB539:
 122:../cleanflight/src/main/drivers/accgyro/accgyro_spi_icm20689.c **** 
 123:../cleanflight/src/main/drivers/accgyro/accgyro_spi_icm20689.c **** void icm20689GyroInit(gyroDev_t *gyro)
 124:../cleanflight/src/main/drivers/accgyro/accgyro_spi_icm20689.c **** {
 367              	 .loc 1 124 0
 368              	 .cfi_startproc
 369              	 
 370              	 
 371 0000 90B5     	 push {r4,r7,lr}
 372              	.LCFI22:
 373              	 .cfi_def_cfa_offset 12
 374              	 .cfi_offset 4,-12
 375              	 .cfi_offset 7,-8
 376              	 .cfi_offset 14,-4
 377 0002 83B0     	 sub sp,sp,#12
 378              	.LCFI23:
 379              	 .cfi_def_cfa_offset 24
 380 0004 00AF     	 add r7,sp,#0
 381              	.LCFI24:
 382              	 .cfi_def_cfa_register 7
 383 0006 7860     	 str r0,[r7,#4]
 125:../cleanflight/src/main/drivers/accgyro/accgyro_spi_icm20689.c ****     mpuGyroInit(gyro);
 384              	 .loc 1 125 0
 385 0008 7868     	 ldr r0,[r7,#4]
 386 000a FFF7FEFF 	 bl mpuGyroInit
 126:../cleanflight/src/main/drivers/accgyro/accgyro_spi_icm20689.c **** 
 127:../cleanflight/src/main/drivers/accgyro/accgyro_spi_icm20689.c ****     spiSetDivisor(gyro->bus.busdev_u.spi.instance, SPI_CLOCK_INITIALIZATON);
 387              	 .loc 1 127 0
 388 000e 7B68     	 ldr r3,[r7,#4]
 389 0010 D3F81130 	 ldr r3,[r3,#17]
 390 0014 1846     	 mov r0,r3
 391 0016 4FF48071 	 mov r1,#256
 392 001a FFF7FEFF 	 bl spiSetDivisor
 128:../cleanflight/src/main/drivers/accgyro/accgyro_spi_icm20689.c **** 
 129:../cleanflight/src/main/drivers/accgyro/accgyro_spi_icm20689.c ****     spiBusWriteRegister(&gyro->bus, MPU_RA_PWR_MGMT_1, ICM20689_BIT_RESET);
 393              	 .loc 1 129 0
 394 001e 7B68     	 ldr r3,[r7,#4]
 395 0020 1033     	 adds r3,r3,#16
 396 0022 1846     	 mov r0,r3
 397 0024 6B21     	 movs r1,#107
 398 0026 8022     	 movs r2,#128
 399 0028 FFF7FEFF 	 bl spiBusWriteRegister
 130:../cleanflight/src/main/drivers/accgyro/accgyro_spi_icm20689.c ****     delay(100);
 400              	 .loc 1 130 0
 401 002c 6420     	 movs r0,#100
 402 002e FFF7FEFF 	 bl delay
 131:../cleanflight/src/main/drivers/accgyro/accgyro_spi_icm20689.c ****     spiBusWriteRegister(&gyro->bus, MPU_RA_SIGNAL_PATH_RESET, 0x03);
 403              	 .loc 1 131 0
 404 0032 7B68     	 ldr r3,[r7,#4]
 405 0034 1033     	 adds r3,r3,#16
 406 0036 1846     	 mov r0,r3
 407 0038 6821     	 movs r1,#104
 408 003a 0322     	 movs r2,#3
 409 003c FFF7FEFF 	 bl spiBusWriteRegister
 132:../cleanflight/src/main/drivers/accgyro/accgyro_spi_icm20689.c ****     delay(100);
 410              	 .loc 1 132 0
 411 0040 6420     	 movs r0,#100
 412 0042 FFF7FEFF 	 bl delay
 133:../cleanflight/src/main/drivers/accgyro/accgyro_spi_icm20689.c **** //    spiBusWriteRegister(&gyro->bus, MPU_RA_PWR_MGMT_1, 0);
 134:../cleanflight/src/main/drivers/accgyro/accgyro_spi_icm20689.c **** //    delay(100);
 135:../cleanflight/src/main/drivers/accgyro/accgyro_spi_icm20689.c ****     spiBusWriteRegister(&gyro->bus, MPU_RA_PWR_MGMT_1, INV_CLK_PLL);
 413              	 .loc 1 135 0
 414 0046 7B68     	 ldr r3,[r7,#4]
 415 0048 1033     	 adds r3,r3,#16
 416 004a 1846     	 mov r0,r3
 417 004c 6B21     	 movs r1,#107
 418 004e 0122     	 movs r2,#1
 419 0050 FFF7FEFF 	 bl spiBusWriteRegister
 136:../cleanflight/src/main/drivers/accgyro/accgyro_spi_icm20689.c ****     delay(15);
 420              	 .loc 1 136 0
 421 0054 0F20     	 movs r0,#15
 422 0056 FFF7FEFF 	 bl delay
 137:../cleanflight/src/main/drivers/accgyro/accgyro_spi_icm20689.c ****     spiBusWriteRegister(&gyro->bus, MPU_RA_GYRO_CONFIG, INV_FSR_2000DPS << 3 | mpuGyroFCHOICE(gyro)
 423              	 .loc 1 137 0
 424 005a 7B68     	 ldr r3,[r7,#4]
 425 005c 03F11004 	 add r4,r3,#16
 426 0060 7868     	 ldr r0,[r7,#4]
 427 0062 FFF7FEFF 	 bl mpuGyroFCHOICE
 428 0066 0346     	 mov r3,r0
 429 0068 43F01803 	 orr r3,r3,#24
 430 006c DBB2     	 uxtb r3,r3
 431 006e 2046     	 mov r0,r4
 432 0070 1B21     	 movs r1,#27
 433 0072 1A46     	 mov r2,r3
 434 0074 FFF7FEFF 	 bl spiBusWriteRegister
 138:../cleanflight/src/main/drivers/accgyro/accgyro_spi_icm20689.c ****     delay(15);
 435              	 .loc 1 138 0
 436 0078 0F20     	 movs r0,#15
 437 007a FFF7FEFF 	 bl delay
 139:../cleanflight/src/main/drivers/accgyro/accgyro_spi_icm20689.c ****     spiBusWriteRegister(&gyro->bus, MPU_RA_ACCEL_CONFIG, INV_FSR_16G << 3);
 438              	 .loc 1 139 0
 439 007e 7B68     	 ldr r3,[r7,#4]
 440 0080 1033     	 adds r3,r3,#16
 441 0082 1846     	 mov r0,r3
 442 0084 1C21     	 movs r1,#28
 443 0086 1822     	 movs r2,#24
 444 0088 FFF7FEFF 	 bl spiBusWriteRegister
 140:../cleanflight/src/main/drivers/accgyro/accgyro_spi_icm20689.c ****     delay(15);
 445              	 .loc 1 140 0
 446 008c 0F20     	 movs r0,#15
 447 008e FFF7FEFF 	 bl delay
 141:../cleanflight/src/main/drivers/accgyro/accgyro_spi_icm20689.c ****     spiBusWriteRegister(&gyro->bus, MPU_RA_CONFIG, mpuGyroDLPF(gyro));
 448              	 .loc 1 141 0
 449 0092 7B68     	 ldr r3,[r7,#4]
 450 0094 03F11004 	 add r4,r3,#16
 451 0098 7868     	 ldr r0,[r7,#4]
 452 009a FFF7FEFF 	 bl mpuGyroDLPF
 453 009e 0346     	 mov r3,r0
 454 00a0 2046     	 mov r0,r4
 455 00a2 1A21     	 movs r1,#26
 456 00a4 1A46     	 mov r2,r3
 457 00a6 FFF7FEFF 	 bl spiBusWriteRegister
 142:../cleanflight/src/main/drivers/accgyro/accgyro_spi_icm20689.c ****     delay(15);
 458              	 .loc 1 142 0
 459 00aa 0F20     	 movs r0,#15
 460 00ac FFF7FEFF 	 bl delay
 143:../cleanflight/src/main/drivers/accgyro/accgyro_spi_icm20689.c ****     spiBusWriteRegister(&gyro->bus, MPU_RA_SMPLRT_DIV, gyro->mpuDividerDrops); // Get Divider Drops
 461              	 .loc 1 143 0
 462 00b0 7B68     	 ldr r3,[r7,#4]
 463 00b2 03F11002 	 add r2,r3,#16
 464 00b6 7B68     	 ldr r3,[r7,#4]
 465 00b8 93F86130 	 ldrb r3,[r3,#97]
 466 00bc 1046     	 mov r0,r2
 467 00be 1921     	 movs r1,#25
 468 00c0 1A46     	 mov r2,r3
 469 00c2 FFF7FEFF 	 bl spiBusWriteRegister
 144:../cleanflight/src/main/drivers/accgyro/accgyro_spi_icm20689.c ****     delay(100);
 470              	 .loc 1 144 0
 471 00c6 6420     	 movs r0,#100
 472 00c8 FFF7FEFF 	 bl delay
 145:../cleanflight/src/main/drivers/accgyro/accgyro_spi_icm20689.c **** 
 146:../cleanflight/src/main/drivers/accgyro/accgyro_spi_icm20689.c ****     // Data ready interrupt configuration
 147:../cleanflight/src/main/drivers/accgyro/accgyro_spi_icm20689.c **** //    spiBusWriteRegister(&gyro->bus, MPU_RA_INT_PIN_CFG, 0 << 7 | 0 << 6 | 0 << 5 | 1 << 4 | 0 << 
 148:../cleanflight/src/main/drivers/accgyro/accgyro_spi_icm20689.c ****     spiBusWriteRegister(&gyro->bus, MPU_RA_INT_PIN_CFG, 0x10);  // INT_ANYRD_2CLEAR, BYPASS_EN
 473              	 .loc 1 148 0
 474 00cc 7B68     	 ldr r3,[r7,#4]
 475 00ce 1033     	 adds r3,r3,#16
 476 00d0 1846     	 mov r0,r3
 477 00d2 3721     	 movs r1,#55
 478 00d4 1022     	 movs r2,#16
 479 00d6 FFF7FEFF 	 bl spiBusWriteRegister
 149:../cleanflight/src/main/drivers/accgyro/accgyro_spi_icm20689.c **** 
 150:../cleanflight/src/main/drivers/accgyro/accgyro_spi_icm20689.c ****     delay(15);
 480              	 .loc 1 150 0
 481 00da 0F20     	 movs r0,#15
 482 00dc FFF7FEFF 	 bl delay
 151:../cleanflight/src/main/drivers/accgyro/accgyro_spi_icm20689.c **** 
 152:../cleanflight/src/main/drivers/accgyro/accgyro_spi_icm20689.c **** #ifdef USE_MPU_DATA_READY_SIGNAL
 153:../cleanflight/src/main/drivers/accgyro/accgyro_spi_icm20689.c ****     spiBusWriteRegister(&gyro->bus, MPU_RA_INT_ENABLE, 0x01); // RAW_RDY_EN interrupt enable
 154:../cleanflight/src/main/drivers/accgyro/accgyro_spi_icm20689.c **** #endif
 155:../cleanflight/src/main/drivers/accgyro/accgyro_spi_icm20689.c **** 
 156:../cleanflight/src/main/drivers/accgyro/accgyro_spi_icm20689.c ****     spiSetDivisor(gyro->bus.busdev_u.spi.instance, SPI_CLOCK_STANDARD);
 483              	 .loc 1 156 0
 484 00e0 7B68     	 ldr r3,[r7,#4]
 485 00e2 D3F81130 	 ldr r3,[r3,#17]
 486 00e6 1846     	 mov r0,r3
 487 00e8 0421     	 movs r1,#4
 488 00ea FFF7FEFF 	 bl spiSetDivisor
 157:../cleanflight/src/main/drivers/accgyro/accgyro_spi_icm20689.c **** }
 489              	 .loc 1 157 0
 490 00ee 0C37     	 adds r7,r7,#12
 491              	.LCFI25:
 492              	 .cfi_def_cfa_offset 12
 493 00f0 BD46     	 mov sp,r7
 494              	.LCFI26:
 495              	 .cfi_def_cfa_register 13
 496              	 
 497 00f2 90BD     	 pop {r4,r7,pc}
 498              	 .cfi_endproc
 499              	.LFE539:
 501              	 .section .text.icm20689SpiGyroDetect,"ax",%progbits
 502              	 .align 2
 503              	 .global icm20689SpiGyroDetect
 504              	 .thumb
 505              	 .thumb_func
 507              	icm20689SpiGyroDetect:
 508              	.LFB540:
 158:../cleanflight/src/main/drivers/accgyro/accgyro_spi_icm20689.c **** 
 159:../cleanflight/src/main/drivers/accgyro/accgyro_spi_icm20689.c **** bool icm20689SpiGyroDetect(gyroDev_t *gyro)
 160:../cleanflight/src/main/drivers/accgyro/accgyro_spi_icm20689.c **** {
 509              	 .loc 1 160 0
 510              	 .cfi_startproc
 511              	 
 512              	 
 513              	 
 514 0000 80B4     	 push {r7}
 515              	.LCFI27:
 516              	 .cfi_def_cfa_offset 4
 517              	 .cfi_offset 7,-4
 518 0002 83B0     	 sub sp,sp,#12
 519              	.LCFI28:
 520              	 .cfi_def_cfa_offset 16
 521 0004 00AF     	 add r7,sp,#0
 522              	.LCFI29:
 523              	 .cfi_def_cfa_register 7
 524 0006 7860     	 str r0,[r7,#4]
 161:../cleanflight/src/main/drivers/accgyro/accgyro_spi_icm20689.c ****     switch (gyro->mpuDetectionResult.sensor) {
 525              	 .loc 1 161 0
 526 0008 7B68     	 ldr r3,[r7,#4]
 527 000a 93F85930 	 ldrb r3,[r3,#89]
 528 000e 072B     	 cmp r3,#7
 529 0010 03DB     	 blt .L30
 530 0012 092B     	 cmp r3,#9
 531 0014 03DD     	 ble .L34
 532 0016 0B2B     	 cmp r3,#11
 533 0018 01D0     	 beq .L34
 534              	.L30:
 162:../cleanflight/src/main/drivers/accgyro/accgyro_spi_icm20689.c ****     case ICM_20601_SPI:
 163:../cleanflight/src/main/drivers/accgyro/accgyro_spi_icm20689.c ****     case ICM_20602_SPI:
 164:../cleanflight/src/main/drivers/accgyro/accgyro_spi_icm20689.c ****     case ICM_20608_SPI:
 165:../cleanflight/src/main/drivers/accgyro/accgyro_spi_icm20689.c ****     case ICM_20689_SPI:
 166:../cleanflight/src/main/drivers/accgyro/accgyro_spi_icm20689.c ****         break;
 167:../cleanflight/src/main/drivers/accgyro/accgyro_spi_icm20689.c ****     default:
 168:../cleanflight/src/main/drivers/accgyro/accgyro_spi_icm20689.c ****         return false;
 535              	 .loc 1 168 0
 536 001a 0023     	 movs r3,#0
 537 001c 0BE0     	 b .L33
 538              	.L34:
 166:../cleanflight/src/main/drivers/accgyro/accgyro_spi_icm20689.c ****     default:
 539              	 .loc 1 166 0
 540 001e 00BF     	 nop
 169:../cleanflight/src/main/drivers/accgyro/accgyro_spi_icm20689.c ****     }
 170:../cleanflight/src/main/drivers/accgyro/accgyro_spi_icm20689.c **** 
 171:../cleanflight/src/main/drivers/accgyro/accgyro_spi_icm20689.c ****     gyro->initFn = icm20689GyroInit;
 541              	 .loc 1 171 0
 542 0020 7B68     	 ldr r3,[r7,#4]
 543 0022 084A     	 ldr r2,.L35
 544 0024 1A60     	 str r2,[r3]
 172:../cleanflight/src/main/drivers/accgyro/accgyro_spi_icm20689.c ****     gyro->readFn = mpuGyroReadSPI;
 545              	 .loc 1 172 0
 546 0026 7B68     	 ldr r3,[r7,#4]
 547 0028 074A     	 ldr r2,.L35+4
 548 002a 5A60     	 str r2,[r3,#4]
 173:../cleanflight/src/main/drivers/accgyro/accgyro_spi_icm20689.c **** 
 174:../cleanflight/src/main/drivers/accgyro/accgyro_spi_icm20689.c ****     // 16.4 dps/lsb scalefactor
 175:../cleanflight/src/main/drivers/accgyro/accgyro_spi_icm20689.c ****     gyro->scale = 1.0f / 16.4f;
 549              	 .loc 1 175 0
 550 002c 7B68     	 ldr r3,[r7,#4]
 551 002e 1933     	 adds r3,r3,#25
 552 0030 064A     	 ldr r2,.L35+8
 553 0032 1A60     	 str r2,[r3]
 176:../cleanflight/src/main/drivers/accgyro/accgyro_spi_icm20689.c **** 
 177:../cleanflight/src/main/drivers/accgyro/accgyro_spi_icm20689.c ****     return true;
 554              	 .loc 1 177 0
 555 0034 0123     	 movs r3,#1
 556              	.L33:
 178:../cleanflight/src/main/drivers/accgyro/accgyro_spi_icm20689.c **** }
 557              	 .loc 1 178 0
 558 0036 1846     	 mov r0,r3
 559 0038 0C37     	 adds r7,r7,#12
 560              	.LCFI30:
 561              	 .cfi_def_cfa_offset 4
 562 003a BD46     	 mov sp,r7
 563              	.LCFI31:
 564              	 .cfi_def_cfa_register 13
 565              	 
 566 003c 5DF8047B 	 ldr r7,[sp],#4
 567              	.LCFI32:
 568              	 .cfi_restore 7
 569              	 .cfi_def_cfa_offset 0
 570 0040 7047     	 bx lr
 571              	.L36:
 572 0042 00BF     	 .align 2
 573              	.L35:
 574 0044 00000000 	 .word icm20689GyroInit
 575 0048 00000000 	 .word mpuGyroReadSPI
 576 004c 90C1793D 	 .word 1031389584
 577              	 .cfi_endproc
 578              	.LFE540:
 580              	 .section .bss.hardwareInitialised.12647,"aw",%nobits
 583              	hardwareInitialised.12647:
 584 0000 00       	 .space 1
 585              	 .text
 586              	.Letext0:
 587              	 .file 2 "d:\\xmc\\dave-ide-4.4.2-64bit\\eclipse\\arm-gcc-49\\arm-none-eabi\\include\\machine\\_default_types.h"
 588              	 .file 3 "d:\\xmc\\dave-ide-4.4.2-64bit\\eclipse\\arm-gcc-49\\arm-none-eabi\\include\\stdint.h"
 589              	 .file 4 "D:/XMC/Projekte/Temp/CF_XMC4700/cleanflight/lib/main/XMC4000/xmc4700.h"
 590              	 .file 5 "D:/XMC/Projekte/Temp/CF_XMC4700/cleanflight/src/main/platform.h"
 591              	 .file 6 "D:/XMC/Projekte/Temp/CF_XMC4700/cleanflight/src/main/drivers/io_types.h"
 592              	 .file 7 "D:/XMC/Projekte/Temp/CF_XMC4700/cleanflight/src/main/drivers/exti.h"
 593              	 .file 8 "D:/XMC/Projekte/Temp/CF_XMC4700/cleanflight/lib/main/XMC4000/XMCLib/inc/xmc4_gpio.h"
 594              	 .file 9 "D:/XMC/Projekte/Temp/CF_XMC4700/cleanflight/src/main/drivers/bus_i2c.h"
 595              	 .file 10 "D:/XMC/Projekte/Temp/CF_XMC4700/cleanflight/src/main/drivers/bus.h"
 596              	 .file 11 "D:/XMC/Projekte/Temp/CF_XMC4700/cleanflight/src/main/drivers/sensor.h"
 597              	 .file 12 "D:/XMC/Projekte/Temp/CF_XMC4700/cleanflight/src/main/drivers/accgyro/accgyro.h"
 598              	 .file 13 "D:/XMC/Projekte/Temp/CF_XMC4700/cleanflight/src/main/drivers/accgyro/accgyro_mpu.h"
 599              	 .file 14 "D:/XMC/Projekte/Temp/CF_XMC4700/cleanflight/src/main/common/time.h"
 600              	 .file 15 "D:/XMC/Projekte/Temp/CF_XMC4700/cleanflight/src/main/sensors/gyro.h"
 601              	 .file 16 "D:/XMC/Projekte/Temp/CF_XMC4700/cleanflight/src/main/drivers/bus_spi.h"
 602              	 .file 17 "D:/XMC/Projekte/Temp/CF_XMC4700/cleanflight/src/main/drivers/resource.h"
 603              	 .file 18 "D:/XMC/Projekte/Temp/CF_XMC4700/cleanflight/lib/main/CMSIS/Core/Include/core_cm4.h"
 604              	 .file 19 "D:/XMC/Projekte/Temp/CF_XMC4700/cleanflight/lib/main/XMC4000/system_XMC4700.h"