   1              	 .syntax unified
   2              	 .cpu cortex-m4
   3              	 .eabi_attribute 27,3
   4              	 .fpu fpv4-sp-d16
   5              	 .eabi_attribute 20,1
   6              	 .eabi_attribute 21,1
   7              	 .eabi_attribute 23,3
   8              	 .eabi_attribute 24,1
   9              	 .eabi_attribute 25,1
  10              	 .eabi_attribute 26,1
  11              	 .eabi_attribute 30,6
  12              	 .eabi_attribute 34,1
  13              	 .eabi_attribute 18,4
  14              	 .thumb
  15              	 .file "cms_menu_vtx_smartaudio.c"
  16              	 .text
  17              	.Ltext0:
  18              	 .cfi_sections .debug_frame
  19              	 .comm pCurrentDisplay,4,4
  20              	 .section .text.vtxSettingsConfig,"ax",%progbits
  21              	 .align 2
  22              	 .thumb
  23              	 .thumb_func
  25              	vtxSettingsConfig:
  26              	.LFB531:
  27              	 .file 1 "D:/XMC/Projekte/Temp/CF_XMC4700/cleanflight/src/main/io/vtx.h"
   1:D:/XMC/Projekte/Temp/CF_XMC4700/cleanflight/src/main/io\vtx.h **** /*
   2:D:/XMC/Projekte/Temp/CF_XMC4700/cleanflight/src/main/io\vtx.h ****  * This file is part of Cleanflight and Betaflight.
   3:D:/XMC/Projekte/Temp/CF_XMC4700/cleanflight/src/main/io\vtx.h ****  *
   4:D:/XMC/Projekte/Temp/CF_XMC4700/cleanflight/src/main/io\vtx.h ****  * Cleanflight and Betaflight are free software. You can redistribute
   5:D:/XMC/Projekte/Temp/CF_XMC4700/cleanflight/src/main/io\vtx.h ****  * this software and/or modify this software under the terms of the
   6:D:/XMC/Projekte/Temp/CF_XMC4700/cleanflight/src/main/io\vtx.h ****  * GNU General Public License as published by the Free Software
   7:D:/XMC/Projekte/Temp/CF_XMC4700/cleanflight/src/main/io\vtx.h ****  * Foundation, either version 3 of the License, or (at your option)
   8:D:/XMC/Projekte/Temp/CF_XMC4700/cleanflight/src/main/io\vtx.h ****  * any later version.
   9:D:/XMC/Projekte/Temp/CF_XMC4700/cleanflight/src/main/io\vtx.h ****  *
  10:D:/XMC/Projekte/Temp/CF_XMC4700/cleanflight/src/main/io\vtx.h ****  * Cleanflight and Betaflight are distributed in the hope that they
  11:D:/XMC/Projekte/Temp/CF_XMC4700/cleanflight/src/main/io\vtx.h ****  * will be useful, but WITHOUT ANY WARRANTY; without even the implied
  12:D:/XMC/Projekte/Temp/CF_XMC4700/cleanflight/src/main/io\vtx.h ****  * warranty of MERCHANTABILITY or FITNESS FOR A PARTICULAR PURPOSE.
  13:D:/XMC/Projekte/Temp/CF_XMC4700/cleanflight/src/main/io\vtx.h ****  * See the GNU General Public License for more details.
  14:D:/XMC/Projekte/Temp/CF_XMC4700/cleanflight/src/main/io\vtx.h ****  *
  15:D:/XMC/Projekte/Temp/CF_XMC4700/cleanflight/src/main/io\vtx.h ****  * You should have received a copy of the GNU General Public License
  16:D:/XMC/Projekte/Temp/CF_XMC4700/cleanflight/src/main/io\vtx.h ****  * along with this software.
  17:D:/XMC/Projekte/Temp/CF_XMC4700/cleanflight/src/main/io\vtx.h ****  *
  18:D:/XMC/Projekte/Temp/CF_XMC4700/cleanflight/src/main/io\vtx.h ****  * If not, see <http://www.gnu.org/licenses/>.
  19:D:/XMC/Projekte/Temp/CF_XMC4700/cleanflight/src/main/io\vtx.h ****  */
  20:D:/XMC/Projekte/Temp/CF_XMC4700/cleanflight/src/main/io\vtx.h **** 
  21:D:/XMC/Projekte/Temp/CF_XMC4700/cleanflight/src/main/io\vtx.h **** #pragma once
  22:D:/XMC/Projekte/Temp/CF_XMC4700/cleanflight/src/main/io\vtx.h **** 
  23:D:/XMC/Projekte/Temp/CF_XMC4700/cleanflight/src/main/io\vtx.h **** #include <stdint.h>
  24:D:/XMC/Projekte/Temp/CF_XMC4700/cleanflight/src/main/io\vtx.h **** 
  25:D:/XMC/Projekte/Temp/CF_XMC4700/cleanflight/src/main/io\vtx.h **** #include "platform.h"
  26:D:/XMC/Projekte/Temp/CF_XMC4700/cleanflight/src/main/io\vtx.h **** #include "common/time.h"
  27:D:/XMC/Projekte/Temp/CF_XMC4700/cleanflight/src/main/io\vtx.h **** #include "pg/pg.h"
  28:D:/XMC/Projekte/Temp/CF_XMC4700/cleanflight/src/main/io\vtx.h **** 
  29:D:/XMC/Projekte/Temp/CF_XMC4700/cleanflight/src/main/io\vtx.h **** typedef struct vtxSettingsConfig_s {
  30:D:/XMC/Projekte/Temp/CF_XMC4700/cleanflight/src/main/io\vtx.h ****     uint8_t band;           // 1=A, 2=B, 3=E, 4=F(Airwaves/Fatshark), 5=Raceband
  31:D:/XMC/Projekte/Temp/CF_XMC4700/cleanflight/src/main/io\vtx.h ****     uint8_t channel;        // 1-8
  32:D:/XMC/Projekte/Temp/CF_XMC4700/cleanflight/src/main/io\vtx.h ****     uint8_t power;          // 0 = lowest
  33:D:/XMC/Projekte/Temp/CF_XMC4700/cleanflight/src/main/io\vtx.h ****     uint16_t freq;          // sets freq in MHz if band=0
  34:D:/XMC/Projekte/Temp/CF_XMC4700/cleanflight/src/main/io\vtx.h ****     uint16_t pitModeFreq;   // sets out-of-range pitmode frequency
  35:D:/XMC/Projekte/Temp/CF_XMC4700/cleanflight/src/main/io\vtx.h ****     uint8_t lowPowerDisarm; // min power while disarmed
  36:D:/XMC/Projekte/Temp/CF_XMC4700/cleanflight/src/main/io\vtx.h **** } vtxSettingsConfig_t;
  37:D:/XMC/Projekte/Temp/CF_XMC4700/cleanflight/src/main/io\vtx.h **** 
  38:D:/XMC/Projekte/Temp/CF_XMC4700/cleanflight/src/main/io\vtx.h **** PG_DECLARE(vtxSettingsConfig_t, vtxSettingsConfig);
  28              	 .loc 1 38 0
  29              	 .cfi_startproc
  30              	 
  31              	 
  32              	 
  33 0000 80B4     	 push {r7}
  34              	.LCFI0:
  35              	 .cfi_def_cfa_offset 4
  36              	 .cfi_offset 7,-4
  37 0002 00AF     	 add r7,sp,#0
  38              	.LCFI1:
  39              	 .cfi_def_cfa_register 7
  40              	 .loc 1 38 0
  41 0004 024B     	 ldr r3,.L3
  42 0006 1846     	 mov r0,r3
  43 0008 BD46     	 mov sp,r7
  44              	.LCFI2:
  45              	 .cfi_def_cfa_register 13
  46              	 
  47 000a 5DF8047B 	 ldr r7,[sp],#4
  48              	.LCFI3:
  49              	 .cfi_restore 7
  50              	 .cfi_def_cfa_offset 0
  51 000e 7047     	 bx lr
  52              	.L4:
  53              	 .align 2
  54              	.L3:
  55 0010 00000000 	 .word vtxSettingsConfig_System
  56              	 .cfi_endproc
  57              	.LFE531:
  59              	 .section .text.vtxSettingsConfigMutable,"ax",%progbits
  60              	 .align 2
  61              	 .thumb
  62              	 .thumb_func
  64              	vtxSettingsConfigMutable:
  65              	.LFB532:
  66              	 .loc 1 38 0
  67              	 .cfi_startproc
  68              	 
  69              	 
  70              	 
  71 0000 80B4     	 push {r7}
  72              	.LCFI4:
  73              	 .cfi_def_cfa_offset 4
  74              	 .cfi_offset 7,-4
  75 0002 00AF     	 add r7,sp,#0
  76              	.LCFI5:
  77              	 .cfi_def_cfa_register 7
  78              	 .loc 1 38 0
  79 0004 024B     	 ldr r3,.L7
  80 0006 1846     	 mov r0,r3
  81 0008 BD46     	 mov sp,r7
  82              	.LCFI6:
  83              	 .cfi_def_cfa_register 13
  84              	 
  85 000a 5DF8047B 	 ldr r7,[sp],#4
  86              	.LCFI7:
  87              	 .cfi_restore 7
  88              	 .cfi_def_cfa_offset 0
  89 000e 7047     	 bx lr
  90              	.L8:
  91              	 .align 2
  92              	.L7:
  93 0010 00000000 	 .word vtxSettingsConfig_System
  94              	 .cfi_endproc
  95              	.LFE532:
  97              	 .global saCmsOpmodel
  98              	 .section .bss.saCmsOpmodel,"aw",%nobits
 101              	saCmsOpmodel:
 102 0000 00       	 .space 1
 103              	 .comm saCmsRFState,1,1
 104              	 .global saCmsBand
 105              	 .section .bss.saCmsBand,"aw",%nobits
 108              	saCmsBand:
 109 0000 00       	 .space 1
 110              	 .global saCmsChan
 111              	 .section .bss.saCmsChan,"aw",%nobits
 114              	saCmsChan:
 115 0000 00       	 .space 1
 116              	 .global saCmsPower
 117              	 .section .bss.saCmsPower,"aw",%nobits
 120              	saCmsPower:
 121 0000 00       	 .space 1
 122              	 .global saCmsFreqRef
 123              	 .section .bss.saCmsFreqRef,"aw",%nobits
 124              	 .align 1
 127              	saCmsFreqRef:
 128 0000 0000     	 .space 2
 129              	 .global saCmsDeviceFreq
 130              	 .section .bss.saCmsDeviceFreq,"aw",%nobits
 131              	 .align 1
 134              	saCmsDeviceFreq:
 135 0000 0000     	 .space 2
 136              	 .global saCmsDeviceStatus
 137              	 .section .bss.saCmsDeviceStatus,"aw",%nobits
 140              	saCmsDeviceStatus:
 141 0000 00       	 .space 1
 142              	 .comm saCmsPitFMode,1,1
 143              	 .comm saCmsFselMode,1,1
 144              	 .comm saCmsFselModeNew,1,1
 145              	 .global saCmsORFreq
 146              	 .section .bss.saCmsORFreq,"aw",%nobits
 147              	 .align 1
 150              	saCmsORFreq:
 151 0000 0000     	 .space 2
 152              	 .comm saCmsORFreqNew,2,2
 153              	 .global saCmsUserFreq
 154              	 .section .bss.saCmsUserFreq,"aw",%nobits
 155              	 .align 1
 158              	saCmsUserFreq:
 159 0000 0000     	 .space 2
 160              	 .comm saCmsUserFreqNew,2,2
 161              	 .section .text.saCmsUpdate,"ax",%progbits
 162              	 .align 2
 163              	 .global saCmsUpdate
 164              	 .thumb
 165              	 .thumb_func
 167              	saCmsUpdate:
 168              	.LFB533:
 169              	 .file 2 "../cleanflight/src/main/cms/cms_menu_vtx_smartaudio.c"
   1:../cleanflight/src/main/cms/cms_menu_vtx_smartaudio.c **** /*
   2:../cleanflight/src/main/cms/cms_menu_vtx_smartaudio.c ****  * This file is part of Cleanflight and Betaflight.
   3:../cleanflight/src/main/cms/cms_menu_vtx_smartaudio.c ****  *
   4:../cleanflight/src/main/cms/cms_menu_vtx_smartaudio.c ****  * Cleanflight and Betaflight are free software. You can redistribute
   5:../cleanflight/src/main/cms/cms_menu_vtx_smartaudio.c ****  * this software and/or modify this software under the terms of the
   6:../cleanflight/src/main/cms/cms_menu_vtx_smartaudio.c ****  * GNU General Public License as published by the Free Software
   7:../cleanflight/src/main/cms/cms_menu_vtx_smartaudio.c ****  * Foundation, either version 3 of the License, or (at your option)
   8:../cleanflight/src/main/cms/cms_menu_vtx_smartaudio.c ****  * any later version.
   9:../cleanflight/src/main/cms/cms_menu_vtx_smartaudio.c ****  *
  10:../cleanflight/src/main/cms/cms_menu_vtx_smartaudio.c ****  * Cleanflight and Betaflight are distributed in the hope that they
  11:../cleanflight/src/main/cms/cms_menu_vtx_smartaudio.c ****  * will be useful, but WITHOUT ANY WARRANTY; without even the implied
  12:../cleanflight/src/main/cms/cms_menu_vtx_smartaudio.c ****  * warranty of MERCHANTABILITY or FITNESS FOR A PARTICULAR PURPOSE.
  13:../cleanflight/src/main/cms/cms_menu_vtx_smartaudio.c ****  * See the GNU General Public License for more details.
  14:../cleanflight/src/main/cms/cms_menu_vtx_smartaudio.c ****  *
  15:../cleanflight/src/main/cms/cms_menu_vtx_smartaudio.c ****  * You should have received a copy of the GNU General Public License
  16:../cleanflight/src/main/cms/cms_menu_vtx_smartaudio.c ****  * along with this software.
  17:../cleanflight/src/main/cms/cms_menu_vtx_smartaudio.c ****  *
  18:../cleanflight/src/main/cms/cms_menu_vtx_smartaudio.c ****  * If not, see <http://www.gnu.org/licenses/>.
  19:../cleanflight/src/main/cms/cms_menu_vtx_smartaudio.c ****  */
  20:../cleanflight/src/main/cms/cms_menu_vtx_smartaudio.c **** 
  21:../cleanflight/src/main/cms/cms_menu_vtx_smartaudio.c **** #include <stdbool.h>
  22:../cleanflight/src/main/cms/cms_menu_vtx_smartaudio.c **** #include <stdint.h>
  23:../cleanflight/src/main/cms/cms_menu_vtx_smartaudio.c **** #include <ctype.h>
  24:../cleanflight/src/main/cms/cms_menu_vtx_smartaudio.c **** #include <string.h>
  25:../cleanflight/src/main/cms/cms_menu_vtx_smartaudio.c **** 
  26:../cleanflight/src/main/cms/cms_menu_vtx_smartaudio.c **** #include "platform.h"
  27:../cleanflight/src/main/cms/cms_menu_vtx_smartaudio.c **** 
  28:../cleanflight/src/main/cms/cms_menu_vtx_smartaudio.c **** #if defined(USE_CMS) && defined(USE_VTX_SMARTAUDIO)
  29:../cleanflight/src/main/cms/cms_menu_vtx_smartaudio.c **** 
  30:../cleanflight/src/main/cms/cms_menu_vtx_smartaudio.c **** #include "common/printf.h"
  31:../cleanflight/src/main/cms/cms_menu_vtx_smartaudio.c **** #include "common/utils.h"
  32:../cleanflight/src/main/cms/cms_menu_vtx_smartaudio.c **** 
  33:../cleanflight/src/main/cms/cms_menu_vtx_smartaudio.c **** #include "cms/cms.h"
  34:../cleanflight/src/main/cms/cms_menu_vtx_smartaudio.c **** #include "cms/cms_types.h"
  35:../cleanflight/src/main/cms/cms_menu_vtx_smartaudio.c **** #include "cms/cms_menu_vtx_smartaudio.h"
  36:../cleanflight/src/main/cms/cms_menu_vtx_smartaudio.c **** 
  37:../cleanflight/src/main/cms/cms_menu_vtx_smartaudio.c **** #include "drivers/vtx_common.h"
  38:../cleanflight/src/main/cms/cms_menu_vtx_smartaudio.c **** 
  39:../cleanflight/src/main/cms/cms_menu_vtx_smartaudio.c **** #include "fc/config.h"
  40:../cleanflight/src/main/cms/cms_menu_vtx_smartaudio.c **** 
  41:../cleanflight/src/main/cms/cms_menu_vtx_smartaudio.c **** #include "io/vtx_string.h"
  42:../cleanflight/src/main/cms/cms_menu_vtx_smartaudio.c **** #include "io/vtx_smartaudio.h"
  43:../cleanflight/src/main/cms/cms_menu_vtx_smartaudio.c **** #include "io/vtx.h"
  44:../cleanflight/src/main/cms/cms_menu_vtx_smartaudio.c **** 
  45:../cleanflight/src/main/cms/cms_menu_vtx_smartaudio.c **** // Interface to CMS
  46:../cleanflight/src/main/cms/cms_menu_vtx_smartaudio.c **** 
  47:../cleanflight/src/main/cms/cms_menu_vtx_smartaudio.c **** // Operational Model and RF modes (CMS)
  48:../cleanflight/src/main/cms/cms_menu_vtx_smartaudio.c **** 
  49:../cleanflight/src/main/cms/cms_menu_vtx_smartaudio.c **** #define SACMS_OPMODEL_UNDEF        0 // Not known yet
  50:../cleanflight/src/main/cms/cms_menu_vtx_smartaudio.c **** #define SACMS_OPMODEL_FREE         1 // Freestyle model: Power up transmitting
  51:../cleanflight/src/main/cms/cms_menu_vtx_smartaudio.c **** #define SACMS_OPMODEL_RACE         2 // Race model: Power up in pit mode
  52:../cleanflight/src/main/cms/cms_menu_vtx_smartaudio.c **** 
  53:../cleanflight/src/main/cms/cms_menu_vtx_smartaudio.c **** uint8_t  saCmsOpmodel = SACMS_OPMODEL_UNDEF;
  54:../cleanflight/src/main/cms/cms_menu_vtx_smartaudio.c **** 
  55:../cleanflight/src/main/cms/cms_menu_vtx_smartaudio.c **** #define SACMS_TXMODE_NODEF         0
  56:../cleanflight/src/main/cms/cms_menu_vtx_smartaudio.c **** #define SACMS_TXMODE_PIT_OUTRANGE  1
  57:../cleanflight/src/main/cms/cms_menu_vtx_smartaudio.c **** #define SACMS_TXMODE_PIT_INRANGE   2
  58:../cleanflight/src/main/cms/cms_menu_vtx_smartaudio.c **** #define SACMS_TXMODE_ACTIVE        3
  59:../cleanflight/src/main/cms/cms_menu_vtx_smartaudio.c **** 
  60:../cleanflight/src/main/cms/cms_menu_vtx_smartaudio.c **** uint8_t  saCmsRFState;          // RF state; ACTIVE, PIR, POR XXX Not currently used
  61:../cleanflight/src/main/cms/cms_menu_vtx_smartaudio.c **** 
  62:../cleanflight/src/main/cms/cms_menu_vtx_smartaudio.c **** uint8_t  saCmsBand = 0;
  63:../cleanflight/src/main/cms/cms_menu_vtx_smartaudio.c **** uint8_t  saCmsChan = 0;
  64:../cleanflight/src/main/cms/cms_menu_vtx_smartaudio.c **** uint8_t  saCmsPower = 0;
  65:../cleanflight/src/main/cms/cms_menu_vtx_smartaudio.c **** 
  66:../cleanflight/src/main/cms/cms_menu_vtx_smartaudio.c **** // Frequency derived from channel table (used for reference in band/channel mode)
  67:../cleanflight/src/main/cms/cms_menu_vtx_smartaudio.c **** uint16_t saCmsFreqRef = 0;
  68:../cleanflight/src/main/cms/cms_menu_vtx_smartaudio.c **** 
  69:../cleanflight/src/main/cms/cms_menu_vtx_smartaudio.c **** uint16_t saCmsDeviceFreq = 0;
  70:../cleanflight/src/main/cms/cms_menu_vtx_smartaudio.c **** 
  71:../cleanflight/src/main/cms/cms_menu_vtx_smartaudio.c **** uint8_t  saCmsDeviceStatus = 0;
  72:../cleanflight/src/main/cms/cms_menu_vtx_smartaudio.c **** uint8_t  saCmsPower;
  73:../cleanflight/src/main/cms/cms_menu_vtx_smartaudio.c **** uint8_t  saCmsPitFMode;          // Undef(0), In-Range(1) or Out-Range(2)
  74:../cleanflight/src/main/cms/cms_menu_vtx_smartaudio.c **** 
  75:../cleanflight/src/main/cms/cms_menu_vtx_smartaudio.c **** uint8_t  saCmsFselMode;          // Channel(0) or User defined(1)
  76:../cleanflight/src/main/cms/cms_menu_vtx_smartaudio.c **** uint8_t  saCmsFselModeNew;       // Channel(0) or User defined(1)
  77:../cleanflight/src/main/cms/cms_menu_vtx_smartaudio.c **** 
  78:../cleanflight/src/main/cms/cms_menu_vtx_smartaudio.c **** uint16_t saCmsORFreq = 0;       // POR frequency
  79:../cleanflight/src/main/cms/cms_menu_vtx_smartaudio.c **** uint16_t saCmsORFreqNew;        // POR frequency
  80:../cleanflight/src/main/cms/cms_menu_vtx_smartaudio.c **** 
  81:../cleanflight/src/main/cms/cms_menu_vtx_smartaudio.c **** uint16_t saCmsUserFreq = 0;     // User defined frequency
  82:../cleanflight/src/main/cms/cms_menu_vtx_smartaudio.c **** uint16_t saCmsUserFreqNew;      // User defined frequency
  83:../cleanflight/src/main/cms/cms_menu_vtx_smartaudio.c **** 
  84:../cleanflight/src/main/cms/cms_menu_vtx_smartaudio.c **** void saCmsUpdate(void)
  85:../cleanflight/src/main/cms/cms_menu_vtx_smartaudio.c **** {
 170              	 .loc 2 85 0
 171              	 .cfi_startproc
 172              	 
 173              	 
 174 0000 80B5     	 push {r7,lr}
 175              	.LCFI8:
 176              	 .cfi_def_cfa_offset 8
 177              	 .cfi_offset 7,-8
 178              	 .cfi_offset 14,-4
 179 0002 00AF     	 add r7,sp,#0
 180              	.LCFI9:
 181              	 .cfi_def_cfa_register 7
  86:../cleanflight/src/main/cms/cms_menu_vtx_smartaudio.c **** // XXX Take care of pit mode update somewhere???
  87:../cleanflight/src/main/cms/cms_menu_vtx_smartaudio.c ****     if (saCmsOpmodel == SACMS_OPMODEL_UNDEF) {
 182              	 .loc 2 87 0
 183 0004 374B     	 ldr r3,.L17
 184 0006 1B78     	 ldrb r3,[r3]
 185 0008 002B     	 cmp r3,#0
 186 000a 67D1     	 bne .L10
  88:../cleanflight/src/main/cms/cms_menu_vtx_smartaudio.c ****         // This is a first valid response to GET_SETTINGS.
  89:../cleanflight/src/main/cms/cms_menu_vtx_smartaudio.c ****         saCmsOpmodel = (saDevice.mode & SA_MODE_GET_PITMODE) ? SACMS_OPMODEL_RACE : SACMS_OPMODEL_F
 187              	 .loc 2 89 0
 188 000c 364B     	 ldr r3,.L17+4
 189 000e DB78     	 ldrb r3,[r3,#3]
 190 0010 DBB2     	 uxtb r3,r3
 191 0012 03F00203 	 and r3,r3,#2
 192 0016 002B     	 cmp r3,#0
 193 0018 01D0     	 beq .L11
 194              	 .loc 2 89 0 is_stmt 0 discriminator 1
 195 001a 0222     	 movs r2,#2
 196 001c 00E0     	 b .L12
 197              	.L11:
 198              	 .loc 2 89 0 discriminator 2
 199 001e 0122     	 movs r2,#1
 200              	.L12:
 201              	 .loc 2 89 0 discriminator 4
 202 0020 304B     	 ldr r3,.L17
 203 0022 1A70     	 strb r2,[r3]
  90:../cleanflight/src/main/cms/cms_menu_vtx_smartaudio.c **** 
  91:../cleanflight/src/main/cms/cms_menu_vtx_smartaudio.c ****         saCmsFselMode = (saDevice.mode & SA_MODE_GET_FREQ_BY_FREQ) ? 1 : 0;
 204              	 .loc 2 91 0 is_stmt 1 discriminator 4
 205 0024 304B     	 ldr r3,.L17+4
 206 0026 DB78     	 ldrb r3,[r3,#3]
 207 0028 DBB2     	 uxtb r3,r3
 208 002a 03F00103 	 and r3,r3,#1
 209 002e 002B     	 cmp r3,#0
 210 0030 14BF     	 ite ne
 211 0032 0123     	 movne r3,#1
 212 0034 0023     	 moveq r3,#0
 213 0036 DBB2     	 uxtb r3,r3
 214 0038 1A46     	 mov r2,r3
 215 003a 2C4B     	 ldr r3,.L17+8
 216 003c 1A70     	 strb r2,[r3]
  92:../cleanflight/src/main/cms/cms_menu_vtx_smartaudio.c **** 
  93:../cleanflight/src/main/cms/cms_menu_vtx_smartaudio.c ****         saCmsBand = vtxSettingsConfig()->band;
 217              	 .loc 2 93 0 discriminator 4
 218 003e FFF7FEFF 	 bl vtxSettingsConfig
 219 0042 0346     	 mov r3,r0
 220 0044 1A78     	 ldrb r2,[r3]
 221 0046 2A4B     	 ldr r3,.L17+12
 222 0048 1A70     	 strb r2,[r3]
  94:../cleanflight/src/main/cms/cms_menu_vtx_smartaudio.c ****         saCmsChan = vtxSettingsConfig()->channel;
 223              	 .loc 2 94 0 discriminator 4
 224 004a FFF7FEFF 	 bl vtxSettingsConfig
 225 004e 0346     	 mov r3,r0
 226 0050 5A78     	 ldrb r2,[r3,#1]
 227 0052 284B     	 ldr r3,.L17+16
 228 0054 1A70     	 strb r2,[r3]
  95:../cleanflight/src/main/cms/cms_menu_vtx_smartaudio.c ****         saCmsFreqRef = vtxSettingsConfig()->freq;
 229              	 .loc 2 95 0 discriminator 4
 230 0056 FFF7FEFF 	 bl vtxSettingsConfig
 231 005a 0346     	 mov r3,r0
 232 005c B3F80330 	 ldrh r3,[r3,#3]
 233 0060 9AB2     	 uxth r2,r3
 234 0062 254B     	 ldr r3,.L17+20
 235 0064 1A80     	 strh r2,[r3]
  96:../cleanflight/src/main/cms/cms_menu_vtx_smartaudio.c ****         saCmsDeviceFreq = saCmsFreqRef;
 236              	 .loc 2 96 0 discriminator 4
 237 0066 244B     	 ldr r3,.L17+20
 238 0068 1A88     	 ldrh r2,[r3]
 239 006a 244B     	 ldr r3,.L17+24
 240 006c 1A80     	 strh r2,[r3]
  97:../cleanflight/src/main/cms/cms_menu_vtx_smartaudio.c **** 
  98:../cleanflight/src/main/cms/cms_menu_vtx_smartaudio.c ****         if ((saDevice.mode & SA_MODE_GET_PITMODE) == 0) {
 241              	 .loc 2 98 0 discriminator 4
 242 006e 1E4B     	 ldr r3,.L17+4
 243 0070 DB78     	 ldrb r3,[r3,#3]
 244 0072 DBB2     	 uxtb r3,r3
 245 0074 03F00203 	 and r3,r3,#2
 246 0078 002B     	 cmp r3,#0
 247 007a 03D1     	 bne .L13
  99:../cleanflight/src/main/cms/cms_menu_vtx_smartaudio.c ****             saCmsRFState = SACMS_TXMODE_ACTIVE;
 248              	 .loc 2 99 0
 249 007c 204B     	 ldr r3,.L17+28
 250 007e 0322     	 movs r2,#3
 251 0080 1A70     	 strb r2,[r3]
 252 0082 0DE0     	 b .L14
 253              	.L13:
 100:../cleanflight/src/main/cms/cms_menu_vtx_smartaudio.c ****         } else if (saDevice.mode & SA_MODE_GET_IN_RANGE_PITMODE) {
 254              	 .loc 2 100 0
 255 0084 184B     	 ldr r3,.L17+4
 256 0086 DB78     	 ldrb r3,[r3,#3]
 257 0088 DBB2     	 uxtb r3,r3
 258 008a 03F00403 	 and r3,r3,#4
 259 008e 002B     	 cmp r3,#0
 260 0090 03D0     	 beq .L15
 101:../cleanflight/src/main/cms/cms_menu_vtx_smartaudio.c ****             saCmsRFState = SACMS_TXMODE_PIT_INRANGE;
 261              	 .loc 2 101 0
 262 0092 1B4B     	 ldr r3,.L17+28
 263 0094 0222     	 movs r2,#2
 264 0096 1A70     	 strb r2,[r3]
 265 0098 02E0     	 b .L14
 266              	.L15:
 102:../cleanflight/src/main/cms/cms_menu_vtx_smartaudio.c ****         } else {
 103:../cleanflight/src/main/cms/cms_menu_vtx_smartaudio.c ****             saCmsRFState = SACMS_TXMODE_PIT_OUTRANGE;
 267              	 .loc 2 103 0
 268 009a 194B     	 ldr r3,.L17+28
 269 009c 0122     	 movs r2,#1
 270 009e 1A70     	 strb r2,[r3]
 271              	.L14:
 104:../cleanflight/src/main/cms/cms_menu_vtx_smartaudio.c ****         }
 105:../cleanflight/src/main/cms/cms_menu_vtx_smartaudio.c **** 
 106:../cleanflight/src/main/cms/cms_menu_vtx_smartaudio.c ****         saCmsPower = vtxSettingsConfig()->power;
 272              	 .loc 2 106 0
 273 00a0 FFF7FEFF 	 bl vtxSettingsConfig
 274 00a4 0346     	 mov r3,r0
 275 00a6 9A78     	 ldrb r2,[r3,#2]
 276 00a8 164B     	 ldr r3,.L17+32
 277 00aa 1A70     	 strb r2,[r3]
 107:../cleanflight/src/main/cms/cms_menu_vtx_smartaudio.c **** 
 108:../cleanflight/src/main/cms/cms_menu_vtx_smartaudio.c ****         // if user-freq mode then track possible change
 109:../cleanflight/src/main/cms/cms_menu_vtx_smartaudio.c ****         if (saCmsFselMode && vtxSettingsConfig()->freq) {
 278              	 .loc 2 109 0
 279 00ac 0F4B     	 ldr r3,.L17+8
 280 00ae 1B78     	 ldrb r3,[r3]
 281 00b0 002B     	 cmp r3,#0
 282 00b2 0FD0     	 beq .L16
 283              	 .loc 2 109 0 is_stmt 0 discriminator 1
 284 00b4 FFF7FEFF 	 bl vtxSettingsConfig
 285 00b8 0346     	 mov r3,r0
 286 00ba B3F80330 	 ldrh r3,[r3,#3]
 287 00be 9BB2     	 uxth r3,r3
 288 00c0 002B     	 cmp r3,#0
 289 00c2 07D0     	 beq .L16
 110:../cleanflight/src/main/cms/cms_menu_vtx_smartaudio.c ****             saCmsUserFreq = vtxSettingsConfig()->freq;
 290              	 .loc 2 110 0 is_stmt 1
 291 00c4 FFF7FEFF 	 bl vtxSettingsConfig
 292 00c8 0346     	 mov r3,r0
 293 00ca B3F80330 	 ldrh r3,[r3,#3]
 294 00ce 9AB2     	 uxth r2,r3
 295 00d0 0D4B     	 ldr r3,.L17+36
 296 00d2 1A80     	 strh r2,[r3]
 297              	.L16:
 111:../cleanflight/src/main/cms/cms_menu_vtx_smartaudio.c ****         }
 112:../cleanflight/src/main/cms/cms_menu_vtx_smartaudio.c **** 
 113:../cleanflight/src/main/cms/cms_menu_vtx_smartaudio.c ****         saCmsFselModeNew = saCmsFselMode;   //init mode for menu
 298              	 .loc 2 113 0
 299 00d4 054B     	 ldr r3,.L17+8
 300 00d6 1A78     	 ldrb r2,[r3]
 301 00d8 0C4B     	 ldr r3,.L17+40
 302 00da 1A70     	 strb r2,[r3]
 303              	.L10:
 114:../cleanflight/src/main/cms/cms_menu_vtx_smartaudio.c ****     }
 115:../cleanflight/src/main/cms/cms_menu_vtx_smartaudio.c **** 
 116:../cleanflight/src/main/cms/cms_menu_vtx_smartaudio.c ****     saUpdateStatusString();
 304              	 .loc 2 116 0
 305 00dc FFF7FEFF 	 bl saUpdateStatusString
 117:../cleanflight/src/main/cms/cms_menu_vtx_smartaudio.c **** }
 306              	 .loc 2 117 0
 307 00e0 80BD     	 pop {r7,pc}
 308              	.L18:
 309 00e2 00BF     	 .align 2
 310              	.L17:
 311 00e4 00000000 	 .word saCmsOpmodel
 312 00e8 00000000 	 .word saDevice
 313 00ec 00000000 	 .word saCmsFselMode
 314 00f0 00000000 	 .word saCmsBand
 315 00f4 00000000 	 .word saCmsChan
 316 00f8 00000000 	 .word saCmsFreqRef
 317 00fc 00000000 	 .word saCmsDeviceFreq
 318 0100 00000000 	 .word saCmsRFState
 319 0104 00000000 	 .word saCmsPower
 320 0108 00000000 	 .word saCmsUserFreq
 321 010c 00000000 	 .word saCmsFselModeNew
 322              	 .cfi_endproc
 323              	.LFE533:
 325              	 .global saCmsStatusString
 326              	 .section .data.saCmsStatusString,"aw",%progbits
 327              	 .align 2
 330              	saCmsStatusString:
 331 0000 2D202D2D 	 .ascii "- -- ---- ---\000"
 331      202D2D2D 
 331      2D202D2D 
 331      2D00
 332 000e 00000000 	 .space 17
 332      00000000 
 332      00000000 
 332      00000000 
 332      00
 333 001f 00       	 .section .rodata
 334              	 .align 2
 335              	.LC2:
 336 0000 25346400 	 .ascii "%4d\000"
 337              	 .align 2
 338              	.LC3:
 339 0004 25336400 	 .ascii "%3d\000"
 340              	 .align 2
 341              	.LC0:
 342 0008 2D465200 	 .ascii "-FR\000"
 343              	 .align 2
 344              	.LC1:
 345 000c 41424546 	 .ascii "ABEFR\000"
 345      5200
 346              	 .section .text.saUpdateStatusString,"ax",%progbits
 347              	 .align 2
 348              	 .global saUpdateStatusString
 349              	 .thumb
 350              	 .thumb_func
 352              	saUpdateStatusString:
 353              	.LFB534:
 118:../cleanflight/src/main/cms/cms_menu_vtx_smartaudio.c **** 
 119:../cleanflight/src/main/cms/cms_menu_vtx_smartaudio.c **** char saCmsStatusString[31] = "- -- ---- ---";
 120:../cleanflight/src/main/cms/cms_menu_vtx_smartaudio.c **** //                            m bc ffff ppp
 121:../cleanflight/src/main/cms/cms_menu_vtx_smartaudio.c **** //                            0123456789012
 122:../cleanflight/src/main/cms/cms_menu_vtx_smartaudio.c **** 
 123:../cleanflight/src/main/cms/cms_menu_vtx_smartaudio.c **** static long saCmsConfigOpmodelByGvar(displayPort_t *, const void *self);
 124:../cleanflight/src/main/cms/cms_menu_vtx_smartaudio.c **** static long saCmsConfigPitFModeByGvar(displayPort_t *, const void *self);
 125:../cleanflight/src/main/cms/cms_menu_vtx_smartaudio.c **** static long saCmsConfigBandByGvar(displayPort_t *, const void *self);
 126:../cleanflight/src/main/cms/cms_menu_vtx_smartaudio.c **** static long saCmsConfigChanByGvar(displayPort_t *, const void *self);
 127:../cleanflight/src/main/cms/cms_menu_vtx_smartaudio.c **** static long saCmsConfigPowerByGvar(displayPort_t *, const void *self);
 128:../cleanflight/src/main/cms/cms_menu_vtx_smartaudio.c **** 
 129:../cleanflight/src/main/cms/cms_menu_vtx_smartaudio.c **** void saUpdateStatusString(void)
 130:../cleanflight/src/main/cms/cms_menu_vtx_smartaudio.c **** {
 354              	 .loc 2 130 0
 355              	 .cfi_startproc
 356              	 
 357              	 
 358 0000 80B5     	 push {r7,lr}
 359              	.LCFI10:
 360              	 .cfi_def_cfa_offset 8
 361              	 .cfi_offset 7,-8
 362              	 .cfi_offset 14,-4
 363 0002 00AF     	 add r7,sp,#0
 364              	.LCFI11:
 365              	 .cfi_def_cfa_register 7
 131:../cleanflight/src/main/cms/cms_menu_vtx_smartaudio.c ****     if (saDevice.version == 0)
 366              	 .loc 2 131 0
 367 0004 7A4B     	 ldr r3,.L41
 368 0006 1B78     	 ldrb r3,[r3]
 369 0008 002B     	 cmp r3,#0
 370 000a 00D1     	 bne .L20
 132:../cleanflight/src/main/cms/cms_menu_vtx_smartaudio.c ****         return;
 371              	 .loc 2 132 0
 372 000c EFE0     	 b .L19
 373              	.L20:
 133:../cleanflight/src/main/cms/cms_menu_vtx_smartaudio.c **** 
 134:../cleanflight/src/main/cms/cms_menu_vtx_smartaudio.c **** // XXX These should be done somewhere else
 135:../cleanflight/src/main/cms/cms_menu_vtx_smartaudio.c **** if (saCmsDeviceStatus == 0 && saDevice.version != 0)
 374              	 .loc 2 135 0
 375 000e 794B     	 ldr r3,.L41+4
 376 0010 1B78     	 ldrb r3,[r3]
 377 0012 002B     	 cmp r3,#0
 378 0014 08D1     	 bne .L22
 379              	 .loc 2 135 0 is_stmt 0 discriminator 1
 380 0016 764B     	 ldr r3,.L41
 381 0018 1B78     	 ldrb r3,[r3]
 382 001a 002B     	 cmp r3,#0
 383 001c 04D0     	 beq .L22
 136:../cleanflight/src/main/cms/cms_menu_vtx_smartaudio.c ****     saCmsDeviceStatus = saDevice.version;
 384              	 .loc 2 136 0 is_stmt 1
 385 001e 744B     	 ldr r3,.L41
 386 0020 1B78     	 ldrb r3,[r3]
 387 0022 DAB2     	 uxtb r2,r3
 388 0024 734B     	 ldr r3,.L41+4
 389 0026 1A70     	 strb r2,[r3]
 390              	.L22:
 137:../cleanflight/src/main/cms/cms_menu_vtx_smartaudio.c **** if (saCmsORFreq == 0 && saDevice.orfreq != 0)
 391              	 .loc 2 137 0
 392 0028 734B     	 ldr r3,.L41+8
 393 002a 1B88     	 ldrh r3,[r3]
 394 002c 002B     	 cmp r3,#0
 395 002e 09D1     	 bne .L23
 396              	 .loc 2 137 0 is_stmt 0 discriminator 1
 397 0030 6F4B     	 ldr r3,.L41
 398 0032 DB88     	 ldrh r3,[r3,#6]
 399 0034 9BB2     	 uxth r3,r3
 400 0036 002B     	 cmp r3,#0
 401 0038 04D0     	 beq .L23
 138:../cleanflight/src/main/cms/cms_menu_vtx_smartaudio.c ****     saCmsORFreq = saDevice.orfreq;
 402              	 .loc 2 138 0 is_stmt 1
 403 003a 6D4B     	 ldr r3,.L41
 404 003c DB88     	 ldrh r3,[r3,#6]
 405 003e 9AB2     	 uxth r2,r3
 406 0040 6D4B     	 ldr r3,.L41+8
 407 0042 1A80     	 strh r2,[r3]
 408              	.L23:
 139:../cleanflight/src/main/cms/cms_menu_vtx_smartaudio.c **** if (saCmsUserFreq == 0 && saDevice.freq != 0)
 409              	 .loc 2 139 0
 410 0044 6D4B     	 ldr r3,.L41+12
 411 0046 1B88     	 ldrh r3,[r3]
 412 0048 002B     	 cmp r3,#0
 413 004a 09D1     	 bne .L24
 414              	 .loc 2 139 0 is_stmt 0 discriminator 1
 415 004c 684B     	 ldr r3,.L41
 416 004e 9B88     	 ldrh r3,[r3,#4]
 417 0050 9BB2     	 uxth r3,r3
 418 0052 002B     	 cmp r3,#0
 419 0054 04D0     	 beq .L24
 140:../cleanflight/src/main/cms/cms_menu_vtx_smartaudio.c ****     saCmsUserFreq = saDevice.freq;
 420              	 .loc 2 140 0 is_stmt 1
 421 0056 664B     	 ldr r3,.L41
 422 0058 9B88     	 ldrh r3,[r3,#4]
 423 005a 9AB2     	 uxth r2,r3
 424 005c 674B     	 ldr r3,.L41+12
 425 005e 1A80     	 strh r2,[r3]
 426              	.L24:
 141:../cleanflight/src/main/cms/cms_menu_vtx_smartaudio.c **** 
 142:../cleanflight/src/main/cms/cms_menu_vtx_smartaudio.c **** if (saDevice.version == 2) {
 427              	 .loc 2 142 0
 428 0060 634B     	 ldr r3,.L41
 429 0062 1B78     	 ldrb r3,[r3]
 430 0064 5BB2     	 sxtb r3,r3
 431 0066 022B     	 cmp r3,#2
 432 0068 0DD1     	 bne .L25
 143:../cleanflight/src/main/cms/cms_menu_vtx_smartaudio.c ****     if (saDevice.mode & SA_MODE_GET_OUT_RANGE_PITMODE)
 433              	 .loc 2 143 0
 434 006a 614B     	 ldr r3,.L41
 435 006c DB78     	 ldrb r3,[r3,#3]
 436 006e DBB2     	 uxtb r3,r3
 437 0070 03F00803 	 and r3,r3,#8
 438 0074 002B     	 cmp r3,#0
 439 0076 03D0     	 beq .L26
 144:../cleanflight/src/main/cms/cms_menu_vtx_smartaudio.c ****         saCmsPitFMode = 1;
 440              	 .loc 2 144 0
 441 0078 614B     	 ldr r3,.L41+16
 442 007a 0122     	 movs r2,#1
 443 007c 1A70     	 strb r2,[r3]
 444 007e 02E0     	 b .L25
 445              	.L26:
 145:../cleanflight/src/main/cms/cms_menu_vtx_smartaudio.c ****     else
 146:../cleanflight/src/main/cms/cms_menu_vtx_smartaudio.c ****         saCmsPitFMode = 0;
 446              	 .loc 2 146 0
 447 0080 5F4B     	 ldr r3,.L41+16
 448 0082 0022     	 movs r2,#0
 449 0084 1A70     	 strb r2,[r3]
 450              	.L25:
 147:../cleanflight/src/main/cms/cms_menu_vtx_smartaudio.c **** }
 148:../cleanflight/src/main/cms/cms_menu_vtx_smartaudio.c **** 
 149:../cleanflight/src/main/cms/cms_menu_vtx_smartaudio.c ****     saCmsStatusString[0] = "-FR"[saCmsOpmodel];
 451              	 .loc 2 149 0
 452 0086 5F4B     	 ldr r3,.L41+20
 453 0088 1B78     	 ldrb r3,[r3]
 454 008a 1A46     	 mov r2,r3
 455 008c 5E4B     	 ldr r3,.L41+24
 456 008e 9A5C     	 ldrb r2,[r3,r2]
 457 0090 5E4B     	 ldr r3,.L41+28
 458 0092 1A70     	 strb r2,[r3]
 150:../cleanflight/src/main/cms/cms_menu_vtx_smartaudio.c **** 
 151:../cleanflight/src/main/cms/cms_menu_vtx_smartaudio.c ****     if (saCmsFselMode == 0) {
 459              	 .loc 2 151 0
 460 0094 5E4B     	 ldr r3,.L41+32
 461 0096 1B78     	 ldrb r3,[r3]
 462 0098 002B     	 cmp r3,#0
 463 009a 1ED1     	 bne .L27
 152:../cleanflight/src/main/cms/cms_menu_vtx_smartaudio.c ****         saCmsStatusString[2] = "ABEFR"[saDevice.channel / 8];
 464              	 .loc 2 152 0
 465 009c 544B     	 ldr r3,.L41
 466 009e 5B78     	 ldrb r3,[r3,#1]
 467 00a0 5BB2     	 sxtb r3,r3
 468 00a2 002B     	 cmp r3,#0
 469 00a4 00DA     	 bge .L28
 470 00a6 0733     	 adds r3,r3,#7
 471              	.L28:
 472 00a8 DB10     	 asrs r3,r3,#3
 473 00aa DBB2     	 uxtb r3,r3
 474 00ac 5BB2     	 sxtb r3,r3
 475 00ae 594A     	 ldr r2,.L41+36
 476 00b0 D25C     	 ldrb r2,[r2,r3]
 477 00b2 564B     	 ldr r3,.L41+28
 478 00b4 9A70     	 strb r2,[r3,#2]
 153:../cleanflight/src/main/cms/cms_menu_vtx_smartaudio.c ****         saCmsStatusString[3] = '1' + (saDevice.channel % 8);
 479              	 .loc 2 153 0
 480 00b6 4E4B     	 ldr r3,.L41
 481 00b8 5B78     	 ldrb r3,[r3,#1]
 482 00ba 5AB2     	 sxtb r2,r3
 483 00bc 564B     	 ldr r3,.L41+40
 484 00be 1340     	 ands r3,r3,r2
 485 00c0 002B     	 cmp r3,#0
 486 00c2 03DA     	 bge .L29
 487 00c4 013B     	 subs r3,r3,#1
 488 00c6 63F00703 	 orn r3,r3,#7
 489 00ca 0133     	 adds r3,r3,#1
 490              	.L29:
 491 00cc DBB2     	 uxtb r3,r3
 492 00ce DBB2     	 uxtb r3,r3
 493 00d0 3133     	 adds r3,r3,#49
 494 00d2 DAB2     	 uxtb r2,r3
 495 00d4 4D4B     	 ldr r3,.L41+28
 496 00d6 DA70     	 strb r2,[r3,#3]
 497 00d8 05E0     	 b .L30
 498              	.L27:
 154:../cleanflight/src/main/cms/cms_menu_vtx_smartaudio.c ****     } else {
 155:../cleanflight/src/main/cms/cms_menu_vtx_smartaudio.c ****         saCmsStatusString[2] = 'U';
 499              	 .loc 2 155 0
 500 00da 4C4B     	 ldr r3,.L41+28
 501 00dc 5522     	 movs r2,#85
 502 00de 9A70     	 strb r2,[r3,#2]
 156:../cleanflight/src/main/cms/cms_menu_vtx_smartaudio.c ****         saCmsStatusString[3] = 'F';
 503              	 .loc 2 156 0
 504 00e0 4A4B     	 ldr r3,.L41+28
 505 00e2 4622     	 movs r2,#70
 506 00e4 DA70     	 strb r2,[r3,#3]
 507              	.L30:
 157:../cleanflight/src/main/cms/cms_menu_vtx_smartaudio.c ****     }
 158:../cleanflight/src/main/cms/cms_menu_vtx_smartaudio.c **** 
 159:../cleanflight/src/main/cms/cms_menu_vtx_smartaudio.c ****     if ((saDevice.mode & SA_MODE_GET_PITMODE)
 508              	 .loc 2 159 0
 509 00e6 424B     	 ldr r3,.L41
 510 00e8 DB78     	 ldrb r3,[r3,#3]
 511 00ea DBB2     	 uxtb r3,r3
 512 00ec 03F00203 	 and r3,r3,#2
 513 00f0 002B     	 cmp r3,#0
 514 00f2 0FD0     	 beq .L31
 160:../cleanflight/src/main/cms/cms_menu_vtx_smartaudio.c ****        && (saDevice.mode & SA_MODE_GET_OUT_RANGE_PITMODE))
 515              	 .loc 2 160 0
 516 00f4 3E4B     	 ldr r3,.L41
 517 00f6 DB78     	 ldrb r3,[r3,#3]
 518 00f8 DBB2     	 uxtb r3,r3
 519 00fa 03F00803 	 and r3,r3,#8
 520 00fe 002B     	 cmp r3,#0
 521 0100 08D0     	 beq .L31
 161:../cleanflight/src/main/cms/cms_menu_vtx_smartaudio.c ****         tfp_sprintf(&saCmsStatusString[5], "%4d", saDevice.orfreq);
 522              	 .loc 2 161 0
 523 0102 3B4B     	 ldr r3,.L41
 524 0104 DB88     	 ldrh r3,[r3,#6]
 525 0106 9BB2     	 uxth r3,r3
 526 0108 4448     	 ldr r0,.L41+44
 527 010a 4549     	 ldr r1,.L41+48
 528 010c 1A46     	 mov r2,r3
 529 010e FFF7FEFF 	 bl tfp_sprintf
 530 0112 2FE0     	 b .L32
 531              	.L31:
 162:../cleanflight/src/main/cms/cms_menu_vtx_smartaudio.c ****     else if (saDevice.mode & SA_MODE_GET_FREQ_BY_FREQ)
 532              	 .loc 2 162 0
 533 0114 364B     	 ldr r3,.L41
 534 0116 DB78     	 ldrb r3,[r3,#3]
 535 0118 DBB2     	 uxtb r3,r3
 536 011a 03F00103 	 and r3,r3,#1
 537 011e 002B     	 cmp r3,#0
 538 0120 08D0     	 beq .L33
 163:../cleanflight/src/main/cms/cms_menu_vtx_smartaudio.c ****         tfp_sprintf(&saCmsStatusString[5], "%4d", saDevice.freq);
 539              	 .loc 2 163 0
 540 0122 334B     	 ldr r3,.L41
 541 0124 9B88     	 ldrh r3,[r3,#4]
 542 0126 9BB2     	 uxth r3,r3
 543 0128 3C48     	 ldr r0,.L41+44
 544 012a 3D49     	 ldr r1,.L41+48
 545 012c 1A46     	 mov r2,r3
 546 012e FFF7FEFF 	 bl tfp_sprintf
 547 0132 1FE0     	 b .L32
 548              	.L33:
 164:../cleanflight/src/main/cms/cms_menu_vtx_smartaudio.c ****     else
 165:../cleanflight/src/main/cms/cms_menu_vtx_smartaudio.c ****         tfp_sprintf(&saCmsStatusString[5], "%4d",
 166:../cleanflight/src/main/cms/cms_menu_vtx_smartaudio.c ****             vtx58frequencyTable[saDevice.channel / 8][saDevice.channel % 8]);
 549              	 .loc 2 166 0
 550 0134 2E4B     	 ldr r3,.L41
 551 0136 5B78     	 ldrb r3,[r3,#1]
 552 0138 5BB2     	 sxtb r3,r3
 553 013a 002B     	 cmp r3,#0
 554 013c 00DA     	 bge .L34
 555 013e 0733     	 adds r3,r3,#7
 556              	.L34:
 557 0140 DB10     	 asrs r3,r3,#3
 558 0142 DBB2     	 uxtb r3,r3
 559 0144 5AB2     	 sxtb r2,r3
 560 0146 2A4B     	 ldr r3,.L41
 561 0148 5B78     	 ldrb r3,[r3,#1]
 562 014a 59B2     	 sxtb r1,r3
 563 014c 324B     	 ldr r3,.L41+40
 564 014e 0B40     	 ands r3,r3,r1
 565 0150 002B     	 cmp r3,#0
 566 0152 03DA     	 bge .L35
 567 0154 013B     	 subs r3,r3,#1
 568 0156 63F00703 	 orn r3,r3,#7
 569 015a 0133     	 adds r3,r3,#1
 570              	.L35:
 571 015c DBB2     	 uxtb r3,r3
 572 015e 5BB2     	 sxtb r3,r3
 573 0160 3049     	 ldr r1,.L41+52
 574 0162 D200     	 lsls r2,r2,#3
 575 0164 1344     	 add r3,r3,r2
 576 0166 31F81330 	 ldrh r3,[r1,r3,lsl#1]
 165:../cleanflight/src/main/cms/cms_menu_vtx_smartaudio.c ****             vtx58frequencyTable[saDevice.channel / 8][saDevice.channel % 8]);
 577              	 .loc 2 165 0
 578 016a 2C48     	 ldr r0,.L41+44
 579 016c 2C49     	 ldr r1,.L41+48
 580 016e 1A46     	 mov r2,r3
 581 0170 FFF7FEFF 	 bl tfp_sprintf
 582              	.L32:
 167:../cleanflight/src/main/cms/cms_menu_vtx_smartaudio.c **** 
 168:../cleanflight/src/main/cms/cms_menu_vtx_smartaudio.c ****     saCmsStatusString[9] = ' ';
 583              	 .loc 2 168 0
 584 0174 254B     	 ldr r3,.L41+28
 585 0176 2022     	 movs r2,#32
 586 0178 5A72     	 strb r2,[r3,#9]
 169:../cleanflight/src/main/cms/cms_menu_vtx_smartaudio.c **** 
 170:../cleanflight/src/main/cms/cms_menu_vtx_smartaudio.c ****     if (saDevice.mode & SA_MODE_GET_PITMODE) {
 587              	 .loc 2 170 0
 588 017a 1D4B     	 ldr r3,.L41
 589 017c DB78     	 ldrb r3,[r3,#3]
 590 017e DBB2     	 uxtb r3,r3
 591 0180 03F00203 	 and r3,r3,#2
 592 0184 002B     	 cmp r3,#0
 593 0186 17D0     	 beq .L36
 171:../cleanflight/src/main/cms/cms_menu_vtx_smartaudio.c ****         saCmsStatusString[10] = 'P';
 594              	 .loc 2 171 0
 595 0188 204B     	 ldr r3,.L41+28
 596 018a 5022     	 movs r2,#80
 597 018c 9A72     	 strb r2,[r3,#10]
 172:../cleanflight/src/main/cms/cms_menu_vtx_smartaudio.c ****         if (saDevice.mode & SA_MODE_GET_IN_RANGE_PITMODE) {
 598              	 .loc 2 172 0
 599 018e 184B     	 ldr r3,.L41
 600 0190 DB78     	 ldrb r3,[r3,#3]
 601 0192 DBB2     	 uxtb r3,r3
 602 0194 03F00403 	 and r3,r3,#4
 603 0198 002B     	 cmp r3,#0
 604 019a 03D0     	 beq .L37
 173:../cleanflight/src/main/cms/cms_menu_vtx_smartaudio.c ****             saCmsStatusString[11] = 'I';
 605              	 .loc 2 173 0
 606 019c 1B4B     	 ldr r3,.L41+28
 607 019e 4922     	 movs r2,#73
 608 01a0 DA72     	 strb r2,[r3,#11]
 609 01a2 02E0     	 b .L38
 610              	.L37:
 174:../cleanflight/src/main/cms/cms_menu_vtx_smartaudio.c ****         } else {
 175:../cleanflight/src/main/cms/cms_menu_vtx_smartaudio.c ****             saCmsStatusString[11] = 'O';
 611              	 .loc 2 175 0
 612 01a4 194B     	 ldr r3,.L41+28
 613 01a6 4F22     	 movs r2,#79
 614 01a8 DA72     	 strb r2,[r3,#11]
 615              	.L38:
 176:../cleanflight/src/main/cms/cms_menu_vtx_smartaudio.c ****         }
 177:../cleanflight/src/main/cms/cms_menu_vtx_smartaudio.c ****         saCmsStatusString[12] = 'R';
 616              	 .loc 2 177 0
 617 01aa 184B     	 ldr r3,.L41+28
 618 01ac 5222     	 movs r2,#82
 619 01ae 1A73     	 strb r2,[r3,#12]
 178:../cleanflight/src/main/cms/cms_menu_vtx_smartaudio.c ****         saCmsStatusString[13] = 0;
 620              	 .loc 2 178 0
 621 01b0 164B     	 ldr r3,.L41+28
 622 01b2 0022     	 movs r2,#0
 623 01b4 5A73     	 strb r2,[r3,#13]
 624 01b6 1AE0     	 b .L19
 625              	.L36:
 179:../cleanflight/src/main/cms/cms_menu_vtx_smartaudio.c ****     } else {
 180:../cleanflight/src/main/cms/cms_menu_vtx_smartaudio.c ****         tfp_sprintf(&saCmsStatusString[10], "%3d", (saDevice.version == 2) ?  saPowerTable[saDevice
 626              	 .loc 2 180 0
 627 01b8 0D4B     	 ldr r3,.L41
 628 01ba 1B78     	 ldrb r3,[r3]
 629 01bc 5BB2     	 sxtb r3,r3
 630 01be 022B     	 cmp r3,#2
 631 01c0 06D1     	 bne .L39
 632              	 .loc 2 180 0 is_stmt 0 discriminator 1
 633 01c2 0B4B     	 ldr r3,.L41
 634 01c4 9B78     	 ldrb r3,[r3,#2]
 635 01c6 5BB2     	 sxtb r3,r3
 636 01c8 174A     	 ldr r2,.L41+56
 637 01ca 52F83330 	 ldr r3,[r2,r3,lsl#3]
 638 01ce 09E0     	 b .L40
 639              	.L39:
 640              	 .loc 2 180 0 discriminator 2
 641 01d0 074B     	 ldr r3,.L41
 642 01d2 9B78     	 ldrb r3,[r3,#2]
 643 01d4 5BB2     	 sxtb r3,r3
 644 01d6 1846     	 mov r0,r3
 645 01d8 FFF7FEFF 	 bl saDacToPowerIndex
 646 01dc 0246     	 mov r2,r0
 647 01de 124B     	 ldr r3,.L41+56
 648 01e0 53F83230 	 ldr r3,[r3,r2,lsl#3]
 649              	.L40:
 650              	 .loc 2 180 0 discriminator 4
 651 01e4 1148     	 ldr r0,.L41+60
 652 01e6 1249     	 ldr r1,.L41+64
 653 01e8 1A46     	 mov r2,r3
 654 01ea FFF7FEFF 	 bl tfp_sprintf
 655              	.L19:
 181:../cleanflight/src/main/cms/cms_menu_vtx_smartaudio.c ****     }
 182:../cleanflight/src/main/cms/cms_menu_vtx_smartaudio.c **** }
 656              	 .loc 2 182 0 is_stmt 1
 657 01ee 80BD     	 pop {r7,pc}
 658              	.L42:
 659              	 .align 2
 660              	.L41:
 661 01f0 00000000 	 .word saDevice
 662 01f4 00000000 	 .word saCmsDeviceStatus
 663 01f8 00000000 	 .word saCmsORFreq
 664 01fc 00000000 	 .word saCmsUserFreq
 665 0200 00000000 	 .word saCmsPitFMode
 666 0204 00000000 	 .word saCmsOpmodel
 667 0208 08000000 	 .word .LC0
 668 020c 00000000 	 .word saCmsStatusString
 669 0210 00000000 	 .word saCmsFselMode
 670 0214 0C000000 	 .word .LC1
 671 0218 07000080 	 .word -2147483641
 672 021c 05000000 	 .word saCmsStatusString+5
 673 0220 00000000 	 .word .LC2
 674 0224 00000000 	 .word vtx58frequencyTable
 675 0228 00000000 	 .word saPowerTable
 676 022c 0A000000 	 .word saCmsStatusString+10
 677 0230 04000000 	 .word .LC3
 678              	 .cfi_endproc
 679              	.LFE534:
 681              	 .section .text.saCmsResetOpmodel,"ax",%progbits
 682              	 .align 2
 683              	 .global saCmsResetOpmodel
 684              	 .thumb
 685              	 .thumb_func
 687              	saCmsResetOpmodel:
 688              	.LFB535:
 183:../cleanflight/src/main/cms/cms_menu_vtx_smartaudio.c **** 
 184:../cleanflight/src/main/cms/cms_menu_vtx_smartaudio.c **** void saCmsResetOpmodel()
 185:../cleanflight/src/main/cms/cms_menu_vtx_smartaudio.c **** {
 689              	 .loc 2 185 0
 690              	 .cfi_startproc
 691              	 
 692              	 
 693              	 
 694 0000 80B4     	 push {r7}
 695              	.LCFI12:
 696              	 .cfi_def_cfa_offset 4
 697              	 .cfi_offset 7,-4
 698 0002 00AF     	 add r7,sp,#0
 699              	.LCFI13:
 700              	 .cfi_def_cfa_register 7
 186:../cleanflight/src/main/cms/cms_menu_vtx_smartaudio.c ****     // trigger data refresh in 'saCmsUpdate()'
 187:../cleanflight/src/main/cms/cms_menu_vtx_smartaudio.c ****     saCmsOpmodel = SACMS_OPMODEL_UNDEF;
 701              	 .loc 2 187 0
 702 0004 034B     	 ldr r3,.L44
 703 0006 0022     	 movs r2,#0
 704 0008 1A70     	 strb r2,[r3]
 188:../cleanflight/src/main/cms/cms_menu_vtx_smartaudio.c **** }
 705              	 .loc 2 188 0
 706 000a BD46     	 mov sp,r7
 707              	.LCFI14:
 708              	 .cfi_def_cfa_register 13
 709              	 
 710 000c 5DF8047B 	 ldr r7,[sp],#4
 711              	.LCFI15:
 712              	 .cfi_restore 7
 713              	 .cfi_def_cfa_offset 0
 714 0010 7047     	 bx lr
 715              	.L45:
 716 0012 00BF     	 .align 2
 717              	.L44:
 718 0014 00000000 	 .word saCmsOpmodel
 719              	 .cfi_endproc
 720              	.LFE535:
 722              	 .section .text.saCmsConfigBandByGvar,"ax",%progbits
 723              	 .align 2
 724              	 .thumb
 725              	 .thumb_func
 727              	saCmsConfigBandByGvar:
 728              	.LFB536:
 189:../cleanflight/src/main/cms/cms_menu_vtx_smartaudio.c **** 
 190:../cleanflight/src/main/cms/cms_menu_vtx_smartaudio.c **** static long saCmsConfigBandByGvar(displayPort_t *pDisp, const void *self)
 191:../cleanflight/src/main/cms/cms_menu_vtx_smartaudio.c **** {
 729              	 .loc 2 191 0
 730              	 .cfi_startproc
 731              	 
 732              	 
 733 0000 80B5     	 push {r7,lr}
 734              	.LCFI16:
 735              	 .cfi_def_cfa_offset 8
 736              	 .cfi_offset 7,-8
 737              	 .cfi_offset 14,-4
 738 0002 82B0     	 sub sp,sp,#8
 739              	.LCFI17:
 740              	 .cfi_def_cfa_offset 16
 741 0004 00AF     	 add r7,sp,#0
 742              	.LCFI18:
 743              	 .cfi_def_cfa_register 7
 744 0006 7860     	 str r0,[r7,#4]
 745 0008 3960     	 str r1,[r7]
 192:../cleanflight/src/main/cms/cms_menu_vtx_smartaudio.c ****     UNUSED(pDisp);
 193:../cleanflight/src/main/cms/cms_menu_vtx_smartaudio.c ****     UNUSED(self);
 194:../cleanflight/src/main/cms/cms_menu_vtx_smartaudio.c **** 
 195:../cleanflight/src/main/cms/cms_menu_vtx_smartaudio.c ****     if (saDevice.version == 0) {
 746              	 .loc 2 195 0
 747 000a 1D4B     	 ldr r3,.L51
 748 000c 1B78     	 ldrb r3,[r3]
 749 000e 002B     	 cmp r3,#0
 750 0010 04D1     	 bne .L47
 196:../cleanflight/src/main/cms/cms_menu_vtx_smartaudio.c ****         // Bounce back; not online yet
 197:../cleanflight/src/main/cms/cms_menu_vtx_smartaudio.c ****         saCmsBand = 0;
 751              	 .loc 2 197 0
 752 0012 1C4B     	 ldr r3,.L51+4
 753 0014 0022     	 movs r2,#0
 754 0016 1A70     	 strb r2,[r3]
 198:../cleanflight/src/main/cms/cms_menu_vtx_smartaudio.c ****         return 0;
 755              	 .loc 2 198 0
 756 0018 0023     	 movs r3,#0
 757 001a 2DE0     	 b .L48
 758              	.L47:
 199:../cleanflight/src/main/cms/cms_menu_vtx_smartaudio.c ****     }
 200:../cleanflight/src/main/cms/cms_menu_vtx_smartaudio.c **** 
 201:../cleanflight/src/main/cms/cms_menu_vtx_smartaudio.c ****     if (saCmsBand == 0) {
 759              	 .loc 2 201 0
 760 001c 194B     	 ldr r3,.L51+4
 761 001e 1B78     	 ldrb r3,[r3]
 762 0020 002B     	 cmp r3,#0
 763 0022 04D1     	 bne .L49
 202:../cleanflight/src/main/cms/cms_menu_vtx_smartaudio.c ****         // Bouce back, no going back to undef state
 203:../cleanflight/src/main/cms/cms_menu_vtx_smartaudio.c ****         saCmsBand = 1;
 764              	 .loc 2 203 0
 765 0024 174B     	 ldr r3,.L51+4
 766 0026 0122     	 movs r2,#1
 767 0028 1A70     	 strb r2,[r3]
 204:../cleanflight/src/main/cms/cms_menu_vtx_smartaudio.c ****         return 0;
 768              	 .loc 2 204 0
 769 002a 0023     	 movs r3,#0
 770 002c 24E0     	 b .L48
 771              	.L49:
 205:../cleanflight/src/main/cms/cms_menu_vtx_smartaudio.c ****     }
 206:../cleanflight/src/main/cms/cms_menu_vtx_smartaudio.c **** 
 207:../cleanflight/src/main/cms/cms_menu_vtx_smartaudio.c ****     if ((saCmsOpmodel == SACMS_OPMODEL_FREE) && !saDeferred)
 772              	 .loc 2 207 0
 773 002e 164B     	 ldr r3,.L51+8
 774 0030 1B78     	 ldrb r3,[r3]
 775 0032 012B     	 cmp r3,#1
 776 0034 12D1     	 bne .L50
 777              	 .loc 2 207 0 is_stmt 0 discriminator 1
 778 0036 154B     	 ldr r3,.L51+12
 779 0038 1B78     	 ldrb r3,[r3]
 780 003a 83F00103 	 eor r3,r3,#1
 781 003e DBB2     	 uxtb r3,r3
 782 0040 002B     	 cmp r3,#0
 783 0042 0BD0     	 beq .L50
 208:../cleanflight/src/main/cms/cms_menu_vtx_smartaudio.c ****         saSetBandAndChannel(saCmsBand - 1, saCmsChan - 1);
 784              	 .loc 2 208 0 is_stmt 1
 785 0044 0F4B     	 ldr r3,.L51+4
 786 0046 1B78     	 ldrb r3,[r3]
 787 0048 013B     	 subs r3,r3,#1
 788 004a DAB2     	 uxtb r2,r3
 789 004c 104B     	 ldr r3,.L51+16
 790 004e 1B78     	 ldrb r3,[r3]
 791 0050 013B     	 subs r3,r3,#1
 792 0052 DBB2     	 uxtb r3,r3
 793 0054 1046     	 mov r0,r2
 794 0056 1946     	 mov r1,r3
 795 0058 FFF7FEFF 	 bl saSetBandAndChannel
 796              	.L50:
 209:../cleanflight/src/main/cms/cms_menu_vtx_smartaudio.c **** 
 210:../cleanflight/src/main/cms/cms_menu_vtx_smartaudio.c ****     saCmsFreqRef = vtx58frequencyTable[saCmsBand - 1][saCmsChan - 1];
 797              	 .loc 2 210 0
 798 005c 094B     	 ldr r3,.L51+4
 799 005e 1B78     	 ldrb r3,[r3]
 800 0060 5A1E     	 subs r2,r3,#1
 801 0062 0B4B     	 ldr r3,.L51+16
 802 0064 1B78     	 ldrb r3,[r3]
 803 0066 013B     	 subs r3,r3,#1
 804 0068 0A49     	 ldr r1,.L51+20
 805 006a D200     	 lsls r2,r2,#3
 806 006c 1344     	 add r3,r3,r2
 807 006e 31F81320 	 ldrh r2,[r1,r3,lsl#1]
 808 0072 094B     	 ldr r3,.L51+24
 809 0074 1A80     	 strh r2,[r3]
 211:../cleanflight/src/main/cms/cms_menu_vtx_smartaudio.c **** 
 212:../cleanflight/src/main/cms/cms_menu_vtx_smartaudio.c ****     return 0;
 810              	 .loc 2 212 0
 811 0076 0023     	 movs r3,#0
 812              	.L48:
 213:../cleanflight/src/main/cms/cms_menu_vtx_smartaudio.c **** }
 813              	 .loc 2 213 0
 814 0078 1846     	 mov r0,r3
 815 007a 0837     	 adds r7,r7,#8
 816              	.LCFI19:
 817              	 .cfi_def_cfa_offset 8
 818 007c BD46     	 mov sp,r7
 819              	.LCFI20:
 820              	 .cfi_def_cfa_register 13
 821              	 
 822 007e 80BD     	 pop {r7,pc}
 823              	.L52:
 824              	 .align 2
 825              	.L51:
 826 0080 00000000 	 .word saDevice
 827 0084 00000000 	 .word saCmsBand
 828 0088 00000000 	 .word saCmsOpmodel
 829 008c 00000000 	 .word saDeferred
 830 0090 00000000 	 .word saCmsChan
 831 0094 00000000 	 .word vtx58frequencyTable
 832 0098 00000000 	 .word saCmsFreqRef
 833              	 .cfi_endproc
 834              	.LFE536:
 836              	 .section .text.saCmsConfigChanByGvar,"ax",%progbits
 837              	 .align 2
 838              	 .thumb
 839              	 .thumb_func
 841              	saCmsConfigChanByGvar:
 842              	.LFB537:
 214:../cleanflight/src/main/cms/cms_menu_vtx_smartaudio.c **** 
 215:../cleanflight/src/main/cms/cms_menu_vtx_smartaudio.c **** static long saCmsConfigChanByGvar(displayPort_t *pDisp, const void *self)
 216:../cleanflight/src/main/cms/cms_menu_vtx_smartaudio.c **** {
 843              	 .loc 2 216 0
 844              	 .cfi_startproc
 845              	 
 846              	 
 847 0000 80B5     	 push {r7,lr}
 848              	.LCFI21:
 849              	 .cfi_def_cfa_offset 8
 850              	 .cfi_offset 7,-8
 851              	 .cfi_offset 14,-4
 852 0002 82B0     	 sub sp,sp,#8
 853              	.LCFI22:
 854              	 .cfi_def_cfa_offset 16
 855 0004 00AF     	 add r7,sp,#0
 856              	.LCFI23:
 857              	 .cfi_def_cfa_register 7
 858 0006 7860     	 str r0,[r7,#4]
 859 0008 3960     	 str r1,[r7]
 217:../cleanflight/src/main/cms/cms_menu_vtx_smartaudio.c ****     UNUSED(pDisp);
 218:../cleanflight/src/main/cms/cms_menu_vtx_smartaudio.c ****     UNUSED(self);
 219:../cleanflight/src/main/cms/cms_menu_vtx_smartaudio.c **** 
 220:../cleanflight/src/main/cms/cms_menu_vtx_smartaudio.c ****     if (saDevice.version == 0) {
 860              	 .loc 2 220 0
 861 000a 1D4B     	 ldr r3,.L58
 862 000c 1B78     	 ldrb r3,[r3]
 863 000e 002B     	 cmp r3,#0
 864 0010 04D1     	 bne .L54
 221:../cleanflight/src/main/cms/cms_menu_vtx_smartaudio.c ****         // Bounce back; not online yet
 222:../cleanflight/src/main/cms/cms_menu_vtx_smartaudio.c ****         saCmsChan = 0;
 865              	 .loc 2 222 0
 866 0012 1C4B     	 ldr r3,.L58+4
 867 0014 0022     	 movs r2,#0
 868 0016 1A70     	 strb r2,[r3]
 223:../cleanflight/src/main/cms/cms_menu_vtx_smartaudio.c ****         return 0;
 869              	 .loc 2 223 0
 870 0018 0023     	 movs r3,#0
 871 001a 2DE0     	 b .L55
 872              	.L54:
 224:../cleanflight/src/main/cms/cms_menu_vtx_smartaudio.c ****     }
 225:../cleanflight/src/main/cms/cms_menu_vtx_smartaudio.c **** 
 226:../cleanflight/src/main/cms/cms_menu_vtx_smartaudio.c ****     if (saCmsChan == 0) {
 873              	 .loc 2 226 0
 874 001c 194B     	 ldr r3,.L58+4
 875 001e 1B78     	 ldrb r3,[r3]
 876 0020 002B     	 cmp r3,#0
 877 0022 04D1     	 bne .L56
 227:../cleanflight/src/main/cms/cms_menu_vtx_smartaudio.c ****         // Bounce back; no going back to undef state
 228:../cleanflight/src/main/cms/cms_menu_vtx_smartaudio.c ****         saCmsChan = 1;
 878              	 .loc 2 228 0
 879 0024 174B     	 ldr r3,.L58+4
 880 0026 0122     	 movs r2,#1
 881 0028 1A70     	 strb r2,[r3]
 229:../cleanflight/src/main/cms/cms_menu_vtx_smartaudio.c ****         return 0;
 882              	 .loc 2 229 0
 883 002a 0023     	 movs r3,#0
 884 002c 24E0     	 b .L55
 885              	.L56:
 230:../cleanflight/src/main/cms/cms_menu_vtx_smartaudio.c ****     }
 231:../cleanflight/src/main/cms/cms_menu_vtx_smartaudio.c **** 
 232:../cleanflight/src/main/cms/cms_menu_vtx_smartaudio.c ****     if ((saCmsOpmodel == SACMS_OPMODEL_FREE) && !saDeferred)
 886              	 .loc 2 232 0
 887 002e 164B     	 ldr r3,.L58+8
 888 0030 1B78     	 ldrb r3,[r3]
 889 0032 012B     	 cmp r3,#1
 890 0034 12D1     	 bne .L57
 891              	 .loc 2 232 0 is_stmt 0 discriminator 1
 892 0036 154B     	 ldr r3,.L58+12
 893 0038 1B78     	 ldrb r3,[r3]
 894 003a 83F00103 	 eor r3,r3,#1
 895 003e DBB2     	 uxtb r3,r3
 896 0040 002B     	 cmp r3,#0
 897 0042 0BD0     	 beq .L57
 233:../cleanflight/src/main/cms/cms_menu_vtx_smartaudio.c ****         saSetBandAndChannel(saCmsBand - 1, saCmsChan - 1);
 898              	 .loc 2 233 0 is_stmt 1
 899 0044 124B     	 ldr r3,.L58+16
 900 0046 1B78     	 ldrb r3,[r3]
 901 0048 013B     	 subs r3,r3,#1
 902 004a DAB2     	 uxtb r2,r3
 903 004c 0D4B     	 ldr r3,.L58+4
 904 004e 1B78     	 ldrb r3,[r3]
 905 0050 013B     	 subs r3,r3,#1
 906 0052 DBB2     	 uxtb r3,r3
 907 0054 1046     	 mov r0,r2
 908 0056 1946     	 mov r1,r3
 909 0058 FFF7FEFF 	 bl saSetBandAndChannel
 910              	.L57:
 234:../cleanflight/src/main/cms/cms_menu_vtx_smartaudio.c **** 
 235:../cleanflight/src/main/cms/cms_menu_vtx_smartaudio.c ****     saCmsFreqRef = vtx58frequencyTable[saCmsBand - 1][saCmsChan - 1];
 911              	 .loc 2 235 0
 912 005c 0C4B     	 ldr r3,.L58+16
 913 005e 1B78     	 ldrb r3,[r3]
 914 0060 5A1E     	 subs r2,r3,#1
 915 0062 084B     	 ldr r3,.L58+4
 916 0064 1B78     	 ldrb r3,[r3]
 917 0066 013B     	 subs r3,r3,#1
 918 0068 0A49     	 ldr r1,.L58+20
 919 006a D200     	 lsls r2,r2,#3
 920 006c 1344     	 add r3,r3,r2
 921 006e 31F81320 	 ldrh r2,[r1,r3,lsl#1]
 922 0072 094B     	 ldr r3,.L58+24
 923 0074 1A80     	 strh r2,[r3]
 236:../cleanflight/src/main/cms/cms_menu_vtx_smartaudio.c **** 
 237:../cleanflight/src/main/cms/cms_menu_vtx_smartaudio.c ****     return 0;
 924              	 .loc 2 237 0
 925 0076 0023     	 movs r3,#0
 926              	.L55:
 238:../cleanflight/src/main/cms/cms_menu_vtx_smartaudio.c **** }
 927              	 .loc 2 238 0
 928 0078 1846     	 mov r0,r3
 929 007a 0837     	 adds r7,r7,#8
 930              	.LCFI24:
 931              	 .cfi_def_cfa_offset 8
 932 007c BD46     	 mov sp,r7
 933              	.LCFI25:
 934              	 .cfi_def_cfa_register 13
 935              	 
 936 007e 80BD     	 pop {r7,pc}
 937              	.L59:
 938              	 .align 2
 939              	.L58:
 940 0080 00000000 	 .word saDevice
 941 0084 00000000 	 .word saCmsChan
 942 0088 00000000 	 .word saCmsOpmodel
 943 008c 00000000 	 .word saDeferred
 944 0090 00000000 	 .word saCmsBand
 945 0094 00000000 	 .word vtx58frequencyTable
 946 0098 00000000 	 .word saCmsFreqRef
 947              	 .cfi_endproc
 948              	.LFE537:
 950              	 .section .text.saCmsConfigPowerByGvar,"ax",%progbits
 951              	 .align 2
 952              	 .thumb
 953              	 .thumb_func
 955              	saCmsConfigPowerByGvar:
 956              	.LFB538:
 239:../cleanflight/src/main/cms/cms_menu_vtx_smartaudio.c **** 
 240:../cleanflight/src/main/cms/cms_menu_vtx_smartaudio.c **** static long saCmsConfigPowerByGvar(displayPort_t *pDisp, const void *self)
 241:../cleanflight/src/main/cms/cms_menu_vtx_smartaudio.c **** {
 957              	 .loc 2 241 0
 958              	 .cfi_startproc
 959              	 
 960              	 
 961 0000 80B5     	 push {r7,lr}
 962              	.LCFI26:
 963              	 .cfi_def_cfa_offset 8
 964              	 .cfi_offset 7,-8
 965              	 .cfi_offset 14,-4
 966 0002 82B0     	 sub sp,sp,#8
 967              	.LCFI27:
 968              	 .cfi_def_cfa_offset 16
 969 0004 00AF     	 add r7,sp,#0
 970              	.LCFI28:
 971              	 .cfi_def_cfa_register 7
 972 0006 7860     	 str r0,[r7,#4]
 973 0008 3960     	 str r1,[r7]
 242:../cleanflight/src/main/cms/cms_menu_vtx_smartaudio.c ****     UNUSED(pDisp);
 243:../cleanflight/src/main/cms/cms_menu_vtx_smartaudio.c ****     UNUSED(self);
 244:../cleanflight/src/main/cms/cms_menu_vtx_smartaudio.c **** 
 245:../cleanflight/src/main/cms/cms_menu_vtx_smartaudio.c ****     if (saDevice.version == 0) {
 974              	 .loc 2 245 0
 975 000a 144B     	 ldr r3,.L65
 976 000c 1B78     	 ldrb r3,[r3]
 977 000e 002B     	 cmp r3,#0
 978 0010 04D1     	 bne .L61
 246:../cleanflight/src/main/cms/cms_menu_vtx_smartaudio.c ****         // Bounce back; not online yet
 247:../cleanflight/src/main/cms/cms_menu_vtx_smartaudio.c ****         saCmsPower = 0;
 979              	 .loc 2 247 0
 980 0012 134B     	 ldr r3,.L65+4
 981 0014 0022     	 movs r2,#0
 982 0016 1A70     	 strb r2,[r3]
 248:../cleanflight/src/main/cms/cms_menu_vtx_smartaudio.c ****         return 0;
 983              	 .loc 2 248 0
 984 0018 0023     	 movs r3,#0
 985 001a 1AE0     	 b .L62
 986              	.L61:
 249:../cleanflight/src/main/cms/cms_menu_vtx_smartaudio.c ****     }
 250:../cleanflight/src/main/cms/cms_menu_vtx_smartaudio.c **** 
 251:../cleanflight/src/main/cms/cms_menu_vtx_smartaudio.c ****     if (saCmsPower == 0) {
 987              	 .loc 2 251 0
 988 001c 104B     	 ldr r3,.L65+4
 989 001e 1B78     	 ldrb r3,[r3]
 990 0020 002B     	 cmp r3,#0
 991 0022 04D1     	 bne .L63
 252:../cleanflight/src/main/cms/cms_menu_vtx_smartaudio.c ****         // Bouce back; no going back to undef state
 253:../cleanflight/src/main/cms/cms_menu_vtx_smartaudio.c ****         saCmsPower = 1;
 992              	 .loc 2 253 0
 993 0024 0E4B     	 ldr r3,.L65+4
 994 0026 0122     	 movs r2,#1
 995 0028 1A70     	 strb r2,[r3]
 254:../cleanflight/src/main/cms/cms_menu_vtx_smartaudio.c ****         return 0;
 996              	 .loc 2 254 0
 997 002a 0023     	 movs r3,#0
 998 002c 11E0     	 b .L62
 999              	.L63:
 255:../cleanflight/src/main/cms/cms_menu_vtx_smartaudio.c ****     }
 256:../cleanflight/src/main/cms/cms_menu_vtx_smartaudio.c **** 
 257:../cleanflight/src/main/cms/cms_menu_vtx_smartaudio.c ****     if (saCmsOpmodel == SACMS_OPMODEL_FREE && !saDeferred) {
 1000              	 .loc 2 257 0
 1001 002e 0D4B     	 ldr r3,.L65+8
 1002 0030 1B78     	 ldrb r3,[r3]
 1003 0032 012B     	 cmp r3,#1
 1004 0034 0CD1     	 bne .L64
 1005              	 .loc 2 257 0 is_stmt 0 discriminator 1
 1006 0036 0C4B     	 ldr r3,.L65+12
 1007 0038 1B78     	 ldrb r3,[r3]
 1008 003a 83F00103 	 eor r3,r3,#1
 1009 003e DBB2     	 uxtb r3,r3
 1010 0040 002B     	 cmp r3,#0
 1011 0042 05D0     	 beq .L64
 258:../cleanflight/src/main/cms/cms_menu_vtx_smartaudio.c ****         vtxSettingsConfigMutable()->power = saCmsPower;
 1012              	 .loc 2 258 0 is_stmt 1
 1013 0044 FFF7FEFF 	 bl vtxSettingsConfigMutable
 1014 0048 0246     	 mov r2,r0
 1015 004a 054B     	 ldr r3,.L65+4
 1016 004c 1B78     	 ldrb r3,[r3]
 1017 004e 9370     	 strb r3,[r2,#2]
 1018              	.L64:
 259:../cleanflight/src/main/cms/cms_menu_vtx_smartaudio.c ****     }
 260:../cleanflight/src/main/cms/cms_menu_vtx_smartaudio.c **** 
 261:../cleanflight/src/main/cms/cms_menu_vtx_smartaudio.c ****     return 0;
 1019              	 .loc 2 261 0
 1020 0050 0023     	 movs r3,#0
 1021              	.L62:
 262:../cleanflight/src/main/cms/cms_menu_vtx_smartaudio.c **** }
 1022              	 .loc 2 262 0
 1023 0052 1846     	 mov r0,r3
 1024 0054 0837     	 adds r7,r7,#8
 1025              	.LCFI29:
 1026              	 .cfi_def_cfa_offset 8
 1027 0056 BD46     	 mov sp,r7
 1028              	.LCFI30:
 1029              	 .cfi_def_cfa_register 13
 1030              	 
 1031 0058 80BD     	 pop {r7,pc}
 1032              	.L66:
 1033 005a 00BF     	 .align 2
 1034              	.L65:
 1035 005c 00000000 	 .word saDevice
 1036 0060 00000000 	 .word saCmsPower
 1037 0064 00000000 	 .word saCmsOpmodel
 1038 0068 00000000 	 .word saDeferred
 1039              	 .cfi_endproc
 1040              	.LFE538:
 1042              	 .section .text.saCmsConfigPitFModeByGvar,"ax",%progbits
 1043              	 .align 2
 1044              	 .thumb
 1045              	 .thumb_func
 1047              	saCmsConfigPitFModeByGvar:
 1048              	.LFB539:
 263:../cleanflight/src/main/cms/cms_menu_vtx_smartaudio.c **** 
 264:../cleanflight/src/main/cms/cms_menu_vtx_smartaudio.c **** static long saCmsConfigPitFModeByGvar(displayPort_t *pDisp, const void *self)
 265:../cleanflight/src/main/cms/cms_menu_vtx_smartaudio.c **** {
 1049              	 .loc 2 265 0
 1050              	 .cfi_startproc
 1051              	 
 1052              	 
 1053 0000 80B5     	 push {r7,lr}
 1054              	.LCFI31:
 1055              	 .cfi_def_cfa_offset 8
 1056              	 .cfi_offset 7,-8
 1057              	 .cfi_offset 14,-4
 1058 0002 82B0     	 sub sp,sp,#8
 1059              	.LCFI32:
 1060              	 .cfi_def_cfa_offset 16
 1061 0004 00AF     	 add r7,sp,#0
 1062              	.LCFI33:
 1063              	 .cfi_def_cfa_register 7
 1064 0006 7860     	 str r0,[r7,#4]
 1065 0008 3960     	 str r1,[r7]
 266:../cleanflight/src/main/cms/cms_menu_vtx_smartaudio.c ****     UNUSED(pDisp);
 267:../cleanflight/src/main/cms/cms_menu_vtx_smartaudio.c ****     UNUSED(self);
 268:../cleanflight/src/main/cms/cms_menu_vtx_smartaudio.c **** 
 269:../cleanflight/src/main/cms/cms_menu_vtx_smartaudio.c ****     if (saDevice.version == 1) {
 1066              	 .loc 2 269 0
 1067 000a 114B     	 ldr r3,.L73
 1068 000c 1B78     	 ldrb r3,[r3]
 1069 000e 5BB2     	 sxtb r3,r3
 1070 0010 012B     	 cmp r3,#1
 1071 0012 04D1     	 bne .L68
 270:../cleanflight/src/main/cms/cms_menu_vtx_smartaudio.c ****         // V1 device doesn't support PIT mode; bounce back.
 271:../cleanflight/src/main/cms/cms_menu_vtx_smartaudio.c ****         saCmsPitFMode = 0;
 1072              	 .loc 2 271 0
 1073 0014 0F4B     	 ldr r3,.L73+4
 1074 0016 0022     	 movs r2,#0
 1075 0018 1A70     	 strb r2,[r3]
 272:../cleanflight/src/main/cms/cms_menu_vtx_smartaudio.c ****         return 0;
 1076              	 .loc 2 272 0
 1077 001a 0023     	 movs r3,#0
 1078 001c 14E0     	 b .L69
 1079              	.L68:
 273:../cleanflight/src/main/cms/cms_menu_vtx_smartaudio.c ****     }
 274:../cleanflight/src/main/cms/cms_menu_vtx_smartaudio.c **** 
 275:../cleanflight/src/main/cms/cms_menu_vtx_smartaudio.c ****     dprintf(("saCmsConfigPitFmodeByGbar: saCmsPitFMode %d\r\n", saCmsPitFMode));
 276:../cleanflight/src/main/cms/cms_menu_vtx_smartaudio.c **** 
 277:../cleanflight/src/main/cms/cms_menu_vtx_smartaudio.c ****     if (saCmsPitFMode == 0) {
 1080              	 .loc 2 277 0
 1081 001e 0D4B     	 ldr r3,.L73+4
 1082 0020 1B78     	 ldrb r3,[r3]
 1083 0022 002B     	 cmp r3,#0
 1084 0024 04D1     	 bne .L70
 278:../cleanflight/src/main/cms/cms_menu_vtx_smartaudio.c ****         // Bounce back
 279:../cleanflight/src/main/cms/cms_menu_vtx_smartaudio.c ****         saCmsPitFMode = 1;
 1085              	 .loc 2 279 0
 1086 0026 0B4B     	 ldr r3,.L73+4
 1087 0028 0122     	 movs r2,#1
 1088 002a 1A70     	 strb r2,[r3]
 280:../cleanflight/src/main/cms/cms_menu_vtx_smartaudio.c ****         return 0;
 1089              	 .loc 2 280 0
 1090 002c 0023     	 movs r3,#0
 1091 002e 0BE0     	 b .L69
 1092              	.L70:
 281:../cleanflight/src/main/cms/cms_menu_vtx_smartaudio.c ****     }
 282:../cleanflight/src/main/cms/cms_menu_vtx_smartaudio.c **** 
 283:../cleanflight/src/main/cms/cms_menu_vtx_smartaudio.c ****     if (saCmsPitFMode == 1) {
 1093              	 .loc 2 283 0
 1094 0030 084B     	 ldr r3,.L73+4
 1095 0032 1B78     	 ldrb r3,[r3]
 1096 0034 012B     	 cmp r3,#1
 1097 0036 03D1     	 bne .L71
 284:../cleanflight/src/main/cms/cms_menu_vtx_smartaudio.c ****         saSetMode(SA_MODE_SET_IN_RANGE_PITMODE);
 1098              	 .loc 2 284 0
 1099 0038 0120     	 movs r0,#1
 1100 003a FFF7FEFF 	 bl saSetMode
 1101 003e 02E0     	 b .L72
 1102              	.L71:
 285:../cleanflight/src/main/cms/cms_menu_vtx_smartaudio.c ****     } else {
 286:../cleanflight/src/main/cms/cms_menu_vtx_smartaudio.c ****         saSetMode(SA_MODE_SET_OUT_RANGE_PITMODE);
 1103              	 .loc 2 286 0
 1104 0040 0220     	 movs r0,#2
 1105 0042 FFF7FEFF 	 bl saSetMode
 1106              	.L72:
 287:../cleanflight/src/main/cms/cms_menu_vtx_smartaudio.c ****     }
 288:../cleanflight/src/main/cms/cms_menu_vtx_smartaudio.c **** 
 289:../cleanflight/src/main/cms/cms_menu_vtx_smartaudio.c ****     return 0;
 1107              	 .loc 2 289 0
 1108 0046 0023     	 movs r3,#0
 1109              	.L69:
 290:../cleanflight/src/main/cms/cms_menu_vtx_smartaudio.c **** }
 1110              	 .loc 2 290 0
 1111 0048 1846     	 mov r0,r3
 1112 004a 0837     	 adds r7,r7,#8
 1113              	.LCFI34:
 1114              	 .cfi_def_cfa_offset 8
 1115 004c BD46     	 mov sp,r7
 1116              	.LCFI35:
 1117              	 .cfi_def_cfa_register 13
 1118              	 
 1119 004e 80BD     	 pop {r7,pc}
 1120              	.L74:
 1121              	 .align 2
 1122              	.L73:
 1123 0050 00000000 	 .word saDevice
 1124 0054 00000000 	 .word saCmsPitFMode
 1125              	 .cfi_endproc
 1126              	.LFE539:
 1128              	 .section .text.saCmsConfigOpmodelByGvar,"ax",%progbits
 1129              	 .align 2
 1130              	 .thumb
 1131              	 .thumb_func
 1133              	saCmsConfigOpmodelByGvar:
 1134              	.LFB540:
 291:../cleanflight/src/main/cms/cms_menu_vtx_smartaudio.c **** 
 292:../cleanflight/src/main/cms/cms_menu_vtx_smartaudio.c **** static long saCmsConfigFreqModeByGvar(displayPort_t *pDisp, const void *self); // Forward
 293:../cleanflight/src/main/cms/cms_menu_vtx_smartaudio.c **** 
 294:../cleanflight/src/main/cms/cms_menu_vtx_smartaudio.c **** static long saCmsConfigOpmodelByGvar(displayPort_t *pDisp, const void *self)
 295:../cleanflight/src/main/cms/cms_menu_vtx_smartaudio.c **** {
 1135              	 .loc 2 295 0
 1136              	 .cfi_startproc
 1137              	 
 1138              	 
 1139 0000 80B5     	 push {r7,lr}
 1140              	.LCFI36:
 1141              	 .cfi_def_cfa_offset 8
 1142              	 .cfi_offset 7,-8
 1143              	 .cfi_offset 14,-4
 1144 0002 84B0     	 sub sp,sp,#16
 1145              	.LCFI37:
 1146              	 .cfi_def_cfa_offset 24
 1147 0004 00AF     	 add r7,sp,#0
 1148              	.LCFI38:
 1149              	 .cfi_def_cfa_register 7
 1150 0006 7860     	 str r0,[r7,#4]
 1151 0008 3960     	 str r1,[r7]
 296:../cleanflight/src/main/cms/cms_menu_vtx_smartaudio.c ****     UNUSED(pDisp);
 297:../cleanflight/src/main/cms/cms_menu_vtx_smartaudio.c ****     UNUSED(self);
 298:../cleanflight/src/main/cms/cms_menu_vtx_smartaudio.c **** 
 299:../cleanflight/src/main/cms/cms_menu_vtx_smartaudio.c ****     if (saDevice.version == 1) {
 1152              	 .loc 2 299 0
 1153 000a 194B     	 ldr r3,.L82
 1154 000c 1B78     	 ldrb r3,[r3]
 1155 000e 5BB2     	 sxtb r3,r3
 1156 0010 012B     	 cmp r3,#1
 1157 0012 08D1     	 bne .L76
 300:../cleanflight/src/main/cms/cms_menu_vtx_smartaudio.c ****         if (saCmsOpmodel != SACMS_OPMODEL_FREE)
 1158              	 .loc 2 300 0
 1159 0014 174B     	 ldr r3,.L82+4
 1160 0016 1B78     	 ldrb r3,[r3]
 1161 0018 012B     	 cmp r3,#1
 1162 001a 02D0     	 beq .L77
 301:../cleanflight/src/main/cms/cms_menu_vtx_smartaudio.c ****             saCmsOpmodel = SACMS_OPMODEL_FREE;
 1163              	 .loc 2 301 0
 1164 001c 154B     	 ldr r3,.L82+4
 1165 001e 0122     	 movs r2,#1
 1166 0020 1A70     	 strb r2,[r3]
 1167              	.L77:
 302:../cleanflight/src/main/cms/cms_menu_vtx_smartaudio.c ****         return 0;
 1168              	 .loc 2 302 0
 1169 0022 0023     	 movs r3,#0
 1170 0024 1FE0     	 b .L78
 1171              	.L76:
 303:../cleanflight/src/main/cms/cms_menu_vtx_smartaudio.c ****     }
 304:../cleanflight/src/main/cms/cms_menu_vtx_smartaudio.c **** 
 305:../cleanflight/src/main/cms/cms_menu_vtx_smartaudio.c ****     uint8_t opmodel = saCmsOpmodel;
 1172              	 .loc 2 305 0
 1173 0026 134B     	 ldr r3,.L82+4
 1174 0028 1B78     	 ldrb r3,[r3]
 1175 002a FB73     	 strb r3,[r7,#15]
 306:../cleanflight/src/main/cms/cms_menu_vtx_smartaudio.c **** 
 307:../cleanflight/src/main/cms/cms_menu_vtx_smartaudio.c ****     dprintf(("saCmsConfigOpmodelByGvar: opmodel %d\r\n", opmodel));
 308:../cleanflight/src/main/cms/cms_menu_vtx_smartaudio.c **** 
 309:../cleanflight/src/main/cms/cms_menu_vtx_smartaudio.c ****     if (opmodel == SACMS_OPMODEL_FREE) {
 1176              	 .loc 2 309 0
 1177 002c FB7B     	 ldrb r3,[r7,#15]
 1178 002e 012B     	 cmp r3,#1
 1179 0030 03D1     	 bne .L79
 310:../cleanflight/src/main/cms/cms_menu_vtx_smartaudio.c ****         // VTX should power up transmitting.
 311:../cleanflight/src/main/cms/cms_menu_vtx_smartaudio.c ****         // Turn off In-Range and Out-Range bits
 312:../cleanflight/src/main/cms/cms_menu_vtx_smartaudio.c ****         saSetMode(0);
 1180              	 .loc 2 312 0
 1181 0032 0020     	 movs r0,#0
 1182 0034 FFF7FEFF 	 bl saSetMode
 1183 0038 14E0     	 b .L80
 1184              	.L79:
 313:../cleanflight/src/main/cms/cms_menu_vtx_smartaudio.c ****     } else if (opmodel == SACMS_OPMODEL_RACE) {
 1185              	 .loc 2 313 0
 1186 003a FB7B     	 ldrb r3,[r7,#15]
 1187 003c 022B     	 cmp r3,#2
 1188 003e 0ED1     	 bne .L81
 314:../cleanflight/src/main/cms/cms_menu_vtx_smartaudio.c ****         // VTX should power up in pit mode.
 315:../cleanflight/src/main/cms/cms_menu_vtx_smartaudio.c ****         // Default PitFMode is in-range to prevent users without
 316:../cleanflight/src/main/cms/cms_menu_vtx_smartaudio.c ****         // out-range receivers from getting blinded.
 317:../cleanflight/src/main/cms/cms_menu_vtx_smartaudio.c ****         saCmsPitFMode = 0;
 1189              	 .loc 2 317 0
 1190 0040 0D4B     	 ldr r3,.L82+8
 1191 0042 0022     	 movs r2,#0
 1192 0044 1A70     	 strb r2,[r3]
 318:../cleanflight/src/main/cms/cms_menu_vtx_smartaudio.c ****         saCmsConfigPitFModeByGvar(pDisp, self);
 1193              	 .loc 2 318 0
 1194 0046 7868     	 ldr r0,[r7,#4]
 1195 0048 3968     	 ldr r1,[r7]
 1196 004a FFF7FEFF 	 bl saCmsConfigPitFModeByGvar
 319:../cleanflight/src/main/cms/cms_menu_vtx_smartaudio.c **** 
 320:../cleanflight/src/main/cms/cms_menu_vtx_smartaudio.c ****         // Direct frequency mode is not available in RACE opmodel
 321:../cleanflight/src/main/cms/cms_menu_vtx_smartaudio.c ****         saCmsFselModeNew = 0;
 1197              	 .loc 2 321 0
 1198 004e 0B4B     	 ldr r3,.L82+12
 1199 0050 0022     	 movs r2,#0
 1200 0052 1A70     	 strb r2,[r3]
 322:../cleanflight/src/main/cms/cms_menu_vtx_smartaudio.c ****         saCmsConfigFreqModeByGvar(pDisp, self);
 1201              	 .loc 2 322 0
 1202 0054 7868     	 ldr r0,[r7,#4]
 1203 0056 3968     	 ldr r1,[r7]
 1204 0058 FFF7FEFF 	 bl saCmsConfigFreqModeByGvar
 1205 005c 02E0     	 b .L80
 1206              	.L81:
 323:../cleanflight/src/main/cms/cms_menu_vtx_smartaudio.c ****     } else {
 324:../cleanflight/src/main/cms/cms_menu_vtx_smartaudio.c ****         // Trying to go back to unknown state; bounce back
 325:../cleanflight/src/main/cms/cms_menu_vtx_smartaudio.c ****         saCmsOpmodel = SACMS_OPMODEL_UNDEF + 1;
 1207              	 .loc 2 325 0
 1208 005e 054B     	 ldr r3,.L82+4
 1209 0060 0122     	 movs r2,#1
 1210 0062 1A70     	 strb r2,[r3]
 1211              	.L80:
 326:../cleanflight/src/main/cms/cms_menu_vtx_smartaudio.c ****     }
 327:../cleanflight/src/main/cms/cms_menu_vtx_smartaudio.c **** 
 328:../cleanflight/src/main/cms/cms_menu_vtx_smartaudio.c ****     return 0;
 1212              	 .loc 2 328 0
 1213 0064 0023     	 movs r3,#0
 1214              	.L78:
 329:../cleanflight/src/main/cms/cms_menu_vtx_smartaudio.c **** }
 1215              	 .loc 2 329 0
 1216 0066 1846     	 mov r0,r3
 1217 0068 1037     	 adds r7,r7,#16
 1218              	.LCFI39:
 1219              	 .cfi_def_cfa_offset 8
 1220 006a BD46     	 mov sp,r7
 1221              	.LCFI40:
 1222              	 .cfi_def_cfa_register 13
 1223              	 
 1224 006c 80BD     	 pop {r7,pc}
 1225              	.L83:
 1226 006e 00BF     	 .align 2
 1227              	.L82:
 1228 0070 00000000 	 .word saDevice
 1229 0074 00000000 	 .word saCmsOpmodel
 1230 0078 00000000 	 .word saCmsPitFMode
 1231 007c 00000000 	 .word saCmsFselModeNew
 1232              	 .cfi_endproc
 1233              	.LFE540:
 1235              	 .section .rodata
 1236 0012 0000     	 .align 2
 1237              	.LC4:
 1238 0014 4F46464C 	 .ascii "OFFL\000"
 1238      00
 1239 0019 000000   	 .align 2
 1240              	.LC5:
 1241 001c 4F4E4C20 	 .ascii "ONL V1\000"
 1241      563100
 1242 0023 00       	 .align 2
 1243              	.LC6:
 1244 0024 4F4E4C20 	 .ascii "ONL V2\000"
 1244      563200
 1245              	 .section .rodata.saCmsDeviceStatusNames,"a",%progbits
 1246              	 .align 2
 1249              	saCmsDeviceStatusNames:
 1250 0000 14000000 	 .word .LC4
 1251 0004 1C000000 	 .word .LC5
 1252 0008 24000000 	 .word .LC6
 1253              	 .section .data.saCmsEntOnline,"aw",%progbits
 1254              	 .align 2
 1257              	saCmsEntOnline:
 1258 0000 00000000 	 .word saCmsDeviceStatus
 1259 0004 02       	 .byte 2
 1260 0005 00000000 	 .4byte saCmsDeviceStatusNames
 1261 0009 000000   	 .section .data.__compound_literal.0,"aw",%progbits
 1262              	 .align 2
 1265              	__compound_literal.0:
 1266 0000 00000000 	 .word sa_smartbaud
 1267 0004 0000     	 .short 0
 1268 0006 0000     	 .short 0
 1269 0008 0000     	 .short 0
 1270 000a 0000     	 .section .data.__compound_literal.1,"aw",%progbits
 1271              	 .align 2
 1274              	__compound_literal.1:
 1275 0000 00000000 	 .word saStat
 1276 0004 0000     	 .short 0
 1277 0006 0000     	 .short 0
 1278 0008 0000     	 .short 0
 1279 000a 0000     	 .section .data.__compound_literal.2,"aw",%progbits
 1280              	 .align 2
 1283              	__compound_literal.2:
 1284 0000 02000000 	 .word saStat+2
 1285 0004 0000     	 .short 0
 1286 0006 0000     	 .short 0
 1287 0008 0000     	 .short 0
 1288 000a 0000     	 .section .data.__compound_literal.3,"aw",%progbits
 1289              	 .align 2
 1292              	__compound_literal.3:
 1293 0000 04000000 	 .word saStat+4
 1294 0004 0000     	 .short 0
 1295 0006 0000     	 .short 0
 1296 0008 0000     	 .short 0
 1297 000a 0000     	 .section .data.__compound_literal.4,"aw",%progbits
 1298              	 .align 2
 1301              	__compound_literal.4:
 1302 0000 06000000 	 .word saStat+6
 1303 0004 0000     	 .short 0
 1304 0006 0000     	 .short 0
 1305 0008 0000     	 .short 0
 1306 000a 0000     	 .section .data.__compound_literal.5,"aw",%progbits
 1307              	 .align 2
 1310              	__compound_literal.5:
 1311 0000 08000000 	 .word saStat+8
 1312 0004 0000     	 .short 0
 1313 0006 0000     	 .short 0
 1314 0008 0000     	 .short 0
 1315 000a 0000     	 .section .data.__compound_literal.6,"aw",%progbits
 1316              	 .align 2
 1319              	__compound_literal.6:
 1320 0000 0A000000 	 .word saStat+10
 1321 0004 0000     	 .short 0
 1322 0006 0000     	 .short 0
 1323 0008 0000     	 .short 0
 1324 000a 0000     	 .section .rodata
 1325 002b 00       	 .align 2
 1326              	.LC7:
 1327 002c 2D205341 	 .ascii "- SA STATS -\000"
 1327      20535441 
 1327      5453202D 
 1327      00
 1328 0039 000000   	 .align 2
 1329              	.LC8:
 1330 003c 53544154 	 .ascii "STATUS\000"
 1330      555300
 1331 0043 00       	 .align 2
 1332              	.LC9:
 1333 0044 42415544 	 .ascii "BAUDRATE\000"
 1333      52415445 
 1333      00
 1334 004d 000000   	 .align 2
 1335              	.LC10:
 1336 0050 53454E54 	 .ascii "SENT\000"
 1336      00
 1337 0055 000000   	 .align 2
 1338              	.LC11:
 1339 0058 52435644 	 .ascii "RCVD\000"
 1339      00
 1340 005d 000000   	 .align 2
 1341              	.LC12:
 1342 0060 42414450 	 .ascii "BADPRE\000"
 1342      524500
 1343 0067 00       	 .align 2
 1344              	.LC13:
 1345 0068 4241444C 	 .ascii "BADLEN\000"
 1345      454E00
 1346 006f 00       	 .align 2
 1347              	.LC14:
 1348 0070 43524345 	 .ascii "CRCERR\000"
 1348      525200
 1349 0077 00       	 .align 2
 1350              	.LC15:
 1351 0078 4F4F4F45 	 .ascii "OOOERR\000"
 1351      525200
 1352 007f 00       	 .align 2
 1353              	.LC16:
 1354 0080 4241434B 	 .ascii "BACK\000"
 1354      00
 1355              	 .section .data.saCmsMenuStatsEntries,"aw",%progbits
 1356              	 .align 2
 1359              	saCmsMenuStatsEntries:
 1360 0000 2C000000 	 .word .LC7
 1361 0004 00       	 .byte 0
 1362 0005 00000000 	 .4byte 0
 1363 0009 00000000 	 .4byte 0
 1364 000d 00       	 .byte 0
 1365 000e 3C000000 	 .4byte .LC8
 1366 0012 0D       	 .byte 13
 1367 0013 00000000 	 .4byte 0
 1368 0017 00000000 	 .4byte saCmsEntOnline
 1369 001b 04       	 .byte 4
 1370 001c 44000000 	 .word .LC9
 1371 0020 08       	 .byte 8
 1372 0021 00000000 	 .4byte 0
 1373 0025 00000000 	 .4byte __compound_literal.0
 1374 0029 04       	 .byte 4
 1375 002a 50000000 	 .4byte .LC10
 1376 002e 08       	 .byte 8
 1377 002f 00000000 	 .4byte 0
 1378 0033 00000000 	 .4byte __compound_literal.1
 1379 0037 04       	 .byte 4
 1380 0038 58000000 	 .word .LC11
 1381 003c 08       	 .byte 8
 1382 003d 00000000 	 .4byte 0
 1383 0041 00000000 	 .4byte __compound_literal.2
 1384 0045 04       	 .byte 4
 1385 0046 60000000 	 .4byte .LC12
 1386 004a 08       	 .byte 8
 1387 004b 00000000 	 .4byte 0
 1388 004f 00000000 	 .4byte __compound_literal.3
 1389 0053 04       	 .byte 4
 1390 0054 68000000 	 .word .LC13
 1391 0058 08       	 .byte 8
 1392 0059 00000000 	 .4byte 0
 1393 005d 00000000 	 .4byte __compound_literal.4
 1394 0061 04       	 .byte 4
 1395 0062 70000000 	 .4byte .LC14
 1396 0066 08       	 .byte 8
 1397 0067 00000000 	 .4byte 0
 1398 006b 00000000 	 .4byte __compound_literal.5
 1399 006f 04       	 .byte 4
 1400 0070 78000000 	 .word .LC15
 1401 0074 08       	 .byte 8
 1402 0075 00000000 	 .4byte 0
 1403 0079 00000000 	 .4byte __compound_literal.6
 1404 007d 04       	 .byte 4
 1405 007e 80000000 	 .4byte .LC16
 1406 0082 01       	 .byte 1
 1407 0083 00000000 	 .4byte 0
 1408 0087 00000000 	 .4byte 0
 1409 008b 00       	 .byte 0
 1410 008c 00000000 	 .word 0
 1411 0090 0E       	 .byte 14
 1412 0091 00000000 	 .4byte 0
 1413 0095 00000000 	 .4byte 0
 1414 0099 00       	 .byte 0
 1415 009a 0000     	 .section .data.saCmsMenuStats,"aw",%progbits
 1416              	 .align 2
 1419              	saCmsMenuStats:
 1420 0000 00000000 	 .word 0
 1421 0004 00000000 	 .word 0
 1422 0008 00000000 	 .word saCmsMenuStatsEntries
 1423              	 .section .data.saCmsEntBand,"aw",%progbits
 1424              	 .align 2
 1427              	saCmsEntBand:
 1428 0000 00000000 	 .word saCmsBand
 1429 0004 05       	 .byte 5
 1430 0005 00000000 	 .4byte vtx58BandNames
 1431 0009 000000   	 .section .data.saCmsEntChan,"aw",%progbits
 1432              	 .align 2
 1435              	saCmsEntChan:
 1436 0000 00000000 	 .word saCmsChan
 1437 0004 08       	 .byte 8
 1438 0005 00000000 	 .4byte vtx58ChannelNames
 1439 0009 000000   	 .section .data.saCmsEntPower,"aw",%progbits
 1440              	 .align 2
 1443              	saCmsEntPower:
 1444 0000 00000000 	 .word saCmsPower
 1445 0004 04       	 .byte 4
 1446 0005 00000000 	 .4byte saPowerNames
 1447 0009 000000   	 .section .data.saCmsEntFreqRef,"aw",%progbits
 1448              	 .align 2
 1451              	saCmsEntFreqRef:
 1452 0000 00000000 	 .word saCmsFreqRef
 1453 0004 E015     	 .short 5600
 1454 0006 0C17     	 .short 5900
 1455 0008 0000     	 .short 0
 1456 000a 0000     	 .section .rodata
 1457 0085 000000   	 .align 2
 1458              	.LC17:
 1459 0088 2D2D2D2D 	 .ascii "----\000"
 1459      00
 1460 008d 000000   	 .align 2
 1461              	.LC18:
 1462 0090 46524545 	 .ascii "FREE\000"
 1462      00
 1463 0095 000000   	 .align 2
 1464              	.LC19:
 1465 0098 52414345 	 .ascii "RACE\000"
 1465      00
 1466              	 .section .rodata.saCmsOpmodelNames,"a",%progbits
 1467              	 .align 2
 1470              	saCmsOpmodelNames:
 1471 0000 88000000 	 .word .LC17
 1472 0004 90000000 	 .word .LC18
 1473 0008 98000000 	 .word .LC19
 1474              	 .section .rodata
 1475 009d 000000   	 .align 2
 1476              	.LC20:
 1477 00a0 4348414E 	 .ascii "CHAN\000"
 1477      00
 1478 00a5 000000   	 .align 2
 1479              	.LC21:
 1480 00a8 55534552 	 .ascii "USER\000"
 1480      00
 1481              	 .section .rodata.saCmsFselModeNames,"a",%progbits
 1482              	 .align 2
 1485              	saCmsFselModeNames:
 1486 0000 A0000000 	 .word .LC20
 1487 0004 A8000000 	 .word .LC21
 1488              	 .section .rodata
 1489 00ad 000000   	 .align 2
 1490              	.LC22:
 1491 00b0 2D2D2D00 	 .ascii "---\000"
 1492              	 .align 2
 1493              	.LC23:
 1494 00b4 50495200 	 .ascii "PIR\000"
 1495              	 .align 2
 1496              	.LC24:
 1497 00b8 504F5200 	 .ascii "POR\000"
 1498              	 .section .rodata.saCmsPitFModeNames,"a",%progbits
 1499              	 .align 2
 1502              	saCmsPitFModeNames:
 1503 0000 B0000000 	 .word .LC22
 1504 0004 B4000000 	 .word .LC23
 1505 0008 B8000000 	 .word .LC24
 1506              	 .section .data.saCmsEntPitFMode,"aw",%progbits
 1507              	 .align 2
 1510              	saCmsEntPitFMode:
 1511 0000 00000000 	 .word saCmsPitFMode
 1512 0004 01       	 .byte 1
 1513 0005 00000000 	 .4byte saCmsPitFModeNames
 1514 0009 000000   	 .section .text.saCmsConfigFreqModeByGvar,"ax",%progbits
 1515              	 .align 2
 1516              	 .thumb
 1517              	 .thumb_func
 1519              	saCmsConfigFreqModeByGvar:
 1520              	.LFB541:
 330:../cleanflight/src/main/cms/cms_menu_vtx_smartaudio.c **** 
 331:../cleanflight/src/main/cms/cms_menu_vtx_smartaudio.c **** #ifdef USE_EXTENDED_CMS_MENUS
 332:../cleanflight/src/main/cms/cms_menu_vtx_smartaudio.c **** static const char * const saCmsDeviceStatusNames[] = {
 333:../cleanflight/src/main/cms/cms_menu_vtx_smartaudio.c ****     "OFFL",
 334:../cleanflight/src/main/cms/cms_menu_vtx_smartaudio.c ****     "ONL V1",
 335:../cleanflight/src/main/cms/cms_menu_vtx_smartaudio.c ****     "ONL V2",
 336:../cleanflight/src/main/cms/cms_menu_vtx_smartaudio.c **** };
 337:../cleanflight/src/main/cms/cms_menu_vtx_smartaudio.c **** 
 338:../cleanflight/src/main/cms/cms_menu_vtx_smartaudio.c **** static OSD_TAB_t saCmsEntOnline = { &saCmsDeviceStatus, 2, saCmsDeviceStatusNames };
 339:../cleanflight/src/main/cms/cms_menu_vtx_smartaudio.c **** 
 340:../cleanflight/src/main/cms/cms_menu_vtx_smartaudio.c **** static OSD_Entry saCmsMenuStatsEntries[] = {
 341:../cleanflight/src/main/cms/cms_menu_vtx_smartaudio.c ****     { "- SA STATS -", OME_Label, NULL, NULL, 0 },
 342:../cleanflight/src/main/cms/cms_menu_vtx_smartaudio.c ****     { "STATUS",   OME_TAB,    NULL, &saCmsEntOnline,                              DYNAMIC },
 343:../cleanflight/src/main/cms/cms_menu_vtx_smartaudio.c ****     { "BAUDRATE", OME_UINT16, NULL, &(OSD_UINT16_t){ &sa_smartbaud, 0, 0, 0 },    DYNAMIC },
 344:../cleanflight/src/main/cms/cms_menu_vtx_smartaudio.c ****     { "SENT",     OME_UINT16, NULL, &(OSD_UINT16_t){ &saStat.pktsent, 0, 0, 0 },  DYNAMIC },
 345:../cleanflight/src/main/cms/cms_menu_vtx_smartaudio.c ****     { "RCVD",     OME_UINT16, NULL, &(OSD_UINT16_t){ &saStat.pktrcvd, 0, 0, 0 },  DYNAMIC },
 346:../cleanflight/src/main/cms/cms_menu_vtx_smartaudio.c ****     { "BADPRE",   OME_UINT16, NULL, &(OSD_UINT16_t){ &saStat.badpre, 0, 0, 0 },   DYNAMIC },
 347:../cleanflight/src/main/cms/cms_menu_vtx_smartaudio.c ****     { "BADLEN",   OME_UINT16, NULL, &(OSD_UINT16_t){ &saStat.badlen, 0, 0, 0 },   DYNAMIC },
 348:../cleanflight/src/main/cms/cms_menu_vtx_smartaudio.c ****     { "CRCERR",   OME_UINT16, NULL, &(OSD_UINT16_t){ &saStat.crc, 0, 0, 0 },      DYNAMIC },
 349:../cleanflight/src/main/cms/cms_menu_vtx_smartaudio.c ****     { "OOOERR",   OME_UINT16, NULL, &(OSD_UINT16_t){ &saStat.ooopresp, 0, 0, 0 }, DYNAMIC },
 350:../cleanflight/src/main/cms/cms_menu_vtx_smartaudio.c ****     { "BACK",     OME_Back,   NULL, NULL, 0 },
 351:../cleanflight/src/main/cms/cms_menu_vtx_smartaudio.c ****     { NULL,       OME_END,    NULL, NULL, 0 }
 352:../cleanflight/src/main/cms/cms_menu_vtx_smartaudio.c **** };
 353:../cleanflight/src/main/cms/cms_menu_vtx_smartaudio.c **** 
 354:../cleanflight/src/main/cms/cms_menu_vtx_smartaudio.c **** static CMS_Menu saCmsMenuStats = {
 355:../cleanflight/src/main/cms/cms_menu_vtx_smartaudio.c **** #ifdef CMS_MENU_DEBUG
 356:../cleanflight/src/main/cms/cms_menu_vtx_smartaudio.c ****     .GUARD_text = "XSAST",
 357:../cleanflight/src/main/cms/cms_menu_vtx_smartaudio.c ****     .GUARD_type = OME_MENU,
 358:../cleanflight/src/main/cms/cms_menu_vtx_smartaudio.c **** #endif
 359:../cleanflight/src/main/cms/cms_menu_vtx_smartaudio.c ****     .onEnter = NULL,
 360:../cleanflight/src/main/cms/cms_menu_vtx_smartaudio.c ****     .onExit = NULL,
 361:../cleanflight/src/main/cms/cms_menu_vtx_smartaudio.c ****     .entries = saCmsMenuStatsEntries
 362:../cleanflight/src/main/cms/cms_menu_vtx_smartaudio.c **** };
 363:../cleanflight/src/main/cms/cms_menu_vtx_smartaudio.c **** #endif /* USE_EXTENDED_CMS_MENUS */
 364:../cleanflight/src/main/cms/cms_menu_vtx_smartaudio.c **** 
 365:../cleanflight/src/main/cms/cms_menu_vtx_smartaudio.c **** static OSD_TAB_t saCmsEntBand = { &saCmsBand, VTX_SMARTAUDIO_BAND_COUNT, vtx58BandNames };
 366:../cleanflight/src/main/cms/cms_menu_vtx_smartaudio.c **** 
 367:../cleanflight/src/main/cms/cms_menu_vtx_smartaudio.c **** static OSD_TAB_t saCmsEntChan = { &saCmsChan, VTX_SMARTAUDIO_CHANNEL_COUNT, vtx58ChannelNames };
 368:../cleanflight/src/main/cms/cms_menu_vtx_smartaudio.c **** 
 369:../cleanflight/src/main/cms/cms_menu_vtx_smartaudio.c **** static OSD_TAB_t saCmsEntPower = { &saCmsPower, VTX_SMARTAUDIO_POWER_COUNT, saPowerNames};
 370:../cleanflight/src/main/cms/cms_menu_vtx_smartaudio.c **** 
 371:../cleanflight/src/main/cms/cms_menu_vtx_smartaudio.c **** static OSD_UINT16_t saCmsEntFreqRef = { &saCmsFreqRef, 5600, 5900, 0 };
 372:../cleanflight/src/main/cms/cms_menu_vtx_smartaudio.c **** 
 373:../cleanflight/src/main/cms/cms_menu_vtx_smartaudio.c **** static const char * const saCmsOpmodelNames[] = {
 374:../cleanflight/src/main/cms/cms_menu_vtx_smartaudio.c ****     "----",
 375:../cleanflight/src/main/cms/cms_menu_vtx_smartaudio.c ****     "FREE",
 376:../cleanflight/src/main/cms/cms_menu_vtx_smartaudio.c ****     "RACE",
 377:../cleanflight/src/main/cms/cms_menu_vtx_smartaudio.c **** };
 378:../cleanflight/src/main/cms/cms_menu_vtx_smartaudio.c **** 
 379:../cleanflight/src/main/cms/cms_menu_vtx_smartaudio.c **** static const char * const saCmsFselModeNames[] = {
 380:../cleanflight/src/main/cms/cms_menu_vtx_smartaudio.c ****     "CHAN",
 381:../cleanflight/src/main/cms/cms_menu_vtx_smartaudio.c ****     "USER"
 382:../cleanflight/src/main/cms/cms_menu_vtx_smartaudio.c **** };
 383:../cleanflight/src/main/cms/cms_menu_vtx_smartaudio.c **** 
 384:../cleanflight/src/main/cms/cms_menu_vtx_smartaudio.c **** static const char * const saCmsPitFModeNames[] = {
 385:../cleanflight/src/main/cms/cms_menu_vtx_smartaudio.c ****     "---",
 386:../cleanflight/src/main/cms/cms_menu_vtx_smartaudio.c ****     "PIR",
 387:../cleanflight/src/main/cms/cms_menu_vtx_smartaudio.c ****     "POR"
 388:../cleanflight/src/main/cms/cms_menu_vtx_smartaudio.c **** };
 389:../cleanflight/src/main/cms/cms_menu_vtx_smartaudio.c **** 
 390:../cleanflight/src/main/cms/cms_menu_vtx_smartaudio.c **** static OSD_TAB_t saCmsEntPitFMode = { &saCmsPitFMode, 1, saCmsPitFModeNames };
 391:../cleanflight/src/main/cms/cms_menu_vtx_smartaudio.c **** 
 392:../cleanflight/src/main/cms/cms_menu_vtx_smartaudio.c **** static long sacms_SetupTopMenu(void); // Forward
 393:../cleanflight/src/main/cms/cms_menu_vtx_smartaudio.c **** 
 394:../cleanflight/src/main/cms/cms_menu_vtx_smartaudio.c **** static long saCmsConfigFreqModeByGvar(displayPort_t *pDisp, const void *self)
 395:../cleanflight/src/main/cms/cms_menu_vtx_smartaudio.c **** {
 1521              	 .loc 2 395 0
 1522              	 .cfi_startproc
 1523              	 
 1524              	 
 1525 0000 80B5     	 push {r7,lr}
 1526              	.LCFI41:
 1527              	 .cfi_def_cfa_offset 8
 1528              	 .cfi_offset 7,-8
 1529              	 .cfi_offset 14,-4
 1530 0002 82B0     	 sub sp,sp,#8
 1531              	.LCFI42:
 1532              	 .cfi_def_cfa_offset 16
 1533 0004 00AF     	 add r7,sp,#0
 1534              	.LCFI43:
 1535              	 .cfi_def_cfa_register 7
 1536 0006 7860     	 str r0,[r7,#4]
 1537 0008 3960     	 str r1,[r7]
 396:../cleanflight/src/main/cms/cms_menu_vtx_smartaudio.c ****     UNUSED(pDisp);
 397:../cleanflight/src/main/cms/cms_menu_vtx_smartaudio.c ****     UNUSED(self);
 398:../cleanflight/src/main/cms/cms_menu_vtx_smartaudio.c **** 
 399:../cleanflight/src/main/cms/cms_menu_vtx_smartaudio.c ****     // if trying to do user frequency mode in RACE opmodel then
 400:../cleanflight/src/main/cms/cms_menu_vtx_smartaudio.c ****     // revert because user-freq only available in FREE opmodel
 401:../cleanflight/src/main/cms/cms_menu_vtx_smartaudio.c ****     if (saCmsFselModeNew != 0 && saCmsOpmodel != SACMS_OPMODEL_FREE) {
 1538              	 .loc 2 401 0
 1539 000a 094B     	 ldr r3,.L87
 1540 000c 1B78     	 ldrb r3,[r3]
 1541 000e 002B     	 cmp r3,#0
 1542 0010 06D0     	 beq .L85
 1543              	 .loc 2 401 0 is_stmt 0 discriminator 1
 1544 0012 084B     	 ldr r3,.L87+4
 1545 0014 1B78     	 ldrb r3,[r3]
 1546 0016 012B     	 cmp r3,#1
 1547 0018 02D0     	 beq .L85
 402:../cleanflight/src/main/cms/cms_menu_vtx_smartaudio.c ****         saCmsFselModeNew = 0;
 1548              	 .loc 2 402 0 is_stmt 1
 1549 001a 054B     	 ldr r3,.L87
 1550 001c 0022     	 movs r2,#0
 1551 001e 1A70     	 strb r2,[r3]
 1552              	.L85:
 403:../cleanflight/src/main/cms/cms_menu_vtx_smartaudio.c ****     }
 404:../cleanflight/src/main/cms/cms_menu_vtx_smartaudio.c **** 
 405:../cleanflight/src/main/cms/cms_menu_vtx_smartaudio.c ****     // don't call 'saSetBandAndChannel()' / 'saSetFreq()' here,
 406:../cleanflight/src/main/cms/cms_menu_vtx_smartaudio.c ****     // wait until SET / 'saCmsCommence()' is activated
 407:../cleanflight/src/main/cms/cms_menu_vtx_smartaudio.c **** 
 408:../cleanflight/src/main/cms/cms_menu_vtx_smartaudio.c ****     sacms_SetupTopMenu();
 1553              	 .loc 2 408 0
 1554 0020 FFF7FEFF 	 bl sacms_SetupTopMenu
 409:../cleanflight/src/main/cms/cms_menu_vtx_smartaudio.c **** 
 410:../cleanflight/src/main/cms/cms_menu_vtx_smartaudio.c ****     return 0;
 1555              	 .loc 2 410 0
 1556 0024 0023     	 movs r3,#0
 411:../cleanflight/src/main/cms/cms_menu_vtx_smartaudio.c **** }
 1557              	 .loc 2 411 0
 1558 0026 1846     	 mov r0,r3
 1559 0028 0837     	 adds r7,r7,#8
 1560              	.LCFI44:
 1561              	 .cfi_def_cfa_offset 8
 1562 002a BD46     	 mov sp,r7
 1563              	.LCFI45:
 1564              	 .cfi_def_cfa_register 13
 1565              	 
 1566 002c 80BD     	 pop {r7,pc}
 1567              	.L88:
 1568 002e 00BF     	 .align 2
 1569              	.L87:
 1570 0030 00000000 	 .word saCmsFselModeNew
 1571 0034 00000000 	 .word saCmsOpmodel
 1572              	 .cfi_endproc
 1573              	.LFE541:
 1575              	 .section .text.saCmsCommence,"ax",%progbits
 1576              	 .align 2
 1577              	 .thumb
 1578              	 .thumb_func
 1580              	saCmsCommence:
 1581              	.LFB542:
 412:../cleanflight/src/main/cms/cms_menu_vtx_smartaudio.c **** 
 413:../cleanflight/src/main/cms/cms_menu_vtx_smartaudio.c **** static long saCmsCommence(displayPort_t *pDisp, const void *self)
 414:../cleanflight/src/main/cms/cms_menu_vtx_smartaudio.c **** {
 1582              	 .loc 2 414 0
 1583              	 .cfi_startproc
 1584              	 
 1585              	 
 1586 0000 80B5     	 push {r7,lr}
 1587              	.LCFI46:
 1588              	 .cfi_def_cfa_offset 8
 1589              	 .cfi_offset 7,-8
 1590              	 .cfi_offset 14,-4
 1591 0002 86B0     	 sub sp,sp,#24
 1592              	.LCFI47:
 1593              	 .cfi_def_cfa_offset 32
 1594 0004 00AF     	 add r7,sp,#0
 1595              	.LCFI48:
 1596              	 .cfi_def_cfa_register 7
 1597 0006 7860     	 str r0,[r7,#4]
 1598 0008 3960     	 str r1,[r7]
 415:../cleanflight/src/main/cms/cms_menu_vtx_smartaudio.c ****     UNUSED(pDisp);
 416:../cleanflight/src/main/cms/cms_menu_vtx_smartaudio.c ****     UNUSED(self);
 417:../cleanflight/src/main/cms/cms_menu_vtx_smartaudio.c **** 
 418:../cleanflight/src/main/cms/cms_menu_vtx_smartaudio.c ****     const vtxSettingsConfig_t prevSettings = {
 1599              	 .loc 2 418 0
 1600 000a 0023     	 movs r3,#0
 1601 000c 3B61     	 str r3,[r7,#16]
 1602 000e 0023     	 movs r3,#0
 1603 0010 7B61     	 str r3,[r7,#20]
 419:../cleanflight/src/main/cms/cms_menu_vtx_smartaudio.c ****         .band = vtxSettingsConfig()->band,
 1604              	 .loc 2 419 0
 1605 0012 FFF7FEFF 	 bl vtxSettingsConfig
 1606 0016 0346     	 mov r3,r0
 1607 0018 1B78     	 ldrb r3,[r3]
 418:../cleanflight/src/main/cms/cms_menu_vtx_smartaudio.c ****         .band = vtxSettingsConfig()->band,
 1608              	 .loc 2 418 0
 1609 001a 3B74     	 strb r3,[r7,#16]
 420:../cleanflight/src/main/cms/cms_menu_vtx_smartaudio.c ****         .channel = vtxSettingsConfig()->channel,
 1610              	 .loc 2 420 0
 1611 001c FFF7FEFF 	 bl vtxSettingsConfig
 1612 0020 0346     	 mov r3,r0
 1613 0022 5B78     	 ldrb r3,[r3,#1]
 418:../cleanflight/src/main/cms/cms_menu_vtx_smartaudio.c ****         .band = vtxSettingsConfig()->band,
 1614              	 .loc 2 418 0
 1615 0024 7B74     	 strb r3,[r7,#17]
 421:../cleanflight/src/main/cms/cms_menu_vtx_smartaudio.c ****         .freq = vtxSettingsConfig()->freq,
 422:../cleanflight/src/main/cms/cms_menu_vtx_smartaudio.c ****         .power = vtxSettingsConfig()->power,
 1616              	 .loc 2 422 0
 1617 0026 FFF7FEFF 	 bl vtxSettingsConfig
 1618 002a 0346     	 mov r3,r0
 1619 002c 9B78     	 ldrb r3,[r3,#2]
 418:../cleanflight/src/main/cms/cms_menu_vtx_smartaudio.c ****         .band = vtxSettingsConfig()->band,
 1620              	 .loc 2 418 0
 1621 002e BB74     	 strb r3,[r7,#18]
 421:../cleanflight/src/main/cms/cms_menu_vtx_smartaudio.c ****         .freq = vtxSettingsConfig()->freq,
 1622              	 .loc 2 421 0
 1623 0030 FFF7FEFF 	 bl vtxSettingsConfig
 1624 0034 0346     	 mov r3,r0
 1625 0036 B3F80330 	 ldrh r3,[r3,#3]
 1626 003a 9BB2     	 uxth r3,r3
 418:../cleanflight/src/main/cms/cms_menu_vtx_smartaudio.c ****         .band = vtxSettingsConfig()->band,
 1627              	 .loc 2 418 0
 1628 003c A7F81330 	 strh r3,[r7,#19]
 423:../cleanflight/src/main/cms/cms_menu_vtx_smartaudio.c ****         .lowPowerDisarm = vtxSettingsConfig()->lowPowerDisarm,
 1629              	 .loc 2 423 0
 1630 0040 FFF7FEFF 	 bl vtxSettingsConfig
 1631 0044 0346     	 mov r3,r0
 1632 0046 DB79     	 ldrb r3,[r3,#7]
 418:../cleanflight/src/main/cms/cms_menu_vtx_smartaudio.c ****         .band = vtxSettingsConfig()->band,
 1633              	 .loc 2 418 0
 1634 0048 FB75     	 strb r3,[r7,#23]
 424:../cleanflight/src/main/cms/cms_menu_vtx_smartaudio.c ****     };
 425:../cleanflight/src/main/cms/cms_menu_vtx_smartaudio.c ****     vtxSettingsConfig_t newSettings = prevSettings;
 1635              	 .loc 2 425 0
 1636 004a 07F10803 	 add r3,r7,#8
 1637 004e 07F11002 	 add r2,r7,#16
 1638 0052 92E80300 	 ldmia r2,{r0,r1}
 1639 0056 83E80300 	 stmia r3,{r0,r1}
 426:../cleanflight/src/main/cms/cms_menu_vtx_smartaudio.c **** 
 427:../cleanflight/src/main/cms/cms_menu_vtx_smartaudio.c ****     if (saCmsOpmodel == SACMS_OPMODEL_RACE) {
 1640              	 .loc 2 427 0
 1641 005a 374B     	 ldr r3,.L97
 1642 005c 1B78     	 ldrb r3,[r3]
 1643 005e 022B     	 cmp r3,#2
 1644 0060 1CD1     	 bne .L90
 428:../cleanflight/src/main/cms/cms_menu_vtx_smartaudio.c ****         // Race model
 429:../cleanflight/src/main/cms/cms_menu_vtx_smartaudio.c ****         // Setup band, freq and power.
 430:../cleanflight/src/main/cms/cms_menu_vtx_smartaudio.c **** 
 431:../cleanflight/src/main/cms/cms_menu_vtx_smartaudio.c ****         newSettings.band = saCmsBand;
 1645              	 .loc 2 431 0
 1646 0062 364B     	 ldr r3,.L97+4
 1647 0064 1B78     	 ldrb r3,[r3]
 1648 0066 3B72     	 strb r3,[r7,#8]
 432:../cleanflight/src/main/cms/cms_menu_vtx_smartaudio.c ****         newSettings.channel = saCmsChan;
 1649              	 .loc 2 432 0
 1650 0068 354B     	 ldr r3,.L97+8
 1651 006a 1B78     	 ldrb r3,[r3]
 1652 006c 7B72     	 strb r3,[r7,#9]
 433:../cleanflight/src/main/cms/cms_menu_vtx_smartaudio.c ****         newSettings.freq = vtx58_Bandchan2Freq(saCmsBand, saCmsChan);
 1653              	 .loc 2 433 0
 1654 006e 334B     	 ldr r3,.L97+4
 1655 0070 1A78     	 ldrb r2,[r3]
 1656 0072 334B     	 ldr r3,.L97+8
 1657 0074 1B78     	 ldrb r3,[r3]
 1658 0076 1046     	 mov r0,r2
 1659 0078 1946     	 mov r1,r3
 1660 007a FFF7FEFF 	 bl vtx58_Bandchan2Freq
 1661 007e 0346     	 mov r3,r0
 1662 0080 A7F80B30 	 strh r3,[r7,#11]
 434:../cleanflight/src/main/cms/cms_menu_vtx_smartaudio.c ****         // If in pit mode, cancel it.
 435:../cleanflight/src/main/cms/cms_menu_vtx_smartaudio.c **** 
 436:../cleanflight/src/main/cms/cms_menu_vtx_smartaudio.c ****         if (saCmsPitFMode == 0)
 1663              	 .loc 2 436 0
 1664 0084 2F4B     	 ldr r3,.L97+12
 1665 0086 1B78     	 ldrb r3,[r3]
 1666 0088 002B     	 cmp r3,#0
 1667 008a 03D1     	 bne .L91
 437:../cleanflight/src/main/cms/cms_menu_vtx_smartaudio.c ****             saSetMode(SA_MODE_CLR_PITMODE|SA_MODE_SET_IN_RANGE_PITMODE);
 1668              	 .loc 2 437 0
 1669 008c 0520     	 movs r0,#5
 1670 008e FFF7FEFF 	 bl saSetMode
 1671 0092 22E0     	 b .L93
 1672              	.L91:
 438:../cleanflight/src/main/cms/cms_menu_vtx_smartaudio.c ****         else
 439:../cleanflight/src/main/cms/cms_menu_vtx_smartaudio.c ****             saSetMode(SA_MODE_CLR_PITMODE|SA_MODE_SET_OUT_RANGE_PITMODE);
 1673              	 .loc 2 439 0
 1674 0094 0620     	 movs r0,#6
 1675 0096 FFF7FEFF 	 bl saSetMode
 1676 009a 1EE0     	 b .L93
 1677              	.L90:
 440:../cleanflight/src/main/cms/cms_menu_vtx_smartaudio.c ****     } else {
 441:../cleanflight/src/main/cms/cms_menu_vtx_smartaudio.c ****         // Freestyle model
 442:../cleanflight/src/main/cms/cms_menu_vtx_smartaudio.c ****         // Setup band and freq / user freq
 443:../cleanflight/src/main/cms/cms_menu_vtx_smartaudio.c ****         if (saCmsFselModeNew == 0) {
 1678              	 .loc 2 443 0
 1679 009c 2A4B     	 ldr r3,.L97+16
 1680 009e 1B78     	 ldrb r3,[r3]
 1681 00a0 002B     	 cmp r3,#0
 1682 00a2 11D1     	 bne .L94
 444:../cleanflight/src/main/cms/cms_menu_vtx_smartaudio.c ****             newSettings.band = saCmsBand;
 1683              	 .loc 2 444 0
 1684 00a4 254B     	 ldr r3,.L97+4
 1685 00a6 1B78     	 ldrb r3,[r3]
 1686 00a8 3B72     	 strb r3,[r7,#8]
 445:../cleanflight/src/main/cms/cms_menu_vtx_smartaudio.c ****             newSettings.channel = saCmsChan;
 1687              	 .loc 2 445 0
 1688 00aa 254B     	 ldr r3,.L97+8
 1689 00ac 1B78     	 ldrb r3,[r3]
 1690 00ae 7B72     	 strb r3,[r7,#9]
 446:../cleanflight/src/main/cms/cms_menu_vtx_smartaudio.c ****             newSettings.freq = vtx58_Bandchan2Freq(saCmsBand, saCmsChan);
 1691              	 .loc 2 446 0
 1692 00b0 224B     	 ldr r3,.L97+4
 1693 00b2 1A78     	 ldrb r2,[r3]
 1694 00b4 224B     	 ldr r3,.L97+8
 1695 00b6 1B78     	 ldrb r3,[r3]
 1696 00b8 1046     	 mov r0,r2
 1697 00ba 1946     	 mov r1,r3
 1698 00bc FFF7FEFF 	 bl vtx58_Bandchan2Freq
 1699 00c0 0346     	 mov r3,r0
 1700 00c2 A7F80B30 	 strh r3,[r7,#11]
 1701 00c6 08E0     	 b .L93
 1702              	.L94:
 447:../cleanflight/src/main/cms/cms_menu_vtx_smartaudio.c ****         } else {
 448:../cleanflight/src/main/cms/cms_menu_vtx_smartaudio.c ****             saSetMode(0);    //make sure FREE mode is setup
 1703              	 .loc 2 448 0
 1704 00c8 0020     	 movs r0,#0
 1705 00ca FFF7FEFF 	 bl saSetMode
 449:../cleanflight/src/main/cms/cms_menu_vtx_smartaudio.c ****             newSettings.band = 0;
 1706              	 .loc 2 449 0
 1707 00ce 0023     	 movs r3,#0
 1708 00d0 3B72     	 strb r3,[r7,#8]
 450:../cleanflight/src/main/cms/cms_menu_vtx_smartaudio.c ****             newSettings.freq = saCmsUserFreq;
 1709              	 .loc 2 450 0
 1710 00d2 1E4B     	 ldr r3,.L97+20
 1711 00d4 1B88     	 ldrh r3,[r3]
 1712 00d6 A7F80B30 	 strh r3,[r7,#11]
 1713              	.L93:
 451:../cleanflight/src/main/cms/cms_menu_vtx_smartaudio.c ****         }
 452:../cleanflight/src/main/cms/cms_menu_vtx_smartaudio.c ****     }
 453:../cleanflight/src/main/cms/cms_menu_vtx_smartaudio.c **** 
 454:../cleanflight/src/main/cms/cms_menu_vtx_smartaudio.c ****     newSettings.power = saCmsPower;
 1714              	 .loc 2 454 0
 1715 00da 1D4B     	 ldr r3,.L97+24
 1716 00dc 1B78     	 ldrb r3,[r3]
 1717 00de BB72     	 strb r3,[r7,#10]
 455:../cleanflight/src/main/cms/cms_menu_vtx_smartaudio.c **** 
 456:../cleanflight/src/main/cms/cms_menu_vtx_smartaudio.c ****     if (memcmp(&prevSettings, &newSettings, sizeof(vtxSettingsConfig_t))) {
 1718              	 .loc 2 456 0
 1719 00e0 07F11002 	 add r2,r7,#16
 1720 00e4 07F10803 	 add r3,r7,#8
 1721 00e8 1046     	 mov r0,r2
 1722 00ea 1946     	 mov r1,r3
 1723 00ec 0822     	 movs r2,#8
 1724 00ee FFF7FEFF 	 bl memcmp
 1725 00f2 0346     	 mov r3,r0
 1726 00f4 002B     	 cmp r3,#0
 1727 00f6 18D0     	 beq .L95
 457:../cleanflight/src/main/cms/cms_menu_vtx_smartaudio.c ****         vtxSettingsConfigMutable()->band = newSettings.band;
 1728              	 .loc 2 457 0
 1729 00f8 FFF7FEFF 	 bl vtxSettingsConfigMutable
 1730 00fc 0346     	 mov r3,r0
 1731 00fe 3A7A     	 ldrb r2,[r7,#8]
 1732 0100 1A70     	 strb r2,[r3]
 458:../cleanflight/src/main/cms/cms_menu_vtx_smartaudio.c ****         vtxSettingsConfigMutable()->channel = newSettings.channel;
 1733              	 .loc 2 458 0
 1734 0102 FFF7FEFF 	 bl vtxSettingsConfigMutable
 1735 0106 0346     	 mov r3,r0
 1736 0108 7A7A     	 ldrb r2,[r7,#9]
 1737 010a 5A70     	 strb r2,[r3,#1]
 459:../cleanflight/src/main/cms/cms_menu_vtx_smartaudio.c ****         vtxSettingsConfigMutable()->power = newSettings.power;
 1738              	 .loc 2 459 0
 1739 010c FFF7FEFF 	 bl vtxSettingsConfigMutable
 1740 0110 0346     	 mov r3,r0
 1741 0112 BA7A     	 ldrb r2,[r7,#10]
 1742 0114 9A70     	 strb r2,[r3,#2]
 460:../cleanflight/src/main/cms/cms_menu_vtx_smartaudio.c ****         vtxSettingsConfigMutable()->freq = newSettings.freq;
 1743              	 .loc 2 460 0
 1744 0116 FFF7FEFF 	 bl vtxSettingsConfigMutable
 1745 011a 0346     	 mov r3,r0
 1746 011c B7F80B20 	 ldrh r2,[r7,#11]
 1747 0120 92B2     	 uxth r2,r2
 1748 0122 A3F80320 	 strh r2,[r3,#3]
 461:../cleanflight/src/main/cms/cms_menu_vtx_smartaudio.c ****         saveConfigAndNotify();
 1749              	 .loc 2 461 0
 1750 0126 FFF7FEFF 	 bl saveConfigAndNotify
 1751              	.L95:
 462:../cleanflight/src/main/cms/cms_menu_vtx_smartaudio.c ****     }
 463:../cleanflight/src/main/cms/cms_menu_vtx_smartaudio.c **** 
 464:../cleanflight/src/main/cms/cms_menu_vtx_smartaudio.c ****     return MENU_CHAIN_BACK;
 1752              	 .loc 2 464 0
 1753 012a 4FF0FF33 	 mov r3,#-1
 465:../cleanflight/src/main/cms/cms_menu_vtx_smartaudio.c **** }
 1754              	 .loc 2 465 0
 1755 012e 1846     	 mov r0,r3
 1756 0130 1837     	 adds r7,r7,#24
 1757              	.LCFI49:
 1758              	 .cfi_def_cfa_offset 8
 1759 0132 BD46     	 mov sp,r7
 1760              	.LCFI50:
 1761              	 .cfi_def_cfa_register 13
 1762              	 
 1763 0134 80BD     	 pop {r7,pc}
 1764              	.L98:
 1765 0136 00BF     	 .align 2
 1766              	.L97:
 1767 0138 00000000 	 .word saCmsOpmodel
 1768 013c 00000000 	 .word saCmsBand
 1769 0140 00000000 	 .word saCmsChan
 1770 0144 00000000 	 .word saCmsPitFMode
 1771 0148 00000000 	 .word saCmsFselModeNew
 1772 014c 00000000 	 .word saCmsUserFreq
 1773 0150 00000000 	 .word saCmsPower
 1774              	 .cfi_endproc
 1775              	.LFE542:
 1777              	 .section .text.saCmsSetPORFreqOnEnter,"ax",%progbits
 1778              	 .align 2
 1779              	 .thumb
 1780              	 .thumb_func
 1782              	saCmsSetPORFreqOnEnter:
 1783              	.LFB543:
 466:../cleanflight/src/main/cms/cms_menu_vtx_smartaudio.c **** 
 467:../cleanflight/src/main/cms/cms_menu_vtx_smartaudio.c **** static long saCmsSetPORFreqOnEnter(void)
 468:../cleanflight/src/main/cms/cms_menu_vtx_smartaudio.c **** {
 1784              	 .loc 2 468 0
 1785              	 .cfi_startproc
 1786              	 
 1787              	 
 1788              	 
 1789 0000 80B4     	 push {r7}
 1790              	.LCFI51:
 1791              	 .cfi_def_cfa_offset 4
 1792              	 .cfi_offset 7,-4
 1793 0002 00AF     	 add r7,sp,#0
 1794              	.LCFI52:
 1795              	 .cfi_def_cfa_register 7
 469:../cleanflight/src/main/cms/cms_menu_vtx_smartaudio.c ****     if (saDevice.version == 1)
 1796              	 .loc 2 469 0
 1797 0004 084B     	 ldr r3,.L102
 1798 0006 1B78     	 ldrb r3,[r3]
 1799 0008 5BB2     	 sxtb r3,r3
 1800 000a 012B     	 cmp r3,#1
 1801 000c 02D1     	 bne .L100
 470:../cleanflight/src/main/cms/cms_menu_vtx_smartaudio.c ****         return MENU_CHAIN_BACK;
 1802              	 .loc 2 470 0
 1803 000e 4FF0FF33 	 mov r3,#-1
 1804 0012 04E0     	 b .L101
 1805              	.L100:
 471:../cleanflight/src/main/cms/cms_menu_vtx_smartaudio.c **** 
 472:../cleanflight/src/main/cms/cms_menu_vtx_smartaudio.c ****     saCmsORFreqNew = saCmsORFreq;
 1806              	 .loc 2 472 0
 1807 0014 054B     	 ldr r3,.L102+4
 1808 0016 1A88     	 ldrh r2,[r3]
 1809 0018 054B     	 ldr r3,.L102+8
 1810 001a 1A80     	 strh r2,[r3]
 473:../cleanflight/src/main/cms/cms_menu_vtx_smartaudio.c **** 
 474:../cleanflight/src/main/cms/cms_menu_vtx_smartaudio.c ****     return 0;
 1811              	 .loc 2 474 0
 1812 001c 0023     	 movs r3,#0
 1813              	.L101:
 475:../cleanflight/src/main/cms/cms_menu_vtx_smartaudio.c **** }
 1814              	 .loc 2 475 0
 1815 001e 1846     	 mov r0,r3
 1816 0020 BD46     	 mov sp,r7
 1817              	.LCFI53:
 1818              	 .cfi_def_cfa_register 13
 1819              	 
 1820 0022 5DF8047B 	 ldr r7,[sp],#4
 1821              	.LCFI54:
 1822              	 .cfi_restore 7
 1823              	 .cfi_def_cfa_offset 0
 1824 0026 7047     	 bx lr
 1825              	.L103:
 1826              	 .align 2
 1827              	.L102:
 1828 0028 00000000 	 .word saDevice
 1829 002c 00000000 	 .word saCmsORFreq
 1830 0030 00000000 	 .word saCmsORFreqNew
 1831              	 .cfi_endproc
 1832              	.LFE543:
 1834              	 .section .text.saCmsSetPORFreq,"ax",%progbits
 1835              	 .align 2
 1836              	 .thumb
 1837              	 .thumb_func
 1839              	saCmsSetPORFreq:
 1840              	.LFB544:
 476:../cleanflight/src/main/cms/cms_menu_vtx_smartaudio.c **** 
 477:../cleanflight/src/main/cms/cms_menu_vtx_smartaudio.c **** static long saCmsSetPORFreq(displayPort_t *pDisp, const void *self)
 478:../cleanflight/src/main/cms/cms_menu_vtx_smartaudio.c **** {
 1841              	 .loc 2 478 0
 1842              	 .cfi_startproc
 1843              	 
 1844              	 
 1845 0000 80B5     	 push {r7,lr}
 1846              	.LCFI55:
 1847              	 .cfi_def_cfa_offset 8
 1848              	 .cfi_offset 7,-8
 1849              	 .cfi_offset 14,-4
 1850 0002 82B0     	 sub sp,sp,#8
 1851              	.LCFI56:
 1852              	 .cfi_def_cfa_offset 16
 1853 0004 00AF     	 add r7,sp,#0
 1854              	.LCFI57:
 1855              	 .cfi_def_cfa_register 7
 1856 0006 7860     	 str r0,[r7,#4]
 1857 0008 3960     	 str r1,[r7]
 479:../cleanflight/src/main/cms/cms_menu_vtx_smartaudio.c ****     UNUSED(pDisp);
 480:../cleanflight/src/main/cms/cms_menu_vtx_smartaudio.c ****     UNUSED(self);
 481:../cleanflight/src/main/cms/cms_menu_vtx_smartaudio.c **** 
 482:../cleanflight/src/main/cms/cms_menu_vtx_smartaudio.c ****     saSetPitFreq(saCmsORFreqNew);
 1858              	 .loc 2 482 0
 1859 000a 054B     	 ldr r3,.L106
 1860 000c 1B88     	 ldrh r3,[r3]
 1861 000e 1846     	 mov r0,r3
 1862 0010 FFF7FEFF 	 bl saSetPitFreq
 483:../cleanflight/src/main/cms/cms_menu_vtx_smartaudio.c **** 
 484:../cleanflight/src/main/cms/cms_menu_vtx_smartaudio.c ****     return 0;
 1863              	 .loc 2 484 0
 1864 0014 0023     	 movs r3,#0
 485:../cleanflight/src/main/cms/cms_menu_vtx_smartaudio.c **** }
 1865              	 .loc 2 485 0
 1866 0016 1846     	 mov r0,r3
 1867 0018 0837     	 adds r7,r7,#8
 1868              	.LCFI58:
 1869              	 .cfi_def_cfa_offset 8
 1870 001a BD46     	 mov sp,r7
 1871              	.LCFI59:
 1872              	 .cfi_def_cfa_register 13
 1873              	 
 1874 001c 80BD     	 pop {r7,pc}
 1875              	.L107:
 1876 001e 00BF     	 .align 2
 1877              	.L106:
 1878 0020 00000000 	 .word saCmsORFreqNew
 1879              	 .cfi_endproc
 1880              	.LFE544:
 1882              	 .section .text.saCmsORFreqGetString,"ax",%progbits
 1883              	 .align 2
 1884              	 .thumb
 1885              	 .thumb_func
 1887              	saCmsORFreqGetString:
 1888              	.LFB545:
 486:../cleanflight/src/main/cms/cms_menu_vtx_smartaudio.c **** 
 487:../cleanflight/src/main/cms/cms_menu_vtx_smartaudio.c **** static char *saCmsORFreqGetString(void)
 488:../cleanflight/src/main/cms/cms_menu_vtx_smartaudio.c **** {
 1889              	 .loc 2 488 0
 1890              	 .cfi_startproc
 1891              	 
 1892              	 
 1893 0000 80B5     	 push {r7,lr}
 1894              	.LCFI60:
 1895              	 .cfi_def_cfa_offset 8
 1896              	 .cfi_offset 7,-8
 1897              	 .cfi_offset 14,-4
 1898 0002 00AF     	 add r7,sp,#0
 1899              	.LCFI61:
 1900              	 .cfi_def_cfa_register 7
 489:../cleanflight/src/main/cms/cms_menu_vtx_smartaudio.c ****     static char pbuf[5];
 490:../cleanflight/src/main/cms/cms_menu_vtx_smartaudio.c **** 
 491:../cleanflight/src/main/cms/cms_menu_vtx_smartaudio.c ****     tfp_sprintf(pbuf, "%4d", saCmsORFreq);
 1901              	 .loc 2 491 0
 1902 0004 044B     	 ldr r3,.L110
 1903 0006 1B88     	 ldrh r3,[r3]
 1904 0008 0448     	 ldr r0,.L110+4
 1905 000a 0549     	 ldr r1,.L110+8
 1906 000c 1A46     	 mov r2,r3
 1907 000e FFF7FEFF 	 bl tfp_sprintf
 492:../cleanflight/src/main/cms/cms_menu_vtx_smartaudio.c **** 
 493:../cleanflight/src/main/cms/cms_menu_vtx_smartaudio.c ****     return pbuf;
 1908              	 .loc 2 493 0
 1909 0012 024B     	 ldr r3,.L110+4
 494:../cleanflight/src/main/cms/cms_menu_vtx_smartaudio.c **** }
 1910              	 .loc 2 494 0
 1911 0014 1846     	 mov r0,r3
 1912 0016 80BD     	 pop {r7,pc}
 1913              	.L111:
 1914              	 .align 2
 1915              	.L110:
 1916 0018 00000000 	 .word saCmsORFreq
 1917 001c 00000000 	 .word pbuf.12137
 1918 0020 00000000 	 .word .LC2
 1919              	 .cfi_endproc
 1920              	.LFE545:
 1922              	 .section .text.saCmsUserFreqGetString,"ax",%progbits
 1923              	 .align 2
 1924              	 .thumb
 1925              	 .thumb_func
 1927              	saCmsUserFreqGetString:
 1928              	.LFB546:
 495:../cleanflight/src/main/cms/cms_menu_vtx_smartaudio.c **** 
 496:../cleanflight/src/main/cms/cms_menu_vtx_smartaudio.c **** static char *saCmsUserFreqGetString(void)
 497:../cleanflight/src/main/cms/cms_menu_vtx_smartaudio.c **** {
 1929              	 .loc 2 497 0
 1930              	 .cfi_startproc
 1931              	 
 1932              	 
 1933 0000 80B5     	 push {r7,lr}
 1934              	.LCFI62:
 1935              	 .cfi_def_cfa_offset 8
 1936              	 .cfi_offset 7,-8
 1937              	 .cfi_offset 14,-4
 1938 0002 00AF     	 add r7,sp,#0
 1939              	.LCFI63:
 1940              	 .cfi_def_cfa_register 7
 498:../cleanflight/src/main/cms/cms_menu_vtx_smartaudio.c ****     static char pbuf[5];
 499:../cleanflight/src/main/cms/cms_menu_vtx_smartaudio.c **** 
 500:../cleanflight/src/main/cms/cms_menu_vtx_smartaudio.c ****     tfp_sprintf(pbuf, "%4d", saCmsUserFreq);
 1941              	 .loc 2 500 0
 1942 0004 044B     	 ldr r3,.L114
 1943 0006 1B88     	 ldrh r3,[r3]
 1944 0008 0448     	 ldr r0,.L114+4
 1945 000a 0549     	 ldr r1,.L114+8
 1946 000c 1A46     	 mov r2,r3
 1947 000e FFF7FEFF 	 bl tfp_sprintf
 501:../cleanflight/src/main/cms/cms_menu_vtx_smartaudio.c **** 
 502:../cleanflight/src/main/cms/cms_menu_vtx_smartaudio.c ****     return pbuf;
 1948              	 .loc 2 502 0
 1949 0012 024B     	 ldr r3,.L114+4
 503:../cleanflight/src/main/cms/cms_menu_vtx_smartaudio.c **** }
 1950              	 .loc 2 503 0
 1951 0014 1846     	 mov r0,r3
 1952 0016 80BD     	 pop {r7,pc}
 1953              	.L115:
 1954              	 .align 2
 1955              	.L114:
 1956 0018 00000000 	 .word saCmsUserFreq
 1957 001c 00000000 	 .word pbuf.12141
 1958 0020 00000000 	 .word .LC2
 1959              	 .cfi_endproc
 1960              	.LFE546:
 1962              	 .section .text.saCmsSetUserFreqOnEnter,"ax",%progbits
 1963              	 .align 2
 1964              	 .thumb
 1965              	 .thumb_func
 1967              	saCmsSetUserFreqOnEnter:
 1968              	.LFB547:
 504:../cleanflight/src/main/cms/cms_menu_vtx_smartaudio.c **** 
 505:../cleanflight/src/main/cms/cms_menu_vtx_smartaudio.c **** static long saCmsSetUserFreqOnEnter(void)
 506:../cleanflight/src/main/cms/cms_menu_vtx_smartaudio.c **** {
 1969              	 .loc 2 506 0
 1970              	 .cfi_startproc
 1971              	 
 1972              	 
 1973              	 
 1974 0000 80B4     	 push {r7}
 1975              	.LCFI64:
 1976              	 .cfi_def_cfa_offset 4
 1977              	 .cfi_offset 7,-4
 1978 0002 00AF     	 add r7,sp,#0
 1979              	.LCFI65:
 1980              	 .cfi_def_cfa_register 7
 507:../cleanflight/src/main/cms/cms_menu_vtx_smartaudio.c ****     saCmsUserFreqNew = saCmsUserFreq;
 1981              	 .loc 2 507 0
 1982 0004 044B     	 ldr r3,.L118
 1983 0006 1A88     	 ldrh r2,[r3]
 1984 0008 044B     	 ldr r3,.L118+4
 1985 000a 1A80     	 strh r2,[r3]
 508:../cleanflight/src/main/cms/cms_menu_vtx_smartaudio.c **** 
 509:../cleanflight/src/main/cms/cms_menu_vtx_smartaudio.c ****     return 0;
 1986              	 .loc 2 509 0
 1987 000c 0023     	 movs r3,#0
 510:../cleanflight/src/main/cms/cms_menu_vtx_smartaudio.c **** }
 1988              	 .loc 2 510 0
 1989 000e 1846     	 mov r0,r3
 1990 0010 BD46     	 mov sp,r7
 1991              	.LCFI66:
 1992              	 .cfi_def_cfa_register 13
 1993              	 
 1994 0012 5DF8047B 	 ldr r7,[sp],#4
 1995              	.LCFI67:
 1996              	 .cfi_restore 7
 1997              	 .cfi_def_cfa_offset 0
 1998 0016 7047     	 bx lr
 1999              	.L119:
 2000              	 .align 2
 2001              	.L118:
 2002 0018 00000000 	 .word saCmsUserFreq
 2003 001c 00000000 	 .word saCmsUserFreqNew
 2004              	 .cfi_endproc
 2005              	.LFE547:
 2007              	 .section .text.saCmsConfigUserFreq,"ax",%progbits
 2008              	 .align 2
 2009              	 .thumb
 2010              	 .thumb_func
 2012              	saCmsConfigUserFreq:
 2013              	.LFB548:
 511:../cleanflight/src/main/cms/cms_menu_vtx_smartaudio.c **** 
 512:../cleanflight/src/main/cms/cms_menu_vtx_smartaudio.c **** static long saCmsConfigUserFreq(displayPort_t *pDisp, const void *self)
 513:../cleanflight/src/main/cms/cms_menu_vtx_smartaudio.c **** {
 2014              	 .loc 2 513 0
 2015              	 .cfi_startproc
 2016              	 
 2017              	 
 2018              	 
 2019 0000 80B4     	 push {r7}
 2020              	.LCFI68:
 2021              	 .cfi_def_cfa_offset 4
 2022              	 .cfi_offset 7,-4
 2023 0002 83B0     	 sub sp,sp,#12
 2024              	.LCFI69:
 2025              	 .cfi_def_cfa_offset 16
 2026 0004 00AF     	 add r7,sp,#0
 2027              	.LCFI70:
 2028              	 .cfi_def_cfa_register 7
 2029 0006 7860     	 str r0,[r7,#4]
 2030 0008 3960     	 str r1,[r7]
 514:../cleanflight/src/main/cms/cms_menu_vtx_smartaudio.c ****     UNUSED(pDisp);
 515:../cleanflight/src/main/cms/cms_menu_vtx_smartaudio.c ****     UNUSED(self);
 516:../cleanflight/src/main/cms/cms_menu_vtx_smartaudio.c **** 
 517:../cleanflight/src/main/cms/cms_menu_vtx_smartaudio.c ****     saCmsUserFreq = saCmsUserFreqNew;
 2031              	 .loc 2 517 0
 2032 000a 064B     	 ldr r3,.L122
 2033 000c 1A88     	 ldrh r2,[r3]
 2034 000e 064B     	 ldr r3,.L122+4
 2035 0010 1A80     	 strh r2,[r3]
 518:../cleanflight/src/main/cms/cms_menu_vtx_smartaudio.c **** 
 519:../cleanflight/src/main/cms/cms_menu_vtx_smartaudio.c ****     return MENU_CHAIN_BACK;
 2036              	 .loc 2 519 0
 2037 0012 4FF0FF33 	 mov r3,#-1
 520:../cleanflight/src/main/cms/cms_menu_vtx_smartaudio.c **** }
 2038              	 .loc 2 520 0
 2039 0016 1846     	 mov r0,r3
 2040 0018 0C37     	 adds r7,r7,#12
 2041              	.LCFI71:
 2042              	 .cfi_def_cfa_offset 4
 2043 001a BD46     	 mov sp,r7
 2044              	.LCFI72:
 2045              	 .cfi_def_cfa_register 13
 2046              	 
 2047 001c 5DF8047B 	 ldr r7,[sp],#4
 2048              	.LCFI73:
 2049              	 .cfi_restore 7
 2050              	 .cfi_def_cfa_offset 0
 2051 0020 7047     	 bx lr
 2052              	.L123:
 2053 0022 00BF     	 .align 2
 2054              	.L122:
 2055 0024 00000000 	 .word saCmsUserFreqNew
 2056 0028 00000000 	 .word saCmsUserFreq
 2057              	 .cfi_endproc
 2058              	.LFE548:
 2060              	 .section .data.__compound_literal.7,"aw",%progbits
 2061              	 .align 2
 2064              	__compound_literal.7:
 2065 0000 00000000 	 .word saCmsORFreq
 2066 0004 8813     	 .short 5000
 2067 0006 6F17     	 .short 5999
 2068 0008 0000     	 .short 0
 2069 000a 0000     	 .section .data.__compound_literal.8,"aw",%progbits
 2070              	 .align 2
 2073              	__compound_literal.8:
 2074 0000 00000000 	 .word saCmsORFreqNew
 2075 0004 8813     	 .short 5000
 2076 0006 6F17     	 .short 5999
 2077 0008 0100     	 .short 1
 2078 000a 0000     	 .section .rodata
 2079              	 .align 2
 2080              	.LC25:
 2081 00bc 2D20504F 	 .ascii "- POR FREQ -\000"
 2081      52204652 
 2081      4551202D 
 2081      00
 2082 00c9 000000   	 .align 2
 2083              	.LC26:
 2084 00cc 43555220 	 .ascii "CUR FREQ\000"
 2084      46524551 
 2084      00
 2085 00d5 000000   	 .align 2
 2086              	.LC27:
 2087 00d8 4E455720 	 .ascii "NEW FREQ\000"
 2087      46524551 
 2087      00
 2088 00e1 000000   	 .align 2
 2089              	.LC28:
 2090 00e4 53455400 	 .ascii "SET\000"
 2091              	 .section .data.saCmsMenuPORFreqEntries,"aw",%progbits
 2092              	 .align 2
 2095              	saCmsMenuPORFreqEntries:
 2096 0000 BC000000 	 .word .LC25
 2097 0004 00       	 .byte 0
 2098 0005 00000000 	 .4byte 0
 2099 0009 00000000 	 .4byte 0
 2100 000d 00       	 .byte 0
 2101 000e CC000000 	 .4byte .LC26
 2102 0012 08       	 .byte 8
 2103 0013 00000000 	 .4byte 0
 2104 0017 00000000 	 .4byte __compound_literal.7
 2105 001b 04       	 .byte 4
 2106 001c D8000000 	 .word .LC27
 2107 0020 08       	 .byte 8
 2108 0021 00000000 	 .4byte 0
 2109 0025 00000000 	 .4byte __compound_literal.8
 2110 0029 00       	 .byte 0
 2111 002a E4000000 	 .4byte .LC28
 2112 002e 04       	 .byte 4
 2113 002f 00000000 	 .4byte saCmsSetPORFreq
 2114 0033 00000000 	 .4byte 0
 2115 0037 00       	 .byte 0
 2116 0038 80000000 	 .word .LC16
 2117 003c 01       	 .byte 1
 2118 003d 00000000 	 .4byte 0
 2119 0041 00000000 	 .4byte 0
 2120 0045 00       	 .byte 0
 2121 0046 00000000 	 .4byte 0
 2122 004a 0E       	 .byte 14
 2123 004b 00000000 	 .4byte 0
 2124 004f 00000000 	 .4byte 0
 2125 0053 00       	 .byte 0
 2126              	 .section .data.saCmsMenuPORFreq,"aw",%progbits
 2127              	 .align 2
 2130              	saCmsMenuPORFreq:
 2131 0000 00000000 	 .word saCmsSetPORFreqOnEnter
 2132 0004 00000000 	 .word 0
 2133 0008 00000000 	 .word saCmsMenuPORFreqEntries
 2134              	 .section .data.__compound_literal.9,"aw",%progbits
 2135              	 .align 2
 2138              	__compound_literal.9:
 2139 0000 00000000 	 .word saCmsUserFreq
 2140 0004 8813     	 .short 5000
 2141 0006 6F17     	 .short 5999
 2142 0008 0000     	 .short 0
 2143 000a 0000     	 .section .data.__compound_literal.10,"aw",%progbits
 2144              	 .align 2
 2147              	__compound_literal.10:
 2148 0000 00000000 	 .word saCmsUserFreqNew
 2149 0004 8813     	 .short 5000
 2150 0006 6F17     	 .short 5999
 2151 0008 0100     	 .short 1
 2152 000a 0000     	 .section .rodata
 2153              	 .align 2
 2154              	.LC29:
 2155 00e8 2D205553 	 .ascii "- USER FREQ -\000"
 2155      45522046 
 2155      52455120 
 2155      2D00
 2156              	 .section .data.saCmsMenuUserFreqEntries,"aw",%progbits
 2157              	 .align 2
 2160              	saCmsMenuUserFreqEntries:
 2161 0000 E8000000 	 .word .LC29
 2162 0004 00       	 .byte 0
 2163 0005 00000000 	 .4byte 0
 2164 0009 00000000 	 .4byte 0
 2165 000d 00       	 .byte 0
 2166 000e CC000000 	 .4byte .LC26
 2167 0012 08       	 .byte 8
 2168 0013 00000000 	 .4byte 0
 2169 0017 00000000 	 .4byte __compound_literal.9
 2170 001b 04       	 .byte 4
 2171 001c D8000000 	 .word .LC27
 2172 0020 08       	 .byte 8
 2173 0021 00000000 	 .4byte 0
 2174 0025 00000000 	 .4byte __compound_literal.10
 2175 0029 00       	 .byte 0
 2176 002a E4000000 	 .4byte .LC28
 2177 002e 04       	 .byte 4
 2178 002f 00000000 	 .4byte saCmsConfigUserFreq
 2179 0033 00000000 	 .4byte 0
 2180 0037 00       	 .byte 0
 2181 0038 80000000 	 .word .LC16
 2182 003c 01       	 .byte 1
 2183 003d 00000000 	 .4byte 0
 2184 0041 00000000 	 .4byte 0
 2185 0045 00       	 .byte 0
 2186 0046 00000000 	 .4byte 0
 2187 004a 0E       	 .byte 14
 2188 004b 00000000 	 .4byte 0
 2189 004f 00000000 	 .4byte 0
 2190 0053 00       	 .byte 0
 2191              	 .section .data.saCmsMenuUserFreq,"aw",%progbits
 2192              	 .align 2
 2195              	saCmsMenuUserFreq:
 2196 0000 00000000 	 .word saCmsSetUserFreqOnEnter
 2197 0004 00000000 	 .word 0
 2198 0008 00000000 	 .word saCmsMenuUserFreqEntries
 2199              	 .section .data.saCmsEntFselMode,"aw",%progbits
 2200              	 .align 2
 2203              	saCmsEntFselMode:
 2204 0000 00000000 	 .word saCmsFselModeNew
 2205 0004 01       	 .byte 1
 2206 0005 00000000 	 .4byte saCmsFselModeNames
 2207 0009 000000   	 .section .data.__compound_literal.11,"aw",%progbits
 2208              	 .align 2
 2211              	__compound_literal.11:
 2212 0000 00000000 	 .word saCmsOpmodel
 2213 0004 02       	 .byte 2
 2214 0005 00000000 	 .4byte saCmsOpmodelNames
 2215 0009 000000   	 .section .rodata
 2216 00f6 0000     	 .align 2
 2217              	.LC30:
 2218 00f8 2D205341 	 .ascii "- SA CONFIG -\000"
 2218      20434F4E 
 2218      46494720 
 2218      2D00
 2219 0106 0000     	 .align 2
 2220              	.LC31:
 2221 0108 4F50204D 	 .ascii "OP MODEL\000"
 2221      4F44454C 
 2221      00
 2222 0111 000000   	 .align 2
 2223              	.LC32:
 2224 0114 4653454C 	 .ascii "FSEL MODE\000"
 2224      204D4F44 
 2224      4500
 2225 011e 0000     	 .align 2
 2226              	.LC33:
 2227 0120 50495420 	 .ascii "PIT FMODE\000"
 2227      464D4F44 
 2227      4500
 2228 012a 0000     	 .align 2
 2229              	.LC34:
 2230 012c 504F5220 	 .ascii "POR FREQ\000"
 2230      46524551 
 2230      00
 2231 0135 000000   	 .align 2
 2232              	.LC35:
 2233 0138 53544154 	 .ascii "STATX\000"
 2233      5800
 2234              	 .section .data.saCmsMenuConfigEntries,"aw",%progbits
 2235              	 .align 2
 2238              	saCmsMenuConfigEntries:
 2239 0000 F8000000 	 .word .LC30
 2240 0004 00       	 .byte 0
 2241 0005 00000000 	 .4byte 0
 2242 0009 00000000 	 .4byte 0
 2243 000d 00       	 .byte 0
 2244 000e 08010000 	 .4byte .LC31
 2245 0012 0D       	 .byte 13
 2246 0013 00000000 	 .4byte saCmsConfigOpmodelByGvar
 2247 0017 00000000 	 .4byte __compound_literal.11
 2248 001b 04       	 .byte 4
 2249 001c 14010000 	 .word .LC32
 2250 0020 0D       	 .byte 13
 2251 0021 00000000 	 .4byte saCmsConfigFreqModeByGvar
 2252 0025 00000000 	 .4byte saCmsEntFselMode
 2253 0029 04       	 .byte 4
 2254 002a 20010000 	 .4byte .LC33
 2255 002e 0D       	 .byte 13
 2256 002f 00000000 	 .4byte saCmsConfigPitFModeByGvar
 2257 0033 00000000 	 .4byte saCmsEntPitFMode
 2258 0037 00       	 .byte 0
 2259 0038 2C010000 	 .word .LC34
 2260 003c 03       	 .byte 3
 2261 003d 00000000 	 .4byte saCmsORFreqGetString
 2262 0041 00000000 	 .4byte saCmsMenuPORFreq
 2263 0045 08       	 .byte 8
 2264 0046 38010000 	 .4byte .LC35
 2265 004a 03       	 .byte 3
 2266 004b 00000000 	 .4byte cmsMenuChange
 2267 004f 00000000 	 .4byte saCmsMenuStats
 2268 0053 00       	 .byte 0
 2269 0054 80000000 	 .word .LC16
 2270 0058 01       	 .byte 1
 2271 0059 00000000 	 .4byte 0
 2272 005d 00000000 	 .4byte 0
 2273 0061 00       	 .byte 0
 2274 0062 00000000 	 .4byte 0
 2275 0066 0E       	 .byte 14
 2276 0067 00000000 	 .4byte 0
 2277 006b 00000000 	 .4byte 0
 2278 006f 00       	 .byte 0
 2279              	 .section .data.saCmsMenuConfig,"aw",%progbits
 2280              	 .align 2
 2283              	saCmsMenuConfig:
 2284 0000 00000000 	 .word 0
 2285 0004 00000000 	 .word 0
 2286 0008 00000000 	 .word saCmsMenuConfigEntries
 2287              	 .section .rodata
 2288 013e 0000     	 .align 2
 2289              	.LC36:
 2290 0140 434F4E46 	 .ascii "CONFIRM\000"
 2290      49524D00 
 2291              	 .align 2
 2292              	.LC37:
 2293 0148 59455300 	 .ascii "YES\000"
 2294              	 .section .data.saCmsMenuCommenceEntries,"aw",%progbits
 2295              	 .align 2
 2298              	saCmsMenuCommenceEntries:
 2299 0000 40010000 	 .word .LC36
 2300 0004 00       	 .byte 0
 2301 0005 00000000 	 .4byte 0
 2302 0009 00000000 	 .4byte 0
 2303 000d 00       	 .byte 0
 2304 000e 48010000 	 .4byte .LC37
 2305 0012 04       	 .byte 4
 2306 0013 00000000 	 .4byte saCmsCommence
 2307 0017 00000000 	 .4byte 0
 2308 001b 00       	 .byte 0
 2309 001c 80000000 	 .word .LC16
 2310 0020 01       	 .byte 1
 2311 0021 00000000 	 .4byte 0
 2312 0025 00000000 	 .4byte 0
 2313 0029 00       	 .byte 0
 2314 002a 00000000 	 .4byte 0
 2315 002e 0E       	 .byte 14
 2316 002f 00000000 	 .4byte 0
 2317 0033 00000000 	 .4byte 0
 2318 0037 00       	 .byte 0
 2319              	 .section .data.saCmsMenuCommence,"aw",%progbits
 2320              	 .align 2
 2323              	saCmsMenuCommence:
 2324 0000 00000000 	 .word 0
 2325 0004 00000000 	 .word 0
 2326 0008 00000000 	 .word saCmsMenuCommenceEntries
 2327              	 .section .rodata
 2328              	 .align 2
 2329              	.LC38:
 2330 014c 2D20534D 	 .ascii "- SMARTAUDIO -\000"
 2330      41525441 
 2330      5544494F 
 2330      202D00
 2331 015b 00       	 .align 2
 2332              	.LC39:
 2333 015c 00       	 .ascii "\000"
 2334 015d 000000   	 .align 2
 2335              	.LC40:
 2336 0160 46524551 	 .ascii "FREQ\000"
 2336      00
 2337 0165 000000   	 .align 2
 2338              	.LC41:
 2339 0168 504F5745 	 .ascii "POWER\000"
 2339      5200
 2340 016e 0000     	 .align 2
 2341              	.LC42:
 2342 0170 434F4E46 	 .ascii "CONFIG\000"
 2342      494700
 2343              	 .section .data.saCmsMenuFreqModeEntries,"aw",%progbits
 2344              	 .align 2
 2347              	saCmsMenuFreqModeEntries:
 2348 0000 4C010000 	 .word .LC38
 2349 0004 00       	 .byte 0
 2350 0005 00000000 	 .4byte 0
 2351 0009 00000000 	 .4byte 0
 2352 000d 00       	 .byte 0
 2353 000e 5C010000 	 .4byte .LC39
 2354 0012 00       	 .byte 0
 2355 0013 00000000 	 .4byte 0
 2356 0017 00000000 	 .4byte saCmsStatusString
 2357 001b 04       	 .byte 4
 2358 001c 60010000 	 .word .LC40
 2359 0020 03       	 .byte 3
 2360 0021 00000000 	 .4byte saCmsUserFreqGetString
 2361 0025 00000000 	 .4byte saCmsMenuUserFreq
 2362 0029 08       	 .byte 8
 2363 002a 68010000 	 .4byte .LC41
 2364 002e 0D       	 .byte 13
 2365 002f 00000000 	 .4byte saCmsConfigPowerByGvar
 2366 0033 00000000 	 .4byte saCmsEntPower
 2367 0037 00       	 .byte 0
 2368 0038 E4000000 	 .word .LC28
 2369 003c 03       	 .byte 3
 2370 003d 00000000 	 .4byte cmsMenuChange
 2371 0041 00000000 	 .4byte saCmsMenuCommence
 2372 0045 00       	 .byte 0
 2373 0046 70010000 	 .4byte .LC42
 2374 004a 03       	 .byte 3
 2375 004b 00000000 	 .4byte cmsMenuChange
 2376 004f 00000000 	 .4byte saCmsMenuConfig
 2377 0053 00       	 .byte 0
 2378 0054 80000000 	 .word .LC16
 2379 0058 01       	 .byte 1
 2380 0059 00000000 	 .4byte 0
 2381 005d 00000000 	 .4byte 0
 2382 0061 00       	 .byte 0
 2383 0062 00000000 	 .4byte 0
 2384 0066 0E       	 .byte 14
 2385 0067 00000000 	 .4byte 0
 2386 006b 00000000 	 .4byte 0
 2387 006f 00       	 .byte 0
 2388              	 .section .rodata
 2389 0177 00       	 .align 2
 2390              	.LC43:
 2391 0178 42414E44 	 .ascii "BAND\000"
 2391      00
 2392 017d 000000   	 .align 2
 2393              	.LC44:
 2394 0180 28465245 	 .ascii "(FREQ)\000"
 2394      512900
 2395              	 .section .data.saCmsMenuChanModeEntries,"aw",%progbits
 2396              	 .align 2
 2399              	saCmsMenuChanModeEntries:
 2400 0000 4C010000 	 .word .LC38
 2401 0004 00       	 .byte 0
 2402 0005 00000000 	 .4byte 0
 2403 0009 00000000 	 .4byte 0
 2404 000d 00       	 .byte 0
 2405 000e 5C010000 	 .4byte .LC39
 2406 0012 00       	 .byte 0
 2407 0013 00000000 	 .4byte 0
 2408 0017 00000000 	 .4byte saCmsStatusString
 2409 001b 04       	 .byte 4
 2410 001c 78010000 	 .word .LC43
 2411 0020 0D       	 .byte 13
 2412 0021 00000000 	 .4byte saCmsConfigBandByGvar
 2413 0025 00000000 	 .4byte saCmsEntBand
 2414 0029 00       	 .byte 0
 2415 002a A0000000 	 .4byte .LC20
 2416 002e 0D       	 .byte 13
 2417 002f 00000000 	 .4byte saCmsConfigChanByGvar
 2418 0033 00000000 	 .4byte saCmsEntChan
 2419 0037 00       	 .byte 0
 2420 0038 80010000 	 .word .LC44
 2421 003c 08       	 .byte 8
 2422 003d 00000000 	 .4byte 0
 2423 0041 00000000 	 .4byte saCmsEntFreqRef
 2424 0045 04       	 .byte 4
 2425 0046 68010000 	 .4byte .LC41
 2426 004a 0D       	 .byte 13
 2427 004b 00000000 	 .4byte saCmsConfigPowerByGvar
 2428 004f 00000000 	 .4byte saCmsEntPower
 2429 0053 00       	 .byte 0
 2430 0054 E4000000 	 .word .LC28
 2431 0058 03       	 .byte 3
 2432 0059 00000000 	 .4byte cmsMenuChange
 2433 005d 00000000 	 .4byte saCmsMenuCommence
 2434 0061 00       	 .byte 0
 2435 0062 70010000 	 .4byte .LC42
 2436 0066 03       	 .byte 3
 2437 0067 00000000 	 .4byte cmsMenuChange
 2438 006b 00000000 	 .4byte saCmsMenuConfig
 2439 006f 00       	 .byte 0
 2440 0070 80000000 	 .word .LC16
 2441 0074 01       	 .byte 1
 2442 0075 00000000 	 .4byte 0
 2443 0079 00000000 	 .4byte 0
 2444 007d 00       	 .byte 0
 2445 007e 00000000 	 .4byte 0
 2446 0082 0E       	 .byte 14
 2447 0083 00000000 	 .4byte 0
 2448 0087 00000000 	 .4byte 0
 2449 008b 00       	 .byte 0
 2450              	 .section .rodata
 2451 0187 00       	 .align 2
 2452              	.LC45:
 2453 0188 2D205654 	 .ascii "- VTX SMARTAUDIO -\000"
 2453      5820534D 
 2453      41525441 
 2453      5544494F 
 2453      202D00
 2454 019b 00       	 .section .data.saCmsMenuOfflineEntries,"aw",%progbits
 2455              	 .align 2
 2458              	saCmsMenuOfflineEntries:
 2459 0000 88010000 	 .word .LC45
 2460 0004 00       	 .byte 0
 2461 0005 00000000 	 .4byte 0
 2462 0009 00000000 	 .4byte 0
 2463 000d 00       	 .byte 0
 2464 000e 5C010000 	 .4byte .LC39
 2465 0012 00       	 .byte 0
 2466 0013 00000000 	 .4byte 0
 2467 0017 00000000 	 .4byte saCmsStatusString
 2468 001b 04       	 .byte 4
 2469 001c 38010000 	 .word .LC35
 2470 0020 03       	 .byte 3
 2471 0021 00000000 	 .4byte cmsMenuChange
 2472 0025 00000000 	 .4byte saCmsMenuStats
 2473 0029 00       	 .byte 0
 2474 002a 80000000 	 .4byte .LC16
 2475 002e 01       	 .byte 1
 2476 002f 00000000 	 .4byte 0
 2477 0033 00000000 	 .4byte 0
 2478 0037 00       	 .byte 0
 2479 0038 00000000 	 .word 0
 2480 003c 0E       	 .byte 14
 2481 003d 00000000 	 .4byte 0
 2482 0041 00000000 	 .4byte 0
 2483 0045 00       	 .byte 0
 2484              	 .global cmsx_menuVtxSmartAudio
 2485 0046 0000     	 .section .data.cmsx_menuVtxSmartAudio,"aw",%progbits
 2486              	 .align 2
 2489              	cmsx_menuVtxSmartAudio:
 2490 0000 00000000 	 .word sacms_SetupTopMenu
 2491 0004 00000000 	 .word 0
 2492 0008 00000000 	 .word saCmsMenuOfflineEntries
 2493              	 .section .text.sacms_SetupTopMenu,"ax",%progbits
 2494              	 .align 2
 2495              	 .thumb
 2496              	 .thumb_func
 2498              	sacms_SetupTopMenu:
 2499              	.LFB549:
 521:../cleanflight/src/main/cms/cms_menu_vtx_smartaudio.c **** 
 522:../cleanflight/src/main/cms/cms_menu_vtx_smartaudio.c **** static OSD_Entry saCmsMenuPORFreqEntries[] = {
 523:../cleanflight/src/main/cms/cms_menu_vtx_smartaudio.c ****     { "- POR FREQ -", OME_Label,   NULL,             NULL,                                         
 524:../cleanflight/src/main/cms/cms_menu_vtx_smartaudio.c **** 
 525:../cleanflight/src/main/cms/cms_menu_vtx_smartaudio.c ****     { "CUR FREQ",     OME_UINT16,  NULL,             &(OSD_UINT16_t){ &saCmsORFreq, 5000, 5999, 0 }
 526:../cleanflight/src/main/cms/cms_menu_vtx_smartaudio.c ****     { "NEW FREQ",     OME_UINT16,  NULL,             &(OSD_UINT16_t){ &saCmsORFreqNew, 5000, 5999, 
 527:../cleanflight/src/main/cms/cms_menu_vtx_smartaudio.c ****     { "SET",          OME_Funcall, saCmsSetPORFreq,  NULL,                                         
 528:../cleanflight/src/main/cms/cms_menu_vtx_smartaudio.c **** 
 529:../cleanflight/src/main/cms/cms_menu_vtx_smartaudio.c ****     { "BACK",         OME_Back,    NULL,             NULL,                                         
 530:../cleanflight/src/main/cms/cms_menu_vtx_smartaudio.c ****     { NULL,           OME_END,     NULL,             NULL,                                         
 531:../cleanflight/src/main/cms/cms_menu_vtx_smartaudio.c **** };
 532:../cleanflight/src/main/cms/cms_menu_vtx_smartaudio.c **** 
 533:../cleanflight/src/main/cms/cms_menu_vtx_smartaudio.c **** static CMS_Menu saCmsMenuPORFreq =
 534:../cleanflight/src/main/cms/cms_menu_vtx_smartaudio.c **** {
 535:../cleanflight/src/main/cms/cms_menu_vtx_smartaudio.c **** #ifdef CMS_MENU_DEBUG
 536:../cleanflight/src/main/cms/cms_menu_vtx_smartaudio.c ****     .GUARD_text = "XSAPOR",
 537:../cleanflight/src/main/cms/cms_menu_vtx_smartaudio.c ****     .GUARD_type = OME_MENU,
 538:../cleanflight/src/main/cms/cms_menu_vtx_smartaudio.c **** #endif
 539:../cleanflight/src/main/cms/cms_menu_vtx_smartaudio.c ****     .onEnter = saCmsSetPORFreqOnEnter,
 540:../cleanflight/src/main/cms/cms_menu_vtx_smartaudio.c ****     .onExit = NULL,
 541:../cleanflight/src/main/cms/cms_menu_vtx_smartaudio.c ****     .entries = saCmsMenuPORFreqEntries,
 542:../cleanflight/src/main/cms/cms_menu_vtx_smartaudio.c **** };
 543:../cleanflight/src/main/cms/cms_menu_vtx_smartaudio.c **** 
 544:../cleanflight/src/main/cms/cms_menu_vtx_smartaudio.c **** static OSD_Entry saCmsMenuUserFreqEntries[] = {
 545:../cleanflight/src/main/cms/cms_menu_vtx_smartaudio.c ****     { "- USER FREQ -", OME_Label,   NULL,             NULL,                                        
 546:../cleanflight/src/main/cms/cms_menu_vtx_smartaudio.c **** 
 547:../cleanflight/src/main/cms/cms_menu_vtx_smartaudio.c ****     { "CUR FREQ",      OME_UINT16,  NULL,             &(OSD_UINT16_t){ &saCmsUserFreq, 5000, 5999, 
 548:../cleanflight/src/main/cms/cms_menu_vtx_smartaudio.c ****     { "NEW FREQ",      OME_UINT16,  NULL,             &(OSD_UINT16_t){ &saCmsUserFreqNew, 5000, 599
 549:../cleanflight/src/main/cms/cms_menu_vtx_smartaudio.c ****     { "SET",           OME_Funcall, saCmsConfigUserFreq, NULL,                                     
 550:../cleanflight/src/main/cms/cms_menu_vtx_smartaudio.c **** 
 551:../cleanflight/src/main/cms/cms_menu_vtx_smartaudio.c ****     { "BACK",          OME_Back,    NULL,             NULL,                                        
 552:../cleanflight/src/main/cms/cms_menu_vtx_smartaudio.c ****     { NULL,            OME_END,     NULL,             NULL,                                        
 553:../cleanflight/src/main/cms/cms_menu_vtx_smartaudio.c **** };
 554:../cleanflight/src/main/cms/cms_menu_vtx_smartaudio.c **** 
 555:../cleanflight/src/main/cms/cms_menu_vtx_smartaudio.c **** static CMS_Menu saCmsMenuUserFreq =
 556:../cleanflight/src/main/cms/cms_menu_vtx_smartaudio.c **** {
 557:../cleanflight/src/main/cms/cms_menu_vtx_smartaudio.c **** #ifdef CMS_MENU_DEBUG
 558:../cleanflight/src/main/cms/cms_menu_vtx_smartaudio.c ****     .GUARD_text = "XSAUFQ",
 559:../cleanflight/src/main/cms/cms_menu_vtx_smartaudio.c ****     .GUARD_type = OME_MENU,
 560:../cleanflight/src/main/cms/cms_menu_vtx_smartaudio.c **** #endif
 561:../cleanflight/src/main/cms/cms_menu_vtx_smartaudio.c ****     .onEnter = saCmsSetUserFreqOnEnter,
 562:../cleanflight/src/main/cms/cms_menu_vtx_smartaudio.c ****     .onExit = NULL,
 563:../cleanflight/src/main/cms/cms_menu_vtx_smartaudio.c ****     .entries = saCmsMenuUserFreqEntries,
 564:../cleanflight/src/main/cms/cms_menu_vtx_smartaudio.c **** };
 565:../cleanflight/src/main/cms/cms_menu_vtx_smartaudio.c **** 
 566:../cleanflight/src/main/cms/cms_menu_vtx_smartaudio.c **** static OSD_TAB_t saCmsEntFselMode = { &saCmsFselModeNew, 1, saCmsFselModeNames };
 567:../cleanflight/src/main/cms/cms_menu_vtx_smartaudio.c **** 
 568:../cleanflight/src/main/cms/cms_menu_vtx_smartaudio.c **** static OSD_Entry saCmsMenuConfigEntries[] = {
 569:../cleanflight/src/main/cms/cms_menu_vtx_smartaudio.c ****     { "- SA CONFIG -", OME_Label, NULL, NULL, 0 },
 570:../cleanflight/src/main/cms/cms_menu_vtx_smartaudio.c **** 
 571:../cleanflight/src/main/cms/cms_menu_vtx_smartaudio.c ****     { "OP MODEL",  OME_TAB,     saCmsConfigOpmodelByGvar,              &(OSD_TAB_t){ &saCmsOpmodel,
 572:../cleanflight/src/main/cms/cms_menu_vtx_smartaudio.c ****     { "FSEL MODE", OME_TAB,     saCmsConfigFreqModeByGvar,             &saCmsEntFselMode,          
 573:../cleanflight/src/main/cms/cms_menu_vtx_smartaudio.c ****     { "PIT FMODE", OME_TAB,     saCmsConfigPitFModeByGvar,             &saCmsEntPitFMode,          
 574:../cleanflight/src/main/cms/cms_menu_vtx_smartaudio.c ****     { "POR FREQ",  OME_Submenu, (CMSEntryFuncPtr)saCmsORFreqGetString, &saCmsMenuPORFreq,          
 575:../cleanflight/src/main/cms/cms_menu_vtx_smartaudio.c **** #ifdef USE_EXTENDED_CMS_MENUS
 576:../cleanflight/src/main/cms/cms_menu_vtx_smartaudio.c ****     { "STATX",     OME_Submenu, cmsMenuChange,                         &saCmsMenuStats,            
 577:../cleanflight/src/main/cms/cms_menu_vtx_smartaudio.c **** #endif /* USE_EXTENDED_CMS_MENUS */
 578:../cleanflight/src/main/cms/cms_menu_vtx_smartaudio.c **** 
 579:../cleanflight/src/main/cms/cms_menu_vtx_smartaudio.c ****     { "BACK", OME_Back, NULL, NULL, 0 },
 580:../cleanflight/src/main/cms/cms_menu_vtx_smartaudio.c ****     { NULL, OME_END, NULL, NULL, 0 }
 581:../cleanflight/src/main/cms/cms_menu_vtx_smartaudio.c **** };
 582:../cleanflight/src/main/cms/cms_menu_vtx_smartaudio.c **** 
 583:../cleanflight/src/main/cms/cms_menu_vtx_smartaudio.c **** static CMS_Menu saCmsMenuConfig = {
 584:../cleanflight/src/main/cms/cms_menu_vtx_smartaudio.c **** #ifdef CMS_MENU_DEBUG
 585:../cleanflight/src/main/cms/cms_menu_vtx_smartaudio.c ****     .GUARD_text = "XSACFG",
 586:../cleanflight/src/main/cms/cms_menu_vtx_smartaudio.c ****     .GUARD_type = OME_MENU,
 587:../cleanflight/src/main/cms/cms_menu_vtx_smartaudio.c **** #endif
 588:../cleanflight/src/main/cms/cms_menu_vtx_smartaudio.c ****     .onEnter = NULL,
 589:../cleanflight/src/main/cms/cms_menu_vtx_smartaudio.c ****     .onExit = NULL,
 590:../cleanflight/src/main/cms/cms_menu_vtx_smartaudio.c ****     .entries = saCmsMenuConfigEntries
 591:../cleanflight/src/main/cms/cms_menu_vtx_smartaudio.c **** };
 592:../cleanflight/src/main/cms/cms_menu_vtx_smartaudio.c **** 
 593:../cleanflight/src/main/cms/cms_menu_vtx_smartaudio.c **** static OSD_Entry saCmsMenuCommenceEntries[] = {
 594:../cleanflight/src/main/cms/cms_menu_vtx_smartaudio.c ****     { "CONFIRM", OME_Label,   NULL,          NULL, 0 },
 595:../cleanflight/src/main/cms/cms_menu_vtx_smartaudio.c **** 
 596:../cleanflight/src/main/cms/cms_menu_vtx_smartaudio.c ****     { "YES",     OME_Funcall, saCmsCommence, NULL, 0 },
 597:../cleanflight/src/main/cms/cms_menu_vtx_smartaudio.c **** 
 598:../cleanflight/src/main/cms/cms_menu_vtx_smartaudio.c ****     { "BACK",    OME_Back, NULL, NULL, 0 },
 599:../cleanflight/src/main/cms/cms_menu_vtx_smartaudio.c ****     { NULL,      OME_END, NULL, NULL, 0 }
 600:../cleanflight/src/main/cms/cms_menu_vtx_smartaudio.c **** };
 601:../cleanflight/src/main/cms/cms_menu_vtx_smartaudio.c **** 
 602:../cleanflight/src/main/cms/cms_menu_vtx_smartaudio.c **** static CMS_Menu saCmsMenuCommence = {
 603:../cleanflight/src/main/cms/cms_menu_vtx_smartaudio.c **** #ifdef CMS_MENU_DEBUG
 604:../cleanflight/src/main/cms/cms_menu_vtx_smartaudio.c ****     .GUARD_text = "XVTXCOM",
 605:../cleanflight/src/main/cms/cms_menu_vtx_smartaudio.c ****     .GUARD_type = OME_MENU,
 606:../cleanflight/src/main/cms/cms_menu_vtx_smartaudio.c **** #endif
 607:../cleanflight/src/main/cms/cms_menu_vtx_smartaudio.c ****     .onEnter = NULL,
 608:../cleanflight/src/main/cms/cms_menu_vtx_smartaudio.c ****     .onExit = NULL,
 609:../cleanflight/src/main/cms/cms_menu_vtx_smartaudio.c ****     .entries = saCmsMenuCommenceEntries,
 610:../cleanflight/src/main/cms/cms_menu_vtx_smartaudio.c **** };
 611:../cleanflight/src/main/cms/cms_menu_vtx_smartaudio.c **** 
 612:../cleanflight/src/main/cms/cms_menu_vtx_smartaudio.c **** static OSD_Entry saCmsMenuFreqModeEntries[] = {
 613:../cleanflight/src/main/cms/cms_menu_vtx_smartaudio.c ****     { "- SMARTAUDIO -", OME_Label, NULL, NULL, 0 },
 614:../cleanflight/src/main/cms/cms_menu_vtx_smartaudio.c **** 
 615:../cleanflight/src/main/cms/cms_menu_vtx_smartaudio.c ****     { "",       OME_Label,   NULL,                                     saCmsStatusString,  DYNAMIC 
 616:../cleanflight/src/main/cms/cms_menu_vtx_smartaudio.c ****     { "FREQ",   OME_Submenu, (CMSEntryFuncPtr)saCmsUserFreqGetString,  &saCmsMenuUserFreq, OPTSTRIN
 617:../cleanflight/src/main/cms/cms_menu_vtx_smartaudio.c ****     { "POWER",  OME_TAB,     saCmsConfigPowerByGvar,                   &saCmsEntPower,     0 },
 618:../cleanflight/src/main/cms/cms_menu_vtx_smartaudio.c ****     { "SET",    OME_Submenu, cmsMenuChange,                            &saCmsMenuCommence, 0 },
 619:../cleanflight/src/main/cms/cms_menu_vtx_smartaudio.c ****     { "CONFIG", OME_Submenu, cmsMenuChange,                            &saCmsMenuConfig,   0 },
 620:../cleanflight/src/main/cms/cms_menu_vtx_smartaudio.c **** 
 621:../cleanflight/src/main/cms/cms_menu_vtx_smartaudio.c ****     { "BACK", OME_Back, NULL, NULL, 0 },
 622:../cleanflight/src/main/cms/cms_menu_vtx_smartaudio.c ****     { NULL, OME_END, NULL, NULL, 0 }
 623:../cleanflight/src/main/cms/cms_menu_vtx_smartaudio.c **** };
 624:../cleanflight/src/main/cms/cms_menu_vtx_smartaudio.c **** 
 625:../cleanflight/src/main/cms/cms_menu_vtx_smartaudio.c **** static OSD_Entry saCmsMenuChanModeEntries[] =
 626:../cleanflight/src/main/cms/cms_menu_vtx_smartaudio.c **** {
 627:../cleanflight/src/main/cms/cms_menu_vtx_smartaudio.c ****     { "- SMARTAUDIO -", OME_Label, NULL, NULL, 0 },
 628:../cleanflight/src/main/cms/cms_menu_vtx_smartaudio.c **** 
 629:../cleanflight/src/main/cms/cms_menu_vtx_smartaudio.c ****     { "",       OME_Label,   NULL,                   saCmsStatusString,  DYNAMIC },
 630:../cleanflight/src/main/cms/cms_menu_vtx_smartaudio.c ****     { "BAND",   OME_TAB,     saCmsConfigBandByGvar,  &saCmsEntBand,      0 },
 631:../cleanflight/src/main/cms/cms_menu_vtx_smartaudio.c ****     { "CHAN",   OME_TAB,     saCmsConfigChanByGvar,  &saCmsEntChan,      0 },
 632:../cleanflight/src/main/cms/cms_menu_vtx_smartaudio.c ****     { "(FREQ)", OME_UINT16,  NULL,                   &saCmsEntFreqRef,   DYNAMIC },
 633:../cleanflight/src/main/cms/cms_menu_vtx_smartaudio.c ****     { "POWER",  OME_TAB,     saCmsConfigPowerByGvar, &saCmsEntPower,     0 },
 634:../cleanflight/src/main/cms/cms_menu_vtx_smartaudio.c ****     { "SET",    OME_Submenu, cmsMenuChange,          &saCmsMenuCommence, 0 },
 635:../cleanflight/src/main/cms/cms_menu_vtx_smartaudio.c ****     { "CONFIG", OME_Submenu, cmsMenuChange,          &saCmsMenuConfig,   0 },
 636:../cleanflight/src/main/cms/cms_menu_vtx_smartaudio.c **** 
 637:../cleanflight/src/main/cms/cms_menu_vtx_smartaudio.c ****     { "BACK",   OME_Back, NULL, NULL, 0 },
 638:../cleanflight/src/main/cms/cms_menu_vtx_smartaudio.c ****     { NULL,     OME_END, NULL, NULL, 0 }
 639:../cleanflight/src/main/cms/cms_menu_vtx_smartaudio.c **** };
 640:../cleanflight/src/main/cms/cms_menu_vtx_smartaudio.c **** 
 641:../cleanflight/src/main/cms/cms_menu_vtx_smartaudio.c **** static OSD_Entry saCmsMenuOfflineEntries[] =
 642:../cleanflight/src/main/cms/cms_menu_vtx_smartaudio.c **** {
 643:../cleanflight/src/main/cms/cms_menu_vtx_smartaudio.c ****     { "- VTX SMARTAUDIO -", OME_Label, NULL, NULL, 0 },
 644:../cleanflight/src/main/cms/cms_menu_vtx_smartaudio.c **** 
 645:../cleanflight/src/main/cms/cms_menu_vtx_smartaudio.c ****     { "",      OME_Label,   NULL,          saCmsStatusString, DYNAMIC },
 646:../cleanflight/src/main/cms/cms_menu_vtx_smartaudio.c **** #ifdef USE_EXTENDED_CMS_MENUS
 647:../cleanflight/src/main/cms/cms_menu_vtx_smartaudio.c ****     { "STATX", OME_Submenu, cmsMenuChange, &saCmsMenuStats,   0 },
 648:../cleanflight/src/main/cms/cms_menu_vtx_smartaudio.c **** #endif /* USE_EXTENDED_CMS_MENUS */
 649:../cleanflight/src/main/cms/cms_menu_vtx_smartaudio.c **** 
 650:../cleanflight/src/main/cms/cms_menu_vtx_smartaudio.c ****     { "BACK",  OME_Back, NULL, NULL, 0 },
 651:../cleanflight/src/main/cms/cms_menu_vtx_smartaudio.c ****     { NULL,    OME_END, NULL, NULL, 0 }
 652:../cleanflight/src/main/cms/cms_menu_vtx_smartaudio.c **** };
 653:../cleanflight/src/main/cms/cms_menu_vtx_smartaudio.c **** 
 654:../cleanflight/src/main/cms/cms_menu_vtx_smartaudio.c **** CMS_Menu cmsx_menuVtxSmartAudio; // Forward
 655:../cleanflight/src/main/cms/cms_menu_vtx_smartaudio.c **** 
 656:../cleanflight/src/main/cms/cms_menu_vtx_smartaudio.c **** static long sacms_SetupTopMenu(void)
 657:../cleanflight/src/main/cms/cms_menu_vtx_smartaudio.c **** {
 2500              	 .loc 2 657 0
 2501              	 .cfi_startproc
 2502              	 
 2503              	 
 2504              	 
 2505 0000 80B4     	 push {r7}
 2506              	.LCFI74:
 2507              	 .cfi_def_cfa_offset 4
 2508              	 .cfi_offset 7,-4
 2509 0002 00AF     	 add r7,sp,#0
 2510              	.LCFI75:
 2511              	 .cfi_def_cfa_register 7
 658:../cleanflight/src/main/cms/cms_menu_vtx_smartaudio.c ****     if (saCmsDeviceStatus) {
 2512              	 .loc 2 658 0
 2513 0004 0C4B     	 ldr r3,.L130
 2514 0006 1B78     	 ldrb r3,[r3]
 2515 0008 002B     	 cmp r3,#0
 2516 000a 0BD0     	 beq .L125
 659:../cleanflight/src/main/cms/cms_menu_vtx_smartaudio.c ****         if (saCmsFselModeNew == 0)
 2517              	 .loc 2 659 0
 2518 000c 0B4B     	 ldr r3,.L130+4
 2519 000e 1B78     	 ldrb r3,[r3]
 2520 0010 002B     	 cmp r3,#0
 2521 0012 03D1     	 bne .L126
 660:../cleanflight/src/main/cms/cms_menu_vtx_smartaudio.c ****             cmsx_menuVtxSmartAudio.entries = saCmsMenuChanModeEntries;
 2522              	 .loc 2 660 0
 2523 0014 0A4B     	 ldr r3,.L130+8
 2524 0016 0B4A     	 ldr r2,.L130+12
 2525 0018 9A60     	 str r2,[r3,#8]
 2526 001a 06E0     	 b .L128
 2527              	.L126:
 661:../cleanflight/src/main/cms/cms_menu_vtx_smartaudio.c ****         else
 662:../cleanflight/src/main/cms/cms_menu_vtx_smartaudio.c ****             cmsx_menuVtxSmartAudio.entries = saCmsMenuFreqModeEntries;
 2528              	 .loc 2 662 0
 2529 001c 084B     	 ldr r3,.L130+8
 2530 001e 0A4A     	 ldr r2,.L130+16
 2531 0020 9A60     	 str r2,[r3,#8]
 2532 0022 02E0     	 b .L128
 2533              	.L125:
 663:../cleanflight/src/main/cms/cms_menu_vtx_smartaudio.c ****     } else {
 664:../cleanflight/src/main/cms/cms_menu_vtx_smartaudio.c ****         cmsx_menuVtxSmartAudio.entries = saCmsMenuOfflineEntries;
 2534              	 .loc 2 664 0
 2535 0024 064B     	 ldr r3,.L130+8
 2536 0026 094A     	 ldr r2,.L130+20
 2537 0028 9A60     	 str r2,[r3,#8]
 2538              	.L128:
 665:../cleanflight/src/main/cms/cms_menu_vtx_smartaudio.c ****     }
 666:../cleanflight/src/main/cms/cms_menu_vtx_smartaudio.c **** 
 667:../cleanflight/src/main/cms/cms_menu_vtx_smartaudio.c ****     return 0;
 2539              	 .loc 2 667 0
 2540 002a 0023     	 movs r3,#0
 668:../cleanflight/src/main/cms/cms_menu_vtx_smartaudio.c **** }
 2541              	 .loc 2 668 0
 2542 002c 1846     	 mov r0,r3
 2543 002e BD46     	 mov sp,r7
 2544              	.LCFI76:
 2545              	 .cfi_def_cfa_register 13
 2546              	 
 2547 0030 5DF8047B 	 ldr r7,[sp],#4
 2548              	.LCFI77:
 2549              	 .cfi_restore 7
 2550              	 .cfi_def_cfa_offset 0
 2551 0034 7047     	 bx lr
 2552              	.L131:
 2553 0036 00BF     	 .align 2
 2554              	.L130:
 2555 0038 00000000 	 .word saCmsDeviceStatus
 2556 003c 00000000 	 .word saCmsFselModeNew
 2557 0040 00000000 	 .word cmsx_menuVtxSmartAudio
 2558 0044 00000000 	 .word saCmsMenuChanModeEntries
 2559 0048 00000000 	 .word saCmsMenuFreqModeEntries
 2560 004c 00000000 	 .word saCmsMenuOfflineEntries
 2561              	 .cfi_endproc
 2562              	.LFE549:
 2564              	 .section .bss.pbuf.12137,"aw",%nobits
 2565              	 .align 2
 2568              	pbuf.12137:
 2569 0000 00000000 	 .space 5
 2569      00
 2570 0005 000000   	 .section .bss.pbuf.12141,"aw",%nobits
 2571              	 .align 2
 2574              	pbuf.12141:
 2575 0000 00000000 	 .space 5
 2575      00
 2576 0005 000000   	 .text
 2577              	.Letext0:
 2578              	 .file 3 "d:\\xmc\\dave-ide-4.4.2-64bit\\eclipse\\arm-gcc-49\\arm-none-eabi\\include\\machine\\_default_types.h"
 2579              	 .file 4 "d:\\xmc\\dave-ide-4.4.2-64bit\\eclipse\\arm-gcc-49\\arm-none-eabi\\include\\stdint.h"
 2580              	 .file 5 "D:/XMC/Projekte/Temp/CF_XMC4700/cleanflight/lib/main/XMC4000/XMCLib/inc/xmc_usic.h"
 2581              	 .file 6 "D:/XMC/Projekte/Temp/CF_XMC4700/cleanflight/src/main/drivers/display.h"
 2582              	 .file 7 "D:/XMC/Projekte/Temp/CF_XMC4700/cleanflight/src/main/common/time.h"
 2583              	 .file 8 "D:/XMC/Projekte/Temp/CF_XMC4700/cleanflight/src/main/cms/cms_types.h"
 2584              	 .file 9 "D:/XMC/Projekte/Temp/CF_XMC4700/cleanflight/src/main/fc/config.h"
 2585              	 .file 10 "D:/XMC/Projekte/Temp/CF_XMC4700/cleanflight/src/main/io/vtx_smartaudio.h"
 2586              	 .file 11 "D:/XMC/Projekte/Temp/CF_XMC4700/cleanflight/lib/main/CMSIS/Core/Include/core_cm4.h"
 2587              	 .file 12 "D:/XMC/Projekte/Temp/CF_XMC4700/cleanflight/lib/main/XMC4000/system_XMC4700.h"
 2588              	 .file 13 "D:/XMC/Projekte/Temp/CF_XMC4700/cleanflight/src/main/cms/cms.h"
 2589              	 .file 14 "D:/XMC/Projekte/Temp/CF_XMC4700/cleanflight/src/main/io/vtx_string.h"