   1              	 .syntax unified
   2              	 .cpu cortex-m4
   3              	 .eabi_attribute 27,3
   4              	 .fpu fpv4-sp-d16
   5              	 .eabi_attribute 20,1
   6              	 .eabi_attribute 21,1
   7              	 .eabi_attribute 23,3
   8              	 .eabi_attribute 24,1
   9              	 .eabi_attribute 25,1
  10              	 .eabi_attribute 26,1
  11              	 .eabi_attribute 30,6
  12              	 .eabi_attribute 34,1
  13              	 .eabi_attribute 18,4
  14              	 .thumb
  15              	 .file "cms_menu_builtin.c"
  16              	 .text
  17              	.Ltext0:
  18              	 .cfi_sections .debug_frame
  19              	 .comm pCurrentDisplay,4,4
  20              	 .section .bss.infoGitRev,"aw",%nobits
  21              	 .align 2
  24              	infoGitRev:
  25 0000 00000000 	 .space 8
  25      00000000 
  26              	 .section .data.infoTargetName,"aw",%progbits
  27              	 .align 2
  30              	infoTargetName:
  31 0000 4C454455 	 .ascii "LEDUV3\000"
  31      563300
  32 0007 00       	 .section .text.cmsx_InfoInit,"ax",%progbits
  33              	 .align 2
  34              	 .thumb
  35              	 .thumb_func
  37              	cmsx_InfoInit:
  38              	.LFB527:
  39              	 .file 1 "../cleanflight/src/main/cms/cms_menu_builtin.c"
   1:../cleanflight/src/main/cms/cms_menu_builtin.c **** /*
   2:../cleanflight/src/main/cms/cms_menu_builtin.c ****  * This file is part of Cleanflight and Betaflight.
   3:../cleanflight/src/main/cms/cms_menu_builtin.c ****  *
   4:../cleanflight/src/main/cms/cms_menu_builtin.c ****  * Cleanflight and Betaflight are free software. You can redistribute
   5:../cleanflight/src/main/cms/cms_menu_builtin.c ****  * this software and/or modify this software under the terms of the
   6:../cleanflight/src/main/cms/cms_menu_builtin.c ****  * GNU General Public License as published by the Free Software
   7:../cleanflight/src/main/cms/cms_menu_builtin.c ****  * Foundation, either version 3 of the License, or (at your option)
   8:../cleanflight/src/main/cms/cms_menu_builtin.c ****  * any later version.
   9:../cleanflight/src/main/cms/cms_menu_builtin.c ****  *
  10:../cleanflight/src/main/cms/cms_menu_builtin.c ****  * Cleanflight and Betaflight are distributed in the hope that they
  11:../cleanflight/src/main/cms/cms_menu_builtin.c ****  * will be useful, but WITHOUT ANY WARRANTY; without even the implied
  12:../cleanflight/src/main/cms/cms_menu_builtin.c ****  * warranty of MERCHANTABILITY or FITNESS FOR A PARTICULAR PURPOSE.
  13:../cleanflight/src/main/cms/cms_menu_builtin.c ****  * See the GNU General Public License for more details.
  14:../cleanflight/src/main/cms/cms_menu_builtin.c ****  *
  15:../cleanflight/src/main/cms/cms_menu_builtin.c ****  * You should have received a copy of the GNU General Public License
  16:../cleanflight/src/main/cms/cms_menu_builtin.c ****  * along with this software.
  17:../cleanflight/src/main/cms/cms_menu_builtin.c ****  *
  18:../cleanflight/src/main/cms/cms_menu_builtin.c ****  * If not, see <http://www.gnu.org/licenses/>.
  19:../cleanflight/src/main/cms/cms_menu_builtin.c ****  */
  20:../cleanflight/src/main/cms/cms_menu_builtin.c **** 
  21:../cleanflight/src/main/cms/cms_menu_builtin.c **** //
  22:../cleanflight/src/main/cms/cms_menu_builtin.c **** // Built-in menu contents and support functions
  23:../cleanflight/src/main/cms/cms_menu_builtin.c **** //
  24:../cleanflight/src/main/cms/cms_menu_builtin.c **** 
  25:../cleanflight/src/main/cms/cms_menu_builtin.c **** #include <stdbool.h>
  26:../cleanflight/src/main/cms/cms_menu_builtin.c **** #include <stdint.h>
  27:../cleanflight/src/main/cms/cms_menu_builtin.c **** #include <string.h>
  28:../cleanflight/src/main/cms/cms_menu_builtin.c **** #include <ctype.h>
  29:../cleanflight/src/main/cms/cms_menu_builtin.c **** 
  30:../cleanflight/src/main/cms/cms_menu_builtin.c **** #include "platform.h"
  31:../cleanflight/src/main/cms/cms_menu_builtin.c **** 
  32:../cleanflight/src/main/cms/cms_menu_builtin.c **** #ifdef USE_CMS
  33:../cleanflight/src/main/cms/cms_menu_builtin.c **** 
  34:../cleanflight/src/main/cms/cms_menu_builtin.c **** #include "build/version.h"
  35:../cleanflight/src/main/cms/cms_menu_builtin.c **** 
  36:../cleanflight/src/main/cms/cms_menu_builtin.c **** #include "drivers/system.h"
  37:../cleanflight/src/main/cms/cms_menu_builtin.c **** 
  38:../cleanflight/src/main/cms/cms_menu_builtin.c **** #include "cms/cms.h"
  39:../cleanflight/src/main/cms/cms_menu_builtin.c **** #include "cms/cms_types.h"
  40:../cleanflight/src/main/cms/cms_menu_builtin.c **** #include "cms/cms_menu_builtin.h"
  41:../cleanflight/src/main/cms/cms_menu_builtin.c **** 
  42:../cleanflight/src/main/cms/cms_menu_builtin.c **** // Sub menus
  43:../cleanflight/src/main/cms/cms_menu_builtin.c **** 
  44:../cleanflight/src/main/cms/cms_menu_builtin.c **** #include "cms/cms_menu_imu.h"
  45:../cleanflight/src/main/cms/cms_menu_builtin.c **** #include "cms/cms_menu_blackbox.h"
  46:../cleanflight/src/main/cms/cms_menu_builtin.c **** #include "cms/cms_menu_osd.h"
  47:../cleanflight/src/main/cms/cms_menu_builtin.c **** #include "cms/cms_menu_ledstrip.h"
  48:../cleanflight/src/main/cms/cms_menu_builtin.c **** #include "cms/cms_menu_misc.h"
  49:../cleanflight/src/main/cms/cms_menu_builtin.c **** #include "cms/cms_menu_power.h"
  50:../cleanflight/src/main/cms/cms_menu_builtin.c **** 
  51:../cleanflight/src/main/cms/cms_menu_builtin.c **** // VTX supplied menus
  52:../cleanflight/src/main/cms/cms_menu_builtin.c **** 
  53:../cleanflight/src/main/cms/cms_menu_builtin.c **** #include "cms/cms_menu_vtx_rtc6705.h"
  54:../cleanflight/src/main/cms/cms_menu_builtin.c **** #include "cms/cms_menu_vtx_smartaudio.h"
  55:../cleanflight/src/main/cms/cms_menu_builtin.c **** #include "cms/cms_menu_vtx_tramp.h"
  56:../cleanflight/src/main/cms/cms_menu_builtin.c **** 
  57:../cleanflight/src/main/cms/cms_menu_builtin.c **** 
  58:../cleanflight/src/main/cms/cms_menu_builtin.c **** // Info
  59:../cleanflight/src/main/cms/cms_menu_builtin.c **** 
  60:../cleanflight/src/main/cms/cms_menu_builtin.c **** static char infoGitRev[GIT_SHORT_REVISION_LENGTH + 1];
  61:../cleanflight/src/main/cms/cms_menu_builtin.c **** static char infoTargetName[] = __TARGET__;
  62:../cleanflight/src/main/cms/cms_menu_builtin.c **** 
  63:../cleanflight/src/main/cms/cms_menu_builtin.c **** #include "interface/msp_protocol.h" // XXX for FC identification... not available elsewhere
  64:../cleanflight/src/main/cms/cms_menu_builtin.c **** 
  65:../cleanflight/src/main/cms/cms_menu_builtin.c **** static long cmsx_InfoInit(void)
  66:../cleanflight/src/main/cms/cms_menu_builtin.c **** {
  40              	 .loc 1 66 0
  41              	 .cfi_startproc
  42              	 
  43              	 
  44              	 
  45 0000 80B4     	 push {r7}
  46              	.LCFI0:
  47              	 .cfi_def_cfa_offset 4
  48              	 .cfi_offset 7,-4
  49 0002 83B0     	 sub sp,sp,#12
  50              	.LCFI1:
  51              	 .cfi_def_cfa_offset 16
  52 0004 00AF     	 add r7,sp,#0
  53              	.LCFI2:
  54              	 .cfi_def_cfa_register 7
  67:../cleanflight/src/main/cms/cms_menu_builtin.c ****     int i;
  68:../cleanflight/src/main/cms/cms_menu_builtin.c ****     for ( i = 0 ; i < GIT_SHORT_REVISION_LENGTH ; i++) {
  55              	 .loc 1 68 0
  56 0006 0023     	 movs r3,#0
  57 0008 7B60     	 str r3,[r7,#4]
  58 000a 27E0     	 b .L2
  59              	.L5:
  69:../cleanflight/src/main/cms/cms_menu_builtin.c ****         if (shortGitRevision[i] >= 'a' && shortGitRevision[i] <= 'f')
  60              	 .loc 1 69 0
  61 000c 1B4B     	 ldr r3,.L7
  62 000e 1A68     	 ldr r2,[r3]
  63 0010 7B68     	 ldr r3,[r7,#4]
  64 0012 1344     	 add r3,r3,r2
  65 0014 1B78     	 ldrb r3,[r3]
  66 0016 602B     	 cmp r3,#96
  67 0018 13D9     	 bls .L3
  68              	 .loc 1 69 0 is_stmt 0 discriminator 1
  69 001a 184B     	 ldr r3,.L7
  70 001c 1A68     	 ldr r2,[r3]
  71 001e 7B68     	 ldr r3,[r7,#4]
  72 0020 1344     	 add r3,r3,r2
  73 0022 1B78     	 ldrb r3,[r3]
  74 0024 662B     	 cmp r3,#102
  75 0026 0CD8     	 bhi .L3
  70:../cleanflight/src/main/cms/cms_menu_builtin.c ****             infoGitRev[i] = shortGitRevision[i] - 'a' + 'A';
  76              	 .loc 1 70 0 is_stmt 1
  77 0028 144B     	 ldr r3,.L7
  78 002a 1A68     	 ldr r2,[r3]
  79 002c 7B68     	 ldr r3,[r7,#4]
  80 002e 1344     	 add r3,r3,r2
  81 0030 1B78     	 ldrb r3,[r3]
  82 0032 203B     	 subs r3,r3,#32
  83 0034 D9B2     	 uxtb r1,r3
  84 0036 124A     	 ldr r2,.L7+4
  85 0038 7B68     	 ldr r3,[r7,#4]
  86 003a 1344     	 add r3,r3,r2
  87 003c 0A46     	 mov r2,r1
  88 003e 1A70     	 strb r2,[r3]
  89 0040 09E0     	 b .L4
  90              	.L3:
  71:../cleanflight/src/main/cms/cms_menu_builtin.c ****         else
  72:../cleanflight/src/main/cms/cms_menu_builtin.c ****             infoGitRev[i] = shortGitRevision[i];
  91              	 .loc 1 72 0
  92 0042 0E4B     	 ldr r3,.L7
  93 0044 1A68     	 ldr r2,[r3]
  94 0046 7B68     	 ldr r3,[r7,#4]
  95 0048 1344     	 add r3,r3,r2
  96 004a 1978     	 ldrb r1,[r3]
  97 004c 0C4A     	 ldr r2,.L7+4
  98 004e 7B68     	 ldr r3,[r7,#4]
  99 0050 1344     	 add r3,r3,r2
 100 0052 0A46     	 mov r2,r1
 101 0054 1A70     	 strb r2,[r3]
 102              	.L4:
  68:../cleanflight/src/main/cms/cms_menu_builtin.c ****         if (shortGitRevision[i] >= 'a' && shortGitRevision[i] <= 'f')
 103              	 .loc 1 68 0 discriminator 2
 104 0056 7B68     	 ldr r3,[r7,#4]
 105 0058 0133     	 adds r3,r3,#1
 106 005a 7B60     	 str r3,[r7,#4]
 107              	.L2:
  68:../cleanflight/src/main/cms/cms_menu_builtin.c ****         if (shortGitRevision[i] >= 'a' && shortGitRevision[i] <= 'f')
 108              	 .loc 1 68 0 is_stmt 0 discriminator 1
 109 005c 7B68     	 ldr r3,[r7,#4]
 110 005e 062B     	 cmp r3,#6
 111 0060 D4DD     	 ble .L5
  73:../cleanflight/src/main/cms/cms_menu_builtin.c ****     }
  74:../cleanflight/src/main/cms/cms_menu_builtin.c **** 
  75:../cleanflight/src/main/cms/cms_menu_builtin.c ****     infoGitRev[i] = 0x0; // Terminate string
 112              	 .loc 1 75 0 is_stmt 1
 113 0062 074A     	 ldr r2,.L7+4
 114 0064 7B68     	 ldr r3,[r7,#4]
 115 0066 1344     	 add r3,r3,r2
 116 0068 0022     	 movs r2,#0
 117 006a 1A70     	 strb r2,[r3]
  76:../cleanflight/src/main/cms/cms_menu_builtin.c ****     return 0;
 118              	 .loc 1 76 0
 119 006c 0023     	 movs r3,#0
  77:../cleanflight/src/main/cms/cms_menu_builtin.c **** }
 120              	 .loc 1 77 0
 121 006e 1846     	 mov r0,r3
 122 0070 0C37     	 adds r7,r7,#12
 123              	.LCFI3:
 124              	 .cfi_def_cfa_offset 4
 125 0072 BD46     	 mov sp,r7
 126              	.LCFI4:
 127              	 .cfi_def_cfa_register 13
 128              	 
 129 0074 5DF8047B 	 ldr r7,[sp],#4
 130              	.LCFI5:
 131              	 .cfi_restore 7
 132              	 .cfi_def_cfa_offset 0
 133 0078 7047     	 bx lr
 134              	.L8:
 135 007a 00BF     	 .align 2
 136              	.L7:
 137 007c 00000000 	 .word shortGitRevision
 138 0080 00000000 	 .word infoGitRev
 139              	 .cfi_endproc
 140              	.LFE527:
 142              	 .section .rodata
 143              	 .align 2
 144              	.LC0:
 145 0000 2D2D2D20 	 .ascii "--- INFO ---\000"
 145      494E464F 
 145      202D2D2D 
 145      00
 146 000d 000000   	 .align 2
 147              	.LC1:
 148 0010 46574944 	 .ascii "FWID\000"
 148      00
 149 0015 000000   	 .align 2
 150              	.LC2:
 151 0018 434C464C 	 .ascii "CLFL\000"
 151      00
 152 001d 000000   	 .align 2
 153              	.LC3:
 154 0020 46575645 	 .ascii "FWVER\000"
 154      5200
 155 0026 0000     	 .align 2
 156              	.LC4:
 157 0028 322E352E 	 .ascii "2.5.0\000"
 157      3000
 158 002e 0000     	 .align 2
 159              	.LC5:
 160 0030 47495452 	 .ascii "GITREV\000"
 160      455600
 161 0037 00       	 .align 2
 162              	.LC6:
 163 0038 54415247 	 .ascii "TARGET\000"
 163      455400
 164 003f 00       	 .align 2
 165              	.LC7:
 166 0040 4241434B 	 .ascii "BACK\000"
 166      00
 167              	 .section .data.menuInfoEntries,"aw",%progbits
 168              	 .align 2
 171              	menuInfoEntries:
 172 0000 00000000 	 .word .LC0
 173 0004 00       	 .byte 0
 174 0005 00000000 	 .4byte 0
 175 0009 00000000 	 .4byte 0
 176 000d 00       	 .byte 0
 177 000e 10000000 	 .4byte .LC1
 178 0012 0A       	 .byte 10
 179 0013 00000000 	 .4byte 0
 180 0017 18000000 	 .4byte .LC2
 181 001b 00       	 .byte 0
 182 001c 20000000 	 .word .LC3
 183 0020 0A       	 .byte 10
 184 0021 00000000 	 .4byte 0
 185 0025 28000000 	 .4byte .LC4
 186 0029 00       	 .byte 0
 187 002a 30000000 	 .4byte .LC5
 188 002e 0A       	 .byte 10
 189 002f 00000000 	 .4byte 0
 190 0033 00000000 	 .4byte infoGitRev
 191 0037 00       	 .byte 0
 192 0038 38000000 	 .word .LC6
 193 003c 0A       	 .byte 10
 194 003d 00000000 	 .4byte 0
 195 0041 00000000 	 .4byte infoTargetName
 196 0045 00       	 .byte 0
 197 0046 40000000 	 .4byte .LC7
 198 004a 01       	 .byte 1
 199 004b 00000000 	 .4byte 0
 200 004f 00000000 	 .4byte 0
 201 0053 00       	 .byte 0
 202 0054 00000000 	 .word 0
 203 0058 0E       	 .byte 14
 204 0059 00000000 	 .4byte 0
 205 005d 00000000 	 .4byte 0
 206 0061 00       	 .byte 0
 207 0062 0000     	 .section .data.menuInfo,"aw",%progbits
 208              	 .align 2
 211              	menuInfo:
 212 0000 00000000 	 .word cmsx_InfoInit
 213 0004 00000000 	 .word 0
 214 0008 00000000 	 .word menuInfoEntries
 215              	 .section .rodata
 216 0045 000000   	 .align 2
 217              	.LC8:
 218 0048 2D2D2D20 	 .ascii "--- FEATURES ---\000"
 218      46454154 
 218      55524553 
 218      202D2D2D 
 218      00
 219 0059 000000   	 .align 2
 220              	.LC9:
 221 005c 424C4143 	 .ascii "BLACKBOX\000"
 221      4B424F58 
 221      00
 222 0065 000000   	 .align 2
 223              	.LC10:
 224 0068 56545820 	 .ascii "VTX SA\000"
 224      534100
 225 006f 00       	 .align 2
 226              	.LC11:
 227 0070 56545820 	 .ascii "VTX TR\000"
 227      545200
 228 0077 00       	 .align 2
 229              	.LC12:
 230 0078 504F5745 	 .ascii "POWER\000"
 230      5200
 231              	 .section .data.menuFeaturesEntries,"aw",%progbits
 232              	 .align 2
 235              	menuFeaturesEntries:
 236 0000 48000000 	 .word .LC8
 237 0004 00       	 .byte 0
 238 0005 00000000 	 .4byte 0
 239 0009 00000000 	 .4byte 0
 240 000d 00       	 .byte 0
 241 000e 5C000000 	 .4byte .LC9
 242 0012 03       	 .byte 3
 243 0013 00000000 	 .4byte cmsMenuChange
 244 0017 00000000 	 .4byte cmsx_menuBlackbox
 245 001b 00       	 .byte 0
 246 001c 68000000 	 .word .LC10
 247 0020 03       	 .byte 3
 248 0021 00000000 	 .4byte cmsMenuChange
 249 0025 00000000 	 .4byte cmsx_menuVtxSmartAudio
 250 0029 00       	 .byte 0
 251 002a 70000000 	 .4byte .LC11
 252 002e 03       	 .byte 3
 253 002f 00000000 	 .4byte cmsMenuChange
 254 0033 00000000 	 .4byte cmsx_menuVtxTramp
 255 0037 00       	 .byte 0
 256 0038 78000000 	 .word .LC12
 257 003c 03       	 .byte 3
 258 003d 00000000 	 .4byte cmsMenuChange
 259 0041 00000000 	 .4byte cmsx_menuPower
 260 0045 00       	 .byte 0
 261 0046 40000000 	 .4byte .LC7
 262 004a 01       	 .byte 1
 263 004b 00000000 	 .4byte 0
 264 004f 00000000 	 .4byte 0
 265 0053 00       	 .byte 0
 266 0054 00000000 	 .word 0
 267 0058 0E       	 .byte 14
 268 0059 00000000 	 .4byte 0
 269 005d 00000000 	 .4byte 0
 270 0061 00       	 .byte 0
 271 0062 0000     	 .section .data.menuFeatures,"aw",%progbits
 272              	 .align 2
 275              	menuFeatures:
 276 0000 00000000 	 .word 0
 277 0004 00000000 	 .word 0
 278 0008 00000000 	 .word menuFeaturesEntries
 279              	 .section .rodata
 280 007e 0000     	 .align 2
 281              	.LC13:
 282 0080 2D2D204D 	 .ascii "-- MAIN --\000"
 282      41494E20 
 282      2D2D00
 283 008b 00       	 .align 2
 284              	.LC14:
 285 008c 50524F46 	 .ascii "PROFILE\000"
 285      494C4500 
 286              	 .align 2
 287              	.LC15:
 288 0094 46454154 	 .ascii "FEATURES\000"
 288      55524553 
 288      00
 289 009d 000000   	 .align 2
 290              	.LC16:
 291 00a0 4F534400 	 .ascii "OSD\000"
 292              	 .align 2
 293              	.LC17:
 294 00a4 46432646 	 .ascii "FC&FW INFO\000"
 294      5720494E 
 294      464F00
 295 00af 00       	 .align 2
 296              	.LC18:
 297 00b0 4D495343 	 .ascii "MISC\000"
 297      00
 298 00b5 000000   	 .align 2
 299              	.LC19:
 300 00b8 45584954 	 .ascii "EXIT\000"
 300      00
 301 00bd 000000   	 .align 2
 302              	.LC20:
 303 00c0 53415645 	 .ascii "SAVE&EXIT\000"
 303      26455849 
 303      5400
 304 00ca 0000     	 .align 2
 305              	.LC21:
 306 00cc 53415645 	 .ascii "SAVE&REBOOT\000"
 306      26524542 
 306      4F4F5400 
 307              	 .section .data.menuMainEntries,"aw",%progbits
 308              	 .align 2
 311              	menuMainEntries:
 312 0000 80000000 	 .word .LC13
 313 0004 00       	 .byte 0
 314 0005 00000000 	 .4byte 0
 315 0009 00000000 	 .4byte 0
 316 000d 00       	 .byte 0
 317 000e 8C000000 	 .4byte .LC14
 318 0012 03       	 .byte 3
 319 0013 00000000 	 .4byte cmsMenuChange
 320 0017 00000000 	 .4byte cmsx_menuImu
 321 001b 00       	 .byte 0
 322 001c 94000000 	 .word .LC15
 323 0020 03       	 .byte 3
 324 0021 00000000 	 .4byte cmsMenuChange
 325 0025 00000000 	 .4byte menuFeatures
 326 0029 00       	 .byte 0
 327 002a A0000000 	 .4byte .LC16
 328 002e 03       	 .byte 3
 329 002f 00000000 	 .4byte cmsMenuChange
 330 0033 00000000 	 .4byte cmsx_menuOsd
 331 0037 00       	 .byte 0
 332 0038 A4000000 	 .word .LC17
 333 003c 03       	 .byte 3
 334 003d 00000000 	 .4byte cmsMenuChange
 335 0041 00000000 	 .4byte menuInfo
 336 0045 00       	 .byte 0
 337 0046 B0000000 	 .4byte .LC18
 338 004a 03       	 .byte 3
 339 004b 00000000 	 .4byte cmsMenuChange
 340 004f 00000000 	 .4byte cmsx_menuMisc
 341 0053 00       	 .byte 0
 342 0054 B8000000 	 .word .LC19
 343 0058 02       	 .byte 2
 344 0059 00000000 	 .4byte cmsMenuExit
 345 005d 00000000 	 .4byte 0
 346 0061 00       	 .byte 0
 347 0062 C0000000 	 .4byte .LC20
 348 0066 02       	 .byte 2
 349 0067 00000000 	 .4byte cmsMenuExit
 350 006b 01000000 	 .4byte 1
 351 006f 00       	 .byte 0
 352 0070 CC000000 	 .word .LC21
 353 0074 02       	 .byte 2
 354 0075 00000000 	 .4byte cmsMenuExit
 355 0079 02000000 	 .4byte 2
 356 007d 00       	 .byte 0
 357 007e 00000000 	 .4byte 0
 358 0082 0E       	 .byte 14
 359 0083 00000000 	 .4byte 0
 360 0087 00000000 	 .4byte 0
 361 008b 00       	 .byte 0
 362              	 .global menuMain
 363              	 .section .data.menuMain,"aw",%progbits
 364              	 .align 2
 367              	menuMain:
 368 0000 00000000 	 .word 0
 369 0004 00000000 	 .word 0
 370 0008 00000000 	 .word menuMainEntries
 371              	 .text
 372              	.Letext0:
 373              	 .file 2 "d:\\xmc\\dave-ide-4.4.2-64bit\\eclipse\\arm-gcc-49\\arm-none-eabi\\include\\machine\\_default_types.h"
 374              	 .file 3 "d:\\xmc\\dave-ide-4.4.2-64bit\\eclipse\\arm-gcc-49\\arm-none-eabi\\include\\stdint.h"
 375              	 .file 4 "D:/XMC/Projekte/Temp/CF_XMC4700/cleanflight/lib/main/XMC4000/XMCLib/inc/xmc_usic.h"
 376              	 .file 5 "D:/XMC/Projekte/Temp/CF_XMC4700/cleanflight/src/main/drivers/display.h"
 377              	 .file 6 "D:/XMC/Projekte/Temp/CF_XMC4700/cleanflight/src/main/common/time.h"
 378              	 .file 7 "D:/XMC/Projekte/Temp/CF_XMC4700/cleanflight/src/main/cms/cms_types.h"
 379              	 .file 8 "D:/XMC/Projekte/Temp/CF_XMC4700/cleanflight/lib/main/CMSIS/Core/Include/core_cm4.h"
 380              	 .file 9 "D:/XMC/Projekte/Temp/CF_XMC4700/cleanflight/lib/main/XMC4000/system_XMC4700.h"
 381              	 .file 10 "D:/XMC/Projekte/Temp/CF_XMC4700/cleanflight/src/main/build/version.h"
 382              	 .file 11 "D:/XMC/Projekte/Temp/CF_XMC4700/cleanflight/src/main/cms/cms.h"
 383              	 .file 12 "D:/XMC/Projekte/Temp/CF_XMC4700/cleanflight/src/main/cms/cms_menu_imu.h"
 384              	 .file 13 "D:/XMC/Projekte/Temp/CF_XMC4700/cleanflight/src/main/cms/cms_menu_blackbox.h"
 385              	 .file 14 "D:/XMC/Projekte/Temp/CF_XMC4700/cleanflight/src/main/cms/cms_menu_osd.h"
 386              	 .file 15 "D:/XMC/Projekte/Temp/CF_XMC4700/cleanflight/src/main/cms/cms_menu_misc.h"
 387              	 .file 16 "D:/XMC/Projekte/Temp/CF_XMC4700/cleanflight/src/main/cms/cms_menu_power.h"
 388              	 .file 17 "D:/XMC/Projekte/Temp/CF_XMC4700/cleanflight/src/main/cms/cms_menu_vtx_smartaudio.h"
 389              	 .file 18 "D:/XMC/Projekte/Temp/CF_XMC4700/cleanflight/src/main/cms/cms_menu_vtx_tramp.h"