   1              	 .syntax unified
   2              	 .cpu cortex-m4
   3              	 .eabi_attribute 27,3
   4              	 .fpu fpv4-sp-d16
   5              	 .eabi_attribute 20,1
   6              	 .eabi_attribute 21,1
   7              	 .eabi_attribute 23,3
   8              	 .eabi_attribute 24,1
   9              	 .eabi_attribute 25,1
  10              	 .eabi_attribute 26,1
  11              	 .eabi_attribute 30,6
  12              	 .eabi_attribute 34,1
  13              	 .eabi_attribute 18,4
  14              	 .thumb
  15              	 .file "blackbox.c"
  16              	 .text
  17              	.Ltext0:
  18              	 .cfi_sections .debug_frame
  19              	 .section .text.blackboxConfig,"ax",%progbits
  20              	 .align 2
  21              	 .thumb
  22              	 .thumb_func
  24              	blackboxConfig:
  25              	.LFB527:
  26              	 .file 1 "../cleanflight/src/main/blackbox/blackbox.h"
   1:../cleanflight/src/main/blackbox/blackbox.h **** /*
   2:../cleanflight/src/main/blackbox/blackbox.h ****  * This file is part of Cleanflight and Betaflight.
   3:../cleanflight/src/main/blackbox/blackbox.h ****  *
   4:../cleanflight/src/main/blackbox/blackbox.h ****  * Cleanflight and Betaflight are free software. You can redistribute
   5:../cleanflight/src/main/blackbox/blackbox.h ****  * this software and/or modify this software under the terms of the
   6:../cleanflight/src/main/blackbox/blackbox.h ****  * GNU General Public License as published by the Free Software
   7:../cleanflight/src/main/blackbox/blackbox.h ****  * Foundation, either version 3 of the License, or (at your option)
   8:../cleanflight/src/main/blackbox/blackbox.h ****  * any later version.
   9:../cleanflight/src/main/blackbox/blackbox.h ****  *
  10:../cleanflight/src/main/blackbox/blackbox.h ****  * Cleanflight and Betaflight are distributed in the hope that they
  11:../cleanflight/src/main/blackbox/blackbox.h ****  * will be useful, but WITHOUT ANY WARRANTY; without even the implied
  12:../cleanflight/src/main/blackbox/blackbox.h ****  * warranty of MERCHANTABILITY or FITNESS FOR A PARTICULAR PURPOSE.
  13:../cleanflight/src/main/blackbox/blackbox.h ****  * See the GNU General Public License for more details.
  14:../cleanflight/src/main/blackbox/blackbox.h ****  *
  15:../cleanflight/src/main/blackbox/blackbox.h ****  * You should have received a copy of the GNU General Public License
  16:../cleanflight/src/main/blackbox/blackbox.h ****  * along with this software.
  17:../cleanflight/src/main/blackbox/blackbox.h ****  *
  18:../cleanflight/src/main/blackbox/blackbox.h ****  * If not, see <http://www.gnu.org/licenses/>.
  19:../cleanflight/src/main/blackbox/blackbox.h ****  */
  20:../cleanflight/src/main/blackbox/blackbox.h **** 
  21:../cleanflight/src/main/blackbox/blackbox.h **** #pragma once
  22:../cleanflight/src/main/blackbox/blackbox.h **** 
  23:../cleanflight/src/main/blackbox/blackbox.h **** #include "platform.h"
  24:../cleanflight/src/main/blackbox/blackbox.h **** #include "build/build_config.h"
  25:../cleanflight/src/main/blackbox/blackbox.h **** #include "common/time.h"
  26:../cleanflight/src/main/blackbox/blackbox.h **** #include "pg/pg.h"
  27:../cleanflight/src/main/blackbox/blackbox.h **** 
  28:../cleanflight/src/main/blackbox/blackbox.h **** typedef enum BlackboxDevice {
  29:../cleanflight/src/main/blackbox/blackbox.h ****     BLACKBOX_DEVICE_NONE = 0,
  30:../cleanflight/src/main/blackbox/blackbox.h **** #ifdef USE_FLASHFS
  31:../cleanflight/src/main/blackbox/blackbox.h ****     BLACKBOX_DEVICE_FLASH = 1,
  32:../cleanflight/src/main/blackbox/blackbox.h **** #endif
  33:../cleanflight/src/main/blackbox/blackbox.h **** #ifdef USE_SDCARD
  34:../cleanflight/src/main/blackbox/blackbox.h ****     BLACKBOX_DEVICE_SDCARD = 2,
  35:../cleanflight/src/main/blackbox/blackbox.h **** #endif
  36:../cleanflight/src/main/blackbox/blackbox.h ****     BLACKBOX_DEVICE_SERIAL = 3
  37:../cleanflight/src/main/blackbox/blackbox.h **** } BlackboxDevice_e;
  38:../cleanflight/src/main/blackbox/blackbox.h **** 
  39:../cleanflight/src/main/blackbox/blackbox.h **** typedef enum BlackboxMode {
  40:../cleanflight/src/main/blackbox/blackbox.h ****     BLACKBOX_MODE_NORMAL = 0,
  41:../cleanflight/src/main/blackbox/blackbox.h ****     BLACKBOX_MODE_MOTOR_TEST,
  42:../cleanflight/src/main/blackbox/blackbox.h ****     BLACKBOX_MODE_ALWAYS_ON
  43:../cleanflight/src/main/blackbox/blackbox.h **** } BlackboxMode;
  44:../cleanflight/src/main/blackbox/blackbox.h **** 
  45:../cleanflight/src/main/blackbox/blackbox.h **** typedef enum FlightLogEvent {
  46:../cleanflight/src/main/blackbox/blackbox.h ****     FLIGHT_LOG_EVENT_SYNC_BEEP = 0,
  47:../cleanflight/src/main/blackbox/blackbox.h ****     FLIGHT_LOG_EVENT_INFLIGHT_ADJUSTMENT = 13,
  48:../cleanflight/src/main/blackbox/blackbox.h ****     FLIGHT_LOG_EVENT_LOGGING_RESUME = 14,
  49:../cleanflight/src/main/blackbox/blackbox.h ****     FLIGHT_LOG_EVENT_FLIGHTMODE = 30, // Add new event type for flight mode status.
  50:../cleanflight/src/main/blackbox/blackbox.h ****     FLIGHT_LOG_EVENT_LOG_END = 255
  51:../cleanflight/src/main/blackbox/blackbox.h **** } FlightLogEvent;
  52:../cleanflight/src/main/blackbox/blackbox.h **** 
  53:../cleanflight/src/main/blackbox/blackbox.h **** typedef struct blackboxConfig_s {
  54:../cleanflight/src/main/blackbox/blackbox.h ****     uint16_t p_ratio; // I-frame interval / P-frame interval
  55:../cleanflight/src/main/blackbox/blackbox.h ****     uint8_t device;
  56:../cleanflight/src/main/blackbox/blackbox.h ****     uint8_t record_acc;
  57:../cleanflight/src/main/blackbox/blackbox.h ****     uint8_t mode;
  58:../cleanflight/src/main/blackbox/blackbox.h **** } blackboxConfig_t;
  59:../cleanflight/src/main/blackbox/blackbox.h **** 
  60:../cleanflight/src/main/blackbox/blackbox.h **** PG_DECLARE(blackboxConfig_t, blackboxConfig);
  27              	 .loc 1 60 0
  28              	 .cfi_startproc
  29              	 
  30              	 
  31              	 
  32 0000 80B4     	 push {r7}
  33              	.LCFI0:
  34              	 .cfi_def_cfa_offset 4
  35              	 .cfi_offset 7,-4
  36 0002 00AF     	 add r7,sp,#0
  37              	.LCFI1:
  38              	 .cfi_def_cfa_register 7
  39              	 .loc 1 60 0
  40 0004 024B     	 ldr r3,.L3
  41 0006 1846     	 mov r0,r3
  42 0008 BD46     	 mov sp,r7
  43              	.LCFI2:
  44              	 .cfi_def_cfa_register 13
  45              	 
  46 000a 5DF8047B 	 ldr r7,[sp],#4
  47              	.LCFI3:
  48              	 .cfi_restore 7
  49              	 .cfi_def_cfa_offset 0
  50 000e 7047     	 bx lr
  51              	.L4:
  52              	 .align 2
  53              	.L3:
  54 0010 00000000 	 .word blackboxConfig_System
  55              	 .cfi_endproc
  56              	.LFE527:
  58              	 .section .text.blackboxConfigMutable,"ax",%progbits
  59              	 .align 2
  60              	 .thumb
  61              	 .thumb_func
  63              	blackboxConfigMutable:
  64              	.LFB528:
  65              	 .loc 1 60 0
  66              	 .cfi_startproc
  67              	 
  68              	 
  69              	 
  70 0000 80B4     	 push {r7}
  71              	.LCFI4:
  72              	 .cfi_def_cfa_offset 4
  73              	 .cfi_offset 7,-4
  74 0002 00AF     	 add r7,sp,#0
  75              	.LCFI5:
  76              	 .cfi_def_cfa_register 7
  77              	 .loc 1 60 0
  78 0004 024B     	 ldr r3,.L7
  79 0006 1846     	 mov r0,r3
  80 0008 BD46     	 mov sp,r7
  81              	.LCFI6:
  82              	 .cfi_def_cfa_register 13
  83              	 
  84 000a 5DF8047B 	 ldr r7,[sp],#4
  85              	.LCFI7:
  86              	 .cfi_restore 7
  87              	 .cfi_def_cfa_offset 0
  88 000e 7047     	 bx lr
  89              	.L8:
  90              	 .align 2
  91              	.L7:
  92 0010 00000000 	 .word blackboxConfig_System
  93              	 .cfi_endproc
  94              	.LFE528:
  96              	 .section .text.featureConfig,"ax",%progbits
  97              	 .align 2
  98              	 .thumb
  99              	 .thumb_func
 101              	featureConfig:
 102              	.LFB531:
 103              	 .file 2 "D:/XMC/Projekte/Temp/CF_XMC4700/cleanflight/src/main/config/feature.h"
   1:D:/XMC/Projekte/Temp/CF_XMC4700/cleanflight/src/main/config\feature.h **** /*
   2:D:/XMC/Projekte/Temp/CF_XMC4700/cleanflight/src/main/config\feature.h ****  * This file is part of Cleanflight and Betaflight.
   3:D:/XMC/Projekte/Temp/CF_XMC4700/cleanflight/src/main/config\feature.h ****  *
   4:D:/XMC/Projekte/Temp/CF_XMC4700/cleanflight/src/main/config\feature.h ****  * Cleanflight and Betaflight are free software. You can redistribute
   5:D:/XMC/Projekte/Temp/CF_XMC4700/cleanflight/src/main/config\feature.h ****  * this software and/or modify this software under the terms of the
   6:D:/XMC/Projekte/Temp/CF_XMC4700/cleanflight/src/main/config\feature.h ****  * GNU General Public License as published by the Free Software
   7:D:/XMC/Projekte/Temp/CF_XMC4700/cleanflight/src/main/config\feature.h ****  * Foundation, either version 3 of the License, or (at your option)
   8:D:/XMC/Projekte/Temp/CF_XMC4700/cleanflight/src/main/config\feature.h ****  * any later version.
   9:D:/XMC/Projekte/Temp/CF_XMC4700/cleanflight/src/main/config\feature.h ****  *
  10:D:/XMC/Projekte/Temp/CF_XMC4700/cleanflight/src/main/config\feature.h ****  * Cleanflight and Betaflight are distributed in the hope that they
  11:D:/XMC/Projekte/Temp/CF_XMC4700/cleanflight/src/main/config\feature.h ****  * will be useful, but WITHOUT ANY WARRANTY; without even the implied
  12:D:/XMC/Projekte/Temp/CF_XMC4700/cleanflight/src/main/config\feature.h ****  * warranty of MERCHANTABILITY or FITNESS FOR A PARTICULAR PURPOSE.
  13:D:/XMC/Projekte/Temp/CF_XMC4700/cleanflight/src/main/config\feature.h ****  * See the GNU General Public License for more details.
  14:D:/XMC/Projekte/Temp/CF_XMC4700/cleanflight/src/main/config\feature.h ****  *
  15:D:/XMC/Projekte/Temp/CF_XMC4700/cleanflight/src/main/config\feature.h ****  * You should have received a copy of the GNU General Public License
  16:D:/XMC/Projekte/Temp/CF_XMC4700/cleanflight/src/main/config\feature.h ****  * along with this software.
  17:D:/XMC/Projekte/Temp/CF_XMC4700/cleanflight/src/main/config\feature.h ****  *
  18:D:/XMC/Projekte/Temp/CF_XMC4700/cleanflight/src/main/config\feature.h ****  * If not, see <http://www.gnu.org/licenses/>.
  19:D:/XMC/Projekte/Temp/CF_XMC4700/cleanflight/src/main/config\feature.h ****  */
  20:D:/XMC/Projekte/Temp/CF_XMC4700/cleanflight/src/main/config\feature.h **** 
  21:D:/XMC/Projekte/Temp/CF_XMC4700/cleanflight/src/main/config\feature.h **** #pragma once
  22:D:/XMC/Projekte/Temp/CF_XMC4700/cleanflight/src/main/config\feature.h **** 
  23:D:/XMC/Projekte/Temp/CF_XMC4700/cleanflight/src/main/config\feature.h **** #include "pg/pg.h"
  24:D:/XMC/Projekte/Temp/CF_XMC4700/cleanflight/src/main/config\feature.h **** 
  25:D:/XMC/Projekte/Temp/CF_XMC4700/cleanflight/src/main/config\feature.h **** #ifndef DEFAULT_FEATURES
  26:D:/XMC/Projekte/Temp/CF_XMC4700/cleanflight/src/main/config\feature.h **** #define DEFAULT_FEATURES 0
  27:D:/XMC/Projekte/Temp/CF_XMC4700/cleanflight/src/main/config\feature.h **** #endif
  28:D:/XMC/Projekte/Temp/CF_XMC4700/cleanflight/src/main/config\feature.h **** #ifndef DEFAULT_RX_FEATURE
  29:D:/XMC/Projekte/Temp/CF_XMC4700/cleanflight/src/main/config\feature.h **** #define DEFAULT_RX_FEATURE FEATURE_RX_PARALLEL_PWM
  30:D:/XMC/Projekte/Temp/CF_XMC4700/cleanflight/src/main/config\feature.h **** #endif
  31:D:/XMC/Projekte/Temp/CF_XMC4700/cleanflight/src/main/config\feature.h **** 
  32:D:/XMC/Projekte/Temp/CF_XMC4700/cleanflight/src/main/config\feature.h **** typedef enum {
  33:D:/XMC/Projekte/Temp/CF_XMC4700/cleanflight/src/main/config\feature.h ****     FEATURE_RX_PPM = 1 << 0,
  34:D:/XMC/Projekte/Temp/CF_XMC4700/cleanflight/src/main/config\feature.h ****     FEATURE_INFLIGHT_ACC_CAL = 1 << 2,
  35:D:/XMC/Projekte/Temp/CF_XMC4700/cleanflight/src/main/config\feature.h ****     FEATURE_RX_SERIAL = 1 << 3,
  36:D:/XMC/Projekte/Temp/CF_XMC4700/cleanflight/src/main/config\feature.h ****     FEATURE_MOTOR_STOP = 1 << 4,
  37:D:/XMC/Projekte/Temp/CF_XMC4700/cleanflight/src/main/config\feature.h ****     FEATURE_SERVO_TILT = 1 << 5,
  38:D:/XMC/Projekte/Temp/CF_XMC4700/cleanflight/src/main/config\feature.h ****     FEATURE_SOFTSERIAL = 1 << 6,
  39:D:/XMC/Projekte/Temp/CF_XMC4700/cleanflight/src/main/config\feature.h ****     FEATURE_GPS = 1 << 7,
  40:D:/XMC/Projekte/Temp/CF_XMC4700/cleanflight/src/main/config\feature.h ****     FEATURE_RANGEFINDER = 1 << 9,
  41:D:/XMC/Projekte/Temp/CF_XMC4700/cleanflight/src/main/config\feature.h ****     FEATURE_TELEMETRY = 1 << 10,
  42:D:/XMC/Projekte/Temp/CF_XMC4700/cleanflight/src/main/config\feature.h ****     FEATURE_3D = 1 << 12,
  43:D:/XMC/Projekte/Temp/CF_XMC4700/cleanflight/src/main/config\feature.h ****     FEATURE_RX_PARALLEL_PWM = 1 << 13,
  44:D:/XMC/Projekte/Temp/CF_XMC4700/cleanflight/src/main/config\feature.h ****     FEATURE_RX_MSP = 1 << 14,
  45:D:/XMC/Projekte/Temp/CF_XMC4700/cleanflight/src/main/config\feature.h ****     FEATURE_RSSI_ADC = 1 << 15,
  46:D:/XMC/Projekte/Temp/CF_XMC4700/cleanflight/src/main/config\feature.h ****     FEATURE_LED_STRIP = 1 << 16,
  47:D:/XMC/Projekte/Temp/CF_XMC4700/cleanflight/src/main/config\feature.h ****     FEATURE_DASHBOARD = 1 << 17,
  48:D:/XMC/Projekte/Temp/CF_XMC4700/cleanflight/src/main/config\feature.h ****     FEATURE_OSD = 1 << 18,
  49:D:/XMC/Projekte/Temp/CF_XMC4700/cleanflight/src/main/config\feature.h ****     FEATURE_CHANNEL_FORWARDING = 1 << 20,
  50:D:/XMC/Projekte/Temp/CF_XMC4700/cleanflight/src/main/config\feature.h ****     FEATURE_TRANSPONDER = 1 << 21,
  51:D:/XMC/Projekte/Temp/CF_XMC4700/cleanflight/src/main/config\feature.h ****     FEATURE_AIRMODE = 1 << 22,
  52:D:/XMC/Projekte/Temp/CF_XMC4700/cleanflight/src/main/config\feature.h ****     FEATURE_RX_SPI = 1 << 25,
  53:D:/XMC/Projekte/Temp/CF_XMC4700/cleanflight/src/main/config\feature.h ****     FEATURE_SOFTSPI = 1 << 26,
  54:D:/XMC/Projekte/Temp/CF_XMC4700/cleanflight/src/main/config\feature.h ****     FEATURE_ESC_SENSOR = 1 << 27,
  55:D:/XMC/Projekte/Temp/CF_XMC4700/cleanflight/src/main/config\feature.h ****     FEATURE_ANTI_GRAVITY = 1 << 28,
  56:D:/XMC/Projekte/Temp/CF_XMC4700/cleanflight/src/main/config\feature.h ****     FEATURE_DYNAMIC_FILTER = 1 << 29,
  57:D:/XMC/Projekte/Temp/CF_XMC4700/cleanflight/src/main/config\feature.h **** } features_e;
  58:D:/XMC/Projekte/Temp/CF_XMC4700/cleanflight/src/main/config\feature.h **** 
  59:D:/XMC/Projekte/Temp/CF_XMC4700/cleanflight/src/main/config\feature.h **** typedef struct featureConfig_s {
  60:D:/XMC/Projekte/Temp/CF_XMC4700/cleanflight/src/main/config\feature.h ****     uint32_t enabledFeatures;
  61:D:/XMC/Projekte/Temp/CF_XMC4700/cleanflight/src/main/config\feature.h **** } featureConfig_t;
  62:D:/XMC/Projekte/Temp/CF_XMC4700/cleanflight/src/main/config\feature.h **** 
  63:D:/XMC/Projekte/Temp/CF_XMC4700/cleanflight/src/main/config\feature.h **** PG_DECLARE(featureConfig_t, featureConfig);
 104              	 .loc 2 63 0
 105              	 .cfi_startproc
 106              	 
 107              	 
 108              	 
 109 0000 80B4     	 push {r7}
 110              	.LCFI8:
 111              	 .cfi_def_cfa_offset 4
 112              	 .cfi_offset 7,-4
 113 0002 00AF     	 add r7,sp,#0
 114              	.LCFI9:
 115              	 .cfi_def_cfa_register 7
 116              	 .loc 2 63 0
 117 0004 024B     	 ldr r3,.L11
 118 0006 1846     	 mov r0,r3
 119 0008 BD46     	 mov sp,r7
 120              	.LCFI10:
 121              	 .cfi_def_cfa_register 13
 122              	 
 123 000a 5DF8047B 	 ldr r7,[sp],#4
 124              	.LCFI11:
 125              	 .cfi_restore 7
 126              	 .cfi_def_cfa_offset 0
 127 000e 7047     	 bx lr
 128              	.L12:
 129              	 .align 2
 130              	.L11:
 131 0010 00000000 	 .word featureConfig_System
 132              	 .cfi_endproc
 133              	.LFE531:
 135              	 .section .text.rxConfig,"ax",%progbits
 136              	 .align 2
 137              	 .thumb
 138              	 .thumb_func
 140              	rxConfig:
 141              	.LFB533:
 142              	 .file 3 "D:/XMC/Projekte/Temp/CF_XMC4700/cleanflight/src/main/pg/rx.h"
   1:D:/XMC/Projekte/Temp/CF_XMC4700/cleanflight/src/main/pg\rx.h **** /*
   2:D:/XMC/Projekte/Temp/CF_XMC4700/cleanflight/src/main/pg\rx.h ****  * This file is part of Cleanflight and Betaflight.
   3:D:/XMC/Projekte/Temp/CF_XMC4700/cleanflight/src/main/pg\rx.h ****  *
   4:D:/XMC/Projekte/Temp/CF_XMC4700/cleanflight/src/main/pg\rx.h ****  * Cleanflight and Betaflight are free software. You can redistribute
   5:D:/XMC/Projekte/Temp/CF_XMC4700/cleanflight/src/main/pg\rx.h ****  * this software and/or modify this software under the terms of the
   6:D:/XMC/Projekte/Temp/CF_XMC4700/cleanflight/src/main/pg\rx.h ****  * GNU General Public License as published by the Free Software
   7:D:/XMC/Projekte/Temp/CF_XMC4700/cleanflight/src/main/pg\rx.h ****  * Foundation, either version 3 of the License, or (at your option)
   8:D:/XMC/Projekte/Temp/CF_XMC4700/cleanflight/src/main/pg\rx.h ****  * any later version.
   9:D:/XMC/Projekte/Temp/CF_XMC4700/cleanflight/src/main/pg\rx.h ****  *
  10:D:/XMC/Projekte/Temp/CF_XMC4700/cleanflight/src/main/pg\rx.h ****  * Cleanflight and Betaflight are distributed in the hope that they
  11:D:/XMC/Projekte/Temp/CF_XMC4700/cleanflight/src/main/pg\rx.h ****  * will be useful, but WITHOUT ANY WARRANTY; without even the implied
  12:D:/XMC/Projekte/Temp/CF_XMC4700/cleanflight/src/main/pg\rx.h ****  * warranty of MERCHANTABILITY or FITNESS FOR A PARTICULAR PURPOSE.
  13:D:/XMC/Projekte/Temp/CF_XMC4700/cleanflight/src/main/pg\rx.h ****  * See the GNU General Public License for more details.
  14:D:/XMC/Projekte/Temp/CF_XMC4700/cleanflight/src/main/pg\rx.h ****  *
  15:D:/XMC/Projekte/Temp/CF_XMC4700/cleanflight/src/main/pg\rx.h ****  * You should have received a copy of the GNU General Public License
  16:D:/XMC/Projekte/Temp/CF_XMC4700/cleanflight/src/main/pg\rx.h ****  * along with this software.
  17:D:/XMC/Projekte/Temp/CF_XMC4700/cleanflight/src/main/pg\rx.h ****  *
  18:D:/XMC/Projekte/Temp/CF_XMC4700/cleanflight/src/main/pg\rx.h ****  * If not, see <http://www.gnu.org/licenses/>.
  19:D:/XMC/Projekte/Temp/CF_XMC4700/cleanflight/src/main/pg\rx.h ****  */
  20:D:/XMC/Projekte/Temp/CF_XMC4700/cleanflight/src/main/pg\rx.h **** 
  21:D:/XMC/Projekte/Temp/CF_XMC4700/cleanflight/src/main/pg\rx.h **** #pragma once
  22:D:/XMC/Projekte/Temp/CF_XMC4700/cleanflight/src/main/pg\rx.h **** 
  23:D:/XMC/Projekte/Temp/CF_XMC4700/cleanflight/src/main/pg\rx.h **** #include "drivers/io_types.h"
  24:D:/XMC/Projekte/Temp/CF_XMC4700/cleanflight/src/main/pg\rx.h **** 
  25:D:/XMC/Projekte/Temp/CF_XMC4700/cleanflight/src/main/pg\rx.h **** #include "pg/pg.h"
  26:D:/XMC/Projekte/Temp/CF_XMC4700/cleanflight/src/main/pg\rx.h **** 
  27:D:/XMC/Projekte/Temp/CF_XMC4700/cleanflight/src/main/pg\rx.h **** typedef struct rxConfig_s {
  28:D:/XMC/Projekte/Temp/CF_XMC4700/cleanflight/src/main/pg\rx.h ****     uint8_t rcmap[RX_MAPPABLE_CHANNEL_COUNT];  // mapping of radio channels to internal RPYTA+ orde
  29:D:/XMC/Projekte/Temp/CF_XMC4700/cleanflight/src/main/pg\rx.h ****     uint8_t serialrx_provider;              // type of UART-based receiver (0 = spek 10, 1 = spek 1
  30:D:/XMC/Projekte/Temp/CF_XMC4700/cleanflight/src/main/pg\rx.h ****     uint8_t serialrx_inverted;              // invert the serial RX protocol compared to it's defau
  31:D:/XMC/Projekte/Temp/CF_XMC4700/cleanflight/src/main/pg\rx.h ****     uint8_t halfDuplex;                     // allow rx to operate in half duplex mode on F4, ignor
  32:D:/XMC/Projekte/Temp/CF_XMC4700/cleanflight/src/main/pg\rx.h ****     ioTag_t spektrum_bind_pin_override_ioTag;
  33:D:/XMC/Projekte/Temp/CF_XMC4700/cleanflight/src/main/pg\rx.h ****     ioTag_t spektrum_bind_plug_ioTag;
  34:D:/XMC/Projekte/Temp/CF_XMC4700/cleanflight/src/main/pg\rx.h ****     uint8_t spektrum_sat_bind;              // number of bind pulses for Spektrum satellite receive
  35:D:/XMC/Projekte/Temp/CF_XMC4700/cleanflight/src/main/pg\rx.h ****     uint8_t spektrum_sat_bind_autoreset;    // whenever we will reset (exit) binding mode after har
  36:D:/XMC/Projekte/Temp/CF_XMC4700/cleanflight/src/main/pg\rx.h ****     uint8_t rssi_channel;
  37:D:/XMC/Projekte/Temp/CF_XMC4700/cleanflight/src/main/pg\rx.h ****     uint8_t rssi_scale;
  38:D:/XMC/Projekte/Temp/CF_XMC4700/cleanflight/src/main/pg\rx.h ****     uint8_t rssi_invert;
  39:D:/XMC/Projekte/Temp/CF_XMC4700/cleanflight/src/main/pg\rx.h ****     uint16_t midrc;                         // Some radios have not a neutral point centered on 150
  40:D:/XMC/Projekte/Temp/CF_XMC4700/cleanflight/src/main/pg\rx.h ****     uint16_t mincheck;                      // minimum rc end
  41:D:/XMC/Projekte/Temp/CF_XMC4700/cleanflight/src/main/pg\rx.h ****     uint16_t maxcheck;                      // maximum rc end
  42:D:/XMC/Projekte/Temp/CF_XMC4700/cleanflight/src/main/pg\rx.h ****     uint8_t rcInterpolation;
  43:D:/XMC/Projekte/Temp/CF_XMC4700/cleanflight/src/main/pg\rx.h ****     uint8_t rcInterpolationChannels;
  44:D:/XMC/Projekte/Temp/CF_XMC4700/cleanflight/src/main/pg\rx.h ****     uint8_t rcInterpolationInterval;
  45:D:/XMC/Projekte/Temp/CF_XMC4700/cleanflight/src/main/pg\rx.h ****     uint8_t fpvCamAngleDegrees;             // Camera angle to be scaled into rc commands
  46:D:/XMC/Projekte/Temp/CF_XMC4700/cleanflight/src/main/pg\rx.h ****     uint8_t airModeActivateThreshold;       // Throttle setpoint percent where airmode gets activat
  47:D:/XMC/Projekte/Temp/CF_XMC4700/cleanflight/src/main/pg\rx.h **** 
  48:D:/XMC/Projekte/Temp/CF_XMC4700/cleanflight/src/main/pg\rx.h ****     uint16_t rx_min_usec;
  49:D:/XMC/Projekte/Temp/CF_XMC4700/cleanflight/src/main/pg\rx.h ****     uint16_t rx_max_usec;
  50:D:/XMC/Projekte/Temp/CF_XMC4700/cleanflight/src/main/pg\rx.h ****     uint8_t max_aux_channel;
  51:D:/XMC/Projekte/Temp/CF_XMC4700/cleanflight/src/main/pg\rx.h ****     uint8_t rssi_src_frame_errors;          // true to use frame drop flags in the rx protocol
  52:D:/XMC/Projekte/Temp/CF_XMC4700/cleanflight/src/main/pg\rx.h ****     int8_t rssi_offset;                     // offset applied to the RSSI value before it is return
  53:D:/XMC/Projekte/Temp/CF_XMC4700/cleanflight/src/main/pg\rx.h ****     uint8_t rc_smoothing_type;              // Determines the smoothing algorithm to use: INTERPOLA
  54:D:/XMC/Projekte/Temp/CF_XMC4700/cleanflight/src/main/pg\rx.h ****     uint8_t rc_smoothing_input_cutoff;      // Filter cutoff frequency for the input filter (0 = au
  55:D:/XMC/Projekte/Temp/CF_XMC4700/cleanflight/src/main/pg\rx.h ****     uint8_t rc_smoothing_derivative_cutoff; // Filter cutoff frequency for the setpoint weight deri
  56:D:/XMC/Projekte/Temp/CF_XMC4700/cleanflight/src/main/pg\rx.h ****     uint8_t rc_smoothing_debug_axis;        // Axis to log as debug values when debug_mode = RC_SMO
  57:D:/XMC/Projekte/Temp/CF_XMC4700/cleanflight/src/main/pg\rx.h ****     uint8_t rc_smoothing_input_type;        // Input filter type (0 = PT1, 1 = BIQUAD)
  58:D:/XMC/Projekte/Temp/CF_XMC4700/cleanflight/src/main/pg\rx.h ****     uint8_t rc_smoothing_derivative_type;   // Derivative filter type (0 = OFF, 1 = PT1, 2 = BIQUAD
  59:D:/XMC/Projekte/Temp/CF_XMC4700/cleanflight/src/main/pg\rx.h **** } rxConfig_t;
  60:D:/XMC/Projekte/Temp/CF_XMC4700/cleanflight/src/main/pg\rx.h **** 
  61:D:/XMC/Projekte/Temp/CF_XMC4700/cleanflight/src/main/pg\rx.h **** PG_DECLARE(rxConfig_t, rxConfig);
 143              	 .loc 3 61 0
 144              	 .cfi_startproc
 145              	 
 146              	 
 147              	 
 148 0000 80B4     	 push {r7}
 149              	.LCFI12:
 150              	 .cfi_def_cfa_offset 4
 151              	 .cfi_offset 7,-4
 152 0002 00AF     	 add r7,sp,#0
 153              	.LCFI13:
 154              	 .cfi_def_cfa_register 7
 155              	 .loc 3 61 0
 156 0004 024B     	 ldr r3,.L15
 157 0006 1846     	 mov r0,r3
 158 0008 BD46     	 mov sp,r7
 159              	.LCFI14:
 160              	 .cfi_def_cfa_register 13
 161              	 
 162 000a 5DF8047B 	 ldr r7,[sp],#4
 163              	.LCFI15:
 164              	 .cfi_restore 7
 165              	 .cfi_def_cfa_offset 0
 166 000e 7047     	 bx lr
 167              	.L16:
 168              	 .align 2
 169              	.L15:
 170 0010 00000000 	 .word rxConfig_System
 171              	 .cfi_endproc
 172              	.LFE533:
 174              	 .section .text.pilotConfig,"ax",%progbits
 175              	 .align 2
 176              	 .thumb
 177              	 .thumb_func
 179              	pilotConfig:
 180              	.LFB535:
 181              	 .file 4 "D:/XMC/Projekte/Temp/CF_XMC4700/cleanflight/src/main/fc/config.h"
   1:D:/XMC/Projekte/Temp/CF_XMC4700/cleanflight/src/main/fc\config.h **** /*
   2:D:/XMC/Projekte/Temp/CF_XMC4700/cleanflight/src/main/fc\config.h ****  * This file is part of Cleanflight and Betaflight.
   3:D:/XMC/Projekte/Temp/CF_XMC4700/cleanflight/src/main/fc\config.h ****  *
   4:D:/XMC/Projekte/Temp/CF_XMC4700/cleanflight/src/main/fc\config.h ****  * Cleanflight and Betaflight are free software. You can redistribute
   5:D:/XMC/Projekte/Temp/CF_XMC4700/cleanflight/src/main/fc\config.h ****  * this software and/or modify this software under the terms of the
   6:D:/XMC/Projekte/Temp/CF_XMC4700/cleanflight/src/main/fc\config.h ****  * GNU General Public License as published by the Free Software
   7:D:/XMC/Projekte/Temp/CF_XMC4700/cleanflight/src/main/fc\config.h ****  * Foundation, either version 3 of the License, or (at your option)
   8:D:/XMC/Projekte/Temp/CF_XMC4700/cleanflight/src/main/fc\config.h ****  * any later version.
   9:D:/XMC/Projekte/Temp/CF_XMC4700/cleanflight/src/main/fc\config.h ****  *
  10:D:/XMC/Projekte/Temp/CF_XMC4700/cleanflight/src/main/fc\config.h ****  * Cleanflight and Betaflight are distributed in the hope that they
  11:D:/XMC/Projekte/Temp/CF_XMC4700/cleanflight/src/main/fc\config.h ****  * will be useful, but WITHOUT ANY WARRANTY; without even the implied
  12:D:/XMC/Projekte/Temp/CF_XMC4700/cleanflight/src/main/fc\config.h ****  * warranty of MERCHANTABILITY or FITNESS FOR A PARTICULAR PURPOSE.
  13:D:/XMC/Projekte/Temp/CF_XMC4700/cleanflight/src/main/fc\config.h ****  * See the GNU General Public License for more details.
  14:D:/XMC/Projekte/Temp/CF_XMC4700/cleanflight/src/main/fc\config.h ****  *
  15:D:/XMC/Projekte/Temp/CF_XMC4700/cleanflight/src/main/fc\config.h ****  * You should have received a copy of the GNU General Public License
  16:D:/XMC/Projekte/Temp/CF_XMC4700/cleanflight/src/main/fc\config.h ****  * along with this software.
  17:D:/XMC/Projekte/Temp/CF_XMC4700/cleanflight/src/main/fc\config.h ****  *
  18:D:/XMC/Projekte/Temp/CF_XMC4700/cleanflight/src/main/fc\config.h ****  * If not, see <http://www.gnu.org/licenses/>.
  19:D:/XMC/Projekte/Temp/CF_XMC4700/cleanflight/src/main/fc\config.h ****  */
  20:D:/XMC/Projekte/Temp/CF_XMC4700/cleanflight/src/main/fc\config.h **** 
  21:D:/XMC/Projekte/Temp/CF_XMC4700/cleanflight/src/main/fc\config.h **** #pragma once
  22:D:/XMC/Projekte/Temp/CF_XMC4700/cleanflight/src/main/fc\config.h **** 
  23:D:/XMC/Projekte/Temp/CF_XMC4700/cleanflight/src/main/fc\config.h **** #include <stdint.h>
  24:D:/XMC/Projekte/Temp/CF_XMC4700/cleanflight/src/main/fc\config.h **** #include <stdbool.h>
  25:D:/XMC/Projekte/Temp/CF_XMC4700/cleanflight/src/main/fc\config.h **** 
  26:D:/XMC/Projekte/Temp/CF_XMC4700/cleanflight/src/main/fc\config.h **** #include "pg/pg.h"
  27:D:/XMC/Projekte/Temp/CF_XMC4700/cleanflight/src/main/fc\config.h **** 
  28:D:/XMC/Projekte/Temp/CF_XMC4700/cleanflight/src/main/fc\config.h **** #define MAX_NAME_LENGTH 16u
  29:D:/XMC/Projekte/Temp/CF_XMC4700/cleanflight/src/main/fc\config.h **** 
  30:D:/XMC/Projekte/Temp/CF_XMC4700/cleanflight/src/main/fc\config.h **** typedef struct pilotConfig_s {
  31:D:/XMC/Projekte/Temp/CF_XMC4700/cleanflight/src/main/fc\config.h ****     char name[MAX_NAME_LENGTH + 1];
  32:D:/XMC/Projekte/Temp/CF_XMC4700/cleanflight/src/main/fc\config.h **** } pilotConfig_t;
  33:D:/XMC/Projekte/Temp/CF_XMC4700/cleanflight/src/main/fc\config.h **** 
  34:D:/XMC/Projekte/Temp/CF_XMC4700/cleanflight/src/main/fc\config.h **** PG_DECLARE(pilotConfig_t, pilotConfig);
 182              	 .loc 4 34 0
 183              	 .cfi_startproc
 184              	 
 185              	 
 186              	 
 187 0000 80B4     	 push {r7}
 188              	.LCFI16:
 189              	 .cfi_def_cfa_offset 4
 190              	 .cfi_offset 7,-4
 191 0002 00AF     	 add r7,sp,#0
 192              	.LCFI17:
 193              	 .cfi_def_cfa_register 7
 194              	 .loc 4 34 0
 195 0004 024B     	 ldr r3,.L19
 196 0006 1846     	 mov r0,r3
 197 0008 BD46     	 mov sp,r7
 198              	.LCFI18:
 199              	 .cfi_def_cfa_register 13
 200              	 
 201 000a 5DF8047B 	 ldr r7,[sp],#4
 202              	.LCFI19:
 203              	 .cfi_restore 7
 204              	 .cfi_def_cfa_offset 0
 205 000e 7047     	 bx lr
 206              	.L20:
 207              	 .align 2
 208              	.L19:
 209 0010 00000000 	 .word pilotConfig_System
 210              	 .cfi_endproc
 211              	.LFE535:
 213              	 .section .text.systemConfig,"ax",%progbits
 214              	 .align 2
 215              	 .thumb
 216              	 .thumb_func
 218              	systemConfig:
 219              	.LFB537:
  35:D:/XMC/Projekte/Temp/CF_XMC4700/cleanflight/src/main/fc\config.h **** 
  36:D:/XMC/Projekte/Temp/CF_XMC4700/cleanflight/src/main/fc\config.h **** typedef struct systemConfig_s {
  37:D:/XMC/Projekte/Temp/CF_XMC4700/cleanflight/src/main/fc\config.h ****     uint8_t pidProfileIndex;
  38:D:/XMC/Projekte/Temp/CF_XMC4700/cleanflight/src/main/fc\config.h ****     uint8_t activeRateProfile;
  39:D:/XMC/Projekte/Temp/CF_XMC4700/cleanflight/src/main/fc\config.h ****     uint8_t debug_mode;
  40:D:/XMC/Projekte/Temp/CF_XMC4700/cleanflight/src/main/fc\config.h ****     uint8_t task_statistics;
  41:D:/XMC/Projekte/Temp/CF_XMC4700/cleanflight/src/main/fc\config.h ****     uint8_t rateProfile6PosSwitch;
  42:D:/XMC/Projekte/Temp/CF_XMC4700/cleanflight/src/main/fc\config.h ****     uint8_t cpu_overclock;
  43:D:/XMC/Projekte/Temp/CF_XMC4700/cleanflight/src/main/fc\config.h ****     uint8_t powerOnArmingGraceTime; // in seconds
  44:D:/XMC/Projekte/Temp/CF_XMC4700/cleanflight/src/main/fc\config.h ****     char boardIdentifier[sizeof(TARGET_BOARD_IDENTIFIER) + 1];
  45:D:/XMC/Projekte/Temp/CF_XMC4700/cleanflight/src/main/fc\config.h **** } systemConfig_t;
  46:D:/XMC/Projekte/Temp/CF_XMC4700/cleanflight/src/main/fc\config.h **** 
  47:D:/XMC/Projekte/Temp/CF_XMC4700/cleanflight/src/main/fc\config.h **** PG_DECLARE(systemConfig_t, systemConfig);
 220              	 .loc 4 47 0
 221              	 .cfi_startproc
 222              	 
 223              	 
 224              	 
 225 0000 80B4     	 push {r7}
 226              	.LCFI20:
 227              	 .cfi_def_cfa_offset 4
 228              	 .cfi_offset 7,-4
 229 0002 00AF     	 add r7,sp,#0
 230              	.LCFI21:
 231              	 .cfi_def_cfa_register 7
 232              	 .loc 4 47 0
 233 0004 024B     	 ldr r3,.L23
 234 0006 1846     	 mov r0,r3
 235 0008 BD46     	 mov sp,r7
 236              	.LCFI22:
 237              	 .cfi_def_cfa_register 13
 238              	 
 239 000a 5DF8047B 	 ldr r7,[sp],#4
 240              	.LCFI23:
 241              	 .cfi_restore 7
 242              	 .cfi_def_cfa_offset 0
 243 000e 7047     	 bx lr
 244              	.L24:
 245              	 .align 2
 246              	.L23:
 247 0010 00000000 	 .word systemConfig_System
 248              	 .cfi_endproc
 249              	.LFE537:
 251              	 .section .text.controlRateProfiles,"ax",%progbits
 252              	 .align 2
 253              	 .thumb
 254              	 .thumb_func
 256              	controlRateProfiles:
 257              	.LFB539:
 258              	 .file 5 "D:/XMC/Projekte/Temp/CF_XMC4700/cleanflight/src/main/fc/controlrate_profile.h"
   1:D:/XMC/Projekte/Temp/CF_XMC4700/cleanflight/src/main/fc\controlrate_profile.h **** /*
   2:D:/XMC/Projekte/Temp/CF_XMC4700/cleanflight/src/main/fc\controlrate_profile.h ****  * This file is part of Cleanflight and Betaflight.
   3:D:/XMC/Projekte/Temp/CF_XMC4700/cleanflight/src/main/fc\controlrate_profile.h ****  *
   4:D:/XMC/Projekte/Temp/CF_XMC4700/cleanflight/src/main/fc\controlrate_profile.h ****  * Cleanflight and Betaflight are free software. You can redistribute
   5:D:/XMC/Projekte/Temp/CF_XMC4700/cleanflight/src/main/fc\controlrate_profile.h ****  * this software and/or modify this software under the terms of the
   6:D:/XMC/Projekte/Temp/CF_XMC4700/cleanflight/src/main/fc\controlrate_profile.h ****  * GNU General Public License as published by the Free Software
   7:D:/XMC/Projekte/Temp/CF_XMC4700/cleanflight/src/main/fc\controlrate_profile.h ****  * Foundation, either version 3 of the License, or (at your option)
   8:D:/XMC/Projekte/Temp/CF_XMC4700/cleanflight/src/main/fc\controlrate_profile.h ****  * any later version.
   9:D:/XMC/Projekte/Temp/CF_XMC4700/cleanflight/src/main/fc\controlrate_profile.h ****  *
  10:D:/XMC/Projekte/Temp/CF_XMC4700/cleanflight/src/main/fc\controlrate_profile.h ****  * Cleanflight and Betaflight are distributed in the hope that they
  11:D:/XMC/Projekte/Temp/CF_XMC4700/cleanflight/src/main/fc\controlrate_profile.h ****  * will be useful, but WITHOUT ANY WARRANTY; without even the implied
  12:D:/XMC/Projekte/Temp/CF_XMC4700/cleanflight/src/main/fc\controlrate_profile.h ****  * warranty of MERCHANTABILITY or FITNESS FOR A PARTICULAR PURPOSE.
  13:D:/XMC/Projekte/Temp/CF_XMC4700/cleanflight/src/main/fc\controlrate_profile.h ****  * See the GNU General Public License for more details.
  14:D:/XMC/Projekte/Temp/CF_XMC4700/cleanflight/src/main/fc\controlrate_profile.h ****  *
  15:D:/XMC/Projekte/Temp/CF_XMC4700/cleanflight/src/main/fc\controlrate_profile.h ****  * You should have received a copy of the GNU General Public License
  16:D:/XMC/Projekte/Temp/CF_XMC4700/cleanflight/src/main/fc\controlrate_profile.h ****  * along with this software.
  17:D:/XMC/Projekte/Temp/CF_XMC4700/cleanflight/src/main/fc\controlrate_profile.h ****  *
  18:D:/XMC/Projekte/Temp/CF_XMC4700/cleanflight/src/main/fc\controlrate_profile.h ****  * If not, see <http://www.gnu.org/licenses/>.
  19:D:/XMC/Projekte/Temp/CF_XMC4700/cleanflight/src/main/fc\controlrate_profile.h ****  */
  20:D:/XMC/Projekte/Temp/CF_XMC4700/cleanflight/src/main/fc\controlrate_profile.h **** 
  21:D:/XMC/Projekte/Temp/CF_XMC4700/cleanflight/src/main/fc\controlrate_profile.h **** #pragma once
  22:D:/XMC/Projekte/Temp/CF_XMC4700/cleanflight/src/main/fc\controlrate_profile.h **** 
  23:D:/XMC/Projekte/Temp/CF_XMC4700/cleanflight/src/main/fc\controlrate_profile.h **** #include <stdint.h>
  24:D:/XMC/Projekte/Temp/CF_XMC4700/cleanflight/src/main/fc\controlrate_profile.h **** 
  25:D:/XMC/Projekte/Temp/CF_XMC4700/cleanflight/src/main/fc\controlrate_profile.h **** #include "pg/pg.h"
  26:D:/XMC/Projekte/Temp/CF_XMC4700/cleanflight/src/main/fc\controlrate_profile.h **** 
  27:D:/XMC/Projekte/Temp/CF_XMC4700/cleanflight/src/main/fc\controlrate_profile.h **** #define CONTROL_RATE_PROFILE_COUNT  6
  28:D:/XMC/Projekte/Temp/CF_XMC4700/cleanflight/src/main/fc\controlrate_profile.h **** 
  29:D:/XMC/Projekte/Temp/CF_XMC4700/cleanflight/src/main/fc\controlrate_profile.h **** typedef enum {
  30:D:/XMC/Projekte/Temp/CF_XMC4700/cleanflight/src/main/fc\controlrate_profile.h ****     RATES_TYPE_BETAFLIGHT = 0,
  31:D:/XMC/Projekte/Temp/CF_XMC4700/cleanflight/src/main/fc\controlrate_profile.h ****     RATES_TYPE_RACEFLIGHT,
  32:D:/XMC/Projekte/Temp/CF_XMC4700/cleanflight/src/main/fc\controlrate_profile.h **** } ratesType_e;
  33:D:/XMC/Projekte/Temp/CF_XMC4700/cleanflight/src/main/fc\controlrate_profile.h **** 
  34:D:/XMC/Projekte/Temp/CF_XMC4700/cleanflight/src/main/fc\controlrate_profile.h **** typedef enum {
  35:D:/XMC/Projekte/Temp/CF_XMC4700/cleanflight/src/main/fc\controlrate_profile.h ****     THROTTLE_LIMIT_TYPE_OFF = 0,
  36:D:/XMC/Projekte/Temp/CF_XMC4700/cleanflight/src/main/fc\controlrate_profile.h ****     THROTTLE_LIMIT_TYPE_SCALE,
  37:D:/XMC/Projekte/Temp/CF_XMC4700/cleanflight/src/main/fc\controlrate_profile.h ****     THROTTLE_LIMIT_TYPE_CLIP,
  38:D:/XMC/Projekte/Temp/CF_XMC4700/cleanflight/src/main/fc\controlrate_profile.h **** } throttleLimitType_e;
  39:D:/XMC/Projekte/Temp/CF_XMC4700/cleanflight/src/main/fc\controlrate_profile.h **** 
  40:D:/XMC/Projekte/Temp/CF_XMC4700/cleanflight/src/main/fc\controlrate_profile.h **** typedef struct controlRateConfig_s {
  41:D:/XMC/Projekte/Temp/CF_XMC4700/cleanflight/src/main/fc\controlrate_profile.h ****     uint8_t thrMid8;
  42:D:/XMC/Projekte/Temp/CF_XMC4700/cleanflight/src/main/fc\controlrate_profile.h ****     uint8_t thrExpo8;
  43:D:/XMC/Projekte/Temp/CF_XMC4700/cleanflight/src/main/fc\controlrate_profile.h ****     uint8_t rates_type;
  44:D:/XMC/Projekte/Temp/CF_XMC4700/cleanflight/src/main/fc\controlrate_profile.h ****     uint8_t rcRates[3];
  45:D:/XMC/Projekte/Temp/CF_XMC4700/cleanflight/src/main/fc\controlrate_profile.h ****     uint8_t rcExpo[3];
  46:D:/XMC/Projekte/Temp/CF_XMC4700/cleanflight/src/main/fc\controlrate_profile.h ****     uint8_t rates[3];
  47:D:/XMC/Projekte/Temp/CF_XMC4700/cleanflight/src/main/fc\controlrate_profile.h ****     uint8_t dynThrPID;
  48:D:/XMC/Projekte/Temp/CF_XMC4700/cleanflight/src/main/fc\controlrate_profile.h ****     uint16_t tpa_breakpoint;                // Breakpoint where TPA is activated
  49:D:/XMC/Projekte/Temp/CF_XMC4700/cleanflight/src/main/fc\controlrate_profile.h ****     uint8_t throttle_limit_type;            // Sets the throttle limiting type - off, scale or clip
  50:D:/XMC/Projekte/Temp/CF_XMC4700/cleanflight/src/main/fc\controlrate_profile.h ****     uint8_t throttle_limit_percent;         // Sets the maximum pilot commanded throttle limit
  51:D:/XMC/Projekte/Temp/CF_XMC4700/cleanflight/src/main/fc\controlrate_profile.h **** } controlRateConfig_t;
  52:D:/XMC/Projekte/Temp/CF_XMC4700/cleanflight/src/main/fc\controlrate_profile.h **** 
  53:D:/XMC/Projekte/Temp/CF_XMC4700/cleanflight/src/main/fc\controlrate_profile.h **** PG_DECLARE_ARRAY(controlRateConfig_t, CONTROL_RATE_PROFILE_COUNT, controlRateProfiles);
 259              	 .loc 5 53 0
 260              	 .cfi_startproc
 261              	 
 262              	 
 263              	 
 264 0000 80B4     	 push {r7}
 265              	.LCFI24:
 266              	 .cfi_def_cfa_offset 4
 267              	 .cfi_offset 7,-4
 268 0002 83B0     	 sub sp,sp,#12
 269              	.LCFI25:
 270              	 .cfi_def_cfa_offset 16
 271 0004 00AF     	 add r7,sp,#0
 272              	.LCFI26:
 273              	 .cfi_def_cfa_register 7
 274 0006 7860     	 str r0,[r7,#4]
 275              	 .loc 5 53 0
 276 0008 7A68     	 ldr r2,[r7,#4]
 277 000a 1346     	 mov r3,r2
 278 000c 1B01     	 lsls r3,r3,#4
 279 000e 1344     	 add r3,r3,r2
 280 0010 034A     	 ldr r2,.L27
 281 0012 1344     	 add r3,r3,r2
 282 0014 1846     	 mov r0,r3
 283 0016 0C37     	 adds r7,r7,#12
 284              	.LCFI27:
 285              	 .cfi_def_cfa_offset 4
 286 0018 BD46     	 mov sp,r7
 287              	.LCFI28:
 288              	 .cfi_def_cfa_register 13
 289              	 
 290 001a 5DF8047B 	 ldr r7,[sp],#4
 291              	.LCFI29:
 292              	 .cfi_restore 7
 293              	 .cfi_def_cfa_offset 0
 294 001e 7047     	 bx lr
 295              	.L28:
 296              	 .align 2
 297              	.L27:
 298 0020 00000000 	 .word controlRateProfiles_SystemArray
 299              	 .cfi_endproc
 300              	.LFE539:
 302              	 .section .text.rcControlsConfig,"ax",%progbits
 303              	 .align 2
 304              	 .thumb
 305              	 .thumb_func
 307              	rcControlsConfig:
 308              	.LFB542:
 309              	 .file 6 "D:/XMC/Projekte/Temp/CF_XMC4700/cleanflight/src/main/fc/rc_controls.h"
   1:D:/XMC/Projekte/Temp/CF_XMC4700/cleanflight/src/main/fc\rc_controls.h **** /*
   2:D:/XMC/Projekte/Temp/CF_XMC4700/cleanflight/src/main/fc\rc_controls.h ****  * This file is part of Cleanflight and Betaflight.
   3:D:/XMC/Projekte/Temp/CF_XMC4700/cleanflight/src/main/fc\rc_controls.h ****  *
   4:D:/XMC/Projekte/Temp/CF_XMC4700/cleanflight/src/main/fc\rc_controls.h ****  * Cleanflight and Betaflight are free software. You can redistribute
   5:D:/XMC/Projekte/Temp/CF_XMC4700/cleanflight/src/main/fc\rc_controls.h ****  * this software and/or modify this software under the terms of the
   6:D:/XMC/Projekte/Temp/CF_XMC4700/cleanflight/src/main/fc\rc_controls.h ****  * GNU General Public License as published by the Free Software
   7:D:/XMC/Projekte/Temp/CF_XMC4700/cleanflight/src/main/fc\rc_controls.h ****  * Foundation, either version 3 of the License, or (at your option)
   8:D:/XMC/Projekte/Temp/CF_XMC4700/cleanflight/src/main/fc\rc_controls.h ****  * any later version.
   9:D:/XMC/Projekte/Temp/CF_XMC4700/cleanflight/src/main/fc\rc_controls.h ****  *
  10:D:/XMC/Projekte/Temp/CF_XMC4700/cleanflight/src/main/fc\rc_controls.h ****  * Cleanflight and Betaflight are distributed in the hope that they
  11:D:/XMC/Projekte/Temp/CF_XMC4700/cleanflight/src/main/fc\rc_controls.h ****  * will be useful, but WITHOUT ANY WARRANTY; without even the implied
  12:D:/XMC/Projekte/Temp/CF_XMC4700/cleanflight/src/main/fc\rc_controls.h ****  * warranty of MERCHANTABILITY or FITNESS FOR A PARTICULAR PURPOSE.
  13:D:/XMC/Projekte/Temp/CF_XMC4700/cleanflight/src/main/fc\rc_controls.h ****  * See the GNU General Public License for more details.
  14:D:/XMC/Projekte/Temp/CF_XMC4700/cleanflight/src/main/fc\rc_controls.h ****  *
  15:D:/XMC/Projekte/Temp/CF_XMC4700/cleanflight/src/main/fc\rc_controls.h ****  * You should have received a copy of the GNU General Public License
  16:D:/XMC/Projekte/Temp/CF_XMC4700/cleanflight/src/main/fc\rc_controls.h ****  * along with this software.
  17:D:/XMC/Projekte/Temp/CF_XMC4700/cleanflight/src/main/fc\rc_controls.h ****  *
  18:D:/XMC/Projekte/Temp/CF_XMC4700/cleanflight/src/main/fc\rc_controls.h ****  * If not, see <http://www.gnu.org/licenses/>.
  19:D:/XMC/Projekte/Temp/CF_XMC4700/cleanflight/src/main/fc\rc_controls.h ****  */
  20:D:/XMC/Projekte/Temp/CF_XMC4700/cleanflight/src/main/fc\rc_controls.h **** 
  21:D:/XMC/Projekte/Temp/CF_XMC4700/cleanflight/src/main/fc\rc_controls.h **** #pragma once
  22:D:/XMC/Projekte/Temp/CF_XMC4700/cleanflight/src/main/fc\rc_controls.h **** 
  23:D:/XMC/Projekte/Temp/CF_XMC4700/cleanflight/src/main/fc\rc_controls.h **** #include <stdbool.h>
  24:D:/XMC/Projekte/Temp/CF_XMC4700/cleanflight/src/main/fc\rc_controls.h **** 
  25:D:/XMC/Projekte/Temp/CF_XMC4700/cleanflight/src/main/fc\rc_controls.h **** #include "common/filter.h"
  26:D:/XMC/Projekte/Temp/CF_XMC4700/cleanflight/src/main/fc\rc_controls.h **** #include "pg/pg.h"
  27:D:/XMC/Projekte/Temp/CF_XMC4700/cleanflight/src/main/fc\rc_controls.h **** 
  28:D:/XMC/Projekte/Temp/CF_XMC4700/cleanflight/src/main/fc\rc_controls.h **** typedef enum rc_alias {
  29:D:/XMC/Projekte/Temp/CF_XMC4700/cleanflight/src/main/fc\rc_controls.h ****     ROLL = 0,
  30:D:/XMC/Projekte/Temp/CF_XMC4700/cleanflight/src/main/fc\rc_controls.h ****     PITCH,
  31:D:/XMC/Projekte/Temp/CF_XMC4700/cleanflight/src/main/fc\rc_controls.h ****     YAW,
  32:D:/XMC/Projekte/Temp/CF_XMC4700/cleanflight/src/main/fc\rc_controls.h ****     THROTTLE,
  33:D:/XMC/Projekte/Temp/CF_XMC4700/cleanflight/src/main/fc\rc_controls.h ****     AUX1,
  34:D:/XMC/Projekte/Temp/CF_XMC4700/cleanflight/src/main/fc\rc_controls.h ****     AUX2,
  35:D:/XMC/Projekte/Temp/CF_XMC4700/cleanflight/src/main/fc\rc_controls.h ****     AUX3,
  36:D:/XMC/Projekte/Temp/CF_XMC4700/cleanflight/src/main/fc\rc_controls.h ****     AUX4,
  37:D:/XMC/Projekte/Temp/CF_XMC4700/cleanflight/src/main/fc\rc_controls.h ****     AUX5,
  38:D:/XMC/Projekte/Temp/CF_XMC4700/cleanflight/src/main/fc\rc_controls.h ****     AUX6,
  39:D:/XMC/Projekte/Temp/CF_XMC4700/cleanflight/src/main/fc\rc_controls.h ****     AUX7,
  40:D:/XMC/Projekte/Temp/CF_XMC4700/cleanflight/src/main/fc\rc_controls.h ****     AUX8
  41:D:/XMC/Projekte/Temp/CF_XMC4700/cleanflight/src/main/fc\rc_controls.h **** } rc_alias_e;
  42:D:/XMC/Projekte/Temp/CF_XMC4700/cleanflight/src/main/fc\rc_controls.h **** 
  43:D:/XMC/Projekte/Temp/CF_XMC4700/cleanflight/src/main/fc\rc_controls.h **** #define PRIMARY_CHANNEL_COUNT (THROTTLE + 1)
  44:D:/XMC/Projekte/Temp/CF_XMC4700/cleanflight/src/main/fc\rc_controls.h **** 
  45:D:/XMC/Projekte/Temp/CF_XMC4700/cleanflight/src/main/fc\rc_controls.h **** typedef enum {
  46:D:/XMC/Projekte/Temp/CF_XMC4700/cleanflight/src/main/fc\rc_controls.h ****     THROTTLE_LOW = 0,
  47:D:/XMC/Projekte/Temp/CF_XMC4700/cleanflight/src/main/fc\rc_controls.h ****     THROTTLE_HIGH
  48:D:/XMC/Projekte/Temp/CF_XMC4700/cleanflight/src/main/fc\rc_controls.h **** } throttleStatus_e;
  49:D:/XMC/Projekte/Temp/CF_XMC4700/cleanflight/src/main/fc\rc_controls.h **** 
  50:D:/XMC/Projekte/Temp/CF_XMC4700/cleanflight/src/main/fc\rc_controls.h **** #define AIRMODEDEADBAND 12
  51:D:/XMC/Projekte/Temp/CF_XMC4700/cleanflight/src/main/fc\rc_controls.h **** 
  52:D:/XMC/Projekte/Temp/CF_XMC4700/cleanflight/src/main/fc\rc_controls.h **** typedef enum {
  53:D:/XMC/Projekte/Temp/CF_XMC4700/cleanflight/src/main/fc\rc_controls.h ****     NOT_CENTERED = 0,
  54:D:/XMC/Projekte/Temp/CF_XMC4700/cleanflight/src/main/fc\rc_controls.h ****     CENTERED
  55:D:/XMC/Projekte/Temp/CF_XMC4700/cleanflight/src/main/fc\rc_controls.h **** } rollPitchStatus_e;
  56:D:/XMC/Projekte/Temp/CF_XMC4700/cleanflight/src/main/fc\rc_controls.h **** 
  57:D:/XMC/Projekte/Temp/CF_XMC4700/cleanflight/src/main/fc\rc_controls.h **** typedef enum {
  58:D:/XMC/Projekte/Temp/CF_XMC4700/cleanflight/src/main/fc\rc_controls.h ****     RC_SMOOTHING_OFF = 0,
  59:D:/XMC/Projekte/Temp/CF_XMC4700/cleanflight/src/main/fc\rc_controls.h ****     RC_SMOOTHING_DEFAULT,
  60:D:/XMC/Projekte/Temp/CF_XMC4700/cleanflight/src/main/fc\rc_controls.h ****     RC_SMOOTHING_AUTO,
  61:D:/XMC/Projekte/Temp/CF_XMC4700/cleanflight/src/main/fc\rc_controls.h ****     RC_SMOOTHING_MANUAL
  62:D:/XMC/Projekte/Temp/CF_XMC4700/cleanflight/src/main/fc\rc_controls.h **** } rcSmoothing_t;
  63:D:/XMC/Projekte/Temp/CF_XMC4700/cleanflight/src/main/fc\rc_controls.h **** 
  64:D:/XMC/Projekte/Temp/CF_XMC4700/cleanflight/src/main/fc\rc_controls.h **** typedef enum {
  65:D:/XMC/Projekte/Temp/CF_XMC4700/cleanflight/src/main/fc\rc_controls.h ****     RC_SMOOTHING_TYPE_INTERPOLATION,
  66:D:/XMC/Projekte/Temp/CF_XMC4700/cleanflight/src/main/fc\rc_controls.h ****     RC_SMOOTHING_TYPE_FILTER
  67:D:/XMC/Projekte/Temp/CF_XMC4700/cleanflight/src/main/fc\rc_controls.h **** } rcSmoothingType_e;
  68:D:/XMC/Projekte/Temp/CF_XMC4700/cleanflight/src/main/fc\rc_controls.h **** 
  69:D:/XMC/Projekte/Temp/CF_XMC4700/cleanflight/src/main/fc\rc_controls.h **** typedef enum {
  70:D:/XMC/Projekte/Temp/CF_XMC4700/cleanflight/src/main/fc\rc_controls.h ****     RC_SMOOTHING_INPUT_PT1,
  71:D:/XMC/Projekte/Temp/CF_XMC4700/cleanflight/src/main/fc\rc_controls.h ****     RC_SMOOTHING_INPUT_BIQUAD
  72:D:/XMC/Projekte/Temp/CF_XMC4700/cleanflight/src/main/fc\rc_controls.h **** } rcSmoothingInputFilter_e;
  73:D:/XMC/Projekte/Temp/CF_XMC4700/cleanflight/src/main/fc\rc_controls.h **** 
  74:D:/XMC/Projekte/Temp/CF_XMC4700/cleanflight/src/main/fc\rc_controls.h **** typedef enum {
  75:D:/XMC/Projekte/Temp/CF_XMC4700/cleanflight/src/main/fc\rc_controls.h ****     RC_SMOOTHING_DERIVATIVE_OFF,
  76:D:/XMC/Projekte/Temp/CF_XMC4700/cleanflight/src/main/fc\rc_controls.h ****     RC_SMOOTHING_DERIVATIVE_PT1,
  77:D:/XMC/Projekte/Temp/CF_XMC4700/cleanflight/src/main/fc\rc_controls.h ****     RC_SMOOTHING_DERIVATIVE_BIQUAD
  78:D:/XMC/Projekte/Temp/CF_XMC4700/cleanflight/src/main/fc\rc_controls.h **** } rcSmoothingDerivativeFilter_e;
  79:D:/XMC/Projekte/Temp/CF_XMC4700/cleanflight/src/main/fc\rc_controls.h **** 
  80:D:/XMC/Projekte/Temp/CF_XMC4700/cleanflight/src/main/fc\rc_controls.h **** typedef enum {
  81:D:/XMC/Projekte/Temp/CF_XMC4700/cleanflight/src/main/fc\rc_controls.h ****     RC_SMOOTHING_VALUE_INPUT_ACTIVE,
  82:D:/XMC/Projekte/Temp/CF_XMC4700/cleanflight/src/main/fc\rc_controls.h ****     RC_SMOOTHING_VALUE_DERIVATIVE_ACTIVE,
  83:D:/XMC/Projekte/Temp/CF_XMC4700/cleanflight/src/main/fc\rc_controls.h ****     RC_SMOOTHING_VALUE_AVERAGE_FRAME
  84:D:/XMC/Projekte/Temp/CF_XMC4700/cleanflight/src/main/fc\rc_controls.h **** } rcSmoothingInfoType_e;
  85:D:/XMC/Projekte/Temp/CF_XMC4700/cleanflight/src/main/fc\rc_controls.h **** 
  86:D:/XMC/Projekte/Temp/CF_XMC4700/cleanflight/src/main/fc\rc_controls.h **** #define ROL_LO (1 << (2 * ROLL))
  87:D:/XMC/Projekte/Temp/CF_XMC4700/cleanflight/src/main/fc\rc_controls.h **** #define ROL_CE (3 << (2 * ROLL))
  88:D:/XMC/Projekte/Temp/CF_XMC4700/cleanflight/src/main/fc\rc_controls.h **** #define ROL_HI (2 << (2 * ROLL))
  89:D:/XMC/Projekte/Temp/CF_XMC4700/cleanflight/src/main/fc\rc_controls.h **** #define PIT_LO (1 << (2 * PITCH))
  90:D:/XMC/Projekte/Temp/CF_XMC4700/cleanflight/src/main/fc\rc_controls.h **** #define PIT_CE (3 << (2 * PITCH))
  91:D:/XMC/Projekte/Temp/CF_XMC4700/cleanflight/src/main/fc\rc_controls.h **** #define PIT_HI (2 << (2 * PITCH))
  92:D:/XMC/Projekte/Temp/CF_XMC4700/cleanflight/src/main/fc\rc_controls.h **** #define YAW_LO (1 << (2 * YAW))
  93:D:/XMC/Projekte/Temp/CF_XMC4700/cleanflight/src/main/fc\rc_controls.h **** #define YAW_CE (3 << (2 * YAW))
  94:D:/XMC/Projekte/Temp/CF_XMC4700/cleanflight/src/main/fc\rc_controls.h **** #define YAW_HI (2 << (2 * YAW))
  95:D:/XMC/Projekte/Temp/CF_XMC4700/cleanflight/src/main/fc\rc_controls.h **** #define THR_LO (1 << (2 * THROTTLE))
  96:D:/XMC/Projekte/Temp/CF_XMC4700/cleanflight/src/main/fc\rc_controls.h **** #define THR_CE (3 << (2 * THROTTLE))
  97:D:/XMC/Projekte/Temp/CF_XMC4700/cleanflight/src/main/fc\rc_controls.h **** #define THR_HI (2 << (2 * THROTTLE))
  98:D:/XMC/Projekte/Temp/CF_XMC4700/cleanflight/src/main/fc\rc_controls.h **** 
  99:D:/XMC/Projekte/Temp/CF_XMC4700/cleanflight/src/main/fc\rc_controls.h **** #define CONTROL_RATE_CONFIG_RC_EXPO_MAX  100
 100:D:/XMC/Projekte/Temp/CF_XMC4700/cleanflight/src/main/fc\rc_controls.h **** 
 101:D:/XMC/Projekte/Temp/CF_XMC4700/cleanflight/src/main/fc\rc_controls.h **** #define CONTROL_RATE_CONFIG_RC_RATES_MAX  255
 102:D:/XMC/Projekte/Temp/CF_XMC4700/cleanflight/src/main/fc\rc_controls.h **** 
 103:D:/XMC/Projekte/Temp/CF_XMC4700/cleanflight/src/main/fc\rc_controls.h **** // (Super) rates are constrained to [0, 100] for Betaflight rates, so values higher than 100 won't 
 104:D:/XMC/Projekte/Temp/CF_XMC4700/cleanflight/src/main/fc\rc_controls.h **** #define CONTROL_RATE_CONFIG_RATE_MAX  255
 105:D:/XMC/Projekte/Temp/CF_XMC4700/cleanflight/src/main/fc\rc_controls.h **** 
 106:D:/XMC/Projekte/Temp/CF_XMC4700/cleanflight/src/main/fc\rc_controls.h **** #define CONTROL_RATE_CONFIG_TPA_MAX              100
 107:D:/XMC/Projekte/Temp/CF_XMC4700/cleanflight/src/main/fc\rc_controls.h **** 
 108:D:/XMC/Projekte/Temp/CF_XMC4700/cleanflight/src/main/fc\rc_controls.h **** extern float rcCommand[4];
 109:D:/XMC/Projekte/Temp/CF_XMC4700/cleanflight/src/main/fc\rc_controls.h **** 
 110:D:/XMC/Projekte/Temp/CF_XMC4700/cleanflight/src/main/fc\rc_controls.h **** typedef struct rcSmoothingFilterTraining_s {
 111:D:/XMC/Projekte/Temp/CF_XMC4700/cleanflight/src/main/fc\rc_controls.h ****     float sum;
 112:D:/XMC/Projekte/Temp/CF_XMC4700/cleanflight/src/main/fc\rc_controls.h ****     int count;
 113:D:/XMC/Projekte/Temp/CF_XMC4700/cleanflight/src/main/fc\rc_controls.h ****     uint16_t min;
 114:D:/XMC/Projekte/Temp/CF_XMC4700/cleanflight/src/main/fc\rc_controls.h ****     uint16_t max;
 115:D:/XMC/Projekte/Temp/CF_XMC4700/cleanflight/src/main/fc\rc_controls.h **** } rcSmoothingFilterTraining_t;
 116:D:/XMC/Projekte/Temp/CF_XMC4700/cleanflight/src/main/fc\rc_controls.h **** 
 117:D:/XMC/Projekte/Temp/CF_XMC4700/cleanflight/src/main/fc\rc_controls.h **** typedef union rcSmoothingFilterTypes_u {
 118:D:/XMC/Projekte/Temp/CF_XMC4700/cleanflight/src/main/fc\rc_controls.h ****     pt1Filter_t pt1Filter;
 119:D:/XMC/Projekte/Temp/CF_XMC4700/cleanflight/src/main/fc\rc_controls.h ****     biquadFilter_t biquadFilter;
 120:D:/XMC/Projekte/Temp/CF_XMC4700/cleanflight/src/main/fc\rc_controls.h **** } rcSmoothingFilterTypes_t;
 121:D:/XMC/Projekte/Temp/CF_XMC4700/cleanflight/src/main/fc\rc_controls.h **** 
 122:D:/XMC/Projekte/Temp/CF_XMC4700/cleanflight/src/main/fc\rc_controls.h **** typedef struct rcSmoothingFilter_s {
 123:D:/XMC/Projekte/Temp/CF_XMC4700/cleanflight/src/main/fc\rc_controls.h ****     bool filterInitialized;
 124:D:/XMC/Projekte/Temp/CF_XMC4700/cleanflight/src/main/fc\rc_controls.h ****     rcSmoothingFilterTypes_t filter[4];
 125:D:/XMC/Projekte/Temp/CF_XMC4700/cleanflight/src/main/fc\rc_controls.h ****     uint16_t inputCutoffFrequency;
 126:D:/XMC/Projekte/Temp/CF_XMC4700/cleanflight/src/main/fc\rc_controls.h ****     uint16_t derivativeCutoffFrequency;
 127:D:/XMC/Projekte/Temp/CF_XMC4700/cleanflight/src/main/fc\rc_controls.h ****     int averageFrameTimeUs;
 128:D:/XMC/Projekte/Temp/CF_XMC4700/cleanflight/src/main/fc\rc_controls.h ****     rcSmoothingFilterTraining_t training;
 129:D:/XMC/Projekte/Temp/CF_XMC4700/cleanflight/src/main/fc\rc_controls.h **** } rcSmoothingFilter_t;
 130:D:/XMC/Projekte/Temp/CF_XMC4700/cleanflight/src/main/fc\rc_controls.h **** 
 131:D:/XMC/Projekte/Temp/CF_XMC4700/cleanflight/src/main/fc\rc_controls.h **** typedef struct rcControlsConfig_s {
 132:D:/XMC/Projekte/Temp/CF_XMC4700/cleanflight/src/main/fc\rc_controls.h ****     uint8_t deadband;                       // introduce a deadband around the stick center for pit
 133:D:/XMC/Projekte/Temp/CF_XMC4700/cleanflight/src/main/fc\rc_controls.h ****     uint8_t yaw_deadband;                   // introduce a deadband around the stick center for yaw
 134:D:/XMC/Projekte/Temp/CF_XMC4700/cleanflight/src/main/fc\rc_controls.h ****     uint8_t alt_hold_deadband;              // defines the neutral zone of throttle stick during al
 135:D:/XMC/Projekte/Temp/CF_XMC4700/cleanflight/src/main/fc\rc_controls.h ****     uint8_t alt_hold_fast_change;           // when disabled, turn off the althold when throttle st
 136:D:/XMC/Projekte/Temp/CF_XMC4700/cleanflight/src/main/fc\rc_controls.h ****     bool yaw_control_reversed;            // invert control direction of yaw
 137:D:/XMC/Projekte/Temp/CF_XMC4700/cleanflight/src/main/fc\rc_controls.h **** } rcControlsConfig_t;
 138:D:/XMC/Projekte/Temp/CF_XMC4700/cleanflight/src/main/fc\rc_controls.h **** 
 139:D:/XMC/Projekte/Temp/CF_XMC4700/cleanflight/src/main/fc\rc_controls.h **** PG_DECLARE(rcControlsConfig_t, rcControlsConfig);
 310              	 .loc 6 139 0
 311              	 .cfi_startproc
 312              	 
 313              	 
 314              	 
 315 0000 80B4     	 push {r7}
 316              	.LCFI30:
 317              	 .cfi_def_cfa_offset 4
 318              	 .cfi_offset 7,-4
 319 0002 00AF     	 add r7,sp,#0
 320              	.LCFI31:
 321              	 .cfi_def_cfa_register 7
 322              	 .loc 6 139 0
 323 0004 024B     	 ldr r3,.L31
 324 0006 1846     	 mov r0,r3
 325 0008 BD46     	 mov sp,r7
 326              	.LCFI32:
 327              	 .cfi_def_cfa_register 13
 328              	 
 329 000a 5DF8047B 	 ldr r7,[sp],#4
 330              	.LCFI33:
 331              	 .cfi_restore 7
 332              	 .cfi_def_cfa_offset 0
 333 000e 7047     	 bx lr
 334              	.L32:
 335              	 .align 2
 336              	.L31:
 337 0010 00000000 	 .word rcControlsConfig_System
 338              	 .cfi_endproc
 339              	.LFE542:
 341              	 .section .text.armingConfig,"ax",%progbits
 342              	 .align 2
 343              	 .thumb
 344              	 .thumb_func
 346              	armingConfig:
 347              	.LFB546:
 140:D:/XMC/Projekte/Temp/CF_XMC4700/cleanflight/src/main/fc\rc_controls.h **** 
 141:D:/XMC/Projekte/Temp/CF_XMC4700/cleanflight/src/main/fc\rc_controls.h **** typedef struct flight3DConfig_s {
 142:D:/XMC/Projekte/Temp/CF_XMC4700/cleanflight/src/main/fc\rc_controls.h ****     uint16_t deadband3d_low;                // min 3d value
 143:D:/XMC/Projekte/Temp/CF_XMC4700/cleanflight/src/main/fc\rc_controls.h ****     uint16_t deadband3d_high;               // max 3d value
 144:D:/XMC/Projekte/Temp/CF_XMC4700/cleanflight/src/main/fc\rc_controls.h ****     uint16_t neutral3d;                     // center 3d value
 145:D:/XMC/Projekte/Temp/CF_XMC4700/cleanflight/src/main/fc\rc_controls.h ****     uint16_t deadband3d_throttle;           // default throttle deadband from MIDRC
 146:D:/XMC/Projekte/Temp/CF_XMC4700/cleanflight/src/main/fc\rc_controls.h ****     uint16_t limit3d_low;                   // pwm output value for max negative thrust
 147:D:/XMC/Projekte/Temp/CF_XMC4700/cleanflight/src/main/fc\rc_controls.h ****     uint16_t limit3d_high;                  // pwm output value for max positive thrust
 148:D:/XMC/Projekte/Temp/CF_XMC4700/cleanflight/src/main/fc\rc_controls.h ****     uint8_t switched_mode3d;                // enable '3D Switched Mode'
 149:D:/XMC/Projekte/Temp/CF_XMC4700/cleanflight/src/main/fc\rc_controls.h **** } flight3DConfig_t;
 150:D:/XMC/Projekte/Temp/CF_XMC4700/cleanflight/src/main/fc\rc_controls.h **** 
 151:D:/XMC/Projekte/Temp/CF_XMC4700/cleanflight/src/main/fc\rc_controls.h **** PG_DECLARE(flight3DConfig_t, flight3DConfig);
 152:D:/XMC/Projekte/Temp/CF_XMC4700/cleanflight/src/main/fc\rc_controls.h **** 
 153:D:/XMC/Projekte/Temp/CF_XMC4700/cleanflight/src/main/fc\rc_controls.h **** typedef struct armingConfig_s {
 154:D:/XMC/Projekte/Temp/CF_XMC4700/cleanflight/src/main/fc\rc_controls.h ****     uint8_t gyro_cal_on_first_arm;          // allow disarm/arm on throttle down + roll left/right
 155:D:/XMC/Projekte/Temp/CF_XMC4700/cleanflight/src/main/fc\rc_controls.h ****     uint8_t auto_disarm_delay;              // allow automatically disarming multicopters after aut
 156:D:/XMC/Projekte/Temp/CF_XMC4700/cleanflight/src/main/fc\rc_controls.h **** } armingConfig_t;
 157:D:/XMC/Projekte/Temp/CF_XMC4700/cleanflight/src/main/fc\rc_controls.h **** 
 158:D:/XMC/Projekte/Temp/CF_XMC4700/cleanflight/src/main/fc\rc_controls.h **** PG_DECLARE(armingConfig_t, armingConfig);
 348              	 .loc 6 158 0
 349              	 .cfi_startproc
 350              	 
 351              	 
 352              	 
 353 0000 80B4     	 push {r7}
 354              	.LCFI34:
 355              	 .cfi_def_cfa_offset 4
 356              	 .cfi_offset 7,-4
 357 0002 00AF     	 add r7,sp,#0
 358              	.LCFI35:
 359              	 .cfi_def_cfa_register 7
 360              	 .loc 6 158 0
 361 0004 024B     	 ldr r3,.L35
 362 0006 1846     	 mov r0,r3
 363 0008 BD46     	 mov sp,r7
 364              	.LCFI36:
 365              	 .cfi_def_cfa_register 13
 366              	 
 367 000a 5DF8047B 	 ldr r7,[sp],#4
 368              	.LCFI37:
 369              	 .cfi_restore 7
 370              	 .cfi_def_cfa_offset 0
 371 000e 7047     	 bx lr
 372              	.L36:
 373              	 .align 2
 374              	.L35:
 375 0010 00000000 	 .word armingConfig_System
 376              	 .cfi_endproc
 377              	.LFE546:
 379              	 .section .text.mixerConfig,"ax",%progbits
 380              	 .align 2
 381              	 .thumb
 382              	 .thumb_func
 384              	mixerConfig:
 385              	.LFB556:
 386              	 .file 7 "D:/XMC/Projekte/Temp/CF_XMC4700/cleanflight/src/main/flight/mixer.h"
   1:D:/XMC/Projekte/Temp/CF_XMC4700/cleanflight/src/main/flight\mixer.h **** /*
   2:D:/XMC/Projekte/Temp/CF_XMC4700/cleanflight/src/main/flight\mixer.h ****  * This file is part of Cleanflight and Betaflight.
   3:D:/XMC/Projekte/Temp/CF_XMC4700/cleanflight/src/main/flight\mixer.h ****  *
   4:D:/XMC/Projekte/Temp/CF_XMC4700/cleanflight/src/main/flight\mixer.h ****  * Cleanflight and Betaflight are free software. You can redistribute
   5:D:/XMC/Projekte/Temp/CF_XMC4700/cleanflight/src/main/flight\mixer.h ****  * this software and/or modify this software under the terms of the
   6:D:/XMC/Projekte/Temp/CF_XMC4700/cleanflight/src/main/flight\mixer.h ****  * GNU General Public License as published by the Free Software
   7:D:/XMC/Projekte/Temp/CF_XMC4700/cleanflight/src/main/flight\mixer.h ****  * Foundation, either version 3 of the License, or (at your option)
   8:D:/XMC/Projekte/Temp/CF_XMC4700/cleanflight/src/main/flight\mixer.h ****  * any later version.
   9:D:/XMC/Projekte/Temp/CF_XMC4700/cleanflight/src/main/flight\mixer.h ****  *
  10:D:/XMC/Projekte/Temp/CF_XMC4700/cleanflight/src/main/flight\mixer.h ****  * Cleanflight and Betaflight are distributed in the hope that they
  11:D:/XMC/Projekte/Temp/CF_XMC4700/cleanflight/src/main/flight\mixer.h ****  * will be useful, but WITHOUT ANY WARRANTY; without even the implied
  12:D:/XMC/Projekte/Temp/CF_XMC4700/cleanflight/src/main/flight\mixer.h ****  * warranty of MERCHANTABILITY or FITNESS FOR A PARTICULAR PURPOSE.
  13:D:/XMC/Projekte/Temp/CF_XMC4700/cleanflight/src/main/flight\mixer.h ****  * See the GNU General Public License for more details.
  14:D:/XMC/Projekte/Temp/CF_XMC4700/cleanflight/src/main/flight\mixer.h ****  *
  15:D:/XMC/Projekte/Temp/CF_XMC4700/cleanflight/src/main/flight\mixer.h ****  * You should have received a copy of the GNU General Public License
  16:D:/XMC/Projekte/Temp/CF_XMC4700/cleanflight/src/main/flight\mixer.h ****  * along with this software.
  17:D:/XMC/Projekte/Temp/CF_XMC4700/cleanflight/src/main/flight\mixer.h ****  *
  18:D:/XMC/Projekte/Temp/CF_XMC4700/cleanflight/src/main/flight\mixer.h ****  * If not, see <http://www.gnu.org/licenses/>.
  19:D:/XMC/Projekte/Temp/CF_XMC4700/cleanflight/src/main/flight\mixer.h ****  */
  20:D:/XMC/Projekte/Temp/CF_XMC4700/cleanflight/src/main/flight\mixer.h **** 
  21:D:/XMC/Projekte/Temp/CF_XMC4700/cleanflight/src/main/flight\mixer.h **** #pragma once
  22:D:/XMC/Projekte/Temp/CF_XMC4700/cleanflight/src/main/flight\mixer.h **** 
  23:D:/XMC/Projekte/Temp/CF_XMC4700/cleanflight/src/main/flight\mixer.h **** #include "platform.h"
  24:D:/XMC/Projekte/Temp/CF_XMC4700/cleanflight/src/main/flight\mixer.h **** 
  25:D:/XMC/Projekte/Temp/CF_XMC4700/cleanflight/src/main/flight\mixer.h **** #include "common/time.h"
  26:D:/XMC/Projekte/Temp/CF_XMC4700/cleanflight/src/main/flight\mixer.h **** #include "pg/pg.h"
  27:D:/XMC/Projekte/Temp/CF_XMC4700/cleanflight/src/main/flight\mixer.h **** #include "drivers/pwm_output_counts.h"
  28:D:/XMC/Projekte/Temp/CF_XMC4700/cleanflight/src/main/flight\mixer.h **** #include "drivers/io_types.h"
  29:D:/XMC/Projekte/Temp/CF_XMC4700/cleanflight/src/main/flight\mixer.h **** #include "drivers/pwm_output.h"
  30:D:/XMC/Projekte/Temp/CF_XMC4700/cleanflight/src/main/flight\mixer.h **** 
  31:D:/XMC/Projekte/Temp/CF_XMC4700/cleanflight/src/main/flight\mixer.h **** #define QUAD_MOTOR_COUNT 4
  32:D:/XMC/Projekte/Temp/CF_XMC4700/cleanflight/src/main/flight\mixer.h **** #define BRUSHED_MOTORS_PWM_RATE 16000
  33:D:/XMC/Projekte/Temp/CF_XMC4700/cleanflight/src/main/flight\mixer.h **** #define BRUSHLESS_MOTORS_PWM_RATE 480
  34:D:/XMC/Projekte/Temp/CF_XMC4700/cleanflight/src/main/flight\mixer.h **** 
  35:D:/XMC/Projekte/Temp/CF_XMC4700/cleanflight/src/main/flight\mixer.h **** // Digital protocol has fixed values
  36:D:/XMC/Projekte/Temp/CF_XMC4700/cleanflight/src/main/flight\mixer.h **** #define DSHOT_DISARM_COMMAND      0
  37:D:/XMC/Projekte/Temp/CF_XMC4700/cleanflight/src/main/flight\mixer.h **** #define DSHOT_MIN_THROTTLE       48
  38:D:/XMC/Projekte/Temp/CF_XMC4700/cleanflight/src/main/flight\mixer.h **** #define DSHOT_MAX_THROTTLE     2047
  39:D:/XMC/Projekte/Temp/CF_XMC4700/cleanflight/src/main/flight\mixer.h **** #define DSHOT_3D_DEADBAND_LOW  1047
  40:D:/XMC/Projekte/Temp/CF_XMC4700/cleanflight/src/main/flight\mixer.h **** #define DSHOT_3D_DEADBAND_HIGH 1048
  41:D:/XMC/Projekte/Temp/CF_XMC4700/cleanflight/src/main/flight\mixer.h **** 
  42:D:/XMC/Projekte/Temp/CF_XMC4700/cleanflight/src/main/flight\mixer.h **** // Note: this is called MultiType/MULTITYPE_* in baseflight.
  43:D:/XMC/Projekte/Temp/CF_XMC4700/cleanflight/src/main/flight\mixer.h **** typedef enum mixerMode
  44:D:/XMC/Projekte/Temp/CF_XMC4700/cleanflight/src/main/flight\mixer.h **** {
  45:D:/XMC/Projekte/Temp/CF_XMC4700/cleanflight/src/main/flight\mixer.h ****     MIXER_TRI = 1,
  46:D:/XMC/Projekte/Temp/CF_XMC4700/cleanflight/src/main/flight\mixer.h ****     MIXER_QUADP = 2,
  47:D:/XMC/Projekte/Temp/CF_XMC4700/cleanflight/src/main/flight\mixer.h ****     MIXER_QUADX = 3,
  48:D:/XMC/Projekte/Temp/CF_XMC4700/cleanflight/src/main/flight\mixer.h ****     MIXER_BICOPTER = 4,
  49:D:/XMC/Projekte/Temp/CF_XMC4700/cleanflight/src/main/flight\mixer.h ****     MIXER_GIMBAL = 5,
  50:D:/XMC/Projekte/Temp/CF_XMC4700/cleanflight/src/main/flight\mixer.h ****     MIXER_Y6 = 6,
  51:D:/XMC/Projekte/Temp/CF_XMC4700/cleanflight/src/main/flight\mixer.h ****     MIXER_HEX6 = 7,
  52:D:/XMC/Projekte/Temp/CF_XMC4700/cleanflight/src/main/flight\mixer.h ****     MIXER_FLYING_WING = 8,
  53:D:/XMC/Projekte/Temp/CF_XMC4700/cleanflight/src/main/flight\mixer.h ****     MIXER_Y4 = 9,
  54:D:/XMC/Projekte/Temp/CF_XMC4700/cleanflight/src/main/flight\mixer.h ****     MIXER_HEX6X = 10,
  55:D:/XMC/Projekte/Temp/CF_XMC4700/cleanflight/src/main/flight\mixer.h ****     MIXER_OCTOX8 = 11,
  56:D:/XMC/Projekte/Temp/CF_XMC4700/cleanflight/src/main/flight\mixer.h ****     MIXER_OCTOFLATP = 12,
  57:D:/XMC/Projekte/Temp/CF_XMC4700/cleanflight/src/main/flight\mixer.h ****     MIXER_OCTOFLATX = 13,
  58:D:/XMC/Projekte/Temp/CF_XMC4700/cleanflight/src/main/flight\mixer.h ****     MIXER_AIRPLANE = 14,        // airplane / singlecopter / dualcopter (not yet properly supported
  59:D:/XMC/Projekte/Temp/CF_XMC4700/cleanflight/src/main/flight\mixer.h ****     MIXER_HELI_120_CCPM = 15,
  60:D:/XMC/Projekte/Temp/CF_XMC4700/cleanflight/src/main/flight\mixer.h ****     MIXER_HELI_90_DEG = 16,
  61:D:/XMC/Projekte/Temp/CF_XMC4700/cleanflight/src/main/flight\mixer.h ****     MIXER_VTAIL4 = 17,
  62:D:/XMC/Projekte/Temp/CF_XMC4700/cleanflight/src/main/flight\mixer.h ****     MIXER_HEX6H = 18,
  63:D:/XMC/Projekte/Temp/CF_XMC4700/cleanflight/src/main/flight\mixer.h ****     MIXER_RX_TO_SERVO = 19,    // PPM -> servo relay
  64:D:/XMC/Projekte/Temp/CF_XMC4700/cleanflight/src/main/flight\mixer.h ****     MIXER_DUALCOPTER = 20,
  65:D:/XMC/Projekte/Temp/CF_XMC4700/cleanflight/src/main/flight\mixer.h ****     MIXER_SINGLECOPTER = 21,
  66:D:/XMC/Projekte/Temp/CF_XMC4700/cleanflight/src/main/flight\mixer.h ****     MIXER_ATAIL4 = 22,
  67:D:/XMC/Projekte/Temp/CF_XMC4700/cleanflight/src/main/flight\mixer.h ****     MIXER_CUSTOM = 23,
  68:D:/XMC/Projekte/Temp/CF_XMC4700/cleanflight/src/main/flight\mixer.h ****     MIXER_CUSTOM_AIRPLANE = 24,
  69:D:/XMC/Projekte/Temp/CF_XMC4700/cleanflight/src/main/flight\mixer.h ****     MIXER_CUSTOM_TRI = 25,
  70:D:/XMC/Projekte/Temp/CF_XMC4700/cleanflight/src/main/flight\mixer.h ****     MIXER_QUADX_1234 = 26
  71:D:/XMC/Projekte/Temp/CF_XMC4700/cleanflight/src/main/flight\mixer.h **** } mixerMode_e;
  72:D:/XMC/Projekte/Temp/CF_XMC4700/cleanflight/src/main/flight\mixer.h **** 
  73:D:/XMC/Projekte/Temp/CF_XMC4700/cleanflight/src/main/flight\mixer.h **** // Custom mixer data per motor
  74:D:/XMC/Projekte/Temp/CF_XMC4700/cleanflight/src/main/flight\mixer.h **** typedef struct motorMixer_s {
  75:D:/XMC/Projekte/Temp/CF_XMC4700/cleanflight/src/main/flight\mixer.h ****     float throttle;
  76:D:/XMC/Projekte/Temp/CF_XMC4700/cleanflight/src/main/flight\mixer.h ****     float roll;
  77:D:/XMC/Projekte/Temp/CF_XMC4700/cleanflight/src/main/flight\mixer.h ****     float pitch;
  78:D:/XMC/Projekte/Temp/CF_XMC4700/cleanflight/src/main/flight\mixer.h ****     float yaw;
  79:D:/XMC/Projekte/Temp/CF_XMC4700/cleanflight/src/main/flight\mixer.h **** } motorMixer_t;
  80:D:/XMC/Projekte/Temp/CF_XMC4700/cleanflight/src/main/flight\mixer.h **** 
  81:D:/XMC/Projekte/Temp/CF_XMC4700/cleanflight/src/main/flight\mixer.h **** PG_DECLARE_ARRAY(motorMixer_t, MAX_SUPPORTED_MOTORS, customMotorMixer);
  82:D:/XMC/Projekte/Temp/CF_XMC4700/cleanflight/src/main/flight\mixer.h **** 
  83:D:/XMC/Projekte/Temp/CF_XMC4700/cleanflight/src/main/flight\mixer.h **** // Custom mixer configuration
  84:D:/XMC/Projekte/Temp/CF_XMC4700/cleanflight/src/main/flight\mixer.h **** typedef struct mixer_s {
  85:D:/XMC/Projekte/Temp/CF_XMC4700/cleanflight/src/main/flight\mixer.h ****     uint8_t motorCount;
  86:D:/XMC/Projekte/Temp/CF_XMC4700/cleanflight/src/main/flight\mixer.h ****     uint8_t useServo;
  87:D:/XMC/Projekte/Temp/CF_XMC4700/cleanflight/src/main/flight\mixer.h ****     const motorMixer_t *motor;
  88:D:/XMC/Projekte/Temp/CF_XMC4700/cleanflight/src/main/flight\mixer.h **** } mixer_t;
  89:D:/XMC/Projekte/Temp/CF_XMC4700/cleanflight/src/main/flight\mixer.h **** 
  90:D:/XMC/Projekte/Temp/CF_XMC4700/cleanflight/src/main/flight\mixer.h **** typedef struct mixerConfig_s {
  91:D:/XMC/Projekte/Temp/CF_XMC4700/cleanflight/src/main/flight\mixer.h ****     uint8_t mixerMode;
  92:D:/XMC/Projekte/Temp/CF_XMC4700/cleanflight/src/main/flight\mixer.h ****     bool yaw_motors_reversed;
  93:D:/XMC/Projekte/Temp/CF_XMC4700/cleanflight/src/main/flight\mixer.h ****     uint8_t crashflip_motor_percent;
  94:D:/XMC/Projekte/Temp/CF_XMC4700/cleanflight/src/main/flight\mixer.h **** } mixerConfig_t;
  95:D:/XMC/Projekte/Temp/CF_XMC4700/cleanflight/src/main/flight\mixer.h **** 
  96:D:/XMC/Projekte/Temp/CF_XMC4700/cleanflight/src/main/flight\mixer.h **** PG_DECLARE(mixerConfig_t, mixerConfig);
 387              	 .loc 7 96 0
 388              	 .cfi_startproc
 389              	 
 390              	 
 391              	 
 392 0000 80B4     	 push {r7}
 393              	.LCFI38:
 394              	 .cfi_def_cfa_offset 4
 395              	 .cfi_offset 7,-4
 396 0002 00AF     	 add r7,sp,#0
 397              	.LCFI39:
 398              	 .cfi_def_cfa_register 7
 399              	 .loc 7 96 0
 400 0004 024B     	 ldr r3,.L39
 401 0006 1846     	 mov r0,r3
 402 0008 BD46     	 mov sp,r7
 403              	.LCFI40:
 404              	 .cfi_def_cfa_register 13
 405              	 
 406 000a 5DF8047B 	 ldr r7,[sp],#4
 407              	.LCFI41:
 408              	 .cfi_restore 7
 409              	 .cfi_def_cfa_offset 0
 410 000e 7047     	 bx lr
 411              	.L40:
 412              	 .align 2
 413              	.L39:
 414 0010 00000000 	 .word mixerConfig_System
 415              	 .cfi_endproc
 416              	.LFE556:
 418              	 .section .text.motorConfig,"ax",%progbits
 419              	 .align 2
 420              	 .thumb
 421              	 .thumb_func
 423              	motorConfig:
 424              	.LFB558:
  97:D:/XMC/Projekte/Temp/CF_XMC4700/cleanflight/src/main/flight\mixer.h **** 
  98:D:/XMC/Projekte/Temp/CF_XMC4700/cleanflight/src/main/flight\mixer.h **** typedef struct motorConfig_s {
  99:D:/XMC/Projekte/Temp/CF_XMC4700/cleanflight/src/main/flight\mixer.h ****     motorDevConfig_t dev;
 100:D:/XMC/Projekte/Temp/CF_XMC4700/cleanflight/src/main/flight\mixer.h ****     uint16_t digitalIdleOffsetValue;        // Idle value for DShot protocol, full motor output = 1
 101:D:/XMC/Projekte/Temp/CF_XMC4700/cleanflight/src/main/flight\mixer.h ****     uint16_t minthrottle;                   // Set the minimum throttle command sent to the ESC (El
 102:D:/XMC/Projekte/Temp/CF_XMC4700/cleanflight/src/main/flight\mixer.h ****     uint16_t maxthrottle;                   // This is the maximum value for the ESCs at full power
 103:D:/XMC/Projekte/Temp/CF_XMC4700/cleanflight/src/main/flight\mixer.h ****     uint16_t mincommand;                    // This is the value for the ESCs when they are not arm
 104:D:/XMC/Projekte/Temp/CF_XMC4700/cleanflight/src/main/flight\mixer.h ****     uint8_t motorPoleCount;                // Magnetic poles in the motors for calculating actual R
 105:D:/XMC/Projekte/Temp/CF_XMC4700/cleanflight/src/main/flight\mixer.h **** } motorConfig_t;
 106:D:/XMC/Projekte/Temp/CF_XMC4700/cleanflight/src/main/flight\mixer.h **** 
 107:D:/XMC/Projekte/Temp/CF_XMC4700/cleanflight/src/main/flight\mixer.h **** PG_DECLARE(motorConfig_t, motorConfig);
 425              	 .loc 7 107 0
 426              	 .cfi_startproc
 427              	 
 428              	 
 429              	 
 430 0000 80B4     	 push {r7}
 431              	.LCFI42:
 432              	 .cfi_def_cfa_offset 4
 433              	 .cfi_offset 7,-4
 434 0002 00AF     	 add r7,sp,#0
 435              	.LCFI43:
 436              	 .cfi_def_cfa_register 7
 437              	 .loc 7 107 0
 438 0004 024B     	 ldr r3,.L43
 439 0006 1846     	 mov r0,r3
 440 0008 BD46     	 mov sp,r7
 441              	.LCFI44:
 442              	 .cfi_def_cfa_register 13
 443              	 
 444 000a 5DF8047B 	 ldr r7,[sp],#4
 445              	.LCFI45:
 446              	 .cfi_restore 7
 447              	 .cfi_def_cfa_offset 0
 448 000e 7047     	 bx lr
 449              	.L44:
 450              	 .align 2
 451              	.L43:
 452 0010 00000000 	 .word motorConfig_System
 453              	 .cfi_endproc
 454              	.LFE558:
 456              	 .section .text.pidConfig,"ax",%progbits
 457              	 .align 2
 458              	 .thumb
 459              	 .thumb_func
 461              	pidConfig:
 462              	.LFB563:
 463              	 .file 8 "D:/XMC/Projekte/Temp/CF_XMC4700/cleanflight/src/main/flight/pid.h"
   1:D:/XMC/Projekte/Temp/CF_XMC4700/cleanflight/src/main/flight\pid.h **** /*
   2:D:/XMC/Projekte/Temp/CF_XMC4700/cleanflight/src/main/flight\pid.h ****  * This file is part of Cleanflight and Betaflight.
   3:D:/XMC/Projekte/Temp/CF_XMC4700/cleanflight/src/main/flight\pid.h ****  *
   4:D:/XMC/Projekte/Temp/CF_XMC4700/cleanflight/src/main/flight\pid.h ****  * Cleanflight and Betaflight are free software. You can redistribute
   5:D:/XMC/Projekte/Temp/CF_XMC4700/cleanflight/src/main/flight\pid.h ****  * this software and/or modify this software under the terms of the
   6:D:/XMC/Projekte/Temp/CF_XMC4700/cleanflight/src/main/flight\pid.h ****  * GNU General Public License as published by the Free Software
   7:D:/XMC/Projekte/Temp/CF_XMC4700/cleanflight/src/main/flight\pid.h ****  * Foundation, either version 3 of the License, or (at your option)
   8:D:/XMC/Projekte/Temp/CF_XMC4700/cleanflight/src/main/flight\pid.h ****  * any later version.
   9:D:/XMC/Projekte/Temp/CF_XMC4700/cleanflight/src/main/flight\pid.h ****  *
  10:D:/XMC/Projekte/Temp/CF_XMC4700/cleanflight/src/main/flight\pid.h ****  * Cleanflight and Betaflight are distributed in the hope that they
  11:D:/XMC/Projekte/Temp/CF_XMC4700/cleanflight/src/main/flight\pid.h ****  * will be useful, but WITHOUT ANY WARRANTY; without even the implied
  12:D:/XMC/Projekte/Temp/CF_XMC4700/cleanflight/src/main/flight\pid.h ****  * warranty of MERCHANTABILITY or FITNESS FOR A PARTICULAR PURPOSE.
  13:D:/XMC/Projekte/Temp/CF_XMC4700/cleanflight/src/main/flight\pid.h ****  * See the GNU General Public License for more details.
  14:D:/XMC/Projekte/Temp/CF_XMC4700/cleanflight/src/main/flight\pid.h ****  *
  15:D:/XMC/Projekte/Temp/CF_XMC4700/cleanflight/src/main/flight\pid.h ****  * You should have received a copy of the GNU General Public License
  16:D:/XMC/Projekte/Temp/CF_XMC4700/cleanflight/src/main/flight\pid.h ****  * along with this software.
  17:D:/XMC/Projekte/Temp/CF_XMC4700/cleanflight/src/main/flight\pid.h ****  *
  18:D:/XMC/Projekte/Temp/CF_XMC4700/cleanflight/src/main/flight\pid.h ****  * If not, see <http://www.gnu.org/licenses/>.
  19:D:/XMC/Projekte/Temp/CF_XMC4700/cleanflight/src/main/flight\pid.h ****  */
  20:D:/XMC/Projekte/Temp/CF_XMC4700/cleanflight/src/main/flight\pid.h **** 
  21:D:/XMC/Projekte/Temp/CF_XMC4700/cleanflight/src/main/flight\pid.h **** #pragma once
  22:D:/XMC/Projekte/Temp/CF_XMC4700/cleanflight/src/main/flight\pid.h **** 
  23:D:/XMC/Projekte/Temp/CF_XMC4700/cleanflight/src/main/flight\pid.h **** #include <stdbool.h>
  24:D:/XMC/Projekte/Temp/CF_XMC4700/cleanflight/src/main/flight\pid.h **** #include "common/time.h"
  25:D:/XMC/Projekte/Temp/CF_XMC4700/cleanflight/src/main/flight\pid.h **** #include "common/filter.h"
  26:D:/XMC/Projekte/Temp/CF_XMC4700/cleanflight/src/main/flight\pid.h **** #include "pg/pg.h"
  27:D:/XMC/Projekte/Temp/CF_XMC4700/cleanflight/src/main/flight\pid.h **** 
  28:D:/XMC/Projekte/Temp/CF_XMC4700/cleanflight/src/main/flight\pid.h **** #define MAX_PID_PROCESS_DENOM       16
  29:D:/XMC/Projekte/Temp/CF_XMC4700/cleanflight/src/main/flight\pid.h **** #define PID_CONTROLLER_BETAFLIGHT   1
  30:D:/XMC/Projekte/Temp/CF_XMC4700/cleanflight/src/main/flight\pid.h **** #define PID_MIXER_SCALING           1000.0f
  31:D:/XMC/Projekte/Temp/CF_XMC4700/cleanflight/src/main/flight\pid.h **** #define PID_SERVO_MIXER_SCALING     0.7f
  32:D:/XMC/Projekte/Temp/CF_XMC4700/cleanflight/src/main/flight\pid.h **** #define PIDSUM_LIMIT                500
  33:D:/XMC/Projekte/Temp/CF_XMC4700/cleanflight/src/main/flight\pid.h **** #define PIDSUM_LIMIT_YAW            400
  34:D:/XMC/Projekte/Temp/CF_XMC4700/cleanflight/src/main/flight\pid.h **** #define PIDSUM_LIMIT_MIN            100
  35:D:/XMC/Projekte/Temp/CF_XMC4700/cleanflight/src/main/flight\pid.h **** #define PIDSUM_LIMIT_MAX            1000
  36:D:/XMC/Projekte/Temp/CF_XMC4700/cleanflight/src/main/flight\pid.h **** 
  37:D:/XMC/Projekte/Temp/CF_XMC4700/cleanflight/src/main/flight\pid.h **** // Scaling factors for Pids for better tunable range in configurator for betaflight pid controller.
  38:D:/XMC/Projekte/Temp/CF_XMC4700/cleanflight/src/main/flight\pid.h **** #define PTERM_SCALE 0.032029f
  39:D:/XMC/Projekte/Temp/CF_XMC4700/cleanflight/src/main/flight\pid.h **** #define ITERM_SCALE 0.244381f
  40:D:/XMC/Projekte/Temp/CF_XMC4700/cleanflight/src/main/flight\pid.h **** #define DTERM_SCALE 0.000529f
  41:D:/XMC/Projekte/Temp/CF_XMC4700/cleanflight/src/main/flight\pid.h **** 
  42:D:/XMC/Projekte/Temp/CF_XMC4700/cleanflight/src/main/flight\pid.h **** // The constant scale factor to replace the Kd component of the feedforward calculation.
  43:D:/XMC/Projekte/Temp/CF_XMC4700/cleanflight/src/main/flight\pid.h **** // This value gives the same "feel" as the previous Kd default of 26 (26 * DTERM_SCALE)
  44:D:/XMC/Projekte/Temp/CF_XMC4700/cleanflight/src/main/flight\pid.h **** #define FEEDFORWARD_SCALE 0.013754f
  45:D:/XMC/Projekte/Temp/CF_XMC4700/cleanflight/src/main/flight\pid.h **** 
  46:D:/XMC/Projekte/Temp/CF_XMC4700/cleanflight/src/main/flight\pid.h **** typedef enum {
  47:D:/XMC/Projekte/Temp/CF_XMC4700/cleanflight/src/main/flight\pid.h ****     PID_ROLL,
  48:D:/XMC/Projekte/Temp/CF_XMC4700/cleanflight/src/main/flight\pid.h ****     PID_PITCH,
  49:D:/XMC/Projekte/Temp/CF_XMC4700/cleanflight/src/main/flight\pid.h ****     PID_YAW,
  50:D:/XMC/Projekte/Temp/CF_XMC4700/cleanflight/src/main/flight\pid.h ****     PID_LEVEL,
  51:D:/XMC/Projekte/Temp/CF_XMC4700/cleanflight/src/main/flight\pid.h ****     PID_MAG,
  52:D:/XMC/Projekte/Temp/CF_XMC4700/cleanflight/src/main/flight\pid.h ****     PID_ITEM_COUNT
  53:D:/XMC/Projekte/Temp/CF_XMC4700/cleanflight/src/main/flight\pid.h **** } pidIndex_e;
  54:D:/XMC/Projekte/Temp/CF_XMC4700/cleanflight/src/main/flight\pid.h **** 
  55:D:/XMC/Projekte/Temp/CF_XMC4700/cleanflight/src/main/flight\pid.h **** typedef enum {
  56:D:/XMC/Projekte/Temp/CF_XMC4700/cleanflight/src/main/flight\pid.h ****     SUPEREXPO_YAW_OFF = 0,
  57:D:/XMC/Projekte/Temp/CF_XMC4700/cleanflight/src/main/flight\pid.h ****     SUPEREXPO_YAW_ON,
  58:D:/XMC/Projekte/Temp/CF_XMC4700/cleanflight/src/main/flight\pid.h ****     SUPEREXPO_YAW_ALWAYS
  59:D:/XMC/Projekte/Temp/CF_XMC4700/cleanflight/src/main/flight\pid.h **** } pidSuperExpoYaw_e;
  60:D:/XMC/Projekte/Temp/CF_XMC4700/cleanflight/src/main/flight\pid.h **** 
  61:D:/XMC/Projekte/Temp/CF_XMC4700/cleanflight/src/main/flight\pid.h **** typedef enum {
  62:D:/XMC/Projekte/Temp/CF_XMC4700/cleanflight/src/main/flight\pid.h ****     PID_STABILISATION_OFF = 0,
  63:D:/XMC/Projekte/Temp/CF_XMC4700/cleanflight/src/main/flight\pid.h ****     PID_STABILISATION_ON
  64:D:/XMC/Projekte/Temp/CF_XMC4700/cleanflight/src/main/flight\pid.h **** } pidStabilisationState_e;
  65:D:/XMC/Projekte/Temp/CF_XMC4700/cleanflight/src/main/flight\pid.h **** 
  66:D:/XMC/Projekte/Temp/CF_XMC4700/cleanflight/src/main/flight\pid.h **** typedef enum {
  67:D:/XMC/Projekte/Temp/CF_XMC4700/cleanflight/src/main/flight\pid.h ****     PID_CRASH_RECOVERY_OFF = 0,
  68:D:/XMC/Projekte/Temp/CF_XMC4700/cleanflight/src/main/flight\pid.h ****     PID_CRASH_RECOVERY_ON,
  69:D:/XMC/Projekte/Temp/CF_XMC4700/cleanflight/src/main/flight\pid.h ****     PID_CRASH_RECOVERY_BEEP
  70:D:/XMC/Projekte/Temp/CF_XMC4700/cleanflight/src/main/flight\pid.h **** } pidCrashRecovery_e;
  71:D:/XMC/Projekte/Temp/CF_XMC4700/cleanflight/src/main/flight\pid.h **** 
  72:D:/XMC/Projekte/Temp/CF_XMC4700/cleanflight/src/main/flight\pid.h **** typedef struct pidf_s {
  73:D:/XMC/Projekte/Temp/CF_XMC4700/cleanflight/src/main/flight\pid.h ****     uint8_t P;
  74:D:/XMC/Projekte/Temp/CF_XMC4700/cleanflight/src/main/flight\pid.h ****     uint8_t I;
  75:D:/XMC/Projekte/Temp/CF_XMC4700/cleanflight/src/main/flight\pid.h ****     uint8_t D;
  76:D:/XMC/Projekte/Temp/CF_XMC4700/cleanflight/src/main/flight\pid.h ****     uint16_t F;
  77:D:/XMC/Projekte/Temp/CF_XMC4700/cleanflight/src/main/flight\pid.h **** } pidf_t;
  78:D:/XMC/Projekte/Temp/CF_XMC4700/cleanflight/src/main/flight\pid.h **** 
  79:D:/XMC/Projekte/Temp/CF_XMC4700/cleanflight/src/main/flight\pid.h **** typedef enum {
  80:D:/XMC/Projekte/Temp/CF_XMC4700/cleanflight/src/main/flight\pid.h ****     ANTI_GRAVITY_SMOOTH,
  81:D:/XMC/Projekte/Temp/CF_XMC4700/cleanflight/src/main/flight\pid.h ****     ANTI_GRAVITY_STEP
  82:D:/XMC/Projekte/Temp/CF_XMC4700/cleanflight/src/main/flight\pid.h **** } antiGravityMode_e;
  83:D:/XMC/Projekte/Temp/CF_XMC4700/cleanflight/src/main/flight\pid.h **** 
  84:D:/XMC/Projekte/Temp/CF_XMC4700/cleanflight/src/main/flight\pid.h **** typedef enum {
  85:D:/XMC/Projekte/Temp/CF_XMC4700/cleanflight/src/main/flight\pid.h ****     ITERM_RELAX_OFF,
  86:D:/XMC/Projekte/Temp/CF_XMC4700/cleanflight/src/main/flight\pid.h ****     ITERM_RELAX_RP,
  87:D:/XMC/Projekte/Temp/CF_XMC4700/cleanflight/src/main/flight\pid.h ****     ITERM_RELAX_RPY,
  88:D:/XMC/Projekte/Temp/CF_XMC4700/cleanflight/src/main/flight\pid.h ****     ITERM_RELAX_RP_INC,
  89:D:/XMC/Projekte/Temp/CF_XMC4700/cleanflight/src/main/flight\pid.h ****     ITERM_RELAX_RPY_INC
  90:D:/XMC/Projekte/Temp/CF_XMC4700/cleanflight/src/main/flight\pid.h **** } itermRelax_e;
  91:D:/XMC/Projekte/Temp/CF_XMC4700/cleanflight/src/main/flight\pid.h **** 
  92:D:/XMC/Projekte/Temp/CF_XMC4700/cleanflight/src/main/flight\pid.h **** typedef enum {
  93:D:/XMC/Projekte/Temp/CF_XMC4700/cleanflight/src/main/flight\pid.h ****     ITERM_RELAX_GYRO,
  94:D:/XMC/Projekte/Temp/CF_XMC4700/cleanflight/src/main/flight\pid.h ****     ITERM_RELAX_SETPOINT
  95:D:/XMC/Projekte/Temp/CF_XMC4700/cleanflight/src/main/flight\pid.h **** } itermRelaxType_e;
  96:D:/XMC/Projekte/Temp/CF_XMC4700/cleanflight/src/main/flight\pid.h **** 
  97:D:/XMC/Projekte/Temp/CF_XMC4700/cleanflight/src/main/flight\pid.h **** typedef struct pidProfile_s {
  98:D:/XMC/Projekte/Temp/CF_XMC4700/cleanflight/src/main/flight\pid.h ****     uint16_t yaw_lowpass_hz;                // Additional yaw filter when yaw axis too noisy
  99:D:/XMC/Projekte/Temp/CF_XMC4700/cleanflight/src/main/flight\pid.h ****     uint16_t dterm_lowpass_hz;              // Delta Filter in hz
 100:D:/XMC/Projekte/Temp/CF_XMC4700/cleanflight/src/main/flight\pid.h ****     uint16_t dterm_notch_hz;                // Biquad dterm notch hz
 101:D:/XMC/Projekte/Temp/CF_XMC4700/cleanflight/src/main/flight\pid.h ****     uint16_t dterm_notch_cutoff;            // Biquad dterm notch low cutoff
 102:D:/XMC/Projekte/Temp/CF_XMC4700/cleanflight/src/main/flight\pid.h **** 
 103:D:/XMC/Projekte/Temp/CF_XMC4700/cleanflight/src/main/flight\pid.h ****     pidf_t  pid[PID_ITEM_COUNT];
 104:D:/XMC/Projekte/Temp/CF_XMC4700/cleanflight/src/main/flight\pid.h **** 
 105:D:/XMC/Projekte/Temp/CF_XMC4700/cleanflight/src/main/flight\pid.h ****     uint8_t dterm_filter_type;              // Filter selection for dterm
 106:D:/XMC/Projekte/Temp/CF_XMC4700/cleanflight/src/main/flight\pid.h ****     uint8_t itermWindupPointPercent;        // Experimental ITerm windup threshold, percent motor s
 107:D:/XMC/Projekte/Temp/CF_XMC4700/cleanflight/src/main/flight\pid.h ****     uint16_t pidSumLimit;
 108:D:/XMC/Projekte/Temp/CF_XMC4700/cleanflight/src/main/flight\pid.h ****     uint16_t pidSumLimitYaw;
 109:D:/XMC/Projekte/Temp/CF_XMC4700/cleanflight/src/main/flight\pid.h ****     uint8_t pidAtMinThrottle;               // Disable/Enable pids on zero throttle. Normally even 
 110:D:/XMC/Projekte/Temp/CF_XMC4700/cleanflight/src/main/flight\pid.h ****     uint8_t levelAngleLimit;                // Max angle in degrees in level mode
 111:D:/XMC/Projekte/Temp/CF_XMC4700/cleanflight/src/main/flight\pid.h **** 
 112:D:/XMC/Projekte/Temp/CF_XMC4700/cleanflight/src/main/flight\pid.h ****     uint8_t horizon_tilt_effect;            // inclination factor for Horizon mode
 113:D:/XMC/Projekte/Temp/CF_XMC4700/cleanflight/src/main/flight\pid.h ****     uint8_t horizon_tilt_expert_mode;       // OFF or ON
 114:D:/XMC/Projekte/Temp/CF_XMC4700/cleanflight/src/main/flight\pid.h **** 
 115:D:/XMC/Projekte/Temp/CF_XMC4700/cleanflight/src/main/flight\pid.h ****     // Betaflight PID controller parameters
 116:D:/XMC/Projekte/Temp/CF_XMC4700/cleanflight/src/main/flight\pid.h ****     uint8_t  antiGravityMode;             // type of anti gravity method
 117:D:/XMC/Projekte/Temp/CF_XMC4700/cleanflight/src/main/flight\pid.h ****     uint16_t itermThrottleThreshold;        // max allowed throttle delta before iterm accelerated 
 118:D:/XMC/Projekte/Temp/CF_XMC4700/cleanflight/src/main/flight\pid.h ****     uint16_t itermAcceleratorGain;          // Iterm Accelerator Gain when itermThrottlethreshold i
 119:D:/XMC/Projekte/Temp/CF_XMC4700/cleanflight/src/main/flight\pid.h ****     uint16_t yawRateAccelLimit;             // yaw accel limiter for deg/sec/ms
 120:D:/XMC/Projekte/Temp/CF_XMC4700/cleanflight/src/main/flight\pid.h ****     uint16_t rateAccelLimit;                // accel limiter roll/pitch deg/sec/ms
 121:D:/XMC/Projekte/Temp/CF_XMC4700/cleanflight/src/main/flight\pid.h ****     uint16_t crash_dthreshold;              // dterm crash value
 122:D:/XMC/Projekte/Temp/CF_XMC4700/cleanflight/src/main/flight\pid.h ****     uint16_t crash_gthreshold;              // gyro crash value
 123:D:/XMC/Projekte/Temp/CF_XMC4700/cleanflight/src/main/flight\pid.h ****     uint16_t crash_setpoint_threshold;      // setpoint must be below this value to detect crash, s
 124:D:/XMC/Projekte/Temp/CF_XMC4700/cleanflight/src/main/flight\pid.h ****     uint16_t crash_time;                    // ms
 125:D:/XMC/Projekte/Temp/CF_XMC4700/cleanflight/src/main/flight\pid.h ****     uint16_t crash_delay;                   // ms
 126:D:/XMC/Projekte/Temp/CF_XMC4700/cleanflight/src/main/flight\pid.h ****     uint8_t crash_recovery_angle;           // degrees
 127:D:/XMC/Projekte/Temp/CF_XMC4700/cleanflight/src/main/flight\pid.h ****     uint8_t crash_recovery_rate;            // degree/second
 128:D:/XMC/Projekte/Temp/CF_XMC4700/cleanflight/src/main/flight\pid.h ****     uint8_t vbatPidCompensation;            // Scale PIDsum to battery voltage
 129:D:/XMC/Projekte/Temp/CF_XMC4700/cleanflight/src/main/flight\pid.h ****     uint8_t feedForwardTransition;          // Feed forward weight transition
 130:D:/XMC/Projekte/Temp/CF_XMC4700/cleanflight/src/main/flight\pid.h ****     uint16_t crash_limit_yaw;               // limits yaw errorRate, so crashes don't cause huge th
 131:D:/XMC/Projekte/Temp/CF_XMC4700/cleanflight/src/main/flight\pid.h ****     uint16_t itermLimit;
 132:D:/XMC/Projekte/Temp/CF_XMC4700/cleanflight/src/main/flight\pid.h ****     uint16_t dterm_lowpass2_hz;             // Extra PT1 Filter on D in hz
 133:D:/XMC/Projekte/Temp/CF_XMC4700/cleanflight/src/main/flight\pid.h ****     uint8_t crash_recovery;                 // off, on, on and beeps when it is in crash recovery m
 134:D:/XMC/Projekte/Temp/CF_XMC4700/cleanflight/src/main/flight\pid.h ****     uint8_t throttle_boost;                 // how much should throttle be boosted during transient
 135:D:/XMC/Projekte/Temp/CF_XMC4700/cleanflight/src/main/flight\pid.h ****     uint8_t throttle_boost_cutoff;          // Which cutoff frequency to use for throttle boost. hi
 136:D:/XMC/Projekte/Temp/CF_XMC4700/cleanflight/src/main/flight\pid.h ****     uint8_t iterm_rotation;                 // rotates iterm to translate world errors to local coo
 137:D:/XMC/Projekte/Temp/CF_XMC4700/cleanflight/src/main/flight\pid.h ****     uint8_t smart_feedforward;              // takes only the larger of P and the D weight feed for
 138:D:/XMC/Projekte/Temp/CF_XMC4700/cleanflight/src/main/flight\pid.h ****     uint8_t iterm_relax_type;               // Specifies type of relax algorithm
 139:D:/XMC/Projekte/Temp/CF_XMC4700/cleanflight/src/main/flight\pid.h ****     uint8_t iterm_relax_cutoff;             // This cutoff frequency specifies a low pass filter wh
 140:D:/XMC/Projekte/Temp/CF_XMC4700/cleanflight/src/main/flight\pid.h ****     uint8_t iterm_relax;                    // Enable iterm suppression during stick input
 141:D:/XMC/Projekte/Temp/CF_XMC4700/cleanflight/src/main/flight\pid.h ****     uint8_t acro_trainer_angle_limit;       // Acro trainer roll/pitch angle limit in degrees
 142:D:/XMC/Projekte/Temp/CF_XMC4700/cleanflight/src/main/flight\pid.h ****     uint8_t acro_trainer_debug_axis;        // The axis for which record debugging values are captu
 143:D:/XMC/Projekte/Temp/CF_XMC4700/cleanflight/src/main/flight\pid.h ****     uint8_t acro_trainer_gain;              // The strength of the limiting. Raising may reduce ove
 144:D:/XMC/Projekte/Temp/CF_XMC4700/cleanflight/src/main/flight\pid.h ****     uint16_t acro_trainer_lookahead_ms;     // The lookahead window in milliseconds used to reduce 
 145:D:/XMC/Projekte/Temp/CF_XMC4700/cleanflight/src/main/flight\pid.h ****     uint8_t abs_control_gain;               // How strongly should the absolute accumulated error b
 146:D:/XMC/Projekte/Temp/CF_XMC4700/cleanflight/src/main/flight\pid.h ****     uint8_t abs_control_limit;              // Limit to the correction
 147:D:/XMC/Projekte/Temp/CF_XMC4700/cleanflight/src/main/flight\pid.h ****     uint8_t abs_control_error_limit;        // Limit to the accumulated error
 148:D:/XMC/Projekte/Temp/CF_XMC4700/cleanflight/src/main/flight\pid.h **** } pidProfile_t;
 149:D:/XMC/Projekte/Temp/CF_XMC4700/cleanflight/src/main/flight\pid.h **** 
 150:D:/XMC/Projekte/Temp/CF_XMC4700/cleanflight/src/main/flight\pid.h **** #ifndef USE_OSD_SLAVE
 151:D:/XMC/Projekte/Temp/CF_XMC4700/cleanflight/src/main/flight\pid.h **** PG_DECLARE_ARRAY(pidProfile_t, MAX_PROFILE_COUNT, pidProfiles);
 152:D:/XMC/Projekte/Temp/CF_XMC4700/cleanflight/src/main/flight\pid.h **** #endif
 153:D:/XMC/Projekte/Temp/CF_XMC4700/cleanflight/src/main/flight\pid.h **** 
 154:D:/XMC/Projekte/Temp/CF_XMC4700/cleanflight/src/main/flight\pid.h **** typedef struct pidConfig_s {
 155:D:/XMC/Projekte/Temp/CF_XMC4700/cleanflight/src/main/flight\pid.h ****     uint8_t pid_process_denom;              // Processing denominator for PID controller vs gyro sa
 156:D:/XMC/Projekte/Temp/CF_XMC4700/cleanflight/src/main/flight\pid.h ****     uint8_t runaway_takeoff_prevention;          // off, on - enables pidsum runaway disarm logic
 157:D:/XMC/Projekte/Temp/CF_XMC4700/cleanflight/src/main/flight\pid.h ****     uint16_t runaway_takeoff_deactivate_delay;   // delay in ms for "in-flight" conditions before d
 158:D:/XMC/Projekte/Temp/CF_XMC4700/cleanflight/src/main/flight\pid.h ****     uint8_t runaway_takeoff_deactivate_throttle; // minimum throttle percent required during deacti
 159:D:/XMC/Projekte/Temp/CF_XMC4700/cleanflight/src/main/flight\pid.h **** } pidConfig_t;
 160:D:/XMC/Projekte/Temp/CF_XMC4700/cleanflight/src/main/flight\pid.h **** 
 161:D:/XMC/Projekte/Temp/CF_XMC4700/cleanflight/src/main/flight\pid.h **** PG_DECLARE(pidConfig_t, pidConfig);
 464              	 .loc 8 161 0
 465              	 .cfi_startproc
 466              	 
 467              	 
 468              	 
 469 0000 80B4     	 push {r7}
 470              	.LCFI46:
 471              	 .cfi_def_cfa_offset 4
 472              	 .cfi_offset 7,-4
 473 0002 00AF     	 add r7,sp,#0
 474              	.LCFI47:
 475              	 .cfi_def_cfa_register 7
 476              	 .loc 8 161 0
 477 0004 024B     	 ldr r3,.L47
 478 0006 1846     	 mov r0,r3
 479 0008 BD46     	 mov sp,r7
 480              	.LCFI48:
 481              	 .cfi_def_cfa_register 13
 482              	 
 483 000a 5DF8047B 	 ldr r7,[sp],#4
 484              	.LCFI49:
 485              	 .cfi_restore 7
 486              	 .cfi_def_cfa_offset 0
 487 000e 7047     	 bx lr
 488              	.L48:
 489              	 .align 2
 490              	.L47:
 491 0010 00000000 	 .word pidConfig_System
 492              	 .cfi_endproc
 493              	.LFE563:
 495              	 .comm inputSource_e,1,1
 496              	 .section .text.gyroConfig,"ax",%progbits
 497              	 .align 2
 498              	 .thumb
 499              	 .thumb_func
 501              	gyroConfig:
 502              	.LFB585:
 503              	 .file 9 "D:/XMC/Projekte/Temp/CF_XMC4700/cleanflight/src/main/sensors/gyro.h"
   1:D:/XMC/Projekte/Temp/CF_XMC4700/cleanflight/src/main/sensors\gyro.h **** /*
   2:D:/XMC/Projekte/Temp/CF_XMC4700/cleanflight/src/main/sensors\gyro.h ****  * This file is part of Cleanflight and Betaflight.
   3:D:/XMC/Projekte/Temp/CF_XMC4700/cleanflight/src/main/sensors\gyro.h ****  *
   4:D:/XMC/Projekte/Temp/CF_XMC4700/cleanflight/src/main/sensors\gyro.h ****  * Cleanflight and Betaflight are free software. You can redistribute
   5:D:/XMC/Projekte/Temp/CF_XMC4700/cleanflight/src/main/sensors\gyro.h ****  * this software and/or modify this software under the terms of the
   6:D:/XMC/Projekte/Temp/CF_XMC4700/cleanflight/src/main/sensors\gyro.h ****  * GNU General Public License as published by the Free Software
   7:D:/XMC/Projekte/Temp/CF_XMC4700/cleanflight/src/main/sensors\gyro.h ****  * Foundation, either version 3 of the License, or (at your option)
   8:D:/XMC/Projekte/Temp/CF_XMC4700/cleanflight/src/main/sensors\gyro.h ****  * any later version.
   9:D:/XMC/Projekte/Temp/CF_XMC4700/cleanflight/src/main/sensors\gyro.h ****  *
  10:D:/XMC/Projekte/Temp/CF_XMC4700/cleanflight/src/main/sensors\gyro.h ****  * Cleanflight and Betaflight are distributed in the hope that they
  11:D:/XMC/Projekte/Temp/CF_XMC4700/cleanflight/src/main/sensors\gyro.h ****  * will be useful, but WITHOUT ANY WARRANTY; without even the implied
  12:D:/XMC/Projekte/Temp/CF_XMC4700/cleanflight/src/main/sensors\gyro.h ****  * warranty of MERCHANTABILITY or FITNESS FOR A PARTICULAR PURPOSE.
  13:D:/XMC/Projekte/Temp/CF_XMC4700/cleanflight/src/main/sensors\gyro.h ****  * See the GNU General Public License for more details.
  14:D:/XMC/Projekte/Temp/CF_XMC4700/cleanflight/src/main/sensors\gyro.h ****  *
  15:D:/XMC/Projekte/Temp/CF_XMC4700/cleanflight/src/main/sensors\gyro.h ****  * You should have received a copy of the GNU General Public License
  16:D:/XMC/Projekte/Temp/CF_XMC4700/cleanflight/src/main/sensors\gyro.h ****  * along with this software.
  17:D:/XMC/Projekte/Temp/CF_XMC4700/cleanflight/src/main/sensors\gyro.h ****  *
  18:D:/XMC/Projekte/Temp/CF_XMC4700/cleanflight/src/main/sensors\gyro.h ****  * If not, see <http://www.gnu.org/licenses/>.
  19:D:/XMC/Projekte/Temp/CF_XMC4700/cleanflight/src/main/sensors\gyro.h ****  */
  20:D:/XMC/Projekte/Temp/CF_XMC4700/cleanflight/src/main/sensors\gyro.h **** 
  21:D:/XMC/Projekte/Temp/CF_XMC4700/cleanflight/src/main/sensors\gyro.h **** #pragma once
  22:D:/XMC/Projekte/Temp/CF_XMC4700/cleanflight/src/main/sensors\gyro.h **** 
  23:D:/XMC/Projekte/Temp/CF_XMC4700/cleanflight/src/main/sensors\gyro.h **** #include "common/axis.h"
  24:D:/XMC/Projekte/Temp/CF_XMC4700/cleanflight/src/main/sensors\gyro.h **** #include "common/time.h"
  25:D:/XMC/Projekte/Temp/CF_XMC4700/cleanflight/src/main/sensors\gyro.h **** #include "pg/pg.h"
  26:D:/XMC/Projekte/Temp/CF_XMC4700/cleanflight/src/main/sensors\gyro.h **** #include "drivers/bus.h"
  27:D:/XMC/Projekte/Temp/CF_XMC4700/cleanflight/src/main/sensors\gyro.h **** #include "drivers/sensor.h"
  28:D:/XMC/Projekte/Temp/CF_XMC4700/cleanflight/src/main/sensors\gyro.h **** 
  29:D:/XMC/Projekte/Temp/CF_XMC4700/cleanflight/src/main/sensors\gyro.h **** typedef enum {
  30:D:/XMC/Projekte/Temp/CF_XMC4700/cleanflight/src/main/sensors\gyro.h ****     GYRO_NONE = 0,
  31:D:/XMC/Projekte/Temp/CF_XMC4700/cleanflight/src/main/sensors\gyro.h ****     GYRO_DEFAULT,
  32:D:/XMC/Projekte/Temp/CF_XMC4700/cleanflight/src/main/sensors\gyro.h ****     GYRO_MPU6050,
  33:D:/XMC/Projekte/Temp/CF_XMC4700/cleanflight/src/main/sensors\gyro.h ****     GYRO_L3G4200D,
  34:D:/XMC/Projekte/Temp/CF_XMC4700/cleanflight/src/main/sensors\gyro.h ****     GYRO_MPU3050,
  35:D:/XMC/Projekte/Temp/CF_XMC4700/cleanflight/src/main/sensors\gyro.h ****     GYRO_L3GD20,
  36:D:/XMC/Projekte/Temp/CF_XMC4700/cleanflight/src/main/sensors\gyro.h ****     GYRO_MPU6000,
  37:D:/XMC/Projekte/Temp/CF_XMC4700/cleanflight/src/main/sensors\gyro.h ****     GYRO_MPU6500,
  38:D:/XMC/Projekte/Temp/CF_XMC4700/cleanflight/src/main/sensors\gyro.h ****     GYRO_MPU9250,
  39:D:/XMC/Projekte/Temp/CF_XMC4700/cleanflight/src/main/sensors\gyro.h ****     GYRO_ICM20601,
  40:D:/XMC/Projekte/Temp/CF_XMC4700/cleanflight/src/main/sensors\gyro.h ****     GYRO_ICM20602,
  41:D:/XMC/Projekte/Temp/CF_XMC4700/cleanflight/src/main/sensors\gyro.h ****     GYRO_ICM20608G,
  42:D:/XMC/Projekte/Temp/CF_XMC4700/cleanflight/src/main/sensors\gyro.h ****     GYRO_ICM20649,
  43:D:/XMC/Projekte/Temp/CF_XMC4700/cleanflight/src/main/sensors\gyro.h ****     GYRO_ICM20689,
  44:D:/XMC/Projekte/Temp/CF_XMC4700/cleanflight/src/main/sensors\gyro.h ****     GYRO_BMI160,
  45:D:/XMC/Projekte/Temp/CF_XMC4700/cleanflight/src/main/sensors\gyro.h ****     GYRO_FAKE
  46:D:/XMC/Projekte/Temp/CF_XMC4700/cleanflight/src/main/sensors\gyro.h **** } gyroSensor_e;
  47:D:/XMC/Projekte/Temp/CF_XMC4700/cleanflight/src/main/sensors\gyro.h **** 
  48:D:/XMC/Projekte/Temp/CF_XMC4700/cleanflight/src/main/sensors\gyro.h **** typedef struct gyro_s {
  49:D:/XMC/Projekte/Temp/CF_XMC4700/cleanflight/src/main/sensors\gyro.h ****     uint32_t targetLooptime;
  50:D:/XMC/Projekte/Temp/CF_XMC4700/cleanflight/src/main/sensors\gyro.h ****     float gyroADCf[XYZ_AXIS_COUNT];
  51:D:/XMC/Projekte/Temp/CF_XMC4700/cleanflight/src/main/sensors\gyro.h **** } gyro_t;
  52:D:/XMC/Projekte/Temp/CF_XMC4700/cleanflight/src/main/sensors\gyro.h **** 
  53:D:/XMC/Projekte/Temp/CF_XMC4700/cleanflight/src/main/sensors\gyro.h **** extern gyro_t gyro;
  54:D:/XMC/Projekte/Temp/CF_XMC4700/cleanflight/src/main/sensors\gyro.h **** 
  55:D:/XMC/Projekte/Temp/CF_XMC4700/cleanflight/src/main/sensors\gyro.h **** typedef enum {
  56:D:/XMC/Projekte/Temp/CF_XMC4700/cleanflight/src/main/sensors\gyro.h ****     GYRO_OVERFLOW_CHECK_NONE = 0,
  57:D:/XMC/Projekte/Temp/CF_XMC4700/cleanflight/src/main/sensors\gyro.h ****     GYRO_OVERFLOW_CHECK_YAW,
  58:D:/XMC/Projekte/Temp/CF_XMC4700/cleanflight/src/main/sensors\gyro.h ****     GYRO_OVERFLOW_CHECK_ALL_AXES
  59:D:/XMC/Projekte/Temp/CF_XMC4700/cleanflight/src/main/sensors\gyro.h **** } gyroOverflowCheck_e;
  60:D:/XMC/Projekte/Temp/CF_XMC4700/cleanflight/src/main/sensors\gyro.h **** 
  61:D:/XMC/Projekte/Temp/CF_XMC4700/cleanflight/src/main/sensors\gyro.h **** #define GYRO_CONFIG_USE_GYRO_1      0
  62:D:/XMC/Projekte/Temp/CF_XMC4700/cleanflight/src/main/sensors\gyro.h **** #define GYRO_CONFIG_USE_GYRO_2      1
  63:D:/XMC/Projekte/Temp/CF_XMC4700/cleanflight/src/main/sensors\gyro.h **** #define GYRO_CONFIG_USE_GYRO_BOTH   2
  64:D:/XMC/Projekte/Temp/CF_XMC4700/cleanflight/src/main/sensors\gyro.h **** 
  65:D:/XMC/Projekte/Temp/CF_XMC4700/cleanflight/src/main/sensors\gyro.h **** typedef enum {
  66:D:/XMC/Projekte/Temp/CF_XMC4700/cleanflight/src/main/sensors\gyro.h ****     FILTER_LOWPASS = 0,
  67:D:/XMC/Projekte/Temp/CF_XMC4700/cleanflight/src/main/sensors\gyro.h ****     FILTER_LOWPASS2
  68:D:/XMC/Projekte/Temp/CF_XMC4700/cleanflight/src/main/sensors\gyro.h **** } filterSlots;
  69:D:/XMC/Projekte/Temp/CF_XMC4700/cleanflight/src/main/sensors\gyro.h **** 
  70:D:/XMC/Projekte/Temp/CF_XMC4700/cleanflight/src/main/sensors\gyro.h **** typedef struct gyroConfig_s {
  71:D:/XMC/Projekte/Temp/CF_XMC4700/cleanflight/src/main/sensors\gyro.h ****     uint8_t  gyro_align;                       // gyro alignment
  72:D:/XMC/Projekte/Temp/CF_XMC4700/cleanflight/src/main/sensors\gyro.h ****     uint8_t  gyroMovementCalibrationThreshold; // people keep forgetting that moving model while in
  73:D:/XMC/Projekte/Temp/CF_XMC4700/cleanflight/src/main/sensors\gyro.h ****     uint8_t  gyro_sync_denom;                  // Gyro sample divider
  74:D:/XMC/Projekte/Temp/CF_XMC4700/cleanflight/src/main/sensors\gyro.h ****     uint8_t  gyro_hardware_lpf;                // gyro DLPF setting
  75:D:/XMC/Projekte/Temp/CF_XMC4700/cleanflight/src/main/sensors\gyro.h ****     uint8_t  gyro_32khz_hardware_lpf;          // gyro 32khz DLPF setting
  76:D:/XMC/Projekte/Temp/CF_XMC4700/cleanflight/src/main/sensors\gyro.h **** 
  77:D:/XMC/Projekte/Temp/CF_XMC4700/cleanflight/src/main/sensors\gyro.h ****     uint8_t  gyro_high_fsr;
  78:D:/XMC/Projekte/Temp/CF_XMC4700/cleanflight/src/main/sensors\gyro.h ****     uint8_t  gyro_use_32khz;
  79:D:/XMC/Projekte/Temp/CF_XMC4700/cleanflight/src/main/sensors\gyro.h ****     uint8_t  gyro_to_use;
  80:D:/XMC/Projekte/Temp/CF_XMC4700/cleanflight/src/main/sensors\gyro.h **** 
  81:D:/XMC/Projekte/Temp/CF_XMC4700/cleanflight/src/main/sensors\gyro.h ****     uint16_t gyro_lowpass_hz;
  82:D:/XMC/Projekte/Temp/CF_XMC4700/cleanflight/src/main/sensors\gyro.h ****     uint16_t gyro_lowpass2_hz;
  83:D:/XMC/Projekte/Temp/CF_XMC4700/cleanflight/src/main/sensors\gyro.h **** 
  84:D:/XMC/Projekte/Temp/CF_XMC4700/cleanflight/src/main/sensors\gyro.h ****     uint16_t gyro_soft_notch_hz_1;
  85:D:/XMC/Projekte/Temp/CF_XMC4700/cleanflight/src/main/sensors\gyro.h ****     uint16_t gyro_soft_notch_cutoff_1;
  86:D:/XMC/Projekte/Temp/CF_XMC4700/cleanflight/src/main/sensors\gyro.h ****     uint16_t gyro_soft_notch_hz_2;
  87:D:/XMC/Projekte/Temp/CF_XMC4700/cleanflight/src/main/sensors\gyro.h ****     uint16_t gyro_soft_notch_cutoff_2;
  88:D:/XMC/Projekte/Temp/CF_XMC4700/cleanflight/src/main/sensors\gyro.h ****     int16_t  gyro_offset_yaw;
  89:D:/XMC/Projekte/Temp/CF_XMC4700/cleanflight/src/main/sensors\gyro.h ****     uint8_t  checkOverflow;
  90:D:/XMC/Projekte/Temp/CF_XMC4700/cleanflight/src/main/sensors\gyro.h **** 
  91:D:/XMC/Projekte/Temp/CF_XMC4700/cleanflight/src/main/sensors\gyro.h ****     // Lowpass primary/secondary
  92:D:/XMC/Projekte/Temp/CF_XMC4700/cleanflight/src/main/sensors\gyro.h ****     uint8_t  gyro_lowpass_type;
  93:D:/XMC/Projekte/Temp/CF_XMC4700/cleanflight/src/main/sensors\gyro.h ****     uint8_t  gyro_lowpass2_type;
  94:D:/XMC/Projekte/Temp/CF_XMC4700/cleanflight/src/main/sensors\gyro.h **** 
  95:D:/XMC/Projekte/Temp/CF_XMC4700/cleanflight/src/main/sensors\gyro.h ****     uint8_t  yaw_spin_recovery;
  96:D:/XMC/Projekte/Temp/CF_XMC4700/cleanflight/src/main/sensors\gyro.h ****     int16_t  yaw_spin_threshold;
  97:D:/XMC/Projekte/Temp/CF_XMC4700/cleanflight/src/main/sensors\gyro.h **** 
  98:D:/XMC/Projekte/Temp/CF_XMC4700/cleanflight/src/main/sensors\gyro.h ****     uint16_t gyroCalibrationDuration;  // Gyro calibration duration in 1/100 second
  99:D:/XMC/Projekte/Temp/CF_XMC4700/cleanflight/src/main/sensors\gyro.h ****     uint8_t dyn_notch_quality; // bandpass quality factor, 100 for steep sided bandpass
 100:D:/XMC/Projekte/Temp/CF_XMC4700/cleanflight/src/main/sensors\gyro.h ****     uint8_t dyn_notch_width_percent;
 101:D:/XMC/Projekte/Temp/CF_XMC4700/cleanflight/src/main/sensors\gyro.h **** } gyroConfig_t;
 102:D:/XMC/Projekte/Temp/CF_XMC4700/cleanflight/src/main/sensors\gyro.h **** 
 103:D:/XMC/Projekte/Temp/CF_XMC4700/cleanflight/src/main/sensors\gyro.h **** PG_DECLARE(gyroConfig_t, gyroConfig);
 504              	 .loc 9 103 0
 505              	 .cfi_startproc
 506              	 
 507              	 
 508              	 
 509 0000 80B4     	 push {r7}
 510              	.LCFI50:
 511              	 .cfi_def_cfa_offset 4
 512              	 .cfi_offset 7,-4
 513 0002 00AF     	 add r7,sp,#0
 514              	.LCFI51:
 515              	 .cfi_def_cfa_register 7
 516              	 .loc 9 103 0
 517 0004 024B     	 ldr r3,.L51
 518 0006 1846     	 mov r0,r3
 519 0008 BD46     	 mov sp,r7
 520              	.LCFI52:
 521              	 .cfi_def_cfa_register 13
 522              	 
 523 000a 5DF8047B 	 ldr r7,[sp],#4
 524              	.LCFI53:
 525              	 .cfi_restore 7
 526              	 .cfi_def_cfa_offset 0
 527 000e 7047     	 bx lr
 528              	.L52:
 529              	 .align 2
 530              	.L51:
 531 0010 00000000 	 .word gyroConfig_System
 532              	 .cfi_endproc
 533              	.LFE585:
 535              	 .section .text.accelerometerConfig,"ax",%progbits
 536              	 .align 2
 537              	 .thumb
 538              	 .thumb_func
 540              	accelerometerConfig:
 541              	.LFB591:
 542              	 .file 10 "D:/XMC/Projekte/Temp/CF_XMC4700/cleanflight/src/main/sensors/acceleration.h"
   1:D:/XMC/Projekte/Temp/CF_XMC4700/cleanflight/src/main/sensors\acceleration.h **** /*
   2:D:/XMC/Projekte/Temp/CF_XMC4700/cleanflight/src/main/sensors\acceleration.h ****  * This file is part of Cleanflight and Betaflight.
   3:D:/XMC/Projekte/Temp/CF_XMC4700/cleanflight/src/main/sensors\acceleration.h ****  *
   4:D:/XMC/Projekte/Temp/CF_XMC4700/cleanflight/src/main/sensors\acceleration.h ****  * Cleanflight and Betaflight are free software. You can redistribute
   5:D:/XMC/Projekte/Temp/CF_XMC4700/cleanflight/src/main/sensors\acceleration.h ****  * this software and/or modify this software under the terms of the
   6:D:/XMC/Projekte/Temp/CF_XMC4700/cleanflight/src/main/sensors\acceleration.h ****  * GNU General Public License as published by the Free Software
   7:D:/XMC/Projekte/Temp/CF_XMC4700/cleanflight/src/main/sensors\acceleration.h ****  * Foundation, either version 3 of the License, or (at your option)
   8:D:/XMC/Projekte/Temp/CF_XMC4700/cleanflight/src/main/sensors\acceleration.h ****  * any later version.
   9:D:/XMC/Projekte/Temp/CF_XMC4700/cleanflight/src/main/sensors\acceleration.h ****  *
  10:D:/XMC/Projekte/Temp/CF_XMC4700/cleanflight/src/main/sensors\acceleration.h ****  * Cleanflight and Betaflight are distributed in the hope that they
  11:D:/XMC/Projekte/Temp/CF_XMC4700/cleanflight/src/main/sensors\acceleration.h ****  * will be useful, but WITHOUT ANY WARRANTY; without even the implied
  12:D:/XMC/Projekte/Temp/CF_XMC4700/cleanflight/src/main/sensors\acceleration.h ****  * warranty of MERCHANTABILITY or FITNESS FOR A PARTICULAR PURPOSE.
  13:D:/XMC/Projekte/Temp/CF_XMC4700/cleanflight/src/main/sensors\acceleration.h ****  * See the GNU General Public License for more details.
  14:D:/XMC/Projekte/Temp/CF_XMC4700/cleanflight/src/main/sensors\acceleration.h ****  *
  15:D:/XMC/Projekte/Temp/CF_XMC4700/cleanflight/src/main/sensors\acceleration.h ****  * You should have received a copy of the GNU General Public License
  16:D:/XMC/Projekte/Temp/CF_XMC4700/cleanflight/src/main/sensors\acceleration.h ****  * along with this software.
  17:D:/XMC/Projekte/Temp/CF_XMC4700/cleanflight/src/main/sensors\acceleration.h ****  *
  18:D:/XMC/Projekte/Temp/CF_XMC4700/cleanflight/src/main/sensors\acceleration.h ****  * If not, see <http://www.gnu.org/licenses/>.
  19:D:/XMC/Projekte/Temp/CF_XMC4700/cleanflight/src/main/sensors\acceleration.h ****  */
  20:D:/XMC/Projekte/Temp/CF_XMC4700/cleanflight/src/main/sensors\acceleration.h **** 
  21:D:/XMC/Projekte/Temp/CF_XMC4700/cleanflight/src/main/sensors\acceleration.h **** #pragma once
  22:D:/XMC/Projekte/Temp/CF_XMC4700/cleanflight/src/main/sensors\acceleration.h **** 
  23:D:/XMC/Projekte/Temp/CF_XMC4700/cleanflight/src/main/sensors\acceleration.h **** #include "common/time.h"
  24:D:/XMC/Projekte/Temp/CF_XMC4700/cleanflight/src/main/sensors\acceleration.h **** #include "pg/pg.h"
  25:D:/XMC/Projekte/Temp/CF_XMC4700/cleanflight/src/main/sensors\acceleration.h **** #include "drivers/accgyro/accgyro.h"
  26:D:/XMC/Projekte/Temp/CF_XMC4700/cleanflight/src/main/sensors\acceleration.h **** #include "sensors/sensors.h"
  27:D:/XMC/Projekte/Temp/CF_XMC4700/cleanflight/src/main/sensors\acceleration.h **** 
  28:D:/XMC/Projekte/Temp/CF_XMC4700/cleanflight/src/main/sensors\acceleration.h **** // Type of accelerometer used/detected
  29:D:/XMC/Projekte/Temp/CF_XMC4700/cleanflight/src/main/sensors\acceleration.h **** typedef enum {
  30:D:/XMC/Projekte/Temp/CF_XMC4700/cleanflight/src/main/sensors\acceleration.h ****     ACC_DEFAULT,
  31:D:/XMC/Projekte/Temp/CF_XMC4700/cleanflight/src/main/sensors\acceleration.h ****     ACC_NONE,
  32:D:/XMC/Projekte/Temp/CF_XMC4700/cleanflight/src/main/sensors\acceleration.h ****     ACC_ADXL345,
  33:D:/XMC/Projekte/Temp/CF_XMC4700/cleanflight/src/main/sensors\acceleration.h ****     ACC_MPU6050,
  34:D:/XMC/Projekte/Temp/CF_XMC4700/cleanflight/src/main/sensors\acceleration.h ****     ACC_MMA8452,
  35:D:/XMC/Projekte/Temp/CF_XMC4700/cleanflight/src/main/sensors\acceleration.h ****     ACC_BMA280,
  36:D:/XMC/Projekte/Temp/CF_XMC4700/cleanflight/src/main/sensors\acceleration.h ****     ACC_LSM303DLHC,
  37:D:/XMC/Projekte/Temp/CF_XMC4700/cleanflight/src/main/sensors\acceleration.h ****     ACC_MPU6000,
  38:D:/XMC/Projekte/Temp/CF_XMC4700/cleanflight/src/main/sensors\acceleration.h ****     ACC_MPU6500,
  39:D:/XMC/Projekte/Temp/CF_XMC4700/cleanflight/src/main/sensors\acceleration.h ****     ACC_MPU9250,
  40:D:/XMC/Projekte/Temp/CF_XMC4700/cleanflight/src/main/sensors\acceleration.h ****     ACC_ICM20601,
  41:D:/XMC/Projekte/Temp/CF_XMC4700/cleanflight/src/main/sensors\acceleration.h ****     ACC_ICM20602,
  42:D:/XMC/Projekte/Temp/CF_XMC4700/cleanflight/src/main/sensors\acceleration.h ****     ACC_ICM20608G,
  43:D:/XMC/Projekte/Temp/CF_XMC4700/cleanflight/src/main/sensors\acceleration.h ****     ACC_ICM20649,
  44:D:/XMC/Projekte/Temp/CF_XMC4700/cleanflight/src/main/sensors\acceleration.h ****     ACC_ICM20689,
  45:D:/XMC/Projekte/Temp/CF_XMC4700/cleanflight/src/main/sensors\acceleration.h ****     ACC_BMI160,
  46:D:/XMC/Projekte/Temp/CF_XMC4700/cleanflight/src/main/sensors\acceleration.h ****     ACC_FAKE
  47:D:/XMC/Projekte/Temp/CF_XMC4700/cleanflight/src/main/sensors\acceleration.h **** } accelerationSensor_e;
  48:D:/XMC/Projekte/Temp/CF_XMC4700/cleanflight/src/main/sensors\acceleration.h **** 
  49:D:/XMC/Projekte/Temp/CF_XMC4700/cleanflight/src/main/sensors\acceleration.h **** typedef struct acc_s {
  50:D:/XMC/Projekte/Temp/CF_XMC4700/cleanflight/src/main/sensors\acceleration.h ****     accDev_t dev;
  51:D:/XMC/Projekte/Temp/CF_XMC4700/cleanflight/src/main/sensors\acceleration.h ****     uint32_t accSamplingInterval;
  52:D:/XMC/Projekte/Temp/CF_XMC4700/cleanflight/src/main/sensors\acceleration.h ****     float accADC[XYZ_AXIS_COUNT];
  53:D:/XMC/Projekte/Temp/CF_XMC4700/cleanflight/src/main/sensors\acceleration.h ****     bool isAccelUpdatedAtLeastOnce;
  54:D:/XMC/Projekte/Temp/CF_XMC4700/cleanflight/src/main/sensors\acceleration.h **** } acc_t;
  55:D:/XMC/Projekte/Temp/CF_XMC4700/cleanflight/src/main/sensors\acceleration.h **** 
  56:D:/XMC/Projekte/Temp/CF_XMC4700/cleanflight/src/main/sensors\acceleration.h **** extern acc_t acc;
  57:D:/XMC/Projekte/Temp/CF_XMC4700/cleanflight/src/main/sensors\acceleration.h **** 
  58:D:/XMC/Projekte/Temp/CF_XMC4700/cleanflight/src/main/sensors\acceleration.h **** typedef struct rollAndPitchTrims_s {
  59:D:/XMC/Projekte/Temp/CF_XMC4700/cleanflight/src/main/sensors\acceleration.h ****     int16_t roll;
  60:D:/XMC/Projekte/Temp/CF_XMC4700/cleanflight/src/main/sensors\acceleration.h ****     int16_t pitch;
  61:D:/XMC/Projekte/Temp/CF_XMC4700/cleanflight/src/main/sensors\acceleration.h **** } rollAndPitchTrims_t_def;
  62:D:/XMC/Projekte/Temp/CF_XMC4700/cleanflight/src/main/sensors\acceleration.h **** 
  63:D:/XMC/Projekte/Temp/CF_XMC4700/cleanflight/src/main/sensors\acceleration.h **** typedef union rollAndPitchTrims_u {
  64:D:/XMC/Projekte/Temp/CF_XMC4700/cleanflight/src/main/sensors\acceleration.h ****     int16_t raw[2];
  65:D:/XMC/Projekte/Temp/CF_XMC4700/cleanflight/src/main/sensors\acceleration.h ****     rollAndPitchTrims_t_def values;
  66:D:/XMC/Projekte/Temp/CF_XMC4700/cleanflight/src/main/sensors\acceleration.h **** } rollAndPitchTrims_t;
  67:D:/XMC/Projekte/Temp/CF_XMC4700/cleanflight/src/main/sensors\acceleration.h **** 
  68:D:/XMC/Projekte/Temp/CF_XMC4700/cleanflight/src/main/sensors\acceleration.h **** 
  69:D:/XMC/Projekte/Temp/CF_XMC4700/cleanflight/src/main/sensors\acceleration.h **** typedef struct accelerometerConfig_s {
  70:D:/XMC/Projekte/Temp/CF_XMC4700/cleanflight/src/main/sensors\acceleration.h ****     uint16_t acc_lpf_hz;                    // cutoff frequency for the low pass filter used on the
  71:D:/XMC/Projekte/Temp/CF_XMC4700/cleanflight/src/main/sensors\acceleration.h ****     sensor_align_e acc_align;               // acc alignment
  72:D:/XMC/Projekte/Temp/CF_XMC4700/cleanflight/src/main/sensors\acceleration.h ****     uint8_t acc_hardware;                   // Which acc hardware to use on boards with more than o
  73:D:/XMC/Projekte/Temp/CF_XMC4700/cleanflight/src/main/sensors\acceleration.h ****     bool acc_high_fsr;
  74:D:/XMC/Projekte/Temp/CF_XMC4700/cleanflight/src/main/sensors\acceleration.h ****     flightDynamicsTrims_t accZero;
  75:D:/XMC/Projekte/Temp/CF_XMC4700/cleanflight/src/main/sensors\acceleration.h ****     rollAndPitchTrims_t accelerometerTrims;
  76:D:/XMC/Projekte/Temp/CF_XMC4700/cleanflight/src/main/sensors\acceleration.h **** } accelerometerConfig_t;
  77:D:/XMC/Projekte/Temp/CF_XMC4700/cleanflight/src/main/sensors\acceleration.h **** 
  78:D:/XMC/Projekte/Temp/CF_XMC4700/cleanflight/src/main/sensors\acceleration.h **** PG_DECLARE(accelerometerConfig_t, accelerometerConfig);
 543              	 .loc 10 78 0
 544              	 .cfi_startproc
 545              	 
 546              	 
 547              	 
 548 0000 80B4     	 push {r7}
 549              	.LCFI54:
 550              	 .cfi_def_cfa_offset 4
 551              	 .cfi_offset 7,-4
 552 0002 00AF     	 add r7,sp,#0
 553              	.LCFI55:
 554              	 .cfi_def_cfa_register 7
 555              	 .loc 10 78 0
 556 0004 024B     	 ldr r3,.L55
 557 0006 1846     	 mov r0,r3
 558 0008 BD46     	 mov sp,r7
 559              	.LCFI56:
 560              	 .cfi_def_cfa_register 13
 561              	 
 562 000a 5DF8047B 	 ldr r7,[sp],#4
 563              	.LCFI57:
 564              	 .cfi_restore 7
 565              	 .cfi_def_cfa_offset 0
 566 000e 7047     	 bx lr
 567              	.L56:
 568              	 .align 2
 569              	.L55:
 570 0010 00000000 	 .word accelerometerConfig_System
 571              	 .cfi_endproc
 572              	.LFE591:
 574              	 .section .text.barometerConfig,"ax",%progbits
 575              	 .align 2
 576              	 .thumb
 577              	 .thumb_func
 579              	barometerConfig:
 580              	.LFB593:
 581              	 .file 11 "D:/XMC/Projekte/Temp/CF_XMC4700/cleanflight/src/main/sensors/barometer.h"
   1:D:/XMC/Projekte/Temp/CF_XMC4700/cleanflight/src/main/sensors\barometer.h **** /*
   2:D:/XMC/Projekte/Temp/CF_XMC4700/cleanflight/src/main/sensors\barometer.h ****  * This file is part of Cleanflight and Betaflight.
   3:D:/XMC/Projekte/Temp/CF_XMC4700/cleanflight/src/main/sensors\barometer.h ****  *
   4:D:/XMC/Projekte/Temp/CF_XMC4700/cleanflight/src/main/sensors\barometer.h ****  * Cleanflight and Betaflight are free software. You can redistribute
   5:D:/XMC/Projekte/Temp/CF_XMC4700/cleanflight/src/main/sensors\barometer.h ****  * this software and/or modify this software under the terms of the
   6:D:/XMC/Projekte/Temp/CF_XMC4700/cleanflight/src/main/sensors\barometer.h ****  * GNU General Public License as published by the Free Software
   7:D:/XMC/Projekte/Temp/CF_XMC4700/cleanflight/src/main/sensors\barometer.h ****  * Foundation, either version 3 of the License, or (at your option)
   8:D:/XMC/Projekte/Temp/CF_XMC4700/cleanflight/src/main/sensors\barometer.h ****  * any later version.
   9:D:/XMC/Projekte/Temp/CF_XMC4700/cleanflight/src/main/sensors\barometer.h ****  *
  10:D:/XMC/Projekte/Temp/CF_XMC4700/cleanflight/src/main/sensors\barometer.h ****  * Cleanflight and Betaflight are distributed in the hope that they
  11:D:/XMC/Projekte/Temp/CF_XMC4700/cleanflight/src/main/sensors\barometer.h ****  * will be useful, but WITHOUT ANY WARRANTY; without even the implied
  12:D:/XMC/Projekte/Temp/CF_XMC4700/cleanflight/src/main/sensors\barometer.h ****  * warranty of MERCHANTABILITY or FITNESS FOR A PARTICULAR PURPOSE.
  13:D:/XMC/Projekte/Temp/CF_XMC4700/cleanflight/src/main/sensors\barometer.h ****  * See the GNU General Public License for more details.
  14:D:/XMC/Projekte/Temp/CF_XMC4700/cleanflight/src/main/sensors\barometer.h ****  *
  15:D:/XMC/Projekte/Temp/CF_XMC4700/cleanflight/src/main/sensors\barometer.h ****  * You should have received a copy of the GNU General Public License
  16:D:/XMC/Projekte/Temp/CF_XMC4700/cleanflight/src/main/sensors\barometer.h ****  * along with this software.
  17:D:/XMC/Projekte/Temp/CF_XMC4700/cleanflight/src/main/sensors\barometer.h ****  *
  18:D:/XMC/Projekte/Temp/CF_XMC4700/cleanflight/src/main/sensors\barometer.h ****  * If not, see <http://www.gnu.org/licenses/>.
  19:D:/XMC/Projekte/Temp/CF_XMC4700/cleanflight/src/main/sensors\barometer.h ****  */
  20:D:/XMC/Projekte/Temp/CF_XMC4700/cleanflight/src/main/sensors\barometer.h **** 
  21:D:/XMC/Projekte/Temp/CF_XMC4700/cleanflight/src/main/sensors\barometer.h **** #pragma once
  22:D:/XMC/Projekte/Temp/CF_XMC4700/cleanflight/src/main/sensors\barometer.h **** 
  23:D:/XMC/Projekte/Temp/CF_XMC4700/cleanflight/src/main/sensors\barometer.h **** #include "pg/pg.h"
  24:D:/XMC/Projekte/Temp/CF_XMC4700/cleanflight/src/main/sensors\barometer.h **** #include "drivers/barometer/barometer.h"
  25:D:/XMC/Projekte/Temp/CF_XMC4700/cleanflight/src/main/sensors\barometer.h **** 
  26:D:/XMC/Projekte/Temp/CF_XMC4700/cleanflight/src/main/sensors\barometer.h **** typedef enum {
  27:D:/XMC/Projekte/Temp/CF_XMC4700/cleanflight/src/main/sensors\barometer.h ****     BARO_DEFAULT = 0,
  28:D:/XMC/Projekte/Temp/CF_XMC4700/cleanflight/src/main/sensors\barometer.h ****     BARO_NONE = 1,
  29:D:/XMC/Projekte/Temp/CF_XMC4700/cleanflight/src/main/sensors\barometer.h ****     BARO_BMP085 = 2,
  30:D:/XMC/Projekte/Temp/CF_XMC4700/cleanflight/src/main/sensors\barometer.h ****     BARO_MS5611 = 3,
  31:D:/XMC/Projekte/Temp/CF_XMC4700/cleanflight/src/main/sensors\barometer.h ****     BARO_BMP280 = 4,
  32:D:/XMC/Projekte/Temp/CF_XMC4700/cleanflight/src/main/sensors\barometer.h ****     BARO_LPS = 5,
  33:D:/XMC/Projekte/Temp/CF_XMC4700/cleanflight/src/main/sensors\barometer.h ****     BARO_QMP6988 = 6,
  34:D:/XMC/Projekte/Temp/CF_XMC4700/cleanflight/src/main/sensors\barometer.h **** 	BARO_DPS310 = 7
  35:D:/XMC/Projekte/Temp/CF_XMC4700/cleanflight/src/main/sensors\barometer.h **** } baroSensor_e;
  36:D:/XMC/Projekte/Temp/CF_XMC4700/cleanflight/src/main/sensors\barometer.h **** 
  37:D:/XMC/Projekte/Temp/CF_XMC4700/cleanflight/src/main/sensors\barometer.h **** #define BARO_SAMPLE_COUNT_MAX   48
  38:D:/XMC/Projekte/Temp/CF_XMC4700/cleanflight/src/main/sensors\barometer.h **** 
  39:D:/XMC/Projekte/Temp/CF_XMC4700/cleanflight/src/main/sensors\barometer.h **** typedef struct barometerConfig_s {
  40:D:/XMC/Projekte/Temp/CF_XMC4700/cleanflight/src/main/sensors\barometer.h ****     uint8_t baro_bustype;
  41:D:/XMC/Projekte/Temp/CF_XMC4700/cleanflight/src/main/sensors\barometer.h ****     uint8_t baro_spi_device;
  42:D:/XMC/Projekte/Temp/CF_XMC4700/cleanflight/src/main/sensors\barometer.h ****     ioTag_t baro_spi_csn;                   // Also used as XCLR (positive logic) for BMP085
  43:D:/XMC/Projekte/Temp/CF_XMC4700/cleanflight/src/main/sensors\barometer.h ****     uint8_t baro_i2c_device;
  44:D:/XMC/Projekte/Temp/CF_XMC4700/cleanflight/src/main/sensors\barometer.h ****     uint8_t baro_i2c_address;
  45:D:/XMC/Projekte/Temp/CF_XMC4700/cleanflight/src/main/sensors\barometer.h ****     uint8_t baro_hardware;                  // Barometer hardware to use
  46:D:/XMC/Projekte/Temp/CF_XMC4700/cleanflight/src/main/sensors\barometer.h ****     uint8_t baro_sample_count;              // size of baro filter array
  47:D:/XMC/Projekte/Temp/CF_XMC4700/cleanflight/src/main/sensors\barometer.h ****     uint16_t baro_noise_lpf;                // additional LPF to reduce baro noise
  48:D:/XMC/Projekte/Temp/CF_XMC4700/cleanflight/src/main/sensors\barometer.h ****     uint16_t baro_cf_vel;                   // apply Complimentary Filter to keep the calculated ve
  49:D:/XMC/Projekte/Temp/CF_XMC4700/cleanflight/src/main/sensors\barometer.h ****     uint16_t baro_cf_alt;                   // apply CF to use ACC for height estimation
  50:D:/XMC/Projekte/Temp/CF_XMC4700/cleanflight/src/main/sensors\barometer.h **** } barometerConfig_t;
  51:D:/XMC/Projekte/Temp/CF_XMC4700/cleanflight/src/main/sensors\barometer.h **** 
  52:D:/XMC/Projekte/Temp/CF_XMC4700/cleanflight/src/main/sensors\barometer.h **** PG_DECLARE(barometerConfig_t, barometerConfig);
 582              	 .loc 11 52 0
 583              	 .cfi_startproc
 584              	 
 585              	 
 586              	 
 587 0000 80B4     	 push {r7}
 588              	.LCFI58:
 589              	 .cfi_def_cfa_offset 4
 590              	 .cfi_offset 7,-4
 591 0002 00AF     	 add r7,sp,#0
 592              	.LCFI59:
 593              	 .cfi_def_cfa_register 7
 594              	 .loc 11 52 0
 595 0004 024B     	 ldr r3,.L59
 596 0006 1846     	 mov r0,r3
 597 0008 BD46     	 mov sp,r7
 598              	.LCFI60:
 599              	 .cfi_def_cfa_register 13
 600              	 
 601 000a 5DF8047B 	 ldr r7,[sp],#4
 602              	.LCFI61:
 603              	 .cfi_restore 7
 604              	 .cfi_def_cfa_offset 0
 605 000e 7047     	 bx lr
 606              	.L60:
 607              	 .align 2
 608              	.L59:
 609 0010 00000000 	 .word barometerConfig_System
 610              	 .cfi_endproc
 611              	.LFE593:
 613              	 .section .text.currentSensorADCConfig,"ax",%progbits
 614              	 .align 2
 615              	 .thumb
 616              	 .thumb_func
 618              	currentSensorADCConfig:
 619              	.LFB595:
 620              	 .file 12 "D:/XMC/Projekte/Temp/CF_XMC4700/cleanflight/src/main/sensors/current.h"
   1:D:/XMC/Projekte/Temp/CF_XMC4700/cleanflight/src/main/sensors\current.h **** /*
   2:D:/XMC/Projekte/Temp/CF_XMC4700/cleanflight/src/main/sensors\current.h ****  * This file is part of Cleanflight and Betaflight.
   3:D:/XMC/Projekte/Temp/CF_XMC4700/cleanflight/src/main/sensors\current.h ****  *
   4:D:/XMC/Projekte/Temp/CF_XMC4700/cleanflight/src/main/sensors\current.h ****  * Cleanflight and Betaflight are free software. You can redistribute
   5:D:/XMC/Projekte/Temp/CF_XMC4700/cleanflight/src/main/sensors\current.h ****  * this software and/or modify this software under the terms of the
   6:D:/XMC/Projekte/Temp/CF_XMC4700/cleanflight/src/main/sensors\current.h ****  * GNU General Public License as published by the Free Software
   7:D:/XMC/Projekte/Temp/CF_XMC4700/cleanflight/src/main/sensors\current.h ****  * Foundation, either version 3 of the License, or (at your option)
   8:D:/XMC/Projekte/Temp/CF_XMC4700/cleanflight/src/main/sensors\current.h ****  * any later version.
   9:D:/XMC/Projekte/Temp/CF_XMC4700/cleanflight/src/main/sensors\current.h ****  *
  10:D:/XMC/Projekte/Temp/CF_XMC4700/cleanflight/src/main/sensors\current.h ****  * Cleanflight and Betaflight are distributed in the hope that they
  11:D:/XMC/Projekte/Temp/CF_XMC4700/cleanflight/src/main/sensors\current.h ****  * will be useful, but WITHOUT ANY WARRANTY; without even the implied
  12:D:/XMC/Projekte/Temp/CF_XMC4700/cleanflight/src/main/sensors\current.h ****  * warranty of MERCHANTABILITY or FITNESS FOR A PARTICULAR PURPOSE.
  13:D:/XMC/Projekte/Temp/CF_XMC4700/cleanflight/src/main/sensors\current.h ****  * See the GNU General Public License for more details.
  14:D:/XMC/Projekte/Temp/CF_XMC4700/cleanflight/src/main/sensors\current.h ****  *
  15:D:/XMC/Projekte/Temp/CF_XMC4700/cleanflight/src/main/sensors\current.h ****  * You should have received a copy of the GNU General Public License
  16:D:/XMC/Projekte/Temp/CF_XMC4700/cleanflight/src/main/sensors\current.h ****  * along with this software.
  17:D:/XMC/Projekte/Temp/CF_XMC4700/cleanflight/src/main/sensors\current.h ****  *
  18:D:/XMC/Projekte/Temp/CF_XMC4700/cleanflight/src/main/sensors\current.h ****  * If not, see <http://www.gnu.org/licenses/>.
  19:D:/XMC/Projekte/Temp/CF_XMC4700/cleanflight/src/main/sensors\current.h ****  */
  20:D:/XMC/Projekte/Temp/CF_XMC4700/cleanflight/src/main/sensors\current.h **** 
  21:D:/XMC/Projekte/Temp/CF_XMC4700/cleanflight/src/main/sensors\current.h **** #pragma once
  22:D:/XMC/Projekte/Temp/CF_XMC4700/cleanflight/src/main/sensors\current.h **** 
  23:D:/XMC/Projekte/Temp/CF_XMC4700/cleanflight/src/main/sensors\current.h **** #include "common/time.h"
  24:D:/XMC/Projekte/Temp/CF_XMC4700/cleanflight/src/main/sensors\current.h **** #include "current_ids.h"
  25:D:/XMC/Projekte/Temp/CF_XMC4700/cleanflight/src/main/sensors\current.h **** 
  26:D:/XMC/Projekte/Temp/CF_XMC4700/cleanflight/src/main/sensors\current.h **** typedef enum {
  27:D:/XMC/Projekte/Temp/CF_XMC4700/cleanflight/src/main/sensors\current.h ****     CURRENT_METER_NONE = 0,
  28:D:/XMC/Projekte/Temp/CF_XMC4700/cleanflight/src/main/sensors\current.h ****     CURRENT_METER_ADC,
  29:D:/XMC/Projekte/Temp/CF_XMC4700/cleanflight/src/main/sensors\current.h ****     CURRENT_METER_VIRTUAL,
  30:D:/XMC/Projekte/Temp/CF_XMC4700/cleanflight/src/main/sensors\current.h ****     CURRENT_METER_ESC,
  31:D:/XMC/Projekte/Temp/CF_XMC4700/cleanflight/src/main/sensors\current.h ****     CURRENT_METER_MSP,
  32:D:/XMC/Projekte/Temp/CF_XMC4700/cleanflight/src/main/sensors\current.h ****     CURRENT_METER_COUNT
  33:D:/XMC/Projekte/Temp/CF_XMC4700/cleanflight/src/main/sensors\current.h **** } currentMeterSource_e;
  34:D:/XMC/Projekte/Temp/CF_XMC4700/cleanflight/src/main/sensors\current.h **** 
  35:D:/XMC/Projekte/Temp/CF_XMC4700/cleanflight/src/main/sensors\current.h **** extern const char * const currentMeterSourceNames[CURRENT_METER_COUNT];
  36:D:/XMC/Projekte/Temp/CF_XMC4700/cleanflight/src/main/sensors\current.h **** 
  37:D:/XMC/Projekte/Temp/CF_XMC4700/cleanflight/src/main/sensors\current.h **** typedef struct currentMeter_s {
  38:D:/XMC/Projekte/Temp/CF_XMC4700/cleanflight/src/main/sensors\current.h ****     int32_t amperage;           // current read by current sensor in centiampere (1/100th A)
  39:D:/XMC/Projekte/Temp/CF_XMC4700/cleanflight/src/main/sensors\current.h ****     int32_t amperageLatest;     // current read by current sensor in centiampere (1/100th A) (unfil
  40:D:/XMC/Projekte/Temp/CF_XMC4700/cleanflight/src/main/sensors\current.h ****     int32_t mAhDrawn;           // milliampere hours drawn from the battery since start
  41:D:/XMC/Projekte/Temp/CF_XMC4700/cleanflight/src/main/sensors\current.h **** } currentMeter_t;
  42:D:/XMC/Projekte/Temp/CF_XMC4700/cleanflight/src/main/sensors\current.h **** 
  43:D:/XMC/Projekte/Temp/CF_XMC4700/cleanflight/src/main/sensors\current.h **** // WARNING - do not mix usage of CURRENT_SENSOR_* and CURRENT_METER_*, they are separate concerns.
  44:D:/XMC/Projekte/Temp/CF_XMC4700/cleanflight/src/main/sensors\current.h **** 
  45:D:/XMC/Projekte/Temp/CF_XMC4700/cleanflight/src/main/sensors\current.h **** typedef struct currentMeterMAhDrawnState_s {
  46:D:/XMC/Projekte/Temp/CF_XMC4700/cleanflight/src/main/sensors\current.h ****     int32_t mAhDrawn;           // milliampere hours drawn from the battery since start
  47:D:/XMC/Projekte/Temp/CF_XMC4700/cleanflight/src/main/sensors\current.h ****     float mAhDrawnF;
  48:D:/XMC/Projekte/Temp/CF_XMC4700/cleanflight/src/main/sensors\current.h **** } currentMeterMAhDrawnState_t;
  49:D:/XMC/Projekte/Temp/CF_XMC4700/cleanflight/src/main/sensors\current.h **** 
  50:D:/XMC/Projekte/Temp/CF_XMC4700/cleanflight/src/main/sensors\current.h **** //
  51:D:/XMC/Projekte/Temp/CF_XMC4700/cleanflight/src/main/sensors\current.h **** // Sensors
  52:D:/XMC/Projekte/Temp/CF_XMC4700/cleanflight/src/main/sensors\current.h **** //
  53:D:/XMC/Projekte/Temp/CF_XMC4700/cleanflight/src/main/sensors\current.h **** 
  54:D:/XMC/Projekte/Temp/CF_XMC4700/cleanflight/src/main/sensors\current.h **** typedef enum {
  55:D:/XMC/Projekte/Temp/CF_XMC4700/cleanflight/src/main/sensors\current.h ****     CURRENT_SENSOR_VIRTUAL = 0,
  56:D:/XMC/Projekte/Temp/CF_XMC4700/cleanflight/src/main/sensors\current.h ****     CURRENT_SENSOR_ADC,
  57:D:/XMC/Projekte/Temp/CF_XMC4700/cleanflight/src/main/sensors\current.h ****     CURRENT_SENSOR_ESC,
  58:D:/XMC/Projekte/Temp/CF_XMC4700/cleanflight/src/main/sensors\current.h ****     CURRENT_SENSOR_MSP
  59:D:/XMC/Projekte/Temp/CF_XMC4700/cleanflight/src/main/sensors\current.h **** } currentSensor_e;
  60:D:/XMC/Projekte/Temp/CF_XMC4700/cleanflight/src/main/sensors\current.h **** 
  61:D:/XMC/Projekte/Temp/CF_XMC4700/cleanflight/src/main/sensors\current.h **** 
  62:D:/XMC/Projekte/Temp/CF_XMC4700/cleanflight/src/main/sensors\current.h **** //
  63:D:/XMC/Projekte/Temp/CF_XMC4700/cleanflight/src/main/sensors\current.h **** // ADC
  64:D:/XMC/Projekte/Temp/CF_XMC4700/cleanflight/src/main/sensors\current.h **** //
  65:D:/XMC/Projekte/Temp/CF_XMC4700/cleanflight/src/main/sensors\current.h **** 
  66:D:/XMC/Projekte/Temp/CF_XMC4700/cleanflight/src/main/sensors\current.h **** typedef struct currentMeterADCState_s {
  67:D:/XMC/Projekte/Temp/CF_XMC4700/cleanflight/src/main/sensors\current.h ****     currentMeterMAhDrawnState_t mahDrawnState;
  68:D:/XMC/Projekte/Temp/CF_XMC4700/cleanflight/src/main/sensors\current.h ****     int32_t amperage;           // current read by current sensor in centiampere (1/100th A)
  69:D:/XMC/Projekte/Temp/CF_XMC4700/cleanflight/src/main/sensors\current.h ****     int32_t amperageLatest;     // current read by current sensor in centiampere (1/100th A) (unfil
  70:D:/XMC/Projekte/Temp/CF_XMC4700/cleanflight/src/main/sensors\current.h **** } currentMeterADCState_t;
  71:D:/XMC/Projekte/Temp/CF_XMC4700/cleanflight/src/main/sensors\current.h **** 
  72:D:/XMC/Projekte/Temp/CF_XMC4700/cleanflight/src/main/sensors\current.h **** typedef struct currentSensorADCConfig_s {
  73:D:/XMC/Projekte/Temp/CF_XMC4700/cleanflight/src/main/sensors\current.h ****     int16_t scale;              // scale the current sensor output voltage to milliamps. Value in m
  74:D:/XMC/Projekte/Temp/CF_XMC4700/cleanflight/src/main/sensors\current.h ****     int16_t offset;             // offset of the current sensor in mA
  75:D:/XMC/Projekte/Temp/CF_XMC4700/cleanflight/src/main/sensors\current.h **** } currentSensorADCConfig_t;
  76:D:/XMC/Projekte/Temp/CF_XMC4700/cleanflight/src/main/sensors\current.h **** 
  77:D:/XMC/Projekte/Temp/CF_XMC4700/cleanflight/src/main/sensors\current.h **** PG_DECLARE(currentSensorADCConfig_t, currentSensorADCConfig);
 621              	 .loc 12 77 0
 622              	 .cfi_startproc
 623              	 
 624              	 
 625              	 
 626 0000 80B4     	 push {r7}
 627              	.LCFI62:
 628              	 .cfi_def_cfa_offset 4
 629              	 .cfi_offset 7,-4
 630 0002 00AF     	 add r7,sp,#0
 631              	.LCFI63:
 632              	 .cfi_def_cfa_register 7
 633              	 .loc 12 77 0
 634 0004 024B     	 ldr r3,.L63
 635 0006 1846     	 mov r0,r3
 636 0008 BD46     	 mov sp,r7
 637              	.LCFI64:
 638              	 .cfi_def_cfa_register 13
 639              	 
 640 000a 5DF8047B 	 ldr r7,[sp],#4
 641              	.LCFI65:
 642              	 .cfi_restore 7
 643              	 .cfi_def_cfa_offset 0
 644 000e 7047     	 bx lr
 645              	.L64:
 646              	 .align 2
 647              	.L63:
 648 0010 00000000 	 .word currentSensorADCConfig_System
 649              	 .cfi_endproc
 650              	.LFE595:
 652              	 .section .text.voltageSensorADCConfig,"ax",%progbits
 653              	 .align 2
 654              	 .thumb
 655              	 .thumb_func
 657              	voltageSensorADCConfig:
 658              	.LFB599:
 659              	 .file 13 "D:/XMC/Projekte/Temp/CF_XMC4700/cleanflight/src/main/sensors/voltage.h"
   1:D:/XMC/Projekte/Temp/CF_XMC4700/cleanflight/src/main/sensors\voltage.h **** /*
   2:D:/XMC/Projekte/Temp/CF_XMC4700/cleanflight/src/main/sensors\voltage.h ****  * This file is part of Cleanflight and Betaflight.
   3:D:/XMC/Projekte/Temp/CF_XMC4700/cleanflight/src/main/sensors\voltage.h ****  *
   4:D:/XMC/Projekte/Temp/CF_XMC4700/cleanflight/src/main/sensors\voltage.h ****  * Cleanflight and Betaflight are free software. You can redistribute
   5:D:/XMC/Projekte/Temp/CF_XMC4700/cleanflight/src/main/sensors\voltage.h ****  * this software and/or modify this software under the terms of the
   6:D:/XMC/Projekte/Temp/CF_XMC4700/cleanflight/src/main/sensors\voltage.h ****  * GNU General Public License as published by the Free Software
   7:D:/XMC/Projekte/Temp/CF_XMC4700/cleanflight/src/main/sensors\voltage.h ****  * Foundation, either version 3 of the License, or (at your option)
   8:D:/XMC/Projekte/Temp/CF_XMC4700/cleanflight/src/main/sensors\voltage.h ****  * any later version.
   9:D:/XMC/Projekte/Temp/CF_XMC4700/cleanflight/src/main/sensors\voltage.h ****  *
  10:D:/XMC/Projekte/Temp/CF_XMC4700/cleanflight/src/main/sensors\voltage.h ****  * Cleanflight and Betaflight are distributed in the hope that they
  11:D:/XMC/Projekte/Temp/CF_XMC4700/cleanflight/src/main/sensors\voltage.h ****  * will be useful, but WITHOUT ANY WARRANTY; without even the implied
  12:D:/XMC/Projekte/Temp/CF_XMC4700/cleanflight/src/main/sensors\voltage.h ****  * warranty of MERCHANTABILITY or FITNESS FOR A PARTICULAR PURPOSE.
  13:D:/XMC/Projekte/Temp/CF_XMC4700/cleanflight/src/main/sensors\voltage.h ****  * See the GNU General Public License for more details.
  14:D:/XMC/Projekte/Temp/CF_XMC4700/cleanflight/src/main/sensors\voltage.h ****  *
  15:D:/XMC/Projekte/Temp/CF_XMC4700/cleanflight/src/main/sensors\voltage.h ****  * You should have received a copy of the GNU General Public License
  16:D:/XMC/Projekte/Temp/CF_XMC4700/cleanflight/src/main/sensors\voltage.h ****  * along with this software.
  17:D:/XMC/Projekte/Temp/CF_XMC4700/cleanflight/src/main/sensors\voltage.h ****  *
  18:D:/XMC/Projekte/Temp/CF_XMC4700/cleanflight/src/main/sensors\voltage.h ****  * If not, see <http://www.gnu.org/licenses/>.
  19:D:/XMC/Projekte/Temp/CF_XMC4700/cleanflight/src/main/sensors\voltage.h ****  */
  20:D:/XMC/Projekte/Temp/CF_XMC4700/cleanflight/src/main/sensors\voltage.h **** 
  21:D:/XMC/Projekte/Temp/CF_XMC4700/cleanflight/src/main/sensors\voltage.h **** #pragma once
  22:D:/XMC/Projekte/Temp/CF_XMC4700/cleanflight/src/main/sensors\voltage.h **** 
  23:D:/XMC/Projekte/Temp/CF_XMC4700/cleanflight/src/main/sensors\voltage.h **** #include "voltage_ids.h"
  24:D:/XMC/Projekte/Temp/CF_XMC4700/cleanflight/src/main/sensors\voltage.h **** 
  25:D:/XMC/Projekte/Temp/CF_XMC4700/cleanflight/src/main/sensors\voltage.h **** //
  26:D:/XMC/Projekte/Temp/CF_XMC4700/cleanflight/src/main/sensors\voltage.h **** // meters
  27:D:/XMC/Projekte/Temp/CF_XMC4700/cleanflight/src/main/sensors\voltage.h **** //
  28:D:/XMC/Projekte/Temp/CF_XMC4700/cleanflight/src/main/sensors\voltage.h **** 
  29:D:/XMC/Projekte/Temp/CF_XMC4700/cleanflight/src/main/sensors\voltage.h **** typedef enum {
  30:D:/XMC/Projekte/Temp/CF_XMC4700/cleanflight/src/main/sensors\voltage.h ****     VOLTAGE_METER_NONE = 0,
  31:D:/XMC/Projekte/Temp/CF_XMC4700/cleanflight/src/main/sensors\voltage.h ****     VOLTAGE_METER_ADC,
  32:D:/XMC/Projekte/Temp/CF_XMC4700/cleanflight/src/main/sensors\voltage.h ****     VOLTAGE_METER_ESC,
  33:D:/XMC/Projekte/Temp/CF_XMC4700/cleanflight/src/main/sensors\voltage.h ****     VOLTAGE_METER_COUNT
  34:D:/XMC/Projekte/Temp/CF_XMC4700/cleanflight/src/main/sensors\voltage.h **** } voltageMeterSource_e;
  35:D:/XMC/Projekte/Temp/CF_XMC4700/cleanflight/src/main/sensors\voltage.h **** 
  36:D:/XMC/Projekte/Temp/CF_XMC4700/cleanflight/src/main/sensors\voltage.h **** extern const char * const voltageMeterSourceNames[VOLTAGE_METER_COUNT];
  37:D:/XMC/Projekte/Temp/CF_XMC4700/cleanflight/src/main/sensors\voltage.h **** 
  38:D:/XMC/Projekte/Temp/CF_XMC4700/cleanflight/src/main/sensors\voltage.h **** // WARNING - do not mix usage of VOLTAGE_METER_* and VOLTAGE_SENSOR_*, they are separate concerns.
  39:D:/XMC/Projekte/Temp/CF_XMC4700/cleanflight/src/main/sensors\voltage.h **** 
  40:D:/XMC/Projekte/Temp/CF_XMC4700/cleanflight/src/main/sensors\voltage.h **** typedef struct voltageMeter_s {
  41:D:/XMC/Projekte/Temp/CF_XMC4700/cleanflight/src/main/sensors\voltage.h ****     uint16_t filtered;                      // voltage in 0.1V steps
  42:D:/XMC/Projekte/Temp/CF_XMC4700/cleanflight/src/main/sensors\voltage.h ****     uint16_t unfiltered;                    // voltage in 0.1V steps
  43:D:/XMC/Projekte/Temp/CF_XMC4700/cleanflight/src/main/sensors\voltage.h ****     bool lowVoltageCutoff;
  44:D:/XMC/Projekte/Temp/CF_XMC4700/cleanflight/src/main/sensors\voltage.h **** } voltageMeter_t;
  45:D:/XMC/Projekte/Temp/CF_XMC4700/cleanflight/src/main/sensors\voltage.h **** 
  46:D:/XMC/Projekte/Temp/CF_XMC4700/cleanflight/src/main/sensors\voltage.h **** 
  47:D:/XMC/Projekte/Temp/CF_XMC4700/cleanflight/src/main/sensors\voltage.h **** //
  48:D:/XMC/Projekte/Temp/CF_XMC4700/cleanflight/src/main/sensors\voltage.h **** // sensors
  49:D:/XMC/Projekte/Temp/CF_XMC4700/cleanflight/src/main/sensors\voltage.h **** //
  50:D:/XMC/Projekte/Temp/CF_XMC4700/cleanflight/src/main/sensors\voltage.h **** 
  51:D:/XMC/Projekte/Temp/CF_XMC4700/cleanflight/src/main/sensors\voltage.h **** typedef enum {
  52:D:/XMC/Projekte/Temp/CF_XMC4700/cleanflight/src/main/sensors\voltage.h ****     VOLTAGE_SENSOR_TYPE_ADC_RESISTOR_DIVIDER = 0,
  53:D:/XMC/Projekte/Temp/CF_XMC4700/cleanflight/src/main/sensors\voltage.h ****     VOLTAGE_SENSOR_TYPE_ESC
  54:D:/XMC/Projekte/Temp/CF_XMC4700/cleanflight/src/main/sensors\voltage.h **** } voltageSensorType_e;
  55:D:/XMC/Projekte/Temp/CF_XMC4700/cleanflight/src/main/sensors\voltage.h **** 
  56:D:/XMC/Projekte/Temp/CF_XMC4700/cleanflight/src/main/sensors\voltage.h **** 
  57:D:/XMC/Projekte/Temp/CF_XMC4700/cleanflight/src/main/sensors\voltage.h **** //
  58:D:/XMC/Projekte/Temp/CF_XMC4700/cleanflight/src/main/sensors\voltage.h **** // adc sensors
  59:D:/XMC/Projekte/Temp/CF_XMC4700/cleanflight/src/main/sensors\voltage.h **** //
  60:D:/XMC/Projekte/Temp/CF_XMC4700/cleanflight/src/main/sensors\voltage.h **** 
  61:D:/XMC/Projekte/Temp/CF_XMC4700/cleanflight/src/main/sensors\voltage.h **** #define VBAT_SCALE_MIN 0
  62:D:/XMC/Projekte/Temp/CF_XMC4700/cleanflight/src/main/sensors\voltage.h **** #define VBAT_SCALE_MAX 255
  63:D:/XMC/Projekte/Temp/CF_XMC4700/cleanflight/src/main/sensors\voltage.h **** 
  64:D:/XMC/Projekte/Temp/CF_XMC4700/cleanflight/src/main/sensors\voltage.h **** #define VBAT_DIVIDER_MIN 1
  65:D:/XMC/Projekte/Temp/CF_XMC4700/cleanflight/src/main/sensors\voltage.h **** #define VBAT_DIVIDER_MAX 255
  66:D:/XMC/Projekte/Temp/CF_XMC4700/cleanflight/src/main/sensors\voltage.h **** 
  67:D:/XMC/Projekte/Temp/CF_XMC4700/cleanflight/src/main/sensors\voltage.h **** #define VBAT_MULTIPLIER_MIN 1
  68:D:/XMC/Projekte/Temp/CF_XMC4700/cleanflight/src/main/sensors\voltage.h **** #define VBAT_MULTIPLIER_MAX 255
  69:D:/XMC/Projekte/Temp/CF_XMC4700/cleanflight/src/main/sensors\voltage.h **** 
  70:D:/XMC/Projekte/Temp/CF_XMC4700/cleanflight/src/main/sensors\voltage.h **** #ifndef VBAT_LPF_FREQ
  71:D:/XMC/Projekte/Temp/CF_XMC4700/cleanflight/src/main/sensors\voltage.h **** #define VBAT_LPF_FREQ  0.1f
  72:D:/XMC/Projekte/Temp/CF_XMC4700/cleanflight/src/main/sensors\voltage.h **** #endif
  73:D:/XMC/Projekte/Temp/CF_XMC4700/cleanflight/src/main/sensors\voltage.h **** 
  74:D:/XMC/Projekte/Temp/CF_XMC4700/cleanflight/src/main/sensors\voltage.h **** #ifndef MAX_VOLTAGE_SENSOR_ADC
  75:D:/XMC/Projekte/Temp/CF_XMC4700/cleanflight/src/main/sensors\voltage.h **** #define MAX_VOLTAGE_SENSOR_ADC 1 // VBAT - some boards have external, 12V, 9V and 5V meters.
  76:D:/XMC/Projekte/Temp/CF_XMC4700/cleanflight/src/main/sensors\voltage.h **** #endif
  77:D:/XMC/Projekte/Temp/CF_XMC4700/cleanflight/src/main/sensors\voltage.h **** 
  78:D:/XMC/Projekte/Temp/CF_XMC4700/cleanflight/src/main/sensors\voltage.h **** #define VOLTAGE_METER_ID_ESC_COUNT 12
  79:D:/XMC/Projekte/Temp/CF_XMC4700/cleanflight/src/main/sensors\voltage.h **** 
  80:D:/XMC/Projekte/Temp/CF_XMC4700/cleanflight/src/main/sensors\voltage.h **** typedef enum {
  81:D:/XMC/Projekte/Temp/CF_XMC4700/cleanflight/src/main/sensors\voltage.h ****     VOLTAGE_SENSOR_ADC_VBAT = 0,
  82:D:/XMC/Projekte/Temp/CF_XMC4700/cleanflight/src/main/sensors\voltage.h ****     VOLTAGE_SENSOR_ADC_12V = 1,
  83:D:/XMC/Projekte/Temp/CF_XMC4700/cleanflight/src/main/sensors\voltage.h ****     VOLTAGE_SENSOR_ADC_9V = 2,
  84:D:/XMC/Projekte/Temp/CF_XMC4700/cleanflight/src/main/sensors\voltage.h ****     VOLTAGE_SENSOR_ADC_5V = 3
  85:D:/XMC/Projekte/Temp/CF_XMC4700/cleanflight/src/main/sensors\voltage.h **** } voltageSensorADC_e; // see also voltageMeterADCtoIDMap
  86:D:/XMC/Projekte/Temp/CF_XMC4700/cleanflight/src/main/sensors\voltage.h **** 
  87:D:/XMC/Projekte/Temp/CF_XMC4700/cleanflight/src/main/sensors\voltage.h **** 
  88:D:/XMC/Projekte/Temp/CF_XMC4700/cleanflight/src/main/sensors\voltage.h **** typedef struct voltageSensorADCConfig_s {
  89:D:/XMC/Projekte/Temp/CF_XMC4700/cleanflight/src/main/sensors\voltage.h ****     uint8_t vbatscale;                      // adjust this to match battery voltage to reported val
  90:D:/XMC/Projekte/Temp/CF_XMC4700/cleanflight/src/main/sensors\voltage.h ****     uint8_t vbatresdivval;                  // resistor divider R2 (default NAZE 10(K))
  91:D:/XMC/Projekte/Temp/CF_XMC4700/cleanflight/src/main/sensors\voltage.h ****     uint8_t vbatresdivmultiplier;           // multiplier for scale (e.g. 2.5:1 ratio with multipli
  92:D:/XMC/Projekte/Temp/CF_XMC4700/cleanflight/src/main/sensors\voltage.h **** } voltageSensorADCConfig_t;
  93:D:/XMC/Projekte/Temp/CF_XMC4700/cleanflight/src/main/sensors\voltage.h **** 
  94:D:/XMC/Projekte/Temp/CF_XMC4700/cleanflight/src/main/sensors\voltage.h **** PG_DECLARE_ARRAY(voltageSensorADCConfig_t, MAX_VOLTAGE_SENSOR_ADC, voltageSensorADCConfig);
 660              	 .loc 13 94 0
 661              	 .cfi_startproc
 662              	 
 663              	 
 664              	 
 665 0000 80B4     	 push {r7}
 666              	.LCFI66:
 667              	 .cfi_def_cfa_offset 4
 668              	 .cfi_offset 7,-4
 669 0002 83B0     	 sub sp,sp,#12
 670              	.LCFI67:
 671              	 .cfi_def_cfa_offset 16
 672 0004 00AF     	 add r7,sp,#0
 673              	.LCFI68:
 674              	 .cfi_def_cfa_register 7
 675 0006 7860     	 str r0,[r7,#4]
 676              	 .loc 13 94 0
 677 0008 7A68     	 ldr r2,[r7,#4]
 678 000a 1346     	 mov r3,r2
 679 000c 5B00     	 lsls r3,r3,#1
 680 000e 1344     	 add r3,r3,r2
 681 0010 034A     	 ldr r2,.L67
 682 0012 1344     	 add r3,r3,r2
 683 0014 1846     	 mov r0,r3
 684 0016 0C37     	 adds r7,r7,#12
 685              	.LCFI69:
 686              	 .cfi_def_cfa_offset 4
 687 0018 BD46     	 mov sp,r7
 688              	.LCFI70:
 689              	 .cfi_def_cfa_register 13
 690              	 
 691 001a 5DF8047B 	 ldr r7,[sp],#4
 692              	.LCFI71:
 693              	 .cfi_restore 7
 694              	 .cfi_def_cfa_offset 0
 695 001e 7047     	 bx lr
 696              	.L68:
 697              	 .align 2
 698              	.L67:
 699 0020 00000000 	 .word voltageSensorADCConfig_SystemArray
 700              	 .cfi_endproc
 701              	.LFE599:
 703              	 .section .text.batteryConfig,"ax",%progbits
 704              	 .align 2
 705              	 .thumb
 706              	 .thumb_func
 708              	batteryConfig:
 709              	.LFB602:
 710              	 .file 14 "D:/XMC/Projekte/Temp/CF_XMC4700/cleanflight/src/main/sensors/battery.h"
   1:D:/XMC/Projekte/Temp/CF_XMC4700/cleanflight/src/main/sensors\battery.h **** /*
   2:D:/XMC/Projekte/Temp/CF_XMC4700/cleanflight/src/main/sensors\battery.h ****  * This file is part of Cleanflight and Betaflight.
   3:D:/XMC/Projekte/Temp/CF_XMC4700/cleanflight/src/main/sensors\battery.h ****  *
   4:D:/XMC/Projekte/Temp/CF_XMC4700/cleanflight/src/main/sensors\battery.h ****  * Cleanflight and Betaflight are free software. You can redistribute
   5:D:/XMC/Projekte/Temp/CF_XMC4700/cleanflight/src/main/sensors\battery.h ****  * this software and/or modify this software under the terms of the
   6:D:/XMC/Projekte/Temp/CF_XMC4700/cleanflight/src/main/sensors\battery.h ****  * GNU General Public License as published by the Free Software
   7:D:/XMC/Projekte/Temp/CF_XMC4700/cleanflight/src/main/sensors\battery.h ****  * Foundation, either version 3 of the License, or (at your option)
   8:D:/XMC/Projekte/Temp/CF_XMC4700/cleanflight/src/main/sensors\battery.h ****  * any later version.
   9:D:/XMC/Projekte/Temp/CF_XMC4700/cleanflight/src/main/sensors\battery.h ****  *
  10:D:/XMC/Projekte/Temp/CF_XMC4700/cleanflight/src/main/sensors\battery.h ****  * Cleanflight and Betaflight are distributed in the hope that they
  11:D:/XMC/Projekte/Temp/CF_XMC4700/cleanflight/src/main/sensors\battery.h ****  * will be useful, but WITHOUT ANY WARRANTY; without even the implied
  12:D:/XMC/Projekte/Temp/CF_XMC4700/cleanflight/src/main/sensors\battery.h ****  * warranty of MERCHANTABILITY or FITNESS FOR A PARTICULAR PURPOSE.
  13:D:/XMC/Projekte/Temp/CF_XMC4700/cleanflight/src/main/sensors\battery.h ****  * See the GNU General Public License for more details.
  14:D:/XMC/Projekte/Temp/CF_XMC4700/cleanflight/src/main/sensors\battery.h ****  *
  15:D:/XMC/Projekte/Temp/CF_XMC4700/cleanflight/src/main/sensors\battery.h ****  * You should have received a copy of the GNU General Public License
  16:D:/XMC/Projekte/Temp/CF_XMC4700/cleanflight/src/main/sensors\battery.h ****  * along with this software.
  17:D:/XMC/Projekte/Temp/CF_XMC4700/cleanflight/src/main/sensors\battery.h ****  *
  18:D:/XMC/Projekte/Temp/CF_XMC4700/cleanflight/src/main/sensors\battery.h ****  * If not, see <http://www.gnu.org/licenses/>.
  19:D:/XMC/Projekte/Temp/CF_XMC4700/cleanflight/src/main/sensors\battery.h ****  */
  20:D:/XMC/Projekte/Temp/CF_XMC4700/cleanflight/src/main/sensors\battery.h **** 
  21:D:/XMC/Projekte/Temp/CF_XMC4700/cleanflight/src/main/sensors\battery.h **** #pragma once
  22:D:/XMC/Projekte/Temp/CF_XMC4700/cleanflight/src/main/sensors\battery.h **** 
  23:D:/XMC/Projekte/Temp/CF_XMC4700/cleanflight/src/main/sensors\battery.h **** #include "pg/pg.h"
  24:D:/XMC/Projekte/Temp/CF_XMC4700/cleanflight/src/main/sensors\battery.h **** 
  25:D:/XMC/Projekte/Temp/CF_XMC4700/cleanflight/src/main/sensors\battery.h **** #include "common/filter.h"
  26:D:/XMC/Projekte/Temp/CF_XMC4700/cleanflight/src/main/sensors\battery.h **** #include "common/time.h"
  27:D:/XMC/Projekte/Temp/CF_XMC4700/cleanflight/src/main/sensors\battery.h **** #include "sensors/current.h"
  28:D:/XMC/Projekte/Temp/CF_XMC4700/cleanflight/src/main/sensors\battery.h **** #include "sensors/voltage.h"
  29:D:/XMC/Projekte/Temp/CF_XMC4700/cleanflight/src/main/sensors\battery.h **** 
  30:D:/XMC/Projekte/Temp/CF_XMC4700/cleanflight/src/main/sensors\battery.h **** typedef struct batteryConfig_s {
  31:D:/XMC/Projekte/Temp/CF_XMC4700/cleanflight/src/main/sensors\battery.h ****     // voltage
  32:D:/XMC/Projekte/Temp/CF_XMC4700/cleanflight/src/main/sensors\battery.h ****     uint8_t vbatmaxcellvoltage;             // maximum voltage per cell, used for auto-detecting ba
  33:D:/XMC/Projekte/Temp/CF_XMC4700/cleanflight/src/main/sensors\battery.h ****     uint8_t vbatmincellvoltage;             // minimum voltage per cell, this triggers battery crit
  34:D:/XMC/Projekte/Temp/CF_XMC4700/cleanflight/src/main/sensors\battery.h ****     uint8_t vbatwarningcellvoltage;         // warning voltage per cell, this triggers battery warn
  35:D:/XMC/Projekte/Temp/CF_XMC4700/cleanflight/src/main/sensors\battery.h ****     uint8_t vbatnotpresentcellvoltage;      // Between vbatmaxcellvoltage and 2*this is considered 
  36:D:/XMC/Projekte/Temp/CF_XMC4700/cleanflight/src/main/sensors\battery.h ****     uint8_t lvcPercentage;                  // Percentage of throttle when lvc is triggered
  37:D:/XMC/Projekte/Temp/CF_XMC4700/cleanflight/src/main/sensors\battery.h ****     voltageMeterSource_e voltageMeterSource; // source of battery voltage meter used, either ADC or
  38:D:/XMC/Projekte/Temp/CF_XMC4700/cleanflight/src/main/sensors\battery.h **** 
  39:D:/XMC/Projekte/Temp/CF_XMC4700/cleanflight/src/main/sensors\battery.h ****     // current
  40:D:/XMC/Projekte/Temp/CF_XMC4700/cleanflight/src/main/sensors\battery.h ****     currentMeterSource_e currentMeterSource; // source of battery current meter used, either ADC, V
  41:D:/XMC/Projekte/Temp/CF_XMC4700/cleanflight/src/main/sensors\battery.h ****     uint16_t batteryCapacity;               // mAh
  42:D:/XMC/Projekte/Temp/CF_XMC4700/cleanflight/src/main/sensors\battery.h **** 
  43:D:/XMC/Projekte/Temp/CF_XMC4700/cleanflight/src/main/sensors\battery.h ****     // warnings / alerts
  44:D:/XMC/Projekte/Temp/CF_XMC4700/cleanflight/src/main/sensors\battery.h ****     bool useVBatAlerts;                     // Issue alerts based on VBat readings
  45:D:/XMC/Projekte/Temp/CF_XMC4700/cleanflight/src/main/sensors\battery.h ****     bool useConsumptionAlerts;              // Issue alerts based on total power consumption
  46:D:/XMC/Projekte/Temp/CF_XMC4700/cleanflight/src/main/sensors\battery.h ****     uint8_t consumptionWarningPercentage;   // Percentage of remaining capacity that should trigger
  47:D:/XMC/Projekte/Temp/CF_XMC4700/cleanflight/src/main/sensors\battery.h ****     uint8_t vbathysteresis;                 // hysteresis for alarm, default 1 = 0.1V
  48:D:/XMC/Projekte/Temp/CF_XMC4700/cleanflight/src/main/sensors\battery.h **** 
  49:D:/XMC/Projekte/Temp/CF_XMC4700/cleanflight/src/main/sensors\battery.h ****     uint8_t vbatfullcellvoltage;            // Cell voltage at which the battery is deemed to be "f
  50:D:/XMC/Projekte/Temp/CF_XMC4700/cleanflight/src/main/sensors\battery.h **** 
  51:D:/XMC/Projekte/Temp/CF_XMC4700/cleanflight/src/main/sensors\battery.h **** } batteryConfig_t;
  52:D:/XMC/Projekte/Temp/CF_XMC4700/cleanflight/src/main/sensors\battery.h **** 
  53:D:/XMC/Projekte/Temp/CF_XMC4700/cleanflight/src/main/sensors\battery.h **** typedef struct lowVoltageCutoff_s {
  54:D:/XMC/Projekte/Temp/CF_XMC4700/cleanflight/src/main/sensors\battery.h ****     bool enabled;
  55:D:/XMC/Projekte/Temp/CF_XMC4700/cleanflight/src/main/sensors\battery.h ****     uint8_t percentage;
  56:D:/XMC/Projekte/Temp/CF_XMC4700/cleanflight/src/main/sensors\battery.h ****     timeUs_t startTime;
  57:D:/XMC/Projekte/Temp/CF_XMC4700/cleanflight/src/main/sensors\battery.h **** } lowVoltageCutoff_t;
  58:D:/XMC/Projekte/Temp/CF_XMC4700/cleanflight/src/main/sensors\battery.h **** 
  59:D:/XMC/Projekte/Temp/CF_XMC4700/cleanflight/src/main/sensors\battery.h **** PG_DECLARE(batteryConfig_t, batteryConfig);
 711              	 .loc 14 59 0
 712              	 .cfi_startproc
 713              	 
 714              	 
 715              	 
 716 0000 80B4     	 push {r7}
 717              	.LCFI72:
 718              	 .cfi_def_cfa_offset 4
 719              	 .cfi_offset 7,-4
 720 0002 00AF     	 add r7,sp,#0
 721              	.LCFI73:
 722              	 .cfi_def_cfa_register 7
 723              	 .loc 14 59 0
 724 0004 024B     	 ldr r3,.L71
 725 0006 1846     	 mov r0,r3
 726 0008 BD46     	 mov sp,r7
 727              	.LCFI74:
 728              	 .cfi_def_cfa_register 13
 729              	 
 730 000a 5DF8047B 	 ldr r7,[sp],#4
 731              	.LCFI75:
 732              	 .cfi_restore 7
 733              	 .cfi_def_cfa_offset 0
 734 000e 7047     	 bx lr
 735              	.L72:
 736              	 .align 2
 737              	.L71:
 738 0010 00000000 	 .word batteryConfig_System
 739              	 .cfi_endproc
 740              	.LFE602:
 742              	 .section .text.compassConfig,"ax",%progbits
 743              	 .align 2
 744              	 .thumb
 745              	 .thumb_func
 747              	compassConfig:
 748              	.LFB604:
 749              	 .file 15 "D:/XMC/Projekte/Temp/CF_XMC4700/cleanflight/src/main/sensors/compass.h"
   1:D:/XMC/Projekte/Temp/CF_XMC4700/cleanflight/src/main/sensors\compass.h **** /*
   2:D:/XMC/Projekte/Temp/CF_XMC4700/cleanflight/src/main/sensors\compass.h ****  * This file is part of Cleanflight and Betaflight.
   3:D:/XMC/Projekte/Temp/CF_XMC4700/cleanflight/src/main/sensors\compass.h ****  *
   4:D:/XMC/Projekte/Temp/CF_XMC4700/cleanflight/src/main/sensors\compass.h ****  * Cleanflight and Betaflight are free software. You can redistribute
   5:D:/XMC/Projekte/Temp/CF_XMC4700/cleanflight/src/main/sensors\compass.h ****  * this software and/or modify this software under the terms of the
   6:D:/XMC/Projekte/Temp/CF_XMC4700/cleanflight/src/main/sensors\compass.h ****  * GNU General Public License as published by the Free Software
   7:D:/XMC/Projekte/Temp/CF_XMC4700/cleanflight/src/main/sensors\compass.h ****  * Foundation, either version 3 of the License, or (at your option)
   8:D:/XMC/Projekte/Temp/CF_XMC4700/cleanflight/src/main/sensors\compass.h ****  * any later version.
   9:D:/XMC/Projekte/Temp/CF_XMC4700/cleanflight/src/main/sensors\compass.h ****  *
  10:D:/XMC/Projekte/Temp/CF_XMC4700/cleanflight/src/main/sensors\compass.h ****  * Cleanflight and Betaflight are distributed in the hope that they
  11:D:/XMC/Projekte/Temp/CF_XMC4700/cleanflight/src/main/sensors\compass.h ****  * will be useful, but WITHOUT ANY WARRANTY; without even the implied
  12:D:/XMC/Projekte/Temp/CF_XMC4700/cleanflight/src/main/sensors\compass.h ****  * warranty of MERCHANTABILITY or FITNESS FOR A PARTICULAR PURPOSE.
  13:D:/XMC/Projekte/Temp/CF_XMC4700/cleanflight/src/main/sensors\compass.h ****  * See the GNU General Public License for more details.
  14:D:/XMC/Projekte/Temp/CF_XMC4700/cleanflight/src/main/sensors\compass.h ****  *
  15:D:/XMC/Projekte/Temp/CF_XMC4700/cleanflight/src/main/sensors\compass.h ****  * You should have received a copy of the GNU General Public License
  16:D:/XMC/Projekte/Temp/CF_XMC4700/cleanflight/src/main/sensors\compass.h ****  * along with this software.
  17:D:/XMC/Projekte/Temp/CF_XMC4700/cleanflight/src/main/sensors\compass.h ****  *
  18:D:/XMC/Projekte/Temp/CF_XMC4700/cleanflight/src/main/sensors\compass.h ****  * If not, see <http://www.gnu.org/licenses/>.
  19:D:/XMC/Projekte/Temp/CF_XMC4700/cleanflight/src/main/sensors\compass.h ****  */
  20:D:/XMC/Projekte/Temp/CF_XMC4700/cleanflight/src/main/sensors\compass.h **** 
  21:D:/XMC/Projekte/Temp/CF_XMC4700/cleanflight/src/main/sensors\compass.h **** #pragma once
  22:D:/XMC/Projekte/Temp/CF_XMC4700/cleanflight/src/main/sensors\compass.h **** 
  23:D:/XMC/Projekte/Temp/CF_XMC4700/cleanflight/src/main/sensors\compass.h **** #include "common/time.h"
  24:D:/XMC/Projekte/Temp/CF_XMC4700/cleanflight/src/main/sensors\compass.h **** #include "drivers/io_types.h"
  25:D:/XMC/Projekte/Temp/CF_XMC4700/cleanflight/src/main/sensors\compass.h **** #include "drivers/sensor.h"
  26:D:/XMC/Projekte/Temp/CF_XMC4700/cleanflight/src/main/sensors\compass.h **** #include "pg/pg.h"
  27:D:/XMC/Projekte/Temp/CF_XMC4700/cleanflight/src/main/sensors\compass.h **** #include "sensors/sensors.h"
  28:D:/XMC/Projekte/Temp/CF_XMC4700/cleanflight/src/main/sensors\compass.h **** 
  29:D:/XMC/Projekte/Temp/CF_XMC4700/cleanflight/src/main/sensors\compass.h **** 
  30:D:/XMC/Projekte/Temp/CF_XMC4700/cleanflight/src/main/sensors\compass.h **** // Type of magnetometer used/detected
  31:D:/XMC/Projekte/Temp/CF_XMC4700/cleanflight/src/main/sensors\compass.h **** typedef enum {
  32:D:/XMC/Projekte/Temp/CF_XMC4700/cleanflight/src/main/sensors\compass.h ****     MAG_DEFAULT = 0,
  33:D:/XMC/Projekte/Temp/CF_XMC4700/cleanflight/src/main/sensors\compass.h ****     MAG_NONE = 1,
  34:D:/XMC/Projekte/Temp/CF_XMC4700/cleanflight/src/main/sensors\compass.h ****     MAG_HMC5883 = 2,
  35:D:/XMC/Projekte/Temp/CF_XMC4700/cleanflight/src/main/sensors\compass.h ****     MAG_AK8975 = 3,
  36:D:/XMC/Projekte/Temp/CF_XMC4700/cleanflight/src/main/sensors\compass.h ****     MAG_AK8963 = 4,
  37:D:/XMC/Projekte/Temp/CF_XMC4700/cleanflight/src/main/sensors\compass.h ****     MAG_QMC5883 = 5
  38:D:/XMC/Projekte/Temp/CF_XMC4700/cleanflight/src/main/sensors\compass.h **** } magSensor_e;
  39:D:/XMC/Projekte/Temp/CF_XMC4700/cleanflight/src/main/sensors\compass.h **** 
  40:D:/XMC/Projekte/Temp/CF_XMC4700/cleanflight/src/main/sensors\compass.h **** typedef struct mag_s {
  41:D:/XMC/Projekte/Temp/CF_XMC4700/cleanflight/src/main/sensors\compass.h ****     float magADC[XYZ_AXIS_COUNT];
  42:D:/XMC/Projekte/Temp/CF_XMC4700/cleanflight/src/main/sensors\compass.h ****     float magneticDeclination;
  43:D:/XMC/Projekte/Temp/CF_XMC4700/cleanflight/src/main/sensors\compass.h **** } mag_t;
  44:D:/XMC/Projekte/Temp/CF_XMC4700/cleanflight/src/main/sensors\compass.h **** 
  45:D:/XMC/Projekte/Temp/CF_XMC4700/cleanflight/src/main/sensors\compass.h **** extern mag_t mag;
  46:D:/XMC/Projekte/Temp/CF_XMC4700/cleanflight/src/main/sensors\compass.h **** 
  47:D:/XMC/Projekte/Temp/CF_XMC4700/cleanflight/src/main/sensors\compass.h **** typedef struct compassConfig_s {
  48:D:/XMC/Projekte/Temp/CF_XMC4700/cleanflight/src/main/sensors\compass.h ****     int16_t mag_declination;                // Get your magnetic decliniation from here : http://ma
  49:D:/XMC/Projekte/Temp/CF_XMC4700/cleanflight/src/main/sensors\compass.h ****                                             // For example, -6deg 37min, = -637 Japan, format is [s
  50:D:/XMC/Projekte/Temp/CF_XMC4700/cleanflight/src/main/sensors\compass.h ****     sensor_align_e mag_align;               // mag alignment
  51:D:/XMC/Projekte/Temp/CF_XMC4700/cleanflight/src/main/sensors\compass.h ****     uint8_t mag_hardware;                   // Which mag hardware to use on boards with more than o
  52:D:/XMC/Projekte/Temp/CF_XMC4700/cleanflight/src/main/sensors\compass.h ****     uint8_t mag_bustype;
  53:D:/XMC/Projekte/Temp/CF_XMC4700/cleanflight/src/main/sensors\compass.h ****     uint8_t mag_i2c_device;
  54:D:/XMC/Projekte/Temp/CF_XMC4700/cleanflight/src/main/sensors\compass.h ****     uint8_t mag_i2c_address;
  55:D:/XMC/Projekte/Temp/CF_XMC4700/cleanflight/src/main/sensors\compass.h ****     uint8_t mag_spi_device;
  56:D:/XMC/Projekte/Temp/CF_XMC4700/cleanflight/src/main/sensors\compass.h ****     ioTag_t mag_spi_csn;
  57:D:/XMC/Projekte/Temp/CF_XMC4700/cleanflight/src/main/sensors\compass.h ****     ioTag_t interruptTag;
  58:D:/XMC/Projekte/Temp/CF_XMC4700/cleanflight/src/main/sensors\compass.h ****     flightDynamicsTrims_t magZero;
  59:D:/XMC/Projekte/Temp/CF_XMC4700/cleanflight/src/main/sensors\compass.h **** } compassConfig_t;
  60:D:/XMC/Projekte/Temp/CF_XMC4700/cleanflight/src/main/sensors\compass.h **** 
  61:D:/XMC/Projekte/Temp/CF_XMC4700/cleanflight/src/main/sensors\compass.h **** PG_DECLARE(compassConfig_t, compassConfig);
 750              	 .loc 15 61 0
 751              	 .cfi_startproc
 752              	 
 753              	 
 754              	 
 755 0000 80B4     	 push {r7}
 756              	.LCFI76:
 757              	 .cfi_def_cfa_offset 4
 758              	 .cfi_offset 7,-4
 759 0002 00AF     	 add r7,sp,#0
 760              	.LCFI77:
 761              	 .cfi_def_cfa_register 7
 762              	 .loc 15 61 0
 763 0004 024B     	 ldr r3,.L75
 764 0006 1846     	 mov r0,r3
 765 0008 BD46     	 mov sp,r7
 766              	.LCFI78:
 767              	 .cfi_def_cfa_register 13
 768              	 
 769 000a 5DF8047B 	 ldr r7,[sp],#4
 770              	.LCFI79:
 771              	 .cfi_restore 7
 772              	 .cfi_def_cfa_offset 0
 773 000e 7047     	 bx lr
 774              	.L76:
 775              	 .align 2
 776              	.L75:
 777 0010 00000000 	 .word compassConfig_System
 778              	 .cfi_endproc
 779              	.LFE604:
 781              	 .comm blackboxConfig_System,5,4
 782              	 .comm blackboxConfig_Copy,5,4
 783              	 .global blackboxConfig_Registry
 784              	 .section .pg_registry,"a",%progbits
 785              	 .align 2
 788              	blackboxConfig_Registry:
 789 0000 0510     	 .short 4101
 790 0002 0500     	 .short 5
 791 0004 00000000 	 .word blackboxConfig_System
 792 0008 00000000 	 .word blackboxConfig_Copy
 793 000c 00000000 	 .word 0
 794 0010 00000000 	 .word pgResetTemplate_blackboxConfig
 795              	 .global pgResetTemplate_blackboxConfig
 796              	 .section .pg_resetdata,"a",%progbits
 797              	 .align 1
 800              	pgResetTemplate_blackboxConfig:
 801 0000 2000     	 .short 32
 802 0002 02       	 .byte 2
 803 0003 01       	 .byte 1
 804 0004 00       	 .byte 0
 805 0005 00       	 .section .rodata.blackboxHeader,"a",%progbits
 806              	 .align 2
 809              	blackboxHeader:
 810 0000 48205072 	 .ascii "H Product:Blackbox flight data recorder by Nicholas"
 810      6F647563 
 810      743A426C 
 810      61636B62 
 810      6F782066 
 811 0033 20536865 	 .ascii " Sherlock\012H Data version:2\012\000"
 811      726C6F63 
 811      6B0A4820 
 811      44617461 
 811      20766572 
 812 004f 00       	 .section .rodata
 813              	 .align 2
 814              	.LC0:
 815 0000 6E616D65 	 .ascii "name\000"
 815      00
 816 0005 000000   	 .align 2
 817              	.LC1:
 818 0008 7369676E 	 .ascii "signed\000"
 818      656400
 819 000f 00       	 .align 2
 820              	.LC2:
 821 0010 70726564 	 .ascii "predictor\000"
 821      6963746F 
 821      7200
 822 001a 0000     	 .align 2
 823              	.LC3:
 824 001c 656E636F 	 .ascii "encoding\000"
 824      64696E67 
 824      00
 825              	 .section .rodata.blackboxFieldHeaderNames,"a",%progbits
 826              	 .align 2
 829              	blackboxFieldHeaderNames:
 830 0000 00000000 	 .word .LC0
 831 0004 08000000 	 .word .LC1
 832 0008 10000000 	 .word .LC2
 833 000c 1C000000 	 .word .LC3
 834 0010 10000000 	 .word .LC2
 835 0014 1C000000 	 .word .LC3
 836              	 .section .rodata
 837 0025 000000   	 .align 2
 838              	.LC4:
 839 0028 6C6F6F70 	 .ascii "loopIteration\000"
 839      49746572 
 839      6174696F 
 839      6E00
 840 0036 0000     	 .align 2
 841              	.LC5:
 842 0038 74696D65 	 .ascii "time\000"
 842      00
 843 003d 000000   	 .align 2
 844              	.LC6:
 845 0040 61786973 	 .ascii "axisP\000"
 845      5000
 846 0046 0000     	 .align 2
 847              	.LC7:
 848 0048 61786973 	 .ascii "axisI\000"
 848      4900
 849 004e 0000     	 .align 2
 850              	.LC8:
 851 0050 61786973 	 .ascii "axisD\000"
 851      4400
 852 0056 0000     	 .align 2
 853              	.LC9:
 854 0058 61786973 	 .ascii "axisF\000"
 854      4600
 855 005e 0000     	 .align 2
 856              	.LC10:
 857 0060 7263436F 	 .ascii "rcCommand\000"
 857      6D6D616E 
 857      6400
 858 006a 0000     	 .align 2
 859              	.LC11:
 860 006c 76626174 	 .ascii "vbatLatest\000"
 860      4C617465 
 860      737400
 861 0077 00       	 .align 2
 862              	.LC12:
 863 0078 616D7065 	 .ascii "amperageLatest\000"
 863      72616765 
 863      4C617465 
 863      737400
 864 0087 00       	 .align 2
 865              	.LC13:
 866 0088 6D616741 	 .ascii "magADC\000"
 866      444300
 867 008f 00       	 .align 2
 868              	.LC14:
 869 0090 4261726F 	 .ascii "BaroAlt\000"
 869      416C7400 
 870              	 .align 2
 871              	.LC15:
 872 0098 72737369 	 .ascii "rssi\000"
 872      00
 873 009d 000000   	 .align 2
 874              	.LC16:
 875 00a0 6779726F 	 .ascii "gyroADC\000"
 875      41444300 
 876              	 .align 2
 877              	.LC17:
 878 00a8 61636353 	 .ascii "accSmooth\000"
 878      6D6F6F74 
 878      6800
 879 00b2 0000     	 .align 2
 880              	.LC18:
 881 00b4 64656275 	 .ascii "debug\000"
 881      6700
 882 00ba 0000     	 .align 2
 883              	.LC19:
 884 00bc 6D6F746F 	 .ascii "motor\000"
 884      7200
 885 00c2 0000     	 .align 2
 886              	.LC20:
 887 00c4 73657276 	 .ascii "servo\000"
 887      6F00
 888              	 .section .rodata.blackboxMainFields,"a",%progbits
 889              	 .align 2
 892              	blackboxMainFields:
 893 0000 28000000 	 .word .LC4
 894 0004 FF       	 .byte -1
 895 0005 00       	 .byte 0
 896 0006 00       	 .byte 0
 897 0007 01       	 .byte 1
 898 0008 06       	 .byte 6
 899 0009 09       	 .byte 9
 900 000a 00       	 .byte 0
 901 000b 38000000 	 .4byte .LC5
 902 000f FF       	 .byte -1
 903 0010 00       	 .byte 0
 904 0011 00       	 .byte 0
 905 0012 01       	 .byte 1
 906 0013 02       	 .byte 2
 907 0014 00       	 .byte 0
 908 0015 00       	 .byte 0
 909 0016 40000000 	 .4byte .LC6
 910 001a 00       	 .byte 0
 911 001b 01       	 .byte 1
 912 001c 00       	 .byte 0
 913 001d 00       	 .byte 0
 914 001e 01       	 .byte 1
 915 001f 00       	 .byte 0
 916 0020 00       	 .byte 0
 917 0021 40000000 	 .4byte .LC6
 918 0025 01       	 .byte 1
 919 0026 01       	 .byte 1
 920 0027 00       	 .byte 0
 921 0028 00       	 .byte 0
 922 0029 01       	 .byte 1
 923 002a 00       	 .byte 0
 924 002b 00       	 .byte 0
 925 002c 40000000 	 .word .LC6
 926 0030 02       	 .byte 2
 927 0031 01       	 .byte 1
 928 0032 00       	 .byte 0
 929 0033 00       	 .byte 0
 930 0034 01       	 .byte 1
 931 0035 00       	 .byte 0
 932 0036 00       	 .byte 0
 933 0037 48000000 	 .4byte .LC7
 934 003b 00       	 .byte 0
 935 003c 01       	 .byte 1
 936 003d 00       	 .byte 0
 937 003e 00       	 .byte 0
 938 003f 01       	 .byte 1
 939 0040 07       	 .byte 7
 940 0041 00       	 .byte 0
 941 0042 48000000 	 .4byte .LC7
 942 0046 01       	 .byte 1
 943 0047 01       	 .byte 1
 944 0048 00       	 .byte 0
 945 0049 00       	 .byte 0
 946 004a 01       	 .byte 1
 947 004b 07       	 .byte 7
 948 004c 00       	 .byte 0
 949 004d 48000000 	 .4byte .LC7
 950 0051 02       	 .byte 2
 951 0052 01       	 .byte 1
 952 0053 00       	 .byte 0
 953 0054 00       	 .byte 0
 954 0055 01       	 .byte 1
 955 0056 07       	 .byte 7
 956 0057 00       	 .byte 0
 957 0058 50000000 	 .word .LC8
 958 005c 00       	 .byte 0
 959 005d 01       	 .byte 1
 960 005e 00       	 .byte 0
 961 005f 00       	 .byte 0
 962 0060 01       	 .byte 1
 963 0061 00       	 .byte 0
 964 0062 10       	 .byte 16
 965 0063 50000000 	 .4byte .LC8
 966 0067 01       	 .byte 1
 967 0068 01       	 .byte 1
 968 0069 00       	 .byte 0
 969 006a 00       	 .byte 0
 970 006b 01       	 .byte 1
 971 006c 00       	 .byte 0
 972 006d 11       	 .byte 17
 973 006e 50000000 	 .4byte .LC8
 974 0072 02       	 .byte 2
 975 0073 01       	 .byte 1
 976 0074 00       	 .byte 0
 977 0075 00       	 .byte 0
 978 0076 01       	 .byte 1
 979 0077 00       	 .byte 0
 980 0078 12       	 .byte 18
 981 0079 58000000 	 .4byte .LC9
 982 007d 00       	 .byte 0
 983 007e 01       	 .byte 1
 984 007f 00       	 .byte 0
 985 0080 00       	 .byte 0
 986 0081 01       	 .byte 1
 987 0082 00       	 .byte 0
 988 0083 00       	 .byte 0
 989 0084 58000000 	 .word .LC9
 990 0088 01       	 .byte 1
 991 0089 01       	 .byte 1
 992 008a 00       	 .byte 0
 993 008b 00       	 .byte 0
 994 008c 01       	 .byte 1
 995 008d 00       	 .byte 0
 996 008e 00       	 .byte 0
 997 008f 58000000 	 .4byte .LC9
 998 0093 02       	 .byte 2
 999 0094 01       	 .byte 1
 1000 0095 00       	 .byte 0
 1001 0096 00       	 .byte 0
 1002 0097 01       	 .byte 1
 1003 0098 00       	 .byte 0
 1004 0099 00       	 .byte 0
 1005 009a 60000000 	 .4byte .LC10
 1006 009e 00       	 .byte 0
 1007 009f 01       	 .byte 1
 1008 00a0 00       	 .byte 0
 1009 00a1 00       	 .byte 0
 1010 00a2 01       	 .byte 1
 1011 00a3 08       	 .byte 8
 1012 00a4 00       	 .byte 0
 1013 00a5 60000000 	 .4byte .LC10
 1014 00a9 01       	 .byte 1
 1015 00aa 01       	 .byte 1
 1016 00ab 00       	 .byte 0
 1017 00ac 00       	 .byte 0
 1018 00ad 01       	 .byte 1
 1019 00ae 08       	 .byte 8
 1020 00af 00       	 .byte 0
 1021 00b0 60000000 	 .word .LC10
 1022 00b4 02       	 .byte 2
 1023 00b5 01       	 .byte 1
 1024 00b6 00       	 .byte 0
 1025 00b7 00       	 .byte 0
 1026 00b8 01       	 .byte 1
 1027 00b9 08       	 .byte 8
 1028 00ba 00       	 .byte 0
 1029 00bb 60000000 	 .4byte .LC10
 1030 00bf 03       	 .byte 3
 1031 00c0 00       	 .byte 0
 1032 00c1 04       	 .byte 4
 1033 00c2 01       	 .byte 1
 1034 00c3 01       	 .byte 1
 1035 00c4 08       	 .byte 8
 1036 00c5 00       	 .byte 0
 1037 00c6 6C000000 	 .4byte .LC11
 1038 00ca FF       	 .byte -1
 1039 00cb 00       	 .byte 0
 1040 00cc 09       	 .byte 9
 1041 00cd 03       	 .byte 3
 1042 00ce 01       	 .byte 1
 1043 00cf 06       	 .byte 6
 1044 00d0 0C       	 .byte 12
 1045 00d1 78000000 	 .4byte .LC12
 1046 00d5 FF       	 .byte -1
 1047 00d6 01       	 .byte 1
 1048 00d7 00       	 .byte 0
 1049 00d8 00       	 .byte 0
 1050 00d9 01       	 .byte 1
 1051 00da 06       	 .byte 6
 1052 00db 0D       	 .byte 13
 1053 00dc 88000000 	 .word .LC13
 1054 00e0 00       	 .byte 0
 1055 00e1 01       	 .byte 1
 1056 00e2 00       	 .byte 0
 1057 00e3 00       	 .byte 0
 1058 00e4 01       	 .byte 1
 1059 00e5 06       	 .byte 6
 1060 00e6 0A       	 .byte 10
 1061 00e7 88000000 	 .4byte .LC13
 1062 00eb 01       	 .byte 1
 1063 00ec 01       	 .byte 1
 1064 00ed 00       	 .byte 0
 1065 00ee 00       	 .byte 0
 1066 00ef 01       	 .byte 1
 1067 00f0 06       	 .byte 6
 1068 00f1 0A       	 .byte 10
 1069 00f2 88000000 	 .4byte .LC13
 1070 00f6 02       	 .byte 2
 1071 00f7 01       	 .byte 1
 1072 00f8 00       	 .byte 0
 1073 00f9 00       	 .byte 0
 1074 00fa 01       	 .byte 1
 1075 00fb 06       	 .byte 6
 1076 00fc 0A       	 .byte 10
 1077 00fd 90000000 	 .4byte .LC14
 1078 0101 FF       	 .byte -1
 1079 0102 01       	 .byte 1
 1080 0103 00       	 .byte 0
 1081 0104 00       	 .byte 0
 1082 0105 01       	 .byte 1
 1083 0106 06       	 .byte 6
 1084 0107 0B       	 .byte 11
 1085 0108 98000000 	 .word .LC15
 1086 010c FF       	 .byte -1
 1087 010d 00       	 .byte 0
 1088 010e 00       	 .byte 0
 1089 010f 01       	 .byte 1
 1090 0110 01       	 .byte 1
 1091 0111 06       	 .byte 6
 1092 0112 0F       	 .byte 15
 1093 0113 A0000000 	 .4byte .LC16
 1094 0117 00       	 .byte 0
 1095 0118 01       	 .byte 1
 1096 0119 00       	 .byte 0
 1097 011a 00       	 .byte 0
 1098 011b 03       	 .byte 3
 1099 011c 00       	 .byte 0
 1100 011d 00       	 .byte 0
 1101 011e A0000000 	 .4byte .LC16
 1102 0122 01       	 .byte 1
 1103 0123 01       	 .byte 1
 1104 0124 00       	 .byte 0
 1105 0125 00       	 .byte 0
 1106 0126 03       	 .byte 3
 1107 0127 00       	 .byte 0
 1108 0128 00       	 .byte 0
 1109 0129 A0000000 	 .4byte .LC16
 1110 012d 02       	 .byte 2
 1111 012e 01       	 .byte 1
 1112 012f 00       	 .byte 0
 1113 0130 00       	 .byte 0
 1114 0131 03       	 .byte 3
 1115 0132 00       	 .byte 0
 1116 0133 00       	 .byte 0
 1117 0134 A8000000 	 .word .LC17
 1118 0138 00       	 .byte 0
 1119 0139 01       	 .byte 1
 1120 013a 00       	 .byte 0
 1121 013b 00       	 .byte 0
 1122 013c 03       	 .byte 3
 1123 013d 00       	 .byte 0
 1124 013e 14       	 .byte 20
 1125 013f A8000000 	 .4byte .LC17
 1126 0143 01       	 .byte 1
 1127 0144 01       	 .byte 1
 1128 0145 00       	 .byte 0
 1129 0146 00       	 .byte 0
 1130 0147 03       	 .byte 3
 1131 0148 00       	 .byte 0
 1132 0149 14       	 .byte 20
 1133 014a A8000000 	 .4byte .LC17
 1134 014e 02       	 .byte 2
 1135 014f 01       	 .byte 1
 1136 0150 00       	 .byte 0
 1137 0151 00       	 .byte 0
 1138 0152 03       	 .byte 3
 1139 0153 00       	 .byte 0
 1140 0154 14       	 .byte 20
 1141 0155 B4000000 	 .4byte .LC18
 1142 0159 00       	 .byte 0
 1143 015a 01       	 .byte 1
 1144 015b 00       	 .byte 0
 1145 015c 00       	 .byte 0
 1146 015d 03       	 .byte 3
 1147 015e 00       	 .byte 0
 1148 015f 15       	 .byte 21
 1149 0160 B4000000 	 .word .LC18
 1150 0164 01       	 .byte 1
 1151 0165 01       	 .byte 1
 1152 0166 00       	 .byte 0
 1153 0167 00       	 .byte 0
 1154 0168 03       	 .byte 3
 1155 0169 00       	 .byte 0
 1156 016a 15       	 .byte 21
 1157 016b B4000000 	 .4byte .LC18
 1158 016f 02       	 .byte 2
 1159 0170 01       	 .byte 1
 1160 0171 00       	 .byte 0
 1161 0172 00       	 .byte 0
 1162 0173 03       	 .byte 3
 1163 0174 00       	 .byte 0
 1164 0175 15       	 .byte 21
 1165 0176 B4000000 	 .4byte .LC18
 1166 017a 03       	 .byte 3
 1167 017b 01       	 .byte 1
 1168 017c 00       	 .byte 0
 1169 017d 00       	 .byte 0
 1170 017e 03       	 .byte 3
 1171 017f 00       	 .byte 0
 1172 0180 15       	 .byte 21
 1173 0181 BC000000 	 .4byte .LC19
 1174 0185 00       	 .byte 0
 1175 0186 00       	 .byte 0
 1176 0187 0B       	 .byte 11
 1177 0188 01       	 .byte 1
 1178 0189 03       	 .byte 3
 1179 018a 00       	 .byte 0
 1180 018b 01       	 .byte 1
 1181 018c BC000000 	 .word .LC19
 1182 0190 01       	 .byte 1
 1183 0191 00       	 .byte 0
 1184 0192 05       	 .byte 5
 1185 0193 00       	 .byte 0
 1186 0194 03       	 .byte 3
 1187 0195 00       	 .byte 0
 1188 0196 02       	 .byte 2
 1189 0197 BC000000 	 .4byte .LC19
 1190 019b 02       	 .byte 2
 1191 019c 00       	 .byte 0
 1192 019d 05       	 .byte 5
 1193 019e 00       	 .byte 0
 1194 019f 03       	 .byte 3
 1195 01a0 00       	 .byte 0
 1196 01a1 03       	 .byte 3
 1197 01a2 BC000000 	 .4byte .LC19
 1198 01a6 03       	 .byte 3
 1199 01a7 00       	 .byte 0
 1200 01a8 05       	 .byte 5
 1201 01a9 00       	 .byte 0
 1202 01aa 03       	 .byte 3
 1203 01ab 00       	 .byte 0
 1204 01ac 04       	 .byte 4
 1205 01ad BC000000 	 .4byte .LC19
 1206 01b1 04       	 .byte 4
 1207 01b2 00       	 .byte 0
 1208 01b3 05       	 .byte 5
 1209 01b4 00       	 .byte 0
 1210 01b5 03       	 .byte 3
 1211 01b6 00       	 .byte 0
 1212 01b7 05       	 .byte 5
 1213 01b8 BC000000 	 .word .LC19
 1214 01bc 05       	 .byte 5
 1215 01bd 00       	 .byte 0
 1216 01be 05       	 .byte 5
 1217 01bf 00       	 .byte 0
 1218 01c0 03       	 .byte 3
 1219 01c1 00       	 .byte 0
 1220 01c2 06       	 .byte 6
 1221 01c3 BC000000 	 .4byte .LC19
 1222 01c7 06       	 .byte 6
 1223 01c8 00       	 .byte 0
 1224 01c9 05       	 .byte 5
 1225 01ca 00       	 .byte 0
 1226 01cb 03       	 .byte 3
 1227 01cc 00       	 .byte 0
 1228 01cd 07       	 .byte 7
 1229 01ce BC000000 	 .4byte .LC19
 1230 01d2 07       	 .byte 7
 1231 01d3 00       	 .byte 0
 1232 01d4 05       	 .byte 5
 1233 01d5 00       	 .byte 0
 1234 01d6 03       	 .byte 3
 1235 01d7 00       	 .byte 0
 1236 01d8 08       	 .byte 8
 1237 01d9 C4000000 	 .4byte .LC20
 1238 01dd 05       	 .byte 5
 1239 01de 00       	 .byte 0
 1240 01df 08       	 .byte 8
 1241 01e0 00       	 .byte 0
 1242 01e1 01       	 .byte 1
 1243 01e2 00       	 .byte 0
 1244 01e3 09       	 .byte 9
 1245              	 .section .rodata
 1246 00ca 0000     	 .align 2
 1247              	.LC21:
 1248 00cc 4750535F 	 .ascii "GPS_numSat\000"
 1248      6E756D53 
 1248      617400
 1249 00d7 00       	 .align 2
 1250              	.LC22:
 1251 00d8 4750535F 	 .ascii "GPS_coord\000"
 1251      636F6F72 
 1251      6400
 1252 00e2 0000     	 .align 2
 1253              	.LC23:
 1254 00e4 4750535F 	 .ascii "GPS_altitude\000"
 1254      616C7469 
 1254      74756465 
 1254      00
 1255 00f1 000000   	 .align 2
 1256              	.LC24:
 1257 00f4 4750535F 	 .ascii "GPS_speed\000"
 1257      73706565 
 1257      6400
 1258 00fe 0000     	 .align 2
 1259              	.LC25:
 1260 0100 4750535F 	 .ascii "GPS_ground_course\000"
 1260      67726F75 
 1260      6E645F63 
 1260      6F757273 
 1260      6500
 1261              	 .section .rodata.blackboxGpsGFields,"a",%progbits
 1262              	 .align 2
 1265              	blackboxGpsGFields:
 1266 0000 38000000 	 .word .LC5
 1267 0004 FF       	 .byte -1
 1268 0005 00       	 .byte 0
 1269 0006 0A       	 .byte 10
 1270 0007 01       	 .byte 1
 1271 0008 13       	 .byte 19
 1272 0009 CC000000 	 .4byte .LC21
 1273 000d FF       	 .byte -1
 1274 000e 00       	 .byte 0
 1275 000f 00       	 .byte 0
 1276 0010 01       	 .byte 1
 1277 0011 00       	 .byte 0
 1278 0012 D8000000 	 .4byte .LC22
 1279 0016 00       	 .byte 0
 1280 0017 01       	 .byte 1
 1281 0018 07       	 .byte 7
 1282 0019 00       	 .byte 0
 1283 001a 00       	 .byte 0
 1284 001b D8000000 	 .4byte .LC22
 1285 001f 01       	 .byte 1
 1286 0020 01       	 .byte 1
 1287 0021 07       	 .byte 7
 1288 0022 00       	 .byte 0
 1289 0023 00       	 .byte 0
 1290 0024 E4000000 	 .word .LC23
 1291 0028 FF       	 .byte -1
 1292 0029 00       	 .byte 0
 1293 002a 00       	 .byte 0
 1294 002b 01       	 .byte 1
 1295 002c 00       	 .byte 0
 1296 002d F4000000 	 .4byte .LC24
 1297 0031 FF       	 .byte -1
 1298 0032 00       	 .byte 0
 1299 0033 00       	 .byte 0
 1300 0034 01       	 .byte 1
 1301 0035 00       	 .byte 0
 1302 0036 00010000 	 .4byte .LC25
 1303 003a FF       	 .byte -1
 1304 003b 00       	 .byte 0
 1305 003c 00       	 .byte 0
 1306 003d 01       	 .byte 1
 1307 003e 00       	 .byte 0
 1308 003f 00       	 .section .rodata
 1309 0112 0000     	 .align 2
 1310              	.LC26:
 1311 0114 4750535F 	 .ascii "GPS_home\000"
 1311      686F6D65 
 1311      00
 1312              	 .section .rodata.blackboxGpsHFields,"a",%progbits
 1313              	 .align 2
 1316              	blackboxGpsHFields:
 1317 0000 14010000 	 .word .LC26
 1318 0004 00       	 .byte 0
 1319 0005 01       	 .byte 1
 1320 0006 00       	 .byte 0
 1321 0007 00       	 .byte 0
 1322 0008 14010000 	 .word .LC26
 1323 000c 01       	 .byte 1
 1324 000d 01       	 .byte 1
 1325 000e 00       	 .byte 0
 1326 000f 00       	 .byte 0
 1327              	 .section .rodata
 1328 011d 000000   	 .align 2
 1329              	.LC27:
 1330 0120 666C6967 	 .ascii "flightModeFlags\000"
 1330      68744D6F 
 1330      6465466C 
 1330      61677300 
 1331              	 .align 2
 1332              	.LC28:
 1333 0130 73746174 	 .ascii "stateFlags\000"
 1333      65466C61 
 1333      677300
 1334 013b 00       	 .align 2
 1335              	.LC29:
 1336 013c 6661696C 	 .ascii "failsafePhase\000"
 1336      73616665 
 1336      50686173 
 1336      6500
 1337 014a 0000     	 .align 2
 1338              	.LC30:
 1339 014c 72785369 	 .ascii "rxSignalReceived\000"
 1339      676E616C 
 1339      52656365 
 1339      69766564 
 1339      00
 1340 015d 000000   	 .align 2
 1341              	.LC31:
 1342 0160 7278466C 	 .ascii "rxFlightChannelsValid\000"
 1342      69676874 
 1342      4368616E 
 1342      6E656C73 
 1342      56616C69 
 1343              	 .section .rodata.blackboxSlowFields,"a",%progbits
 1344              	 .align 2
 1347              	blackboxSlowFields:
 1348 0000 20010000 	 .word .LC27
 1349 0004 FF       	 .byte -1
 1350 0005 00       	 .byte 0
 1351 0006 00       	 .byte 0
 1352 0007 01       	 .byte 1
 1353 0008 30010000 	 .word .LC28
 1354 000c FF       	 .byte -1
 1355 000d 00       	 .byte 0
 1356 000e 00       	 .byte 0
 1357 000f 01       	 .byte 1
 1358 0010 3C010000 	 .word .LC29
 1359 0014 FF       	 .byte -1
 1360 0015 00       	 .byte 0
 1361 0016 00       	 .byte 0
 1362 0017 07       	 .byte 7
 1363 0018 4C010000 	 .word .LC30
 1364 001c FF       	 .byte -1
 1365 001d 00       	 .byte 0
 1366 001e 00       	 .byte 0
 1367 001f 07       	 .byte 7
 1368 0020 60010000 	 .word .LC31
 1369 0024 FF       	 .byte -1
 1370 0025 00       	 .byte 0
 1371 0026 00       	 .byte 0
 1372 0027 07       	 .byte 7
 1373              	 .section .bss.blackboxState,"aw",%nobits
 1376              	blackboxState:
 1377 0000 00       	 .space 1
 1378              	 .section .bss.blackboxLastArmingBeep,"aw",%nobits
 1379              	 .align 2
 1382              	blackboxLastArmingBeep:
 1383 0000 00000000 	 .space 4
 1384              	 .section .bss.blackboxLastFlightModeFlags,"aw",%nobits
 1385              	 .align 2
 1388              	blackboxLastFlightModeFlags:
 1389 0000 00000000 	 .space 4
 1390              	 .section .bss.xmitState,"aw",%nobits
 1391              	 .align 2
 1394              	xmitState:
 1395 0000 00000000 	 .space 8
 1395      00000000 
 1396              	 .section .bss.blackboxConditionCache,"aw",%nobits
 1397              	 .align 2
 1400              	blackboxConditionCache:
 1401 0000 00000000 	 .space 4
 1402              	 .section .bss.blackboxIteration,"aw",%nobits
 1403              	 .align 2
 1406              	blackboxIteration:
 1407 0000 00000000 	 .space 4
 1408              	 .section .bss.blackboxLoopIndex,"aw",%nobits
 1409              	 .align 1
 1412              	blackboxLoopIndex:
 1413 0000 0000     	 .space 2
 1414              	 .section .bss.blackboxPFrameIndex,"aw",%nobits
 1415              	 .align 1
 1418              	blackboxPFrameIndex:
 1419 0000 0000     	 .space 2
 1420              	 .section .bss.blackboxIFrameIndex,"aw",%nobits
 1421              	 .align 1
 1424              	blackboxIFrameIndex:
 1425 0000 0000     	 .space 2
 1426              	 .section .bss.blackboxIInterval,"aw",%nobits
 1427              	 .align 1
 1430              	blackboxIInterval:
 1431 0000 0000     	 .space 2
 1432              	 .section .bss.blackboxPInterval,"aw",%nobits
 1433              	 .align 1
 1436              	blackboxPInterval:
 1437 0000 0000     	 .space 2
 1438              	 .section .bss.blackboxSInterval,"aw",%nobits
 1439              	 .align 2
 1442              	blackboxSInterval:
 1443 0000 00000000 	 .space 4
 1444              	 .section .bss.blackboxSlowFrameIterationTimer,"aw",%nobits
 1445              	 .align 2
 1448              	blackboxSlowFrameIterationTimer:
 1449 0000 00000000 	 .space 4
 1450              	 .section .bss.blackboxLoggedAnyFrames,"aw",%nobits
 1453              	blackboxLoggedAnyFrames:
 1454 0000 00       	 .space 1
 1455              	 .section .bss.vbatReference,"aw",%nobits
 1456              	 .align 1
 1459              	vbatReference:
 1460 0000 0000     	 .space 2
 1461              	 .section .bss.gpsHistory,"aw",%nobits
 1462              	 .align 2
 1465              	gpsHistory:
 1466 0000 00000000 	 .space 17
 1466      00000000 
 1466      00000000 
 1466      00000000 
 1466      00
 1467 0011 000000   	 .section .bss.slowHistory,"aw",%nobits
 1468              	 .align 2
 1471              	slowHistory:
 1472 0000 00000000 	 .space 8
 1472      00000000 
 1473              	 .section .bss.blackboxHistoryRing,"aw",%nobits
 1474              	 .align 2
 1477              	blackboxHistoryRing:
 1478 0000 00000000 	 .space 390
 1478      00000000 
 1478      00000000 
 1478      00000000 
 1478      00000000 
 1479 0186 0000     	 .section .bss.blackboxHistory,"aw",%nobits
 1480              	 .align 2
 1483              	blackboxHistory:
 1484 0000 00000000 	 .space 12
 1484      00000000 
 1484      00000000 
 1485              	 .section .bss.blackboxModeActivationConditionPresent,"aw",%nobits
 1488              	blackboxModeActivationConditionPresent:
 1489 0000 00       	 .space 1
 1490              	 .section .text.blackboxMayEditConfig,"ax",%progbits
 1491              	 .align 2
 1492              	 .global blackboxMayEditConfig
 1493              	 .thumb
 1494              	 .thumb_func
 1496              	blackboxMayEditConfig:
 1497              	.LFB608:
 1498              	 .file 16 "../cleanflight/src/main/blackbox/blackbox.c"
   1:../cleanflight/src/main/blackbox/blackbox.c **** /*
   2:../cleanflight/src/main/blackbox/blackbox.c ****  * This file is part of Cleanflight and Betaflight.
   3:../cleanflight/src/main/blackbox/blackbox.c ****  *
   4:../cleanflight/src/main/blackbox/blackbox.c ****  * Cleanflight and Betaflight are free software. You can redistribute
   5:../cleanflight/src/main/blackbox/blackbox.c ****  * this software and/or modify this software under the terms of the
   6:../cleanflight/src/main/blackbox/blackbox.c ****  * GNU General Public License as published by the Free Software
   7:../cleanflight/src/main/blackbox/blackbox.c ****  * Foundation, either version 3 of the License, or (at your option)
   8:../cleanflight/src/main/blackbox/blackbox.c ****  * any later version.
   9:../cleanflight/src/main/blackbox/blackbox.c ****  *
  10:../cleanflight/src/main/blackbox/blackbox.c ****  * Cleanflight and Betaflight are distributed in the hope that they
  11:../cleanflight/src/main/blackbox/blackbox.c ****  * will be useful, but WITHOUT ANY WARRANTY; without even the implied
  12:../cleanflight/src/main/blackbox/blackbox.c ****  * warranty of MERCHANTABILITY or FITNESS FOR A PARTICULAR PURPOSE.
  13:../cleanflight/src/main/blackbox/blackbox.c ****  * See the GNU General Public License for more details.
  14:../cleanflight/src/main/blackbox/blackbox.c ****  *
  15:../cleanflight/src/main/blackbox/blackbox.c ****  * You should have received a copy of the GNU General Public License
  16:../cleanflight/src/main/blackbox/blackbox.c ****  * along with this software.
  17:../cleanflight/src/main/blackbox/blackbox.c ****  *
  18:../cleanflight/src/main/blackbox/blackbox.c ****  * If not, see <http://www.gnu.org/licenses/>.
  19:../cleanflight/src/main/blackbox/blackbox.c ****  */
  20:../cleanflight/src/main/blackbox/blackbox.c **** 
  21:../cleanflight/src/main/blackbox/blackbox.c **** #include <stdbool.h>
  22:../cleanflight/src/main/blackbox/blackbox.c **** #include <stdint.h>
  23:../cleanflight/src/main/blackbox/blackbox.c **** #include <string.h>
  24:../cleanflight/src/main/blackbox/blackbox.c **** #include <math.h>
  25:../cleanflight/src/main/blackbox/blackbox.c **** 
  26:../cleanflight/src/main/blackbox/blackbox.c **** #include "platform.h"
  27:../cleanflight/src/main/blackbox/blackbox.c **** 
  28:../cleanflight/src/main/blackbox/blackbox.c **** #ifdef USE_BLACKBOX
  29:../cleanflight/src/main/blackbox/blackbox.c **** 
  30:../cleanflight/src/main/blackbox/blackbox.c **** #include "blackbox.h"
  31:../cleanflight/src/main/blackbox/blackbox.c **** #include "blackbox_encoding.h"
  32:../cleanflight/src/main/blackbox/blackbox.c **** #include "blackbox_fielddefs.h"
  33:../cleanflight/src/main/blackbox/blackbox.c **** #include "blackbox_io.h"
  34:../cleanflight/src/main/blackbox/blackbox.c **** 
  35:../cleanflight/src/main/blackbox/blackbox.c **** #include "build/build_config.h"
  36:../cleanflight/src/main/blackbox/blackbox.c **** #include "build/debug.h"
  37:../cleanflight/src/main/blackbox/blackbox.c **** #include "build/version.h"
  38:../cleanflight/src/main/blackbox/blackbox.c **** 
  39:../cleanflight/src/main/blackbox/blackbox.c **** #include "common/axis.h"
  40:../cleanflight/src/main/blackbox/blackbox.c **** #include "common/encoding.h"
  41:../cleanflight/src/main/blackbox/blackbox.c **** #include "common/maths.h"
  42:../cleanflight/src/main/blackbox/blackbox.c **** #include "common/time.h"
  43:../cleanflight/src/main/blackbox/blackbox.c **** #include "common/utils.h"
  44:../cleanflight/src/main/blackbox/blackbox.c **** 
  45:../cleanflight/src/main/blackbox/blackbox.c **** #include "config/feature.h"
  46:../cleanflight/src/main/blackbox/blackbox.c **** #include "pg/pg.h"
  47:../cleanflight/src/main/blackbox/blackbox.c **** #include "pg/pg_ids.h"
  48:../cleanflight/src/main/blackbox/blackbox.c **** #include "pg/rx.h"
  49:../cleanflight/src/main/blackbox/blackbox.c **** 
  50:../cleanflight/src/main/blackbox/blackbox.c **** #include "drivers/compass/compass.h"
  51:../cleanflight/src/main/blackbox/blackbox.c **** #include "drivers/sensor.h"
  52:../cleanflight/src/main/blackbox/blackbox.c **** #include "drivers/time.h"
  53:../cleanflight/src/main/blackbox/blackbox.c **** 
  54:../cleanflight/src/main/blackbox/blackbox.c **** #include "fc/config.h"
  55:../cleanflight/src/main/blackbox/blackbox.c **** #include "fc/controlrate_profile.h"
  56:../cleanflight/src/main/blackbox/blackbox.c **** #include "fc/fc_rc.h"
  57:../cleanflight/src/main/blackbox/blackbox.c **** #include "fc/rc_controls.h"
  58:../cleanflight/src/main/blackbox/blackbox.c **** #include "fc/rc_modes.h"
  59:../cleanflight/src/main/blackbox/blackbox.c **** #include "fc/runtime_config.h"
  60:../cleanflight/src/main/blackbox/blackbox.c **** 
  61:../cleanflight/src/main/blackbox/blackbox.c **** #include "flight/failsafe.h"
  62:../cleanflight/src/main/blackbox/blackbox.c **** #include "flight/mixer.h"
  63:../cleanflight/src/main/blackbox/blackbox.c **** #include "flight/pid.h"
  64:../cleanflight/src/main/blackbox/blackbox.c **** #include "flight/servos.h"
  65:../cleanflight/src/main/blackbox/blackbox.c **** 
  66:../cleanflight/src/main/blackbox/blackbox.c **** #include "io/beeper.h"
  67:../cleanflight/src/main/blackbox/blackbox.c **** #include "io/gps.h"
  68:../cleanflight/src/main/blackbox/blackbox.c **** #include "io/serial.h"
  69:../cleanflight/src/main/blackbox/blackbox.c **** 
  70:../cleanflight/src/main/blackbox/blackbox.c **** #include "rx/rx.h"
  71:../cleanflight/src/main/blackbox/blackbox.c **** 
  72:../cleanflight/src/main/blackbox/blackbox.c **** #include "sensors/acceleration.h"
  73:../cleanflight/src/main/blackbox/blackbox.c **** #include "sensors/barometer.h"
  74:../cleanflight/src/main/blackbox/blackbox.c **** #include "sensors/battery.h"
  75:../cleanflight/src/main/blackbox/blackbox.c **** #include "sensors/compass.h"
  76:../cleanflight/src/main/blackbox/blackbox.c **** #include "sensors/gyro.h"
  77:../cleanflight/src/main/blackbox/blackbox.c **** #include "sensors/rangefinder.h"
  78:../cleanflight/src/main/blackbox/blackbox.c **** 
  79:../cleanflight/src/main/blackbox/blackbox.c **** #if defined(ENABLE_BLACKBOX_LOGGING_ON_SPIFLASH_BY_DEFAULT)
  80:../cleanflight/src/main/blackbox/blackbox.c **** #define DEFAULT_BLACKBOX_DEVICE     BLACKBOX_DEVICE_FLASH
  81:../cleanflight/src/main/blackbox/blackbox.c **** #elif defined(ENABLE_BLACKBOX_LOGGING_ON_SDCARD_BY_DEFAULT)
  82:../cleanflight/src/main/blackbox/blackbox.c **** #define DEFAULT_BLACKBOX_DEVICE     BLACKBOX_DEVICE_SDCARD
  83:../cleanflight/src/main/blackbox/blackbox.c **** #else
  84:../cleanflight/src/main/blackbox/blackbox.c **** #define DEFAULT_BLACKBOX_DEVICE     BLACKBOX_DEVICE_SERIAL
  85:../cleanflight/src/main/blackbox/blackbox.c **** #endif
  86:../cleanflight/src/main/blackbox/blackbox.c **** 
  87:../cleanflight/src/main/blackbox/blackbox.c **** PG_REGISTER_WITH_RESET_TEMPLATE(blackboxConfig_t, blackboxConfig, PG_BLACKBOX_CONFIG, 1);
  88:../cleanflight/src/main/blackbox/blackbox.c **** 
  89:../cleanflight/src/main/blackbox/blackbox.c **** PG_RESET_TEMPLATE(blackboxConfig_t, blackboxConfig,
  90:../cleanflight/src/main/blackbox/blackbox.c ****     .p_ratio = 32,
  91:../cleanflight/src/main/blackbox/blackbox.c ****     .device = DEFAULT_BLACKBOX_DEVICE,
  92:../cleanflight/src/main/blackbox/blackbox.c ****     .record_acc = 1,
  93:../cleanflight/src/main/blackbox/blackbox.c ****     .mode = BLACKBOX_MODE_NORMAL
  94:../cleanflight/src/main/blackbox/blackbox.c **** );
  95:../cleanflight/src/main/blackbox/blackbox.c **** 
  96:../cleanflight/src/main/blackbox/blackbox.c **** #define BLACKBOX_SHUTDOWN_TIMEOUT_MILLIS 200
  97:../cleanflight/src/main/blackbox/blackbox.c **** 
  98:../cleanflight/src/main/blackbox/blackbox.c **** // Some macros to make writing FLIGHT_LOG_FIELD_* constants shorter:
  99:../cleanflight/src/main/blackbox/blackbox.c **** 
 100:../cleanflight/src/main/blackbox/blackbox.c **** #define PREDICT(x) CONCAT(FLIGHT_LOG_FIELD_PREDICTOR_, x)
 101:../cleanflight/src/main/blackbox/blackbox.c **** #define ENCODING(x) CONCAT(FLIGHT_LOG_FIELD_ENCODING_, x)
 102:../cleanflight/src/main/blackbox/blackbox.c **** #define CONDITION(x) CONCAT(FLIGHT_LOG_FIELD_CONDITION_, x)
 103:../cleanflight/src/main/blackbox/blackbox.c **** #define UNSIGNED FLIGHT_LOG_FIELD_UNSIGNED
 104:../cleanflight/src/main/blackbox/blackbox.c **** #define SIGNED FLIGHT_LOG_FIELD_SIGNED
 105:../cleanflight/src/main/blackbox/blackbox.c **** 
 106:../cleanflight/src/main/blackbox/blackbox.c **** static const char blackboxHeader[] =
 107:../cleanflight/src/main/blackbox/blackbox.c ****     "H Product:Blackbox flight data recorder by Nicholas Sherlock\n"
 108:../cleanflight/src/main/blackbox/blackbox.c ****     "H Data version:2\n";
 109:../cleanflight/src/main/blackbox/blackbox.c **** 
 110:../cleanflight/src/main/blackbox/blackbox.c **** static const char* const blackboxFieldHeaderNames[] = {
 111:../cleanflight/src/main/blackbox/blackbox.c ****     "name",
 112:../cleanflight/src/main/blackbox/blackbox.c ****     "signed",
 113:../cleanflight/src/main/blackbox/blackbox.c ****     "predictor",
 114:../cleanflight/src/main/blackbox/blackbox.c ****     "encoding",
 115:../cleanflight/src/main/blackbox/blackbox.c ****     "predictor",
 116:../cleanflight/src/main/blackbox/blackbox.c ****     "encoding"
 117:../cleanflight/src/main/blackbox/blackbox.c **** };
 118:../cleanflight/src/main/blackbox/blackbox.c **** 
 119:../cleanflight/src/main/blackbox/blackbox.c **** /* All field definition structs should look like this (but with longer arrs): */
 120:../cleanflight/src/main/blackbox/blackbox.c **** typedef struct blackboxFieldDefinition_s {
 121:../cleanflight/src/main/blackbox/blackbox.c ****     const char *name;
 122:../cleanflight/src/main/blackbox/blackbox.c ****     // If the field name has a number to be included in square brackets [1] afterwards, set it here
 123:../cleanflight/src/main/blackbox/blackbox.c ****     int8_t fieldNameIndex;
 124:../cleanflight/src/main/blackbox/blackbox.c **** 
 125:../cleanflight/src/main/blackbox/blackbox.c ****     // Each member of this array will be the value to print for this field for the given header ind
 126:../cleanflight/src/main/blackbox/blackbox.c ****     uint8_t arr[1];
 127:../cleanflight/src/main/blackbox/blackbox.c **** } blackboxFieldDefinition_t;
 128:../cleanflight/src/main/blackbox/blackbox.c **** 
 129:../cleanflight/src/main/blackbox/blackbox.c **** #define BLACKBOX_DELTA_FIELD_HEADER_COUNT       ARRAYLEN(blackboxFieldHeaderNames)
 130:../cleanflight/src/main/blackbox/blackbox.c **** #define BLACKBOX_SIMPLE_FIELD_HEADER_COUNT      (BLACKBOX_DELTA_FIELD_HEADER_COUNT - 2)
 131:../cleanflight/src/main/blackbox/blackbox.c **** #define BLACKBOX_CONDITIONAL_FIELD_HEADER_COUNT (BLACKBOX_DELTA_FIELD_HEADER_COUNT - 2)
 132:../cleanflight/src/main/blackbox/blackbox.c **** 
 133:../cleanflight/src/main/blackbox/blackbox.c **** typedef struct blackboxSimpleFieldDefinition_s {
 134:../cleanflight/src/main/blackbox/blackbox.c ****     const char *name;
 135:../cleanflight/src/main/blackbox/blackbox.c ****     int8_t fieldNameIndex;
 136:../cleanflight/src/main/blackbox/blackbox.c **** 
 137:../cleanflight/src/main/blackbox/blackbox.c ****     uint8_t isSigned;
 138:../cleanflight/src/main/blackbox/blackbox.c ****     uint8_t predict;
 139:../cleanflight/src/main/blackbox/blackbox.c ****     uint8_t encode;
 140:../cleanflight/src/main/blackbox/blackbox.c **** } blackboxSimpleFieldDefinition_t;
 141:../cleanflight/src/main/blackbox/blackbox.c **** 
 142:../cleanflight/src/main/blackbox/blackbox.c **** typedef struct blackboxConditionalFieldDefinition_s {
 143:../cleanflight/src/main/blackbox/blackbox.c ****     const char *name;
 144:../cleanflight/src/main/blackbox/blackbox.c ****     int8_t fieldNameIndex;
 145:../cleanflight/src/main/blackbox/blackbox.c **** 
 146:../cleanflight/src/main/blackbox/blackbox.c ****     uint8_t isSigned;
 147:../cleanflight/src/main/blackbox/blackbox.c ****     uint8_t predict;
 148:../cleanflight/src/main/blackbox/blackbox.c ****     uint8_t encode;
 149:../cleanflight/src/main/blackbox/blackbox.c ****     uint8_t condition; // Decide whether this field should appear in the log
 150:../cleanflight/src/main/blackbox/blackbox.c **** } blackboxConditionalFieldDefinition_t;
 151:../cleanflight/src/main/blackbox/blackbox.c **** 
 152:../cleanflight/src/main/blackbox/blackbox.c **** typedef struct blackboxDeltaFieldDefinition_s {
 153:../cleanflight/src/main/blackbox/blackbox.c ****     const char *name;
 154:../cleanflight/src/main/blackbox/blackbox.c ****     int8_t fieldNameIndex;
 155:../cleanflight/src/main/blackbox/blackbox.c **** 
 156:../cleanflight/src/main/blackbox/blackbox.c ****     uint8_t isSigned;
 157:../cleanflight/src/main/blackbox/blackbox.c ****     uint8_t Ipredict;
 158:../cleanflight/src/main/blackbox/blackbox.c ****     uint8_t Iencode;
 159:../cleanflight/src/main/blackbox/blackbox.c ****     uint8_t Ppredict;
 160:../cleanflight/src/main/blackbox/blackbox.c ****     uint8_t Pencode;
 161:../cleanflight/src/main/blackbox/blackbox.c ****     uint8_t condition; // Decide whether this field should appear in the log
 162:../cleanflight/src/main/blackbox/blackbox.c **** } blackboxDeltaFieldDefinition_t;
 163:../cleanflight/src/main/blackbox/blackbox.c **** 
 164:../cleanflight/src/main/blackbox/blackbox.c **** /**
 165:../cleanflight/src/main/blackbox/blackbox.c ****  * Description of the blackbox fields we are writing in our main intra (I) and inter (P) frames. Th
 166:../cleanflight/src/main/blackbox/blackbox.c ****  * written into the flight log header so the log can be properly interpreted (but these definitions
 167:../cleanflight/src/main/blackbox/blackbox.c ****  * the encoding to happen, we have to encode the flight log ourselves in write{Inter|Intra}frame() 
 168:../cleanflight/src/main/blackbox/blackbox.c ****  * the encoding we've promised here).
 169:../cleanflight/src/main/blackbox/blackbox.c ****  */
 170:../cleanflight/src/main/blackbox/blackbox.c **** static const blackboxDeltaFieldDefinition_t blackboxMainFields[] = {
 171:../cleanflight/src/main/blackbox/blackbox.c ****     /* loopIteration doesn't appear in P frames since it always increments */
 172:../cleanflight/src/main/blackbox/blackbox.c ****     {"loopIteration",-1, UNSIGNED, .Ipredict = PREDICT(0),     .Iencode = ENCODING(UNSIGNED_VB), .P
 173:../cleanflight/src/main/blackbox/blackbox.c ****     /* Time advances pretty steadily so the P-frame prediction is a straight line */
 174:../cleanflight/src/main/blackbox/blackbox.c ****     {"time",       -1, UNSIGNED, .Ipredict = PREDICT(0),       .Iencode = ENCODING(UNSIGNED_VB), .P
 175:../cleanflight/src/main/blackbox/blackbox.c ****     {"axisP",       0, SIGNED,   .Ipredict = PREDICT(0),       .Iencode = ENCODING(SIGNED_VB),   .P
 176:../cleanflight/src/main/blackbox/blackbox.c ****     {"axisP",       1, SIGNED,   .Ipredict = PREDICT(0),       .Iencode = ENCODING(SIGNED_VB),   .P
 177:../cleanflight/src/main/blackbox/blackbox.c ****     {"axisP",       2, SIGNED,   .Ipredict = PREDICT(0),       .Iencode = ENCODING(SIGNED_VB),   .P
 178:../cleanflight/src/main/blackbox/blackbox.c ****     /* I terms get special packed encoding in P frames: */
 179:../cleanflight/src/main/blackbox/blackbox.c ****     {"axisI",       0, SIGNED,   .Ipredict = PREDICT(0),       .Iencode = ENCODING(SIGNED_VB),   .P
 180:../cleanflight/src/main/blackbox/blackbox.c ****     {"axisI",       1, SIGNED,   .Ipredict = PREDICT(0),       .Iencode = ENCODING(SIGNED_VB),   .P
 181:../cleanflight/src/main/blackbox/blackbox.c ****     {"axisI",       2, SIGNED,   .Ipredict = PREDICT(0),       .Iencode = ENCODING(SIGNED_VB),   .P
 182:../cleanflight/src/main/blackbox/blackbox.c ****     {"axisD",       0, SIGNED,   .Ipredict = PREDICT(0),       .Iencode = ENCODING(SIGNED_VB),   .P
 183:../cleanflight/src/main/blackbox/blackbox.c ****     {"axisD",       1, SIGNED,   .Ipredict = PREDICT(0),       .Iencode = ENCODING(SIGNED_VB),   .P
 184:../cleanflight/src/main/blackbox/blackbox.c ****     {"axisD",       2, SIGNED,   .Ipredict = PREDICT(0),       .Iencode = ENCODING(SIGNED_VB),   .P
 185:../cleanflight/src/main/blackbox/blackbox.c ****     {"axisF",       0, SIGNED,   .Ipredict = PREDICT(0),       .Iencode = ENCODING(SIGNED_VB),   .P
 186:../cleanflight/src/main/blackbox/blackbox.c ****     {"axisF",       1, SIGNED,   .Ipredict = PREDICT(0),       .Iencode = ENCODING(SIGNED_VB),   .P
 187:../cleanflight/src/main/blackbox/blackbox.c ****     {"axisF",       2, SIGNED,   .Ipredict = PREDICT(0),       .Iencode = ENCODING(SIGNED_VB),   .P
 188:../cleanflight/src/main/blackbox/blackbox.c ****     /* rcCommands are encoded together as a group in P-frames: */
 189:../cleanflight/src/main/blackbox/blackbox.c ****     {"rcCommand",   0, SIGNED,   .Ipredict = PREDICT(0),       .Iencode = ENCODING(SIGNED_VB),   .P
 190:../cleanflight/src/main/blackbox/blackbox.c ****     {"rcCommand",   1, SIGNED,   .Ipredict = PREDICT(0),       .Iencode = ENCODING(SIGNED_VB),   .P
 191:../cleanflight/src/main/blackbox/blackbox.c ****     {"rcCommand",   2, SIGNED,   .Ipredict = PREDICT(0),       .Iencode = ENCODING(SIGNED_VB),   .P
 192:../cleanflight/src/main/blackbox/blackbox.c ****     /* Throttle is always in the range [minthrottle..maxthrottle]: */
 193:../cleanflight/src/main/blackbox/blackbox.c ****     {"rcCommand",   3, UNSIGNED, .Ipredict = PREDICT(MINTHROTTLE), .Iencode = ENCODING(UNSIGNED_VB)
 194:../cleanflight/src/main/blackbox/blackbox.c **** 
 195:../cleanflight/src/main/blackbox/blackbox.c ****     {"vbatLatest",    -1, UNSIGNED, .Ipredict = PREDICT(VBATREF),  .Iencode = ENCODING(NEG_14BIT), 
 196:../cleanflight/src/main/blackbox/blackbox.c ****     {"amperageLatest",-1, SIGNED,   .Ipredict = PREDICT(0),        .Iencode = ENCODING(SIGNED_VB), 
 197:../cleanflight/src/main/blackbox/blackbox.c **** 
 198:../cleanflight/src/main/blackbox/blackbox.c **** #ifdef USE_MAG
 199:../cleanflight/src/main/blackbox/blackbox.c ****     {"magADC",      0, SIGNED,   .Ipredict = PREDICT(0),       .Iencode = ENCODING(SIGNED_VB),   .P
 200:../cleanflight/src/main/blackbox/blackbox.c ****     {"magADC",      1, SIGNED,   .Ipredict = PREDICT(0),       .Iencode = ENCODING(SIGNED_VB),   .P
 201:../cleanflight/src/main/blackbox/blackbox.c ****     {"magADC",      2, SIGNED,   .Ipredict = PREDICT(0),       .Iencode = ENCODING(SIGNED_VB),   .P
 202:../cleanflight/src/main/blackbox/blackbox.c **** #endif
 203:../cleanflight/src/main/blackbox/blackbox.c **** #ifdef USE_BARO
 204:../cleanflight/src/main/blackbox/blackbox.c ****     {"BaroAlt",    -1, SIGNED,   .Ipredict = PREDICT(0),       .Iencode = ENCODING(SIGNED_VB),   .P
 205:../cleanflight/src/main/blackbox/blackbox.c **** #endif
 206:../cleanflight/src/main/blackbox/blackbox.c **** #ifdef USE_RANGEFINDER
 207:../cleanflight/src/main/blackbox/blackbox.c ****     {"surfaceRaw",   -1, SIGNED,   .Ipredict = PREDICT(0),       .Iencode = ENCODING(SIGNED_VB),   
 208:../cleanflight/src/main/blackbox/blackbox.c **** #endif
 209:../cleanflight/src/main/blackbox/blackbox.c ****     {"rssi",       -1, UNSIGNED, .Ipredict = PREDICT(0),       .Iencode = ENCODING(UNSIGNED_VB), .P
 210:../cleanflight/src/main/blackbox/blackbox.c **** 
 211:../cleanflight/src/main/blackbox/blackbox.c ****     /* Gyros and accelerometers base their P-predictions on the average of the previous 2 frames to
 212:../cleanflight/src/main/blackbox/blackbox.c ****     {"gyroADC",     0, SIGNED,   .Ipredict = PREDICT(0),       .Iencode = ENCODING(SIGNED_VB),   .P
 213:../cleanflight/src/main/blackbox/blackbox.c ****     {"gyroADC",     1, SIGNED,   .Ipredict = PREDICT(0),       .Iencode = ENCODING(SIGNED_VB),   .P
 214:../cleanflight/src/main/blackbox/blackbox.c ****     {"gyroADC",     2, SIGNED,   .Ipredict = PREDICT(0),       .Iencode = ENCODING(SIGNED_VB),   .P
 215:../cleanflight/src/main/blackbox/blackbox.c ****     {"accSmooth",   0, SIGNED,   .Ipredict = PREDICT(0),       .Iencode = ENCODING(SIGNED_VB),   .P
 216:../cleanflight/src/main/blackbox/blackbox.c ****     {"accSmooth",   1, SIGNED,   .Ipredict = PREDICT(0),       .Iencode = ENCODING(SIGNED_VB),   .P
 217:../cleanflight/src/main/blackbox/blackbox.c ****     {"accSmooth",   2, SIGNED,   .Ipredict = PREDICT(0),       .Iencode = ENCODING(SIGNED_VB),   .P
 218:../cleanflight/src/main/blackbox/blackbox.c ****     {"debug",       0, SIGNED,   .Ipredict = PREDICT(0),       .Iencode = ENCODING(SIGNED_VB),   .P
 219:../cleanflight/src/main/blackbox/blackbox.c ****     {"debug",       1, SIGNED,   .Ipredict = PREDICT(0),       .Iencode = ENCODING(SIGNED_VB),   .P
 220:../cleanflight/src/main/blackbox/blackbox.c ****     {"debug",       2, SIGNED,   .Ipredict = PREDICT(0),       .Iencode = ENCODING(SIGNED_VB),   .P
 221:../cleanflight/src/main/blackbox/blackbox.c ****     {"debug",       3, SIGNED,   .Ipredict = PREDICT(0),       .Iencode = ENCODING(SIGNED_VB),   .P
 222:../cleanflight/src/main/blackbox/blackbox.c ****     /* Motors only rarely drops under minthrottle (when stick falls below mincommand), so predict m
 223:../cleanflight/src/main/blackbox/blackbox.c ****     {"motor",       0, UNSIGNED, .Ipredict = PREDICT(MINMOTOR), .Iencode = ENCODING(UNSIGNED_VB), .
 224:../cleanflight/src/main/blackbox/blackbox.c ****     /* Subsequent motors base their I-frame values on the first one, P-frame values on the average 
 225:../cleanflight/src/main/blackbox/blackbox.c ****     {"motor",       1, UNSIGNED, .Ipredict = PREDICT(MOTOR_0), .Iencode = ENCODING(SIGNED_VB),   .P
 226:../cleanflight/src/main/blackbox/blackbox.c ****     {"motor",       2, UNSIGNED, .Ipredict = PREDICT(MOTOR_0), .Iencode = ENCODING(SIGNED_VB),   .P
 227:../cleanflight/src/main/blackbox/blackbox.c ****     {"motor",       3, UNSIGNED, .Ipredict = PREDICT(MOTOR_0), .Iencode = ENCODING(SIGNED_VB),   .P
 228:../cleanflight/src/main/blackbox/blackbox.c ****     {"motor",       4, UNSIGNED, .Ipredict = PREDICT(MOTOR_0), .Iencode = ENCODING(SIGNED_VB),   .P
 229:../cleanflight/src/main/blackbox/blackbox.c ****     {"motor",       5, UNSIGNED, .Ipredict = PREDICT(MOTOR_0), .Iencode = ENCODING(SIGNED_VB),   .P
 230:../cleanflight/src/main/blackbox/blackbox.c ****     {"motor",       6, UNSIGNED, .Ipredict = PREDICT(MOTOR_0), .Iencode = ENCODING(SIGNED_VB),   .P
 231:../cleanflight/src/main/blackbox/blackbox.c ****     {"motor",       7, UNSIGNED, .Ipredict = PREDICT(MOTOR_0), .Iencode = ENCODING(SIGNED_VB),   .P
 232:../cleanflight/src/main/blackbox/blackbox.c **** 
 233:../cleanflight/src/main/blackbox/blackbox.c ****     /* Tricopter tail servo */
 234:../cleanflight/src/main/blackbox/blackbox.c ****     {"servo",       5, UNSIGNED, .Ipredict = PREDICT(1500),    .Iencode = ENCODING(SIGNED_VB),   .P
 235:../cleanflight/src/main/blackbox/blackbox.c **** };
 236:../cleanflight/src/main/blackbox/blackbox.c **** 
 237:../cleanflight/src/main/blackbox/blackbox.c **** #ifdef USE_GPS
 238:../cleanflight/src/main/blackbox/blackbox.c **** // GPS position/vel frame
 239:../cleanflight/src/main/blackbox/blackbox.c **** static const blackboxConditionalFieldDefinition_t blackboxGpsGFields[] = {
 240:../cleanflight/src/main/blackbox/blackbox.c ****     {"time",              -1, UNSIGNED, PREDICT(LAST_MAIN_FRAME_TIME), ENCODING(UNSIGNED_VB), CONDI
 241:../cleanflight/src/main/blackbox/blackbox.c ****     {"GPS_numSat",        -1, UNSIGNED, PREDICT(0),          ENCODING(UNSIGNED_VB), CONDITION(ALWAY
 242:../cleanflight/src/main/blackbox/blackbox.c ****     {"GPS_coord",          0, SIGNED,   PREDICT(HOME_COORD), ENCODING(SIGNED_VB),   CONDITION(ALWAY
 243:../cleanflight/src/main/blackbox/blackbox.c ****     {"GPS_coord",          1, SIGNED,   PREDICT(HOME_COORD), ENCODING(SIGNED_VB),   CONDITION(ALWAY
 244:../cleanflight/src/main/blackbox/blackbox.c ****     {"GPS_altitude",      -1, UNSIGNED, PREDICT(0),          ENCODING(UNSIGNED_VB), CONDITION(ALWAY
 245:../cleanflight/src/main/blackbox/blackbox.c ****     {"GPS_speed",         -1, UNSIGNED, PREDICT(0),          ENCODING(UNSIGNED_VB), CONDITION(ALWAY
 246:../cleanflight/src/main/blackbox/blackbox.c ****     {"GPS_ground_course", -1, UNSIGNED, PREDICT(0),          ENCODING(UNSIGNED_VB), CONDITION(ALWAY
 247:../cleanflight/src/main/blackbox/blackbox.c **** };
 248:../cleanflight/src/main/blackbox/blackbox.c **** 
 249:../cleanflight/src/main/blackbox/blackbox.c **** // GPS home frame
 250:../cleanflight/src/main/blackbox/blackbox.c **** static const blackboxSimpleFieldDefinition_t blackboxGpsHFields[] = {
 251:../cleanflight/src/main/blackbox/blackbox.c ****     {"GPS_home",           0, SIGNED,   PREDICT(0),          ENCODING(SIGNED_VB)},
 252:../cleanflight/src/main/blackbox/blackbox.c ****     {"GPS_home",           1, SIGNED,   PREDICT(0),          ENCODING(SIGNED_VB)}
 253:../cleanflight/src/main/blackbox/blackbox.c **** };
 254:../cleanflight/src/main/blackbox/blackbox.c **** #endif
 255:../cleanflight/src/main/blackbox/blackbox.c **** 
 256:../cleanflight/src/main/blackbox/blackbox.c **** // Rarely-updated fields
 257:../cleanflight/src/main/blackbox/blackbox.c **** static const blackboxSimpleFieldDefinition_t blackboxSlowFields[] = {
 258:../cleanflight/src/main/blackbox/blackbox.c ****     {"flightModeFlags",       -1, UNSIGNED, PREDICT(0),      ENCODING(UNSIGNED_VB)},
 259:../cleanflight/src/main/blackbox/blackbox.c ****     {"stateFlags",            -1, UNSIGNED, PREDICT(0),      ENCODING(UNSIGNED_VB)},
 260:../cleanflight/src/main/blackbox/blackbox.c **** 
 261:../cleanflight/src/main/blackbox/blackbox.c ****     {"failsafePhase",         -1, UNSIGNED, PREDICT(0),      ENCODING(TAG2_3S32)},
 262:../cleanflight/src/main/blackbox/blackbox.c ****     {"rxSignalReceived",      -1, UNSIGNED, PREDICT(0),      ENCODING(TAG2_3S32)},
 263:../cleanflight/src/main/blackbox/blackbox.c ****     {"rxFlightChannelsValid", -1, UNSIGNED, PREDICT(0),      ENCODING(TAG2_3S32)}
 264:../cleanflight/src/main/blackbox/blackbox.c **** };
 265:../cleanflight/src/main/blackbox/blackbox.c **** 
 266:../cleanflight/src/main/blackbox/blackbox.c **** typedef enum BlackboxState {
 267:../cleanflight/src/main/blackbox/blackbox.c ****     BLACKBOX_STATE_DISABLED = 0,
 268:../cleanflight/src/main/blackbox/blackbox.c ****     BLACKBOX_STATE_STOPPED,
 269:../cleanflight/src/main/blackbox/blackbox.c ****     BLACKBOX_STATE_PREPARE_LOG_FILE,
 270:../cleanflight/src/main/blackbox/blackbox.c ****     BLACKBOX_STATE_SEND_HEADER,
 271:../cleanflight/src/main/blackbox/blackbox.c ****     BLACKBOX_STATE_SEND_MAIN_FIELD_HEADER,
 272:../cleanflight/src/main/blackbox/blackbox.c ****     BLACKBOX_STATE_SEND_GPS_H_HEADER,
 273:../cleanflight/src/main/blackbox/blackbox.c ****     BLACKBOX_STATE_SEND_GPS_G_HEADER,
 274:../cleanflight/src/main/blackbox/blackbox.c ****     BLACKBOX_STATE_SEND_SLOW_HEADER,
 275:../cleanflight/src/main/blackbox/blackbox.c ****     BLACKBOX_STATE_SEND_SYSINFO,
 276:../cleanflight/src/main/blackbox/blackbox.c ****     BLACKBOX_STATE_PAUSED,
 277:../cleanflight/src/main/blackbox/blackbox.c ****     BLACKBOX_STATE_RUNNING,
 278:../cleanflight/src/main/blackbox/blackbox.c ****     BLACKBOX_STATE_SHUTTING_DOWN,
 279:../cleanflight/src/main/blackbox/blackbox.c ****     BLACKBOX_STATE_START_ERASE,
 280:../cleanflight/src/main/blackbox/blackbox.c ****     BLACKBOX_STATE_ERASING,
 281:../cleanflight/src/main/blackbox/blackbox.c ****     BLACKBOX_STATE_ERASED
 282:../cleanflight/src/main/blackbox/blackbox.c **** } BlackboxState;
 283:../cleanflight/src/main/blackbox/blackbox.c **** 
 284:../cleanflight/src/main/blackbox/blackbox.c **** 
 285:../cleanflight/src/main/blackbox/blackbox.c **** typedef struct blackboxMainState_s {
 286:../cleanflight/src/main/blackbox/blackbox.c ****     uint32_t time;
 287:../cleanflight/src/main/blackbox/blackbox.c **** 
 288:../cleanflight/src/main/blackbox/blackbox.c ****     int32_t axisPID_P[XYZ_AXIS_COUNT];
 289:../cleanflight/src/main/blackbox/blackbox.c ****     int32_t axisPID_I[XYZ_AXIS_COUNT];
 290:../cleanflight/src/main/blackbox/blackbox.c ****     int32_t axisPID_D[XYZ_AXIS_COUNT];
 291:../cleanflight/src/main/blackbox/blackbox.c ****     int32_t axisPID_F[XYZ_AXIS_COUNT];
 292:../cleanflight/src/main/blackbox/blackbox.c **** 
 293:../cleanflight/src/main/blackbox/blackbox.c ****     int16_t rcCommand[4];
 294:../cleanflight/src/main/blackbox/blackbox.c ****     int16_t gyroADC[XYZ_AXIS_COUNT];
 295:../cleanflight/src/main/blackbox/blackbox.c ****     int16_t accADC[XYZ_AXIS_COUNT];
 296:../cleanflight/src/main/blackbox/blackbox.c ****     int16_t debug[DEBUG16_VALUE_COUNT];
 297:../cleanflight/src/main/blackbox/blackbox.c ****     int16_t motor[MAX_SUPPORTED_MOTORS];
 298:../cleanflight/src/main/blackbox/blackbox.c ****     int16_t servo[MAX_SUPPORTED_SERVOS];
 299:../cleanflight/src/main/blackbox/blackbox.c **** 
 300:../cleanflight/src/main/blackbox/blackbox.c ****     uint16_t vbatLatest;
 301:../cleanflight/src/main/blackbox/blackbox.c ****     int32_t amperageLatest;
 302:../cleanflight/src/main/blackbox/blackbox.c **** 
 303:../cleanflight/src/main/blackbox/blackbox.c **** #ifdef USE_BARO
 304:../cleanflight/src/main/blackbox/blackbox.c ****     int32_t BaroAlt;
 305:../cleanflight/src/main/blackbox/blackbox.c **** #endif
 306:../cleanflight/src/main/blackbox/blackbox.c **** #ifdef USE_MAG
 307:../cleanflight/src/main/blackbox/blackbox.c ****     int16_t magADC[XYZ_AXIS_COUNT];
 308:../cleanflight/src/main/blackbox/blackbox.c **** #endif
 309:../cleanflight/src/main/blackbox/blackbox.c **** #ifdef USE_RANGEFINDER
 310:../cleanflight/src/main/blackbox/blackbox.c ****     int32_t surfaceRaw;
 311:../cleanflight/src/main/blackbox/blackbox.c **** #endif
 312:../cleanflight/src/main/blackbox/blackbox.c ****     uint16_t rssi;
 313:../cleanflight/src/main/blackbox/blackbox.c **** } blackboxMainState_t;
 314:../cleanflight/src/main/blackbox/blackbox.c **** 
 315:../cleanflight/src/main/blackbox/blackbox.c **** typedef struct blackboxGpsState_s {
 316:../cleanflight/src/main/blackbox/blackbox.c ****     int32_t GPS_home[2];
 317:../cleanflight/src/main/blackbox/blackbox.c ****     int32_t GPS_coord[2];
 318:../cleanflight/src/main/blackbox/blackbox.c ****     uint8_t GPS_numSat;
 319:../cleanflight/src/main/blackbox/blackbox.c **** } blackboxGpsState_t;
 320:../cleanflight/src/main/blackbox/blackbox.c **** 
 321:../cleanflight/src/main/blackbox/blackbox.c **** // This data is updated really infrequently:
 322:../cleanflight/src/main/blackbox/blackbox.c **** typedef struct blackboxSlowState_s {
 323:../cleanflight/src/main/blackbox/blackbox.c ****     uint32_t flightModeFlags; // extend this data size (from uint16_t)
 324:../cleanflight/src/main/blackbox/blackbox.c ****     uint8_t stateFlags;
 325:../cleanflight/src/main/blackbox/blackbox.c ****     uint8_t failsafePhase;
 326:../cleanflight/src/main/blackbox/blackbox.c ****     bool rxSignalReceived;
 327:../cleanflight/src/main/blackbox/blackbox.c ****     bool rxFlightChannelsValid;
 328:../cleanflight/src/main/blackbox/blackbox.c **** } __attribute__((__packed__)) blackboxSlowState_t; // We pack this struct so that padding doesn't i
 329:../cleanflight/src/main/blackbox/blackbox.c **** 
 330:../cleanflight/src/main/blackbox/blackbox.c **** //From rc_controls.c
 331:../cleanflight/src/main/blackbox/blackbox.c **** extern boxBitmask_t rcModeActivationMask;
 332:../cleanflight/src/main/blackbox/blackbox.c **** 
 333:../cleanflight/src/main/blackbox/blackbox.c **** static BlackboxState blackboxState = BLACKBOX_STATE_DISABLED;
 334:../cleanflight/src/main/blackbox/blackbox.c **** 
 335:../cleanflight/src/main/blackbox/blackbox.c **** static uint32_t blackboxLastArmingBeep = 0;
 336:../cleanflight/src/main/blackbox/blackbox.c **** static uint32_t blackboxLastFlightModeFlags = 0; // New event tracking of flight modes
 337:../cleanflight/src/main/blackbox/blackbox.c **** 
 338:../cleanflight/src/main/blackbox/blackbox.c **** static struct {
 339:../cleanflight/src/main/blackbox/blackbox.c ****     uint32_t headerIndex;
 340:../cleanflight/src/main/blackbox/blackbox.c **** 
 341:../cleanflight/src/main/blackbox/blackbox.c ****     /* Since these fields are used during different blackbox states (never simultaneously) we can
 342:../cleanflight/src/main/blackbox/blackbox.c ****      * overlap them to save on RAM
 343:../cleanflight/src/main/blackbox/blackbox.c ****      */
 344:../cleanflight/src/main/blackbox/blackbox.c ****     union {
 345:../cleanflight/src/main/blackbox/blackbox.c ****         int fieldIndex;
 346:../cleanflight/src/main/blackbox/blackbox.c ****         uint32_t startTime;
 347:../cleanflight/src/main/blackbox/blackbox.c ****     } u;
 348:../cleanflight/src/main/blackbox/blackbox.c **** } xmitState;
 349:../cleanflight/src/main/blackbox/blackbox.c **** 
 350:../cleanflight/src/main/blackbox/blackbox.c **** // Cache for FLIGHT_LOG_FIELD_CONDITION_* test results:
 351:../cleanflight/src/main/blackbox/blackbox.c **** static uint32_t blackboxConditionCache;
 352:../cleanflight/src/main/blackbox/blackbox.c **** 
 353:../cleanflight/src/main/blackbox/blackbox.c **** STATIC_ASSERT((sizeof(blackboxConditionCache) * 8) >= FLIGHT_LOG_FIELD_CONDITION_LAST, too_many_fli
 354:../cleanflight/src/main/blackbox/blackbox.c **** 
 355:../cleanflight/src/main/blackbox/blackbox.c **** static uint32_t blackboxIteration;
 356:../cleanflight/src/main/blackbox/blackbox.c **** static uint16_t blackboxLoopIndex;
 357:../cleanflight/src/main/blackbox/blackbox.c **** static uint16_t blackboxPFrameIndex;
 358:../cleanflight/src/main/blackbox/blackbox.c **** static uint16_t blackboxIFrameIndex;
 359:../cleanflight/src/main/blackbox/blackbox.c **** // number of flight loop iterations before logging I-frame
 360:../cleanflight/src/main/blackbox/blackbox.c **** // typically 32 for 1kHz loop, 64 for 2kHz loop etc
 361:../cleanflight/src/main/blackbox/blackbox.c **** STATIC_UNIT_TESTED int16_t blackboxIInterval = 0;
 362:../cleanflight/src/main/blackbox/blackbox.c **** // number of flight loop iterations before logging P-frame
 363:../cleanflight/src/main/blackbox/blackbox.c **** STATIC_UNIT_TESTED int16_t blackboxPInterval = 0;
 364:../cleanflight/src/main/blackbox/blackbox.c **** STATIC_UNIT_TESTED int32_t blackboxSInterval = 0;
 365:../cleanflight/src/main/blackbox/blackbox.c **** STATIC_UNIT_TESTED int32_t blackboxSlowFrameIterationTimer;
 366:../cleanflight/src/main/blackbox/blackbox.c **** static bool blackboxLoggedAnyFrames;
 367:../cleanflight/src/main/blackbox/blackbox.c **** 
 368:../cleanflight/src/main/blackbox/blackbox.c **** /*
 369:../cleanflight/src/main/blackbox/blackbox.c ****  * We store voltages in I-frames relative to this, which was the voltage when the blackbox was acti
 370:../cleanflight/src/main/blackbox/blackbox.c ****  * This helps out since the voltage is only expected to fall from that point and we can reduce our 
 371:../cleanflight/src/main/blackbox/blackbox.c ****  * to encode:
 372:../cleanflight/src/main/blackbox/blackbox.c ****  */
 373:../cleanflight/src/main/blackbox/blackbox.c **** static uint16_t vbatReference;
 374:../cleanflight/src/main/blackbox/blackbox.c **** 
 375:../cleanflight/src/main/blackbox/blackbox.c **** static blackboxGpsState_t gpsHistory;
 376:../cleanflight/src/main/blackbox/blackbox.c **** static blackboxSlowState_t slowHistory;
 377:../cleanflight/src/main/blackbox/blackbox.c **** 
 378:../cleanflight/src/main/blackbox/blackbox.c **** // Keep a history of length 2, plus a buffer for MW to store the new values into
 379:../cleanflight/src/main/blackbox/blackbox.c **** static blackboxMainState_t blackboxHistoryRing[3];
 380:../cleanflight/src/main/blackbox/blackbox.c **** 
 381:../cleanflight/src/main/blackbox/blackbox.c **** // These point into blackboxHistoryRing, use them to know where to store history of a given age (0,
 382:../cleanflight/src/main/blackbox/blackbox.c **** static blackboxMainState_t* blackboxHistory[3];
 383:../cleanflight/src/main/blackbox/blackbox.c **** 
 384:../cleanflight/src/main/blackbox/blackbox.c **** static bool blackboxModeActivationConditionPresent = false;
 385:../cleanflight/src/main/blackbox/blackbox.c **** 
 386:../cleanflight/src/main/blackbox/blackbox.c **** /**
 387:../cleanflight/src/main/blackbox/blackbox.c ****  * Return true if it is safe to edit the Blackbox configuration.
 388:../cleanflight/src/main/blackbox/blackbox.c ****  */
 389:../cleanflight/src/main/blackbox/blackbox.c **** bool blackboxMayEditConfig(void)
 390:../cleanflight/src/main/blackbox/blackbox.c **** {
 1499              	 .loc 16 390 0
 1500              	 .cfi_startproc
 1501              	 
 1502              	 
 1503              	 
 1504 0000 80B4     	 push {r7}
 1505              	.LCFI80:
 1506              	 .cfi_def_cfa_offset 4
 1507              	 .cfi_offset 7,-4
 1508 0002 00AF     	 add r7,sp,#0
 1509              	.LCFI81:
 1510              	 .cfi_def_cfa_register 7
 391:../cleanflight/src/main/blackbox/blackbox.c ****     return blackboxState <= BLACKBOX_STATE_STOPPED;
 1511              	 .loc 16 391 0
 1512 0004 054B     	 ldr r3,.L79
 1513 0006 1B78     	 ldrb r3,[r3]
 1514 0008 012B     	 cmp r3,#1
 1515 000a 94BF     	 ite ls
 1516 000c 0123     	 movls r3,#1
 1517 000e 0023     	 movhi r3,#0
 1518 0010 DBB2     	 uxtb r3,r3
 392:../cleanflight/src/main/blackbox/blackbox.c **** }
 1519              	 .loc 16 392 0
 1520 0012 1846     	 mov r0,r3
 1521 0014 BD46     	 mov sp,r7
 1522              	.LCFI82:
 1523              	 .cfi_def_cfa_register 13
 1524              	 
 1525 0016 5DF8047B 	 ldr r7,[sp],#4
 1526              	.LCFI83:
 1527              	 .cfi_restore 7
 1528              	 .cfi_def_cfa_offset 0
 1529 001a 7047     	 bx lr
 1530              	.L80:
 1531              	 .align 2
 1532              	.L79:
 1533 001c 00000000 	 .word blackboxState
 1534              	 .cfi_endproc
 1535              	.LFE608:
 1537              	 .section .text.blackboxIsOnlyLoggingIntraframes,"ax",%progbits
 1538              	 .align 2
 1539              	 .thumb
 1540              	 .thumb_func
 1542              	blackboxIsOnlyLoggingIntraframes:
 1543              	.LFB609:
 393:../cleanflight/src/main/blackbox/blackbox.c **** 
 394:../cleanflight/src/main/blackbox/blackbox.c **** static bool blackboxIsOnlyLoggingIntraframes(void)
 395:../cleanflight/src/main/blackbox/blackbox.c **** {
 1544              	 .loc 16 395 0
 1545              	 .cfi_startproc
 1546              	 
 1547              	 
 1548 0000 80B5     	 push {r7,lr}
 1549              	.LCFI84:
 1550              	 .cfi_def_cfa_offset 8
 1551              	 .cfi_offset 7,-8
 1552              	 .cfi_offset 14,-4
 1553 0002 00AF     	 add r7,sp,#0
 1554              	.LCFI85:
 1555              	 .cfi_def_cfa_register 7
 396:../cleanflight/src/main/blackbox/blackbox.c ****     return blackboxConfig()->p_ratio == 0;
 1556              	 .loc 16 396 0
 1557 0004 FFF7FEFF 	 bl blackboxConfig
 1558 0008 0346     	 mov r3,r0
 1559 000a 1B88     	 ldrh r3,[r3]
 1560 000c 9BB2     	 uxth r3,r3
 1561 000e 002B     	 cmp r3,#0
 1562 0010 0CBF     	 ite eq
 1563 0012 0123     	 moveq r3,#1
 1564 0014 0023     	 movne r3,#0
 1565 0016 DBB2     	 uxtb r3,r3
 397:../cleanflight/src/main/blackbox/blackbox.c **** }
 1566              	 .loc 16 397 0
 1567 0018 1846     	 mov r0,r3
 1568 001a 80BD     	 pop {r7,pc}
 1569              	 .cfi_endproc
 1570              	.LFE609:
 1572              	 .section .text.testBlackboxConditionUncached,"ax",%progbits
 1573              	 .align 2
 1574              	 .thumb
 1575              	 .thumb_func
 1577              	testBlackboxConditionUncached:
 1578              	.LFB610:
 398:../cleanflight/src/main/blackbox/blackbox.c **** 
 399:../cleanflight/src/main/blackbox/blackbox.c **** static bool testBlackboxConditionUncached(FlightLogFieldCondition condition)
 400:../cleanflight/src/main/blackbox/blackbox.c **** {
 1579              	 .loc 16 400 0
 1580              	 .cfi_startproc
 1581              	 
 1582              	 
 1583 0000 80B5     	 push {r7,lr}
 1584              	.LCFI86:
 1585              	 .cfi_def_cfa_offset 8
 1586              	 .cfi_offset 7,-8
 1587              	 .cfi_offset 14,-4
 1588 0002 82B0     	 sub sp,sp,#8
 1589              	.LCFI87:
 1590              	 .cfi_def_cfa_offset 16
 1591 0004 00AF     	 add r7,sp,#0
 1592              	.LCFI88:
 1593              	 .cfi_def_cfa_register 7
 1594 0006 0346     	 mov r3,r0
 1595 0008 FB71     	 strb r3,[r7,#7]
 401:../cleanflight/src/main/blackbox/blackbox.c ****     switch (condition) {
 1596              	 .loc 16 401 0
 1597 000a FB79     	 ldrb r3,[r7,#7]
 1598 000c 162B     	 cmp r3,#22
 1599 000e 00F2C780 	 bhi .L84
 1600 0012 01A2     	 adr r2,.L86
 1601 0014 52F823F0 	 ldr pc,[r2,r3,lsl#2]
 1602              	 .p2align 2
 1603              	.L86:
 1604 0018 75000000 	 .word .L85+1
 1605 001c 79000000 	 .word .L87+1
 1606 0020 79000000 	 .word .L87+1
 1607 0024 79000000 	 .word .L87+1
 1608 0028 79000000 	 .word .L87+1
 1609 002c 79000000 	 .word .L87+1
 1610 0030 79000000 	 .word .L87+1
 1611 0034 79000000 	 .word .L87+1
 1612 0038 79000000 	 .word .L87+1
 1613 003c 8F000000 	 .word .L88+1
 1614 0040 D7000000 	 .word .L89+1
 1615 0044 E1000000 	 .word .L90+1
 1616 0048 EB000000 	 .word .L91+1
 1617 004c FF000000 	 .word .L92+1
 1618 0050 25010000 	 .word .L93+1
 1619 0054 29010000 	 .word .L94+1
 1620 0058 B5000000 	 .word .L95+1
 1621 005c B5000000 	 .word .L95+1
 1622 0060 B5000000 	 .word .L95+1
 1623 0064 51010000 	 .word .L96+1
 1624 0068 67010000 	 .word .L97+1
 1625 006c 8D010000 	 .word .L98+1
 1626 0070 9D010000 	 .word .L99+1
 1627              	 .p2align 1
 1628              	.L85:
 402:../cleanflight/src/main/blackbox/blackbox.c ****     case FLIGHT_LOG_FIELD_CONDITION_ALWAYS:
 403:../cleanflight/src/main/blackbox/blackbox.c ****         return true;
 1629              	 .loc 16 403 0
 1630 0074 0123     	 movs r3,#1
 1631 0076 94E0     	 b .L100
 1632              	.L87:
 404:../cleanflight/src/main/blackbox/blackbox.c **** 
 405:../cleanflight/src/main/blackbox/blackbox.c ****     case FLIGHT_LOG_FIELD_CONDITION_AT_LEAST_MOTORS_1:
 406:../cleanflight/src/main/blackbox/blackbox.c ****     case FLIGHT_LOG_FIELD_CONDITION_AT_LEAST_MOTORS_2:
 407:../cleanflight/src/main/blackbox/blackbox.c ****     case FLIGHT_LOG_FIELD_CONDITION_AT_LEAST_MOTORS_3:
 408:../cleanflight/src/main/blackbox/blackbox.c ****     case FLIGHT_LOG_FIELD_CONDITION_AT_LEAST_MOTORS_4:
 409:../cleanflight/src/main/blackbox/blackbox.c ****     case FLIGHT_LOG_FIELD_CONDITION_AT_LEAST_MOTORS_5:
 410:../cleanflight/src/main/blackbox/blackbox.c ****     case FLIGHT_LOG_FIELD_CONDITION_AT_LEAST_MOTORS_6:
 411:../cleanflight/src/main/blackbox/blackbox.c ****     case FLIGHT_LOG_FIELD_CONDITION_AT_LEAST_MOTORS_7:
 412:../cleanflight/src/main/blackbox/blackbox.c ****     case FLIGHT_LOG_FIELD_CONDITION_AT_LEAST_MOTORS_8:
 413:../cleanflight/src/main/blackbox/blackbox.c ****         return getMotorCount() >= condition - FLIGHT_LOG_FIELD_CONDITION_AT_LEAST_MOTORS_1 + 1;
 1633              	 .loc 16 413 0
 1634 0078 FFF7FEFF 	 bl getMotorCount
 1635 007c 0346     	 mov r3,r0
 1636 007e 1A46     	 mov r2,r3
 1637 0080 FB79     	 ldrb r3,[r7,#7]
 1638 0082 9A42     	 cmp r2,r3
 1639 0084 ACBF     	 ite ge
 1640 0086 0123     	 movge r3,#1
 1641 0088 0023     	 movlt r3,#0
 1642 008a DBB2     	 uxtb r3,r3
 1643 008c 89E0     	 b .L100
 1644              	.L88:
 414:../cleanflight/src/main/blackbox/blackbox.c **** 
 415:../cleanflight/src/main/blackbox/blackbox.c ****     case FLIGHT_LOG_FIELD_CONDITION_TRICOPTER:
 416:../cleanflight/src/main/blackbox/blackbox.c ****         return mixerConfig()->mixerMode == MIXER_TRI || mixerConfig()->mixerMode == MIXER_CUSTOM_TR
 1645              	 .loc 16 416 0
 1646 008e FFF7FEFF 	 bl mixerConfig
 1647 0092 0346     	 mov r3,r0
 1648 0094 1B78     	 ldrb r3,[r3]
 1649 0096 012B     	 cmp r3,#1
 1650 0098 05D0     	 beq .L101
 1651              	 .loc 16 416 0 is_stmt 0 discriminator 2
 1652 009a FFF7FEFF 	 bl mixerConfig
 1653 009e 0346     	 mov r3,r0
 1654 00a0 1B78     	 ldrb r3,[r3]
 1655 00a2 192B     	 cmp r3,#25
 1656 00a4 01D1     	 bne .L102
 1657              	.L101:
 1658              	 .loc 16 416 0 discriminator 3
 1659 00a6 0123     	 movs r3,#1
 1660 00a8 00E0     	 b .L103
 1661              	.L102:
 1662              	 .loc 16 416 0 discriminator 4
 1663 00aa 0023     	 movs r3,#0
 1664              	.L103:
 1665              	 .loc 16 416 0 discriminator 6
 1666 00ac 03F00103 	 and r3,r3,#1
 1667 00b0 DBB2     	 uxtb r3,r3
 1668 00b2 76E0     	 b .L100
 1669              	.L95:
 417:../cleanflight/src/main/blackbox/blackbox.c **** 
 418:../cleanflight/src/main/blackbox/blackbox.c ****     case FLIGHT_LOG_FIELD_CONDITION_NONZERO_PID_D_0:
 419:../cleanflight/src/main/blackbox/blackbox.c ****     case FLIGHT_LOG_FIELD_CONDITION_NONZERO_PID_D_1:
 420:../cleanflight/src/main/blackbox/blackbox.c ****     case FLIGHT_LOG_FIELD_CONDITION_NONZERO_PID_D_2:
 421:../cleanflight/src/main/blackbox/blackbox.c ****         return currentPidProfile->pid[condition - FLIGHT_LOG_FIELD_CONDITION_NONZERO_PID_D_0].D != 
 1670              	 .loc 16 421 0 is_stmt 1
 1671 00b4 3D4B     	 ldr r3,.L111
 1672 00b6 1968     	 ldr r1,[r3]
 1673 00b8 FB79     	 ldrb r3,[r7,#7]
 1674 00ba A3F11002 	 sub r2,r3,#16
 1675 00be 1346     	 mov r3,r2
 1676 00c0 9B00     	 lsls r3,r3,#2
 1677 00c2 1344     	 add r3,r3,r2
 1678 00c4 0B44     	 add r3,r3,r1
 1679 00c6 0833     	 adds r3,r3,#8
 1680 00c8 9B78     	 ldrb r3,[r3,#2]
 1681 00ca 002B     	 cmp r3,#0
 1682 00cc 14BF     	 ite ne
 1683 00ce 0123     	 movne r3,#1
 1684 00d0 0023     	 moveq r3,#0
 1685 00d2 DBB2     	 uxtb r3,r3
 1686 00d4 65E0     	 b .L100
 1687              	.L89:
 422:../cleanflight/src/main/blackbox/blackbox.c **** 
 423:../cleanflight/src/main/blackbox/blackbox.c ****     case FLIGHT_LOG_FIELD_CONDITION_MAG:
 424:../cleanflight/src/main/blackbox/blackbox.c **** #ifdef USE_MAG
 425:../cleanflight/src/main/blackbox/blackbox.c ****         return sensors(SENSOR_MAG);
 1688              	 .loc 16 425 0
 1689 00d6 0820     	 movs r0,#8
 1690 00d8 FFF7FEFF 	 bl sensors
 1691 00dc 0346     	 mov r3,r0
 1692 00de 60E0     	 b .L100
 1693              	.L90:
 426:../cleanflight/src/main/blackbox/blackbox.c **** #else
 427:../cleanflight/src/main/blackbox/blackbox.c ****         return false;
 428:../cleanflight/src/main/blackbox/blackbox.c **** #endif
 429:../cleanflight/src/main/blackbox/blackbox.c **** 
 430:../cleanflight/src/main/blackbox/blackbox.c ****     case FLIGHT_LOG_FIELD_CONDITION_BARO:
 431:../cleanflight/src/main/blackbox/blackbox.c **** #ifdef USE_BARO
 432:../cleanflight/src/main/blackbox/blackbox.c ****         return sensors(SENSOR_BARO);
 1694              	 .loc 16 432 0
 1695 00e0 0420     	 movs r0,#4
 1696 00e2 FFF7FEFF 	 bl sensors
 1697 00e6 0346     	 mov r3,r0
 1698 00e8 5BE0     	 b .L100
 1699              	.L91:
 433:../cleanflight/src/main/blackbox/blackbox.c **** #else
 434:../cleanflight/src/main/blackbox/blackbox.c ****         return false;
 435:../cleanflight/src/main/blackbox/blackbox.c **** #endif
 436:../cleanflight/src/main/blackbox/blackbox.c **** 
 437:../cleanflight/src/main/blackbox/blackbox.c ****     case FLIGHT_LOG_FIELD_CONDITION_VBAT:
 438:../cleanflight/src/main/blackbox/blackbox.c ****         return batteryConfig()->voltageMeterSource != VOLTAGE_METER_NONE;
 1700              	 .loc 16 438 0
 1701 00ea FFF7FEFF 	 bl batteryConfig
 1702 00ee 0346     	 mov r3,r0
 1703 00f0 5B79     	 ldrb r3,[r3,#5]
 1704 00f2 002B     	 cmp r3,#0
 1705 00f4 14BF     	 ite ne
 1706 00f6 0123     	 movne r3,#1
 1707 00f8 0023     	 moveq r3,#0
 1708 00fa DBB2     	 uxtb r3,r3
 1709 00fc 51E0     	 b .L100
 1710              	.L92:
 439:../cleanflight/src/main/blackbox/blackbox.c **** 
 440:../cleanflight/src/main/blackbox/blackbox.c ****     case FLIGHT_LOG_FIELD_CONDITION_AMPERAGE_ADC:
 441:../cleanflight/src/main/blackbox/blackbox.c ****         return (batteryConfig()->currentMeterSource != CURRENT_METER_NONE) && (batteryConfig()->cur
 1711              	 .loc 16 441 0
 1712 00fe FFF7FEFF 	 bl batteryConfig
 1713 0102 0346     	 mov r3,r0
 1714 0104 9B79     	 ldrb r3,[r3,#6]
 1715 0106 002B     	 cmp r3,#0
 1716 0108 07D0     	 beq .L104
 1717              	 .loc 16 441 0 is_stmt 0 discriminator 1
 1718 010a FFF7FEFF 	 bl batteryConfig
 1719 010e 0346     	 mov r3,r0
 1720 0110 9B79     	 ldrb r3,[r3,#6]
 1721 0112 022B     	 cmp r3,#2
 1722 0114 01D0     	 beq .L104
 1723              	 .loc 16 441 0 discriminator 3
 1724 0116 0123     	 movs r3,#1
 1725 0118 00E0     	 b .L105
 1726              	.L104:
 1727              	 .loc 16 441 0 discriminator 4
 1728 011a 0023     	 movs r3,#0
 1729              	.L105:
 1730              	 .loc 16 441 0 discriminator 6
 1731 011c 03F00103 	 and r3,r3,#1
 1732 0120 DBB2     	 uxtb r3,r3
 1733 0122 3EE0     	 b .L100
 1734              	.L93:
 442:../cleanflight/src/main/blackbox/blackbox.c **** 
 443:../cleanflight/src/main/blackbox/blackbox.c ****     case FLIGHT_LOG_FIELD_CONDITION_RANGEFINDER:
 444:../cleanflight/src/main/blackbox/blackbox.c **** #ifdef USE_RANGEFINDER
 445:../cleanflight/src/main/blackbox/blackbox.c ****         return sensors(SENSOR_RANGEFINDER);
 446:../cleanflight/src/main/blackbox/blackbox.c **** #else
 447:../cleanflight/src/main/blackbox/blackbox.c ****         return false;
 1735              	 .loc 16 447 0 is_stmt 1
 1736 0124 0023     	 movs r3,#0
 1737 0126 3CE0     	 b .L100
 1738              	.L94:
 448:../cleanflight/src/main/blackbox/blackbox.c **** #endif
 449:../cleanflight/src/main/blackbox/blackbox.c **** 
 450:../cleanflight/src/main/blackbox/blackbox.c ****     case FLIGHT_LOG_FIELD_CONDITION_RSSI:
 451:../cleanflight/src/main/blackbox/blackbox.c ****         return rxConfig()->rssi_channel > 0 || feature(FEATURE_RSSI_ADC);
 1739              	 .loc 16 451 0
 1740 0128 FFF7FEFF 	 bl rxConfig
 1741 012c 0346     	 mov r3,r0
 1742 012e DB7B     	 ldrb r3,[r3,#15]
 1743 0130 002B     	 cmp r3,#0
 1744 0132 06D1     	 bne .L106
 1745              	 .loc 16 451 0 is_stmt 0 discriminator 2
 1746 0134 4FF40040 	 mov r0,#32768
 1747 0138 FFF7FEFF 	 bl feature
 1748 013c 0346     	 mov r3,r0
 1749 013e 002B     	 cmp r3,#0
 1750 0140 01D0     	 beq .L107
 1751              	.L106:
 1752              	 .loc 16 451 0 discriminator 3
 1753 0142 0123     	 movs r3,#1
 1754 0144 00E0     	 b .L108
 1755              	.L107:
 1756              	 .loc 16 451 0 discriminator 4
 1757 0146 0023     	 movs r3,#0
 1758              	.L108:
 1759              	 .loc 16 451 0 discriminator 6
 1760 0148 03F00103 	 and r3,r3,#1
 1761 014c DBB2     	 uxtb r3,r3
 1762 014e 28E0     	 b .L100
 1763              	.L96:
 452:../cleanflight/src/main/blackbox/blackbox.c **** 
 453:../cleanflight/src/main/blackbox/blackbox.c ****     case FLIGHT_LOG_FIELD_CONDITION_NOT_LOGGING_EVERY_FRAME:
 454:../cleanflight/src/main/blackbox/blackbox.c ****         return blackboxConfig()->p_ratio != 1;
 1764              	 .loc 16 454 0 is_stmt 1
 1765 0150 FFF7FEFF 	 bl blackboxConfig
 1766 0154 0346     	 mov r3,r0
 1767 0156 1B88     	 ldrh r3,[r3]
 1768 0158 9BB2     	 uxth r3,r3
 1769 015a 012B     	 cmp r3,#1
 1770 015c 14BF     	 ite ne
 1771 015e 0123     	 movne r3,#1
 1772 0160 0023     	 moveq r3,#0
 1773 0162 DBB2     	 uxtb r3,r3
 1774 0164 1DE0     	 b .L100
 1775              	.L97:
 455:../cleanflight/src/main/blackbox/blackbox.c **** 
 456:../cleanflight/src/main/blackbox/blackbox.c ****     case FLIGHT_LOG_FIELD_CONDITION_ACC:
 457:../cleanflight/src/main/blackbox/blackbox.c ****         return sensors(SENSOR_ACC) && blackboxConfig()->record_acc;
 1776              	 .loc 16 457 0
 1777 0166 0220     	 movs r0,#2
 1778 0168 FFF7FEFF 	 bl sensors
 1779 016c 0346     	 mov r3,r0
 1780 016e 002B     	 cmp r3,#0
 1781 0170 07D0     	 beq .L109
 1782              	 .loc 16 457 0 is_stmt 0 discriminator 1
 1783 0172 FFF7FEFF 	 bl blackboxConfig
 1784 0176 0346     	 mov r3,r0
 1785 0178 DB78     	 ldrb r3,[r3,#3]
 1786 017a 002B     	 cmp r3,#0
 1787 017c 01D0     	 beq .L109
 1788              	 .loc 16 457 0 discriminator 3
 1789 017e 0123     	 movs r3,#1
 1790 0180 00E0     	 b .L110
 1791              	.L109:
 1792              	 .loc 16 457 0 discriminator 4
 1793 0182 0023     	 movs r3,#0
 1794              	.L110:
 1795              	 .loc 16 457 0 discriminator 6
 1796 0184 03F00103 	 and r3,r3,#1
 1797 0188 DBB2     	 uxtb r3,r3
 1798 018a 0AE0     	 b .L100
 1799              	.L98:
 458:../cleanflight/src/main/blackbox/blackbox.c **** 
 459:../cleanflight/src/main/blackbox/blackbox.c ****     case FLIGHT_LOG_FIELD_CONDITION_DEBUG:
 460:../cleanflight/src/main/blackbox/blackbox.c ****         return debugMode != DEBUG_NONE;
 1800              	 .loc 16 460 0 is_stmt 1
 1801 018c 084B     	 ldr r3,.L111+4
 1802 018e 1B78     	 ldrb r3,[r3]
 1803 0190 002B     	 cmp r3,#0
 1804 0192 14BF     	 ite ne
 1805 0194 0123     	 movne r3,#1
 1806 0196 0023     	 moveq r3,#0
 1807 0198 DBB2     	 uxtb r3,r3
 1808 019a 02E0     	 b .L100
 1809              	.L99:
 461:../cleanflight/src/main/blackbox/blackbox.c **** 
 462:../cleanflight/src/main/blackbox/blackbox.c ****     case FLIGHT_LOG_FIELD_CONDITION_NEVER:
 463:../cleanflight/src/main/blackbox/blackbox.c ****         return false;
 1810              	 .loc 16 463 0
 1811 019c 0023     	 movs r3,#0
 1812 019e 00E0     	 b .L100
 1813              	.L84:
 464:../cleanflight/src/main/blackbox/blackbox.c **** 
 465:../cleanflight/src/main/blackbox/blackbox.c ****     default:
 466:../cleanflight/src/main/blackbox/blackbox.c ****         return false;
 1814              	 .loc 16 466 0
 1815 01a0 0023     	 movs r3,#0
 1816              	.L100:
 467:../cleanflight/src/main/blackbox/blackbox.c ****     }
 468:../cleanflight/src/main/blackbox/blackbox.c **** }
 1817              	 .loc 16 468 0
 1818 01a2 1846     	 mov r0,r3
 1819 01a4 0837     	 adds r7,r7,#8
 1820              	.LCFI89:
 1821              	 .cfi_def_cfa_offset 8
 1822 01a6 BD46     	 mov sp,r7
 1823              	.LCFI90:
 1824              	 .cfi_def_cfa_register 13
 1825              	 
 1826 01a8 80BD     	 pop {r7,pc}
 1827              	.L112:
 1828 01aa 00BF     	 .align 2
 1829              	.L111:
 1830 01ac 00000000 	 .word currentPidProfile
 1831 01b0 00000000 	 .word debugMode
 1832              	 .cfi_endproc
 1833              	.LFE610:
 1835              	 .section .text.blackboxBuildConditionCache,"ax",%progbits
 1836              	 .align 2
 1837              	 .thumb
 1838              	 .thumb_func
 1840              	blackboxBuildConditionCache:
 1841              	.LFB611:
 469:../cleanflight/src/main/blackbox/blackbox.c **** 
 470:../cleanflight/src/main/blackbox/blackbox.c **** static void blackboxBuildConditionCache(void)
 471:../cleanflight/src/main/blackbox/blackbox.c **** {
 1842              	 .loc 16 471 0
 1843              	 .cfi_startproc
 1844              	 
 1845              	 
 1846 0000 80B5     	 push {r7,lr}
 1847              	.LCFI91:
 1848              	 .cfi_def_cfa_offset 8
 1849              	 .cfi_offset 7,-8
 1850              	 .cfi_offset 14,-4
 1851 0002 82B0     	 sub sp,sp,#8
 1852              	.LCFI92:
 1853              	 .cfi_def_cfa_offset 16
 1854 0004 00AF     	 add r7,sp,#0
 1855              	.LCFI93:
 1856              	 .cfi_def_cfa_register 7
 472:../cleanflight/src/main/blackbox/blackbox.c ****     blackboxConditionCache = 0;
 1857              	 .loc 16 472 0
 1858 0006 104B     	 ldr r3,.L117
 1859 0008 0022     	 movs r2,#0
 1860 000a 1A60     	 str r2,[r3]
 1861              	.LBB2:
 473:../cleanflight/src/main/blackbox/blackbox.c ****     for (FlightLogFieldCondition cond = FLIGHT_LOG_FIELD_CONDITION_FIRST; cond <= FLIGHT_LOG_FIELD_
 1862              	 .loc 16 473 0
 1863 000c 0023     	 movs r3,#0
 1864 000e FB71     	 strb r3,[r7,#7]
 1865 0010 13E0     	 b .L114
 1866              	.L116:
 474:../cleanflight/src/main/blackbox/blackbox.c ****         if (testBlackboxConditionUncached(cond)) {
 1867              	 .loc 16 474 0
 1868 0012 FB79     	 ldrb r3,[r7,#7]
 1869 0014 1846     	 mov r0,r3
 1870 0016 FFF7FEFF 	 bl testBlackboxConditionUncached
 1871 001a 0346     	 mov r3,r0
 1872 001c 002B     	 cmp r3,#0
 1873 001e 09D0     	 beq .L115
 475:../cleanflight/src/main/blackbox/blackbox.c ****             blackboxConditionCache |= 1 << cond;
 1874              	 .loc 16 475 0
 1875 0020 FB79     	 ldrb r3,[r7,#7]
 1876 0022 0122     	 movs r2,#1
 1877 0024 02FA03F3 	 lsl r3,r2,r3
 1878 0028 1A46     	 mov r2,r3
 1879 002a 074B     	 ldr r3,.L117
 1880 002c 1B68     	 ldr r3,[r3]
 1881 002e 1343     	 orrs r3,r3,r2
 1882 0030 054A     	 ldr r2,.L117
 1883 0032 1360     	 str r3,[r2]
 1884              	.L115:
 473:../cleanflight/src/main/blackbox/blackbox.c ****     for (FlightLogFieldCondition cond = FLIGHT_LOG_FIELD_CONDITION_FIRST; cond <= FLIGHT_LOG_FIELD_
 1885              	 .loc 16 473 0 discriminator 2
 1886 0034 FB79     	 ldrb r3,[r7,#7]
 1887 0036 0133     	 adds r3,r3,#1
 1888 0038 FB71     	 strb r3,[r7,#7]
 1889              	.L114:
 473:../cleanflight/src/main/blackbox/blackbox.c ****     for (FlightLogFieldCondition cond = FLIGHT_LOG_FIELD_CONDITION_FIRST; cond <= FLIGHT_LOG_FIELD_
 1890              	 .loc 16 473 0 is_stmt 0 discriminator 1
 1891 003a FB79     	 ldrb r3,[r7,#7]
 1892 003c 162B     	 cmp r3,#22
 1893 003e E8D9     	 bls .L116
 1894              	.LBE2:
 476:../cleanflight/src/main/blackbox/blackbox.c ****         }
 477:../cleanflight/src/main/blackbox/blackbox.c ****     }
 478:../cleanflight/src/main/blackbox/blackbox.c **** }
 1895              	 .loc 16 478 0 is_stmt 1
 1896 0040 0837     	 adds r7,r7,#8
 1897              	.LCFI94:
 1898              	 .cfi_def_cfa_offset 8
 1899 0042 BD46     	 mov sp,r7
 1900              	.LCFI95:
 1901              	 .cfi_def_cfa_register 13
 1902              	 
 1903 0044 80BD     	 pop {r7,pc}
 1904              	.L118:
 1905 0046 00BF     	 .align 2
 1906              	.L117:
 1907 0048 00000000 	 .word blackboxConditionCache
 1908              	 .cfi_endproc
 1909              	.LFE611:
 1911              	 .section .text.testBlackboxCondition,"ax",%progbits
 1912              	 .align 2
 1913              	 .thumb
 1914              	 .thumb_func
 1916              	testBlackboxCondition:
 1917              	.LFB612:
 479:../cleanflight/src/main/blackbox/blackbox.c **** 
 480:../cleanflight/src/main/blackbox/blackbox.c **** static bool testBlackboxCondition(FlightLogFieldCondition condition)
 481:../cleanflight/src/main/blackbox/blackbox.c **** {
 1918              	 .loc 16 481 0
 1919              	 .cfi_startproc
 1920              	 
 1921              	 
 1922              	 
 1923 0000 80B4     	 push {r7}
 1924              	.LCFI96:
 1925              	 .cfi_def_cfa_offset 4
 1926              	 .cfi_offset 7,-4
 1927 0002 83B0     	 sub sp,sp,#12
 1928              	.LCFI97:
 1929              	 .cfi_def_cfa_offset 16
 1930 0004 00AF     	 add r7,sp,#0
 1931              	.LCFI98:
 1932              	 .cfi_def_cfa_register 7
 1933 0006 0346     	 mov r3,r0
 1934 0008 FB71     	 strb r3,[r7,#7]
 482:../cleanflight/src/main/blackbox/blackbox.c ****     return (blackboxConditionCache & (1 << condition)) != 0;
 1935              	 .loc 16 482 0
 1936 000a FB79     	 ldrb r3,[r7,#7]
 1937 000c 0122     	 movs r2,#1
 1938 000e 02FA03F3 	 lsl r3,r2,r3
 1939 0012 1A46     	 mov r2,r3
 1940 0014 064B     	 ldr r3,.L121
 1941 0016 1B68     	 ldr r3,[r3]
 1942 0018 1340     	 ands r3,r3,r2
 1943 001a 002B     	 cmp r3,#0
 1944 001c 14BF     	 ite ne
 1945 001e 0123     	 movne r3,#1
 1946 0020 0023     	 moveq r3,#0
 1947 0022 DBB2     	 uxtb r3,r3
 483:../cleanflight/src/main/blackbox/blackbox.c **** }
 1948              	 .loc 16 483 0
 1949 0024 1846     	 mov r0,r3
 1950 0026 0C37     	 adds r7,r7,#12
 1951              	.LCFI99:
 1952              	 .cfi_def_cfa_offset 4
 1953 0028 BD46     	 mov sp,r7
 1954              	.LCFI100:
 1955              	 .cfi_def_cfa_register 13
 1956              	 
 1957 002a 5DF8047B 	 ldr r7,[sp],#4
 1958              	.LCFI101:
 1959              	 .cfi_restore 7
 1960              	 .cfi_def_cfa_offset 0
 1961 002e 7047     	 bx lr
 1962              	.L122:
 1963              	 .align 2
 1964              	.L121:
 1965 0030 00000000 	 .word blackboxConditionCache
 1966              	 .cfi_endproc
 1967              	.LFE612:
 1969              	 .section .text.blackboxSetState,"ax",%progbits
 1970              	 .align 2
 1971              	 .thumb
 1972              	 .thumb_func
 1974              	blackboxSetState:
 1975              	.LFB613:
 484:../cleanflight/src/main/blackbox/blackbox.c **** 
 485:../cleanflight/src/main/blackbox/blackbox.c **** static void blackboxSetState(BlackboxState newState)
 486:../cleanflight/src/main/blackbox/blackbox.c **** {
 1976              	 .loc 16 486 0
 1977              	 .cfi_startproc
 1978              	 
 1979              	 
 1980 0000 80B5     	 push {r7,lr}
 1981              	.LCFI102:
 1982              	 .cfi_def_cfa_offset 8
 1983              	 .cfi_offset 7,-8
 1984              	 .cfi_offset 14,-4
 1985 0002 82B0     	 sub sp,sp,#8
 1986              	.LCFI103:
 1987              	 .cfi_def_cfa_offset 16
 1988 0004 00AF     	 add r7,sp,#0
 1989              	.LCFI104:
 1990              	 .cfi_def_cfa_register 7
 1991 0006 0346     	 mov r3,r0
 1992 0008 FB71     	 strb r3,[r7,#7]
 487:../cleanflight/src/main/blackbox/blackbox.c ****     //Perform initial setup required for the new state
 488:../cleanflight/src/main/blackbox/blackbox.c ****     switch (newState) {
 1993              	 .loc 16 488 0
 1994 000a FB79     	 ldrb r3,[r7,#7]
 1995 000c 023B     	 subs r3,r3,#2
 1996 000e 092B     	 cmp r3,#9
 1997 0010 3DD8     	 bhi .L124
 1998 0012 01A2     	 adr r2,.L126
 1999 0014 52F823F0 	 ldr pc,[r2,r3,lsl#2]
 2000              	 .p2align 2
 2001              	.L126:
 2002 0018 41000000 	 .word .L125+1
 2003 001c 49000000 	 .word .L127+1
 2004 0020 61000000 	 .word .L128+1
 2005 0024 61000000 	 .word .L128+1
 2006 0028 61000000 	 .word .L128+1
 2007 002c 61000000 	 .word .L128+1
 2008 0030 71000000 	 .word .L129+1
 2009 0034 8F000000 	 .word .L124+1
 2010 0038 79000000 	 .word .L130+1
 2011 003c 83000000 	 .word .L131+1
 2012              	 .p2align 1
 2013              	.L125:
 489:../cleanflight/src/main/blackbox/blackbox.c ****     case BLACKBOX_STATE_PREPARE_LOG_FILE:
 490:../cleanflight/src/main/blackbox/blackbox.c ****         blackboxLoggedAnyFrames = false;
 2014              	 .loc 16 490 0
 2015 0040 164B     	 ldr r3,.L132
 2016 0042 0022     	 movs r2,#0
 2017 0044 1A70     	 strb r2,[r3]
 491:../cleanflight/src/main/blackbox/blackbox.c ****         break;
 2018              	 .loc 16 491 0
 2019 0046 22E0     	 b .L124
 2020              	.L127:
 492:../cleanflight/src/main/blackbox/blackbox.c ****     case BLACKBOX_STATE_SEND_HEADER:
 493:../cleanflight/src/main/blackbox/blackbox.c ****         blackboxHeaderBudget = 0;
 2021              	 .loc 16 493 0
 2022 0048 154B     	 ldr r3,.L132+4
 2023 004a 0022     	 movs r2,#0
 2024 004c 1A60     	 str r2,[r3]
 494:../cleanflight/src/main/blackbox/blackbox.c ****         xmitState.headerIndex = 0;
 2025              	 .loc 16 494 0
 2026 004e 154B     	 ldr r3,.L132+8
