   1              	 .syntax unified
   2              	 .cpu cortex-m4
   3              	 .eabi_attribute 27,3
   4              	 .fpu fpv4-sp-d16
   5              	 .eabi_attribute 20,1
   6              	 .eabi_attribute 21,1
   7              	 .eabi_attribute 23,3
   8              	 .eabi_attribute 24,1
   9              	 .eabi_attribute 25,1
  10              	 .eabi_attribute 26,1
  11              	 .eabi_attribute 30,6
  12              	 .eabi_attribute 34,1
  13              	 .eabi_attribute 18,4
  14              	 .thumb
  15              	 .file "xmc_gpio.c"
  16              	 .text
  17              	.Ltext0:
  18              	 .cfi_sections .debug_frame
  19              	 .section .text.XMC_GPIO_SetMode,"ax",%progbits
  20              	 .align 2
  21              	 .global XMC_GPIO_SetMode
  22              	 .thumb
  23              	 .thumb_func
  25              	XMC_GPIO_SetMode:
  26              	.LFB145:
  27              	 .file 1 "../cleanflight/lib/main/XMC4000/XMCLib/src/xmc_gpio.c"
   1:../cleanflight/lib/main/XMC4000/XMCLib/src/xmc_gpio.c **** /**
   2:../cleanflight/lib/main/XMC4000/XMCLib/src/xmc_gpio.c ****  * @file xmc_gpio.c
   3:../cleanflight/lib/main/XMC4000/XMCLib/src/xmc_gpio.c ****  * @date 2015-06-20
   4:../cleanflight/lib/main/XMC4000/XMCLib/src/xmc_gpio.c ****  *
   5:../cleanflight/lib/main/XMC4000/XMCLib/src/xmc_gpio.c ****  * @cond
   6:../cleanflight/lib/main/XMC4000/XMCLib/src/xmc_gpio.c ****  **************************************************************************************************
   7:../cleanflight/lib/main/XMC4000/XMCLib/src/xmc_gpio.c ****  * XMClib v2.1.20 - XMC Peripheral Driver Library 
   8:../cleanflight/lib/main/XMC4000/XMCLib/src/xmc_gpio.c ****  *
   9:../cleanflight/lib/main/XMC4000/XMCLib/src/xmc_gpio.c ****  * Copyright (c) 2015-2018, Infineon Technologies AG
  10:../cleanflight/lib/main/XMC4000/XMCLib/src/xmc_gpio.c ****  * All rights reserved.                        
  11:../cleanflight/lib/main/XMC4000/XMCLib/src/xmc_gpio.c ****  *                                             
  12:../cleanflight/lib/main/XMC4000/XMCLib/src/xmc_gpio.c ****  * Redistribution and use in source and binary forms, with or without modification,are permitted pr
  13:../cleanflight/lib/main/XMC4000/XMCLib/src/xmc_gpio.c ****  * following conditions are met:   
  14:../cleanflight/lib/main/XMC4000/XMCLib/src/xmc_gpio.c ****  *                                                                              
  15:../cleanflight/lib/main/XMC4000/XMCLib/src/xmc_gpio.c ****  * Redistributions of source code must retain the above copyright notice, this list of conditions a
  16:../cleanflight/lib/main/XMC4000/XMCLib/src/xmc_gpio.c ****  * disclaimer.                        
  17:../cleanflight/lib/main/XMC4000/XMCLib/src/xmc_gpio.c ****  * 
  18:../cleanflight/lib/main/XMC4000/XMCLib/src/xmc_gpio.c ****  * Redistributions in binary form must reproduce the above copyright notice, this list of condition
  19:../cleanflight/lib/main/XMC4000/XMCLib/src/xmc_gpio.c ****  * disclaimer in the documentation and/or other materials provided with the distribution.          
  20:../cleanflight/lib/main/XMC4000/XMCLib/src/xmc_gpio.c ****  * 
  21:../cleanflight/lib/main/XMC4000/XMCLib/src/xmc_gpio.c ****  * Neither the name of the copyright holders nor the names of its contributors may be used to endor
  22:../cleanflight/lib/main/XMC4000/XMCLib/src/xmc_gpio.c ****  * products derived from this software without specific prior written permission.                  
  23:../cleanflight/lib/main/XMC4000/XMCLib/src/xmc_gpio.c ****  *                                                                              
  24:../cleanflight/lib/main/XMC4000/XMCLib/src/xmc_gpio.c ****  * THIS SOFTWARE IS PROVIDED BY THE COPYRIGHT HOLDERS AND CONTRIBUTORS "AS IS" AND ANY EXPRESS OR I
  25:../cleanflight/lib/main/XMC4000/XMCLib/src/xmc_gpio.c ****  * INCLUDING, BUT NOT LIMITED TO, THE IMPLIED WARRANTIES OF MERCHANTABILITY AND FITNESS FOR A PARTI
  26:../cleanflight/lib/main/XMC4000/XMCLib/src/xmc_gpio.c ****  * DISCLAIMED. IN NO EVENT SHALL THE COPYRIGHT HOLDER OR CONTRIBUTORS BE LIABLE  FOR ANY DIRECT, IN
  27:../cleanflight/lib/main/XMC4000/XMCLib/src/xmc_gpio.c ****  * SPECIAL, EXEMPLARY, OR CONSEQUENTIAL DAMAGES (INCLUDING, BUT NOT LIMITED TO, PROCUREMENT OF SUBS
  28:../cleanflight/lib/main/XMC4000/XMCLib/src/xmc_gpio.c ****  * SERVICES; LOSS OF USE, DATA, OR PROFITS; OR BUSINESS INTERRUPTION) HOWEVER CAUSED AND ON ANY THE
  29:../cleanflight/lib/main/XMC4000/XMCLib/src/xmc_gpio.c ****  * WHETHER IN CONTRACT, STRICT LIABILITY,OR TORT (INCLUDING NEGLIGENCE OR OTHERWISE) ARISING IN ANY
  30:../cleanflight/lib/main/XMC4000/XMCLib/src/xmc_gpio.c ****  * OF THIS SOFTWARE, EVEN IF ADVISED OF THE POSSIBILITY OF SUCH DAMAGE.                            
  31:../cleanflight/lib/main/XMC4000/XMCLib/src/xmc_gpio.c ****  *                                                                              
  32:../cleanflight/lib/main/XMC4000/XMCLib/src/xmc_gpio.c ****  * To improve the quality of the software, users are encouraged to share modifications, enhancement
  33:../cleanflight/lib/main/XMC4000/XMCLib/src/xmc_gpio.c ****  * Infineon Technologies AG dave@infineon.com).                                                    
  34:../cleanflight/lib/main/XMC4000/XMCLib/src/xmc_gpio.c ****  **************************************************************************************************
  35:../cleanflight/lib/main/XMC4000/XMCLib/src/xmc_gpio.c ****  *
  36:../cleanflight/lib/main/XMC4000/XMCLib/src/xmc_gpio.c ****  * Change History
  37:../cleanflight/lib/main/XMC4000/XMCLib/src/xmc_gpio.c ****  * --------------
  38:../cleanflight/lib/main/XMC4000/XMCLib/src/xmc_gpio.c ****  *
  39:../cleanflight/lib/main/XMC4000/XMCLib/src/xmc_gpio.c ****  * 2015-02-20:
  40:../cleanflight/lib/main/XMC4000/XMCLib/src/xmc_gpio.c ****  *     - Initial draft <br>
  41:../cleanflight/lib/main/XMC4000/XMCLib/src/xmc_gpio.c ****  *      
  42:../cleanflight/lib/main/XMC4000/XMCLib/src/xmc_gpio.c ****  * 2015-06-20:
  43:../cleanflight/lib/main/XMC4000/XMCLib/src/xmc_gpio.c ****  *     - Removed version macros and declaration of GetDriverVersion API
  44:../cleanflight/lib/main/XMC4000/XMCLib/src/xmc_gpio.c ****  *
  45:../cleanflight/lib/main/XMC4000/XMCLib/src/xmc_gpio.c ****  * @endcond
  46:../cleanflight/lib/main/XMC4000/XMCLib/src/xmc_gpio.c ****  *
  47:../cleanflight/lib/main/XMC4000/XMCLib/src/xmc_gpio.c ****  */
  48:../cleanflight/lib/main/XMC4000/XMCLib/src/xmc_gpio.c **** 
  49:../cleanflight/lib/main/XMC4000/XMCLib/src/xmc_gpio.c **** /*******************************************************************************
  50:../cleanflight/lib/main/XMC4000/XMCLib/src/xmc_gpio.c ****  * HEADER FILES
  51:../cleanflight/lib/main/XMC4000/XMCLib/src/xmc_gpio.c ****  *******************************************************************************/
  52:../cleanflight/lib/main/XMC4000/XMCLib/src/xmc_gpio.c **** 
  53:../cleanflight/lib/main/XMC4000/XMCLib/src/xmc_gpio.c **** #include <xmc_gpio.h>
  54:../cleanflight/lib/main/XMC4000/XMCLib/src/xmc_gpio.c **** 
  55:../cleanflight/lib/main/XMC4000/XMCLib/src/xmc_gpio.c **** /*******************************************************************************
  56:../cleanflight/lib/main/XMC4000/XMCLib/src/xmc_gpio.c ****  * MACROS
  57:../cleanflight/lib/main/XMC4000/XMCLib/src/xmc_gpio.c ****  *******************************************************************************/
  58:../cleanflight/lib/main/XMC4000/XMCLib/src/xmc_gpio.c **** 
  59:../cleanflight/lib/main/XMC4000/XMCLib/src/xmc_gpio.c **** #define PORT_HWSEL_Msk PORT0_HWSEL_HW0_Msk
  60:../cleanflight/lib/main/XMC4000/XMCLib/src/xmc_gpio.c **** 
  61:../cleanflight/lib/main/XMC4000/XMCLib/src/xmc_gpio.c **** /*******************************************************************************
  62:../cleanflight/lib/main/XMC4000/XMCLib/src/xmc_gpio.c ****  * API IMPLEMENTATION
  63:../cleanflight/lib/main/XMC4000/XMCLib/src/xmc_gpio.c ****  *******************************************************************************/
  64:../cleanflight/lib/main/XMC4000/XMCLib/src/xmc_gpio.c **** 
  65:../cleanflight/lib/main/XMC4000/XMCLib/src/xmc_gpio.c **** void XMC_GPIO_SetMode(XMC_GPIO_PORT_t *const port, const uint8_t pin, const XMC_GPIO_MODE_t mode)
  66:../cleanflight/lib/main/XMC4000/XMCLib/src/xmc_gpio.c **** {
  28              	 .loc 1 66 0
  29              	 .cfi_startproc
  30              	 
  31              	 
  32              	 
  33 0000 80B4     	 push {r7}
  34              	.LCFI0:
  35              	 .cfi_def_cfa_offset 4
  36              	 .cfi_offset 7,-4
  37 0002 83B0     	 sub sp,sp,#12
  38              	.LCFI1:
  39              	 .cfi_def_cfa_offset 16
  40 0004 00AF     	 add r7,sp,#0
  41              	.LCFI2:
  42              	 .cfi_def_cfa_register 7
  43 0006 7860     	 str r0,[r7,#4]
  44 0008 0B46     	 mov r3,r1
  45 000a FB70     	 strb r3,[r7,#3]
  46 000c 1346     	 mov r3,r2
  47 000e BB70     	 strb r3,[r7,#2]
  67:../cleanflight/lib/main/XMC4000/XMCLib/src/xmc_gpio.c ****   XMC_ASSERT("XMC_GPIO_SetMode: Invalid port", XMC_GPIO_CHECK_PORT(port));
  68:../cleanflight/lib/main/XMC4000/XMCLib/src/xmc_gpio.c ****   XMC_ASSERT("XMC_GPIO_SetMode: Invalid mode", XMC_GPIO_IsModeValid(mode));
  69:../cleanflight/lib/main/XMC4000/XMCLib/src/xmc_gpio.c **** 
  70:../cleanflight/lib/main/XMC4000/XMCLib/src/xmc_gpio.c ****   port->IOCR[(uint32_t)pin >> 2U] &= ~(uint32_t)((uint32_t)PORT_IOCR_PC_Msk << ((uint32_t)PORT_IOCR
  48              	 .loc 1 70 0
  49 0010 FB78     	 ldrb r3,[r7,#3]
  50 0012 9B08     	 lsrs r3,r3,#2
  51 0014 DBB2     	 uxtb r3,r3
  52 0016 1846     	 mov r0,r3
  53 0018 FB78     	 ldrb r3,[r7,#3]
  54 001a 9B08     	 lsrs r3,r3,#2
  55 001c DBB2     	 uxtb r3,r3
  56 001e 1A46     	 mov r2,r3
  57 0020 7B68     	 ldr r3,[r7,#4]
  58 0022 0432     	 adds r2,r2,#4
  59 0024 53F82220 	 ldr r2,[r3,r2,lsl#2]
  60 0028 FB78     	 ldrb r3,[r7,#3]
  61 002a 03F00303 	 and r3,r3,#3
  62 002e DB00     	 lsls r3,r3,#3
  63 0030 1946     	 mov r1,r3
  64 0032 F823     	 movs r3,#248
  65 0034 8B40     	 lsls r3,r3,r1
  66 0036 DB43     	 mvns r3,r3
  67 0038 02EA0301 	 and r1,r2,r3
  68 003c 7B68     	 ldr r3,[r7,#4]
  69 003e 021D     	 adds r2,r0,#4
  70 0040 53F82200 	 ldr r0,[r3,r2,lsl#2]
  71 0044 0020     	 movs r0,#0
  72 0046 0143     	 orrs r1,r1,r0
  73 0048 43F82210 	 str r1,[r3,r2,lsl#2]
  71:../cleanflight/lib/main/XMC4000/XMCLib/src/xmc_gpio.c ****   port->IOCR[(uint32_t)pin >> 2U] |= (uint32_t)mode << ((uint32_t)PORT_IOCR_PC_Size * ((uint32_t)pi
  74              	 .loc 1 71 0
  75 004c FB78     	 ldrb r3,[r7,#3]
  76 004e 9B08     	 lsrs r3,r3,#2
  77 0050 DBB2     	 uxtb r3,r3
  78 0052 1846     	 mov r0,r3
  79 0054 FB78     	 ldrb r3,[r7,#3]
  80 0056 9B08     	 lsrs r3,r3,#2
  81 0058 DBB2     	 uxtb r3,r3
  82 005a 1A46     	 mov r2,r3
  83 005c 7B68     	 ldr r3,[r7,#4]
  84 005e 0432     	 adds r2,r2,#4
  85 0060 53F82220 	 ldr r2,[r3,r2,lsl#2]
  86 0064 BB78     	 ldrb r3,[r7,#2]
  87 0066 F978     	 ldrb r1,[r7,#3]
  88 0068 01F00301 	 and r1,r1,#3
  89 006c C900     	 lsls r1,r1,#3
  90 006e 8B40     	 lsls r3,r3,r1
  91 0070 42EA0301 	 orr r1,r2,r3
  92 0074 7B68     	 ldr r3,[r7,#4]
  93 0076 021D     	 adds r2,r0,#4
  94 0078 53F82200 	 ldr r0,[r3,r2,lsl#2]
  95 007c 0020     	 movs r0,#0
  96 007e 0143     	 orrs r1,r1,r0
  97 0080 43F82210 	 str r1,[r3,r2,lsl#2]
  72:../cleanflight/lib/main/XMC4000/XMCLib/src/xmc_gpio.c **** }
  98              	 .loc 1 72 0
  99 0084 0C37     	 adds r7,r7,#12
 100              	.LCFI3:
 101              	 .cfi_def_cfa_offset 4
 102 0086 BD46     	 mov sp,r7
 103              	.LCFI4:
 104              	 .cfi_def_cfa_register 13
 105              	 
 106 0088 5DF8047B 	 ldr r7,[sp],#4
 107              	.LCFI5:
 108              	 .cfi_restore 7
 109              	 .cfi_def_cfa_offset 0
 110 008c 7047     	 bx lr
 111              	 .cfi_endproc
 112              	.LFE145:
 114 008e 00BF     	 .section .text.XMC_GPIO_SetHardwareControl,"ax",%progbits
 115              	 .align 2
 116              	 .global XMC_GPIO_SetHardwareControl
 117              	 .thumb
 118              	 .thumb_func
 120              	XMC_GPIO_SetHardwareControl:
 121              	.LFB146:
  73:../cleanflight/lib/main/XMC4000/XMCLib/src/xmc_gpio.c **** 
  74:../cleanflight/lib/main/XMC4000/XMCLib/src/xmc_gpio.c **** void XMC_GPIO_SetHardwareControl(XMC_GPIO_PORT_t *const port, const uint8_t pin, const XMC_GPIO_HWC
  75:../cleanflight/lib/main/XMC4000/XMCLib/src/xmc_gpio.c **** {
 122              	 .loc 1 75 0
 123              	 .cfi_startproc
 124              	 
 125              	 
 126              	 
 127 0000 80B4     	 push {r7}
 128              	.LCFI6:
 129              	 .cfi_def_cfa_offset 4
 130              	 .cfi_offset 7,-4
 131 0002 83B0     	 sub sp,sp,#12
 132              	.LCFI7:
 133              	 .cfi_def_cfa_offset 16
 134 0004 00AF     	 add r7,sp,#0
 135              	.LCFI8:
 136              	 .cfi_def_cfa_register 7
 137 0006 7860     	 str r0,[r7,#4]
 138 0008 0B46     	 mov r3,r1
 139 000a FB70     	 strb r3,[r7,#3]
 140 000c 1346     	 mov r3,r2
 141 000e BB70     	 strb r3,[r7,#2]
  76:../cleanflight/lib/main/XMC4000/XMCLib/src/xmc_gpio.c ****   XMC_ASSERT("XMC_GPIO_SetHardwareControl: Invalid port", XMC_GPIO_CHECK_PORT(port));
  77:../cleanflight/lib/main/XMC4000/XMCLib/src/xmc_gpio.c ****   XMC_ASSERT("XMC_GPIO_SetHardwareControl: Invalid hwctrl", XMC_GPIO_CHECK_HWCTRL(hwctrl));
  78:../cleanflight/lib/main/XMC4000/XMCLib/src/xmc_gpio.c **** 
  79:../cleanflight/lib/main/XMC4000/XMCLib/src/xmc_gpio.c ****   port->HWSEL &= ~(uint32_t)((uint32_t)PORT_HWSEL_Msk << ((uint32_t)pin << 1U));
 142              	 .loc 1 79 0
 143 0010 7B68     	 ldr r3,[r7,#4]
 144 0012 5A6F     	 ldr r2,[r3,#116]
 145 0014 FB78     	 ldrb r3,[r7,#3]
 146 0016 5B00     	 lsls r3,r3,#1
 147 0018 1946     	 mov r1,r3
 148 001a 0323     	 movs r3,#3
 149 001c 8B40     	 lsls r3,r3,r1
 150 001e DB43     	 mvns r3,r3
 151 0020 1A40     	 ands r2,r2,r3
 152 0022 7B68     	 ldr r3,[r7,#4]
 153 0024 596F     	 ldr r1,[r3,#116]
 154 0026 0021     	 movs r1,#0
 155 0028 0A43     	 orrs r2,r2,r1
 156 002a 5A67     	 str r2,[r3,#116]
  80:../cleanflight/lib/main/XMC4000/XMCLib/src/xmc_gpio.c ****   port->HWSEL |= (uint32_t)hwctrl << ((uint32_t)pin << 1U);
 157              	 .loc 1 80 0
 158 002c 7B68     	 ldr r3,[r7,#4]
 159 002e 5A6F     	 ldr r2,[r3,#116]
 160 0030 BB78     	 ldrb r3,[r7,#2]
 161 0032 F978     	 ldrb r1,[r7,#3]
 162 0034 4900     	 lsls r1,r1,#1
 163 0036 8B40     	 lsls r3,r3,r1
 164 0038 1A43     	 orrs r2,r2,r3
 165 003a 7B68     	 ldr r3,[r7,#4]
 166 003c 596F     	 ldr r1,[r3,#116]
 167 003e 0021     	 movs r1,#0
 168 0040 0A43     	 orrs r2,r2,r1
 169 0042 5A67     	 str r2,[r3,#116]
  81:../cleanflight/lib/main/XMC4000/XMCLib/src/xmc_gpio.c **** }
 170              	 .loc 1 81 0
 171 0044 0C37     	 adds r7,r7,#12
 172              	.LCFI9:
 173              	 .cfi_def_cfa_offset 4
 174 0046 BD46     	 mov sp,r7
 175              	.LCFI10:
 176              	 .cfi_def_cfa_register 13
 177              	 
 178 0048 5DF8047B 	 ldr r7,[sp],#4
 179              	.LCFI11:
 180              	 .cfi_restore 7
 181              	 .cfi_def_cfa_offset 0
 182 004c 7047     	 bx lr
 183              	 .cfi_endproc
 184              	.LFE146:
 186 004e 00BF     	 .text
 187              	.Letext0:
 188              	 .file 2 "d:\\xmc\\dave-ide-4.4.2-64bit\\eclipse\\arm-gcc-49\\arm-none-eabi\\include\\machine\\_default_types.h"
 189              	 .file 3 "d:\\xmc\\dave-ide-4.4.2-64bit\\eclipse\\arm-gcc-49\\arm-none-eabi\\include\\stdint.h"
 190              	 .file 4 "D:/XMC/Projekte/Temp/CF_XMC4700/cleanflight/lib/main/XMC4000/XMCLib/inc/xmc_gpio.h"
 191              	 .file 5 "D:/XMC/Projekte/Temp/CF_XMC4700/cleanflight/lib/main/XMC4000/XMCLib/inc/xmc4_gpio.h"
 192              	 .file 6 "D:/XMC/Projekte/Temp/CF_XMC4700/cleanflight/lib/main/CMSIS/Core/Include/core_cm4.h"