   1              	 .syntax unified
   2              	 .cpu cortex-m4
   3              	 .eabi_attribute 27,3
   4              	 .fpu fpv4-sp-d16
   5              	 .eabi_attribute 20,1
   6              	 .eabi_attribute 21,1
   7              	 .eabi_attribute 23,3
   8              	 .eabi_attribute 24,1
   9              	 .eabi_attribute 25,1
  10              	 .eabi_attribute 26,1
  11              	 .eabi_attribute 30,6
  12              	 .eabi_attribute 34,1
  13              	 .eabi_attribute 18,4
  14              	 .thumb
  15              	 .file "xmc_dac.c"
  16              	 .text
  17              	.Ltext0:
  18              	 .cfi_sections .debug_frame
  19              	 .section .text.XMC_DAC_CH_EnableOutput,"ax",%progbits
  20              	 .align 2
  21              	 .thumb
  22              	 .thumb_func
  24              	XMC_DAC_CH_EnableOutput:
  25              	.LFB138:
  26              	 .file 1 "D:/XMC/Projekte/Temp/CF_XMC4700/cleanflight/lib/main/XMC4000/XMCLib/inc/xmc_dac.h"
   1:D:/XMC/Projekte/Temp/CF_XMC4700/cleanflight/lib/main/XMC4000/XMCLib/inc\xmc_dac.h **** /**
   2:D:/XMC/Projekte/Temp/CF_XMC4700/cleanflight/lib/main/XMC4000/XMCLib/inc\xmc_dac.h ****  * @file xmc_dac.h
   3:D:/XMC/Projekte/Temp/CF_XMC4700/cleanflight/lib/main/XMC4000/XMCLib/inc\xmc_dac.h ****  * @date 2015-08-31
   4:D:/XMC/Projekte/Temp/CF_XMC4700/cleanflight/lib/main/XMC4000/XMCLib/inc\xmc_dac.h ****  *
   5:D:/XMC/Projekte/Temp/CF_XMC4700/cleanflight/lib/main/XMC4000/XMCLib/inc\xmc_dac.h ****  * @cond
   6:D:/XMC/Projekte/Temp/CF_XMC4700/cleanflight/lib/main/XMC4000/XMCLib/inc\xmc_dac.h ****  **********************************************************************************
   7:D:/XMC/Projekte/Temp/CF_XMC4700/cleanflight/lib/main/XMC4000/XMCLib/inc\xmc_dac.h ****  * XMClib v2.1.20 - XMC Peripheral Driver Library 
   8:D:/XMC/Projekte/Temp/CF_XMC4700/cleanflight/lib/main/XMC4000/XMCLib/inc\xmc_dac.h ****  *
   9:D:/XMC/Projekte/Temp/CF_XMC4700/cleanflight/lib/main/XMC4000/XMCLib/inc\xmc_dac.h ****  * Copyright (c) 2015-2018, Infineon Technologies AG
  10:D:/XMC/Projekte/Temp/CF_XMC4700/cleanflight/lib/main/XMC4000/XMCLib/inc\xmc_dac.h ****  * All rights reserved.                        
  11:D:/XMC/Projekte/Temp/CF_XMC4700/cleanflight/lib/main/XMC4000/XMCLib/inc\xmc_dac.h ****  *                                             
  12:D:/XMC/Projekte/Temp/CF_XMC4700/cleanflight/lib/main/XMC4000/XMCLib/inc\xmc_dac.h ****  * Redistribution and use in source and binary forms, with or without           
  13:D:/XMC/Projekte/Temp/CF_XMC4700/cleanflight/lib/main/XMC4000/XMCLib/inc\xmc_dac.h ****  * modification,are permitted provided that the following conditions are met:   
  14:D:/XMC/Projekte/Temp/CF_XMC4700/cleanflight/lib/main/XMC4000/XMCLib/inc\xmc_dac.h ****  *                                                                              
  15:D:/XMC/Projekte/Temp/CF_XMC4700/cleanflight/lib/main/XMC4000/XMCLib/inc\xmc_dac.h ****  *   Redistributions of source code must retain the above copyright notice,      
  16:D:/XMC/Projekte/Temp/CF_XMC4700/cleanflight/lib/main/XMC4000/XMCLib/inc\xmc_dac.h ****  *   this list of conditions and the following disclaimer.                        
  17:D:/XMC/Projekte/Temp/CF_XMC4700/cleanflight/lib/main/XMC4000/XMCLib/inc\xmc_dac.h ****  * 
  18:D:/XMC/Projekte/Temp/CF_XMC4700/cleanflight/lib/main/XMC4000/XMCLib/inc\xmc_dac.h ****  *   Redistributions in binary form must reproduce the above copyright notice,   
  19:D:/XMC/Projekte/Temp/CF_XMC4700/cleanflight/lib/main/XMC4000/XMCLib/inc\xmc_dac.h ****  *   this list of conditions and the following disclaimer in the documentation    
  20:D:/XMC/Projekte/Temp/CF_XMC4700/cleanflight/lib/main/XMC4000/XMCLib/inc\xmc_dac.h ****  *   and/or other materials provided with the distribution.                       
  21:D:/XMC/Projekte/Temp/CF_XMC4700/cleanflight/lib/main/XMC4000/XMCLib/inc\xmc_dac.h ****  * 
  22:D:/XMC/Projekte/Temp/CF_XMC4700/cleanflight/lib/main/XMC4000/XMCLib/inc\xmc_dac.h ****  *   Neither the name of the copyright holders nor the names of its contributors 
  23:D:/XMC/Projekte/Temp/CF_XMC4700/cleanflight/lib/main/XMC4000/XMCLib/inc\xmc_dac.h ****  *   may be used to endorse or promote products derived from this software without
  24:D:/XMC/Projekte/Temp/CF_XMC4700/cleanflight/lib/main/XMC4000/XMCLib/inc\xmc_dac.h ****  *   specific prior written permission.                                           
  25:D:/XMC/Projekte/Temp/CF_XMC4700/cleanflight/lib/main/XMC4000/XMCLib/inc\xmc_dac.h ****  *                                                                              
  26:D:/XMC/Projekte/Temp/CF_XMC4700/cleanflight/lib/main/XMC4000/XMCLib/inc\xmc_dac.h ****  * THIS SOFTWARE IS PROVIDED BY THE COPYRIGHT HOLDERS AND CONTRIBUTORS "AS IS"  
  27:D:/XMC/Projekte/Temp/CF_XMC4700/cleanflight/lib/main/XMC4000/XMCLib/inc\xmc_dac.h ****  * AND ANY EXPRESS OR IMPLIED WARRANTIES, INCLUDING, BUT NOT LIMITED TO, THE    
  28:D:/XMC/Projekte/Temp/CF_XMC4700/cleanflight/lib/main/XMC4000/XMCLib/inc\xmc_dac.h ****  * IMPLIED WARRANTIES OF MERCHANTABILITY AND FITNESS FOR A PARTICULAR PURPOSE   
  29:D:/XMC/Projekte/Temp/CF_XMC4700/cleanflight/lib/main/XMC4000/XMCLib/inc\xmc_dac.h ****  * ARE  DISCLAIMED. IN NO EVENT SHALL THE COPYRIGHT HOLDER OR CONTRIBUTORS BE   
  30:D:/XMC/Projekte/Temp/CF_XMC4700/cleanflight/lib/main/XMC4000/XMCLib/inc\xmc_dac.h ****  * LIABLE  FOR ANY DIRECT, INDIRECT, INCIDENTAL, SPECIAL, EXEMPLARY, OR         
  31:D:/XMC/Projekte/Temp/CF_XMC4700/cleanflight/lib/main/XMC4000/XMCLib/inc\xmc_dac.h ****  * CONSEQUENTIAL DAMAGES (INCLUDING, BUT NOT LIMITED TO, PROCUREMENT OF         
  32:D:/XMC/Projekte/Temp/CF_XMC4700/cleanflight/lib/main/XMC4000/XMCLib/inc\xmc_dac.h ****  * SUBSTITUTE GOODS OR  SERVICES; LOSS OF USE, DATA, OR PROFITS; OR BUSINESS    
  33:D:/XMC/Projekte/Temp/CF_XMC4700/cleanflight/lib/main/XMC4000/XMCLib/inc\xmc_dac.h ****  * INTERRUPTION) HOWEVER CAUSED AND ON ANY THEORY OF LIABILITY, WHETHER IN      
  34:D:/XMC/Projekte/Temp/CF_XMC4700/cleanflight/lib/main/XMC4000/XMCLib/inc\xmc_dac.h ****  * CONTRACT, STRICT LIABILITY,OR TORT (INCLUDING NEGLIGENCE OR OTHERWISE)       
  35:D:/XMC/Projekte/Temp/CF_XMC4700/cleanflight/lib/main/XMC4000/XMCLib/inc\xmc_dac.h ****  * ARISING IN ANY WAY OUT OF THE USE OF THIS SOFTWARE, EVEN IF ADVISED OF THE   
  36:D:/XMC/Projekte/Temp/CF_XMC4700/cleanflight/lib/main/XMC4000/XMCLib/inc\xmc_dac.h ****  * POSSIBILITY OF SUCH DAMAGE.                                                  
  37:D:/XMC/Projekte/Temp/CF_XMC4700/cleanflight/lib/main/XMC4000/XMCLib/inc\xmc_dac.h ****  *                                                                              
  38:D:/XMC/Projekte/Temp/CF_XMC4700/cleanflight/lib/main/XMC4000/XMCLib/inc\xmc_dac.h ****  * To improve the quality of the software, users are encouraged to share        
  39:D:/XMC/Projekte/Temp/CF_XMC4700/cleanflight/lib/main/XMC4000/XMCLib/inc\xmc_dac.h ****  * modifications, enhancements or bug fixes with Infineon Technologies AG       
  40:D:/XMC/Projekte/Temp/CF_XMC4700/cleanflight/lib/main/XMC4000/XMCLib/inc\xmc_dac.h ****  * dave@infineon.com).                                                          
  41:D:/XMC/Projekte/Temp/CF_XMC4700/cleanflight/lib/main/XMC4000/XMCLib/inc\xmc_dac.h ****  **********************************************************************************
  42:D:/XMC/Projekte/Temp/CF_XMC4700/cleanflight/lib/main/XMC4000/XMCLib/inc\xmc_dac.h ****  *
  43:D:/XMC/Projekte/Temp/CF_XMC4700/cleanflight/lib/main/XMC4000/XMCLib/inc\xmc_dac.h ****  * Change History
  44:D:/XMC/Projekte/Temp/CF_XMC4700/cleanflight/lib/main/XMC4000/XMCLib/inc\xmc_dac.h ****  * --------------
  45:D:/XMC/Projekte/Temp/CF_XMC4700/cleanflight/lib/main/XMC4000/XMCLib/inc\xmc_dac.h ****  *
  46:D:/XMC/Projekte/Temp/CF_XMC4700/cleanflight/lib/main/XMC4000/XMCLib/inc\xmc_dac.h ****  * 2015-02-18:
  47:D:/XMC/Projekte/Temp/CF_XMC4700/cleanflight/lib/main/XMC4000/XMCLib/inc\xmc_dac.h ****  *     - Initial version
  48:D:/XMC/Projekte/Temp/CF_XMC4700/cleanflight/lib/main/XMC4000/XMCLib/inc\xmc_dac.h ****  *      
  49:D:/XMC/Projekte/Temp/CF_XMC4700/cleanflight/lib/main/XMC4000/XMCLib/inc\xmc_dac.h ****  * 2015-02-20:
  50:D:/XMC/Projekte/Temp/CF_XMC4700/cleanflight/lib/main/XMC4000/XMCLib/inc\xmc_dac.h ****  *     - Driver description added
  51:D:/XMC/Projekte/Temp/CF_XMC4700/cleanflight/lib/main/XMC4000/XMCLib/inc\xmc_dac.h ****  *
  52:D:/XMC/Projekte/Temp/CF_XMC4700/cleanflight/lib/main/XMC4000/XMCLib/inc\xmc_dac.h ****  * 2015-06-19:
  53:D:/XMC/Projekte/Temp/CF_XMC4700/cleanflight/lib/main/XMC4000/XMCLib/inc\xmc_dac.h ****  *     - Removed version macros and declaration of GetDriverVersion API
  54:D:/XMC/Projekte/Temp/CF_XMC4700/cleanflight/lib/main/XMC4000/XMCLib/inc\xmc_dac.h ****  *
  55:D:/XMC/Projekte/Temp/CF_XMC4700/cleanflight/lib/main/XMC4000/XMCLib/inc\xmc_dac.h ****  * 2015-08-31:
  56:D:/XMC/Projekte/Temp/CF_XMC4700/cleanflight/lib/main/XMC4000/XMCLib/inc\xmc_dac.h ****  *     - Help document updated
  57:D:/XMC/Projekte/Temp/CF_XMC4700/cleanflight/lib/main/XMC4000/XMCLib/inc\xmc_dac.h ****  * @endcond 
  58:D:/XMC/Projekte/Temp/CF_XMC4700/cleanflight/lib/main/XMC4000/XMCLib/inc\xmc_dac.h ****  *
  59:D:/XMC/Projekte/Temp/CF_XMC4700/cleanflight/lib/main/XMC4000/XMCLib/inc\xmc_dac.h ****  */
  60:D:/XMC/Projekte/Temp/CF_XMC4700/cleanflight/lib/main/XMC4000/XMCLib/inc\xmc_dac.h **** 
  61:D:/XMC/Projekte/Temp/CF_XMC4700/cleanflight/lib/main/XMC4000/XMCLib/inc\xmc_dac.h **** #ifndef XMC_DAC_H
  62:D:/XMC/Projekte/Temp/CF_XMC4700/cleanflight/lib/main/XMC4000/XMCLib/inc\xmc_dac.h **** #define XMC_DAC_H
  63:D:/XMC/Projekte/Temp/CF_XMC4700/cleanflight/lib/main/XMC4000/XMCLib/inc\xmc_dac.h **** 
  64:D:/XMC/Projekte/Temp/CF_XMC4700/cleanflight/lib/main/XMC4000/XMCLib/inc\xmc_dac.h **** /*******************************************************************************
  65:D:/XMC/Projekte/Temp/CF_XMC4700/cleanflight/lib/main/XMC4000/XMCLib/inc\xmc_dac.h ****  * HEADER FILES
  66:D:/XMC/Projekte/Temp/CF_XMC4700/cleanflight/lib/main/XMC4000/XMCLib/inc\xmc_dac.h ****  *******************************************************************************/
  67:D:/XMC/Projekte/Temp/CF_XMC4700/cleanflight/lib/main/XMC4000/XMCLib/inc\xmc_dac.h **** 
  68:D:/XMC/Projekte/Temp/CF_XMC4700/cleanflight/lib/main/XMC4000/XMCLib/inc\xmc_dac.h **** #include <xmc_common.h>
  69:D:/XMC/Projekte/Temp/CF_XMC4700/cleanflight/lib/main/XMC4000/XMCLib/inc\xmc_dac.h **** 
  70:D:/XMC/Projekte/Temp/CF_XMC4700/cleanflight/lib/main/XMC4000/XMCLib/inc\xmc_dac.h **** /* DAC peripheral is not available on XMC1X devices. */
  71:D:/XMC/Projekte/Temp/CF_XMC4700/cleanflight/lib/main/XMC4000/XMCLib/inc\xmc_dac.h **** #if defined(DAC)
  72:D:/XMC/Projekte/Temp/CF_XMC4700/cleanflight/lib/main/XMC4000/XMCLib/inc\xmc_dac.h **** 
  73:D:/XMC/Projekte/Temp/CF_XMC4700/cleanflight/lib/main/XMC4000/XMCLib/inc\xmc_dac.h **** /**
  74:D:/XMC/Projekte/Temp/CF_XMC4700/cleanflight/lib/main/XMC4000/XMCLib/inc\xmc_dac.h ****  * @addtogroup XMClib
  75:D:/XMC/Projekte/Temp/CF_XMC4700/cleanflight/lib/main/XMC4000/XMCLib/inc\xmc_dac.h ****  * @{
  76:D:/XMC/Projekte/Temp/CF_XMC4700/cleanflight/lib/main/XMC4000/XMCLib/inc\xmc_dac.h ****  */
  77:D:/XMC/Projekte/Temp/CF_XMC4700/cleanflight/lib/main/XMC4000/XMCLib/inc\xmc_dac.h **** 
  78:D:/XMC/Projekte/Temp/CF_XMC4700/cleanflight/lib/main/XMC4000/XMCLib/inc\xmc_dac.h **** /**
  79:D:/XMC/Projekte/Temp/CF_XMC4700/cleanflight/lib/main/XMC4000/XMCLib/inc\xmc_dac.h ****  * @addtogroup DAC
  80:D:/XMC/Projekte/Temp/CF_XMC4700/cleanflight/lib/main/XMC4000/XMCLib/inc\xmc_dac.h ****  * @{
  81:D:/XMC/Projekte/Temp/CF_XMC4700/cleanflight/lib/main/XMC4000/XMCLib/inc\xmc_dac.h ****  *
  82:D:/XMC/Projekte/Temp/CF_XMC4700/cleanflight/lib/main/XMC4000/XMCLib/inc\xmc_dac.h ****  * @brief Digital to Analog Converter (DAC) driver for XMC 4000 microcontroller family. <br>
  83:D:/XMC/Projekte/Temp/CF_XMC4700/cleanflight/lib/main/XMC4000/XMCLib/inc\xmc_dac.h ****  *
  84:D:/XMC/Projekte/Temp/CF_XMC4700/cleanflight/lib/main/XMC4000/XMCLib/inc\xmc_dac.h ****  * DAC driver uses DAC peripheral to convert digital value to analog value. XMC4000 microcontroller
  85:D:/XMC/Projekte/Temp/CF_XMC4700/cleanflight/lib/main/XMC4000/XMCLib/inc\xmc_dac.h ****  * and maximum conversion rate of 2MHz with full accuracy and 5MHz with reduced accuracy.
  86:D:/XMC/Projekte/Temp/CF_XMC4700/cleanflight/lib/main/XMC4000/XMCLib/inc\xmc_dac.h ****  * It consists of inbuilt pattern generator, ramp generator and noise generator modes. Additionally
  87:D:/XMC/Projekte/Temp/CF_XMC4700/cleanflight/lib/main/XMC4000/XMCLib/inc\xmc_dac.h ****  * in single value mode and in data mode.
  88:D:/XMC/Projekte/Temp/CF_XMC4700/cleanflight/lib/main/XMC4000/XMCLib/inc\xmc_dac.h ****  * It has DMA handling capability to generate custom waveforms in data mode without CPU interventio
  89:D:/XMC/Projekte/Temp/CF_XMC4700/cleanflight/lib/main/XMC4000/XMCLib/inc\xmc_dac.h ****  *
  90:D:/XMC/Projekte/Temp/CF_XMC4700/cleanflight/lib/main/XMC4000/XMCLib/inc\xmc_dac.h ****  * DAC driver features:
  91:D:/XMC/Projekte/Temp/CF_XMC4700/cleanflight/lib/main/XMC4000/XMCLib/inc\xmc_dac.h ****  * -#  Configuration structure XMC_DAC_CH_CONFIG_t and initialization function XMC_DAC_CH_Init() to
  92:D:/XMC/Projekte/Temp/CF_XMC4700/cleanflight/lib/main/XMC4000/XMCLib/inc\xmc_dac.h ****  * -#  Pattern Generator Mode:
  93:D:/XMC/Projekte/Temp/CF_XMC4700/cleanflight/lib/main/XMC4000/XMCLib/inc\xmc_dac.h ****  * 	- DAC is configured in pattern generator mode using XMC_DAC_CH_StartPatternMode()
  94:D:/XMC/Projekte/Temp/CF_XMC4700/cleanflight/lib/main/XMC4000/XMCLib/inc\xmc_dac.h ****  * 	- XMC_DAC_CH_SetPattern() is used to set the waveform pattern values in pattern register for on
  95:D:/XMC/Projekte/Temp/CF_XMC4700/cleanflight/lib/main/XMC4000/XMCLib/inc\xmc_dac.h ****  * 	- Allows to change the trigger frequency using XMC_DAC_CH_SetPatternFrequency()
  96:D:/XMC/Projekte/Temp/CF_XMC4700/cleanflight/lib/main/XMC4000/XMCLib/inc\xmc_dac.h ****  * -#  Single Value Mode:
  97:D:/XMC/Projekte/Temp/CF_XMC4700/cleanflight/lib/main/XMC4000/XMCLib/inc\xmc_dac.h ****  * 	- DAC is configured in single value mode using XMC_DAC_CH_StartSingleValueMode()
  98:D:/XMC/Projekte/Temp/CF_XMC4700/cleanflight/lib/main/XMC4000/XMCLib/inc\xmc_dac.h ****  * 	- Allows to change the trigger frequency using XMC_DAC_CH_SetFrequency()
  99:D:/XMC/Projekte/Temp/CF_XMC4700/cleanflight/lib/main/XMC4000/XMCLib/inc\xmc_dac.h ****  * -# Data Mode:
 100:D:/XMC/Projekte/Temp/CF_XMC4700/cleanflight/lib/main/XMC4000/XMCLib/inc\xmc_dac.h ****  * 	- DAC is configured in data mode using XMC_DAC_CH_StartDataMode()
 101:D:/XMC/Projekte/Temp/CF_XMC4700/cleanflight/lib/main/XMC4000/XMCLib/inc\xmc_dac.h ****  * 	- Allows to change the trigger frequency using XMC_DAC_CH_SetFrequency()
 102:D:/XMC/Projekte/Temp/CF_XMC4700/cleanflight/lib/main/XMC4000/XMCLib/inc\xmc_dac.h ****  * -# Ramp Mode:
 103:D:/XMC/Projekte/Temp/CF_XMC4700/cleanflight/lib/main/XMC4000/XMCLib/inc\xmc_dac.h ****  *  - DAC is configured in ramp generator mode using XMC_DAC_CH_StartRampMode()
 104:D:/XMC/Projekte/Temp/CF_XMC4700/cleanflight/lib/main/XMC4000/XMCLib/inc\xmc_dac.h ****  *  - Allows to change the trigger frequency using XMC_DAC_CH_SetRampFrequency()
 105:D:/XMC/Projekte/Temp/CF_XMC4700/cleanflight/lib/main/XMC4000/XMCLib/inc\xmc_dac.h ****  *  - Allows to set the start and stop values of the ramp using XMC_DAC_CH_SetRampStart() and XMC_D
 106:D:/XMC/Projekte/Temp/CF_XMC4700/cleanflight/lib/main/XMC4000/XMCLib/inc\xmc_dac.h ****  * -# Noise Mode:
 107:D:/XMC/Projekte/Temp/CF_XMC4700/cleanflight/lib/main/XMC4000/XMCLib/inc\xmc_dac.h ****  * 	- DAC is configured in noise mode using XMC_DAC_CH_StartNoiseMode()
 108:D:/XMC/Projekte/Temp/CF_XMC4700/cleanflight/lib/main/XMC4000/XMCLib/inc\xmc_dac.h ****  * 	- Allows to change the trigger frequency using XMC_DAC_CH_SetFrequency()
 109:D:/XMC/Projekte/Temp/CF_XMC4700/cleanflight/lib/main/XMC4000/XMCLib/inc\xmc_dac.h ****  * -# Allows to change the scale, offset dynamically using XMC_DAC_CH_SetOutputScale() and XMC_DAC_
 110:D:/XMC/Projekte/Temp/CF_XMC4700/cleanflight/lib/main/XMC4000/XMCLib/inc\xmc_dac.h ****  * -# Allows to select one of the eight possible trigger sources using XMC_DAC_CH_SetTrigger()
 111:D:/XMC/Projekte/Temp/CF_XMC4700/cleanflight/lib/main/XMC4000/XMCLib/inc\xmc_dac.h ****  * -# 2 DAC channels can be used in synchronization in single value mode and data mode to generate 
 112:D:/XMC/Projekte/Temp/CF_XMC4700/cleanflight/lib/main/XMC4000/XMCLib/inc\xmc_dac.h ****  */
 113:D:/XMC/Projekte/Temp/CF_XMC4700/cleanflight/lib/main/XMC4000/XMCLib/inc\xmc_dac.h **** 
 114:D:/XMC/Projekte/Temp/CF_XMC4700/cleanflight/lib/main/XMC4000/XMCLib/inc\xmc_dac.h **** /*******************************************************************************
 115:D:/XMC/Projekte/Temp/CF_XMC4700/cleanflight/lib/main/XMC4000/XMCLib/inc\xmc_dac.h ****  * MACROS
 116:D:/XMC/Projekte/Temp/CF_XMC4700/cleanflight/lib/main/XMC4000/XMCLib/inc\xmc_dac.h ****  *******************************************************************************/
 117:D:/XMC/Projekte/Temp/CF_XMC4700/cleanflight/lib/main/XMC4000/XMCLib/inc\xmc_dac.h **** 
 118:D:/XMC/Projekte/Temp/CF_XMC4700/cleanflight/lib/main/XMC4000/XMCLib/inc\xmc_dac.h **** #define XMC_DAC0 ((XMC_DAC_t *)DAC_BASE)         /**< DAC module register base */
 119:D:/XMC/Projekte/Temp/CF_XMC4700/cleanflight/lib/main/XMC4000/XMCLib/inc\xmc_dac.h **** 
 120:D:/XMC/Projekte/Temp/CF_XMC4700/cleanflight/lib/main/XMC4000/XMCLib/inc\xmc_dac.h **** #define XMC_DAC_DACCFG_NEGATE_Msk (0x10000000UL) /*< DAC negation enable mask in XMC44 device */
 121:D:/XMC/Projekte/Temp/CF_XMC4700/cleanflight/lib/main/XMC4000/XMCLib/inc\xmc_dac.h **** #define XMC_DAC_NO_CHANNELS (2U)                 /**< DAC maximum channels */
 122:D:/XMC/Projekte/Temp/CF_XMC4700/cleanflight/lib/main/XMC4000/XMCLib/inc\xmc_dac.h **** #define XMC_DAC_SAMPLES_PER_PERIOD (32U)         /**< DAC samples per period in pattern mode */
 123:D:/XMC/Projekte/Temp/CF_XMC4700/cleanflight/lib/main/XMC4000/XMCLib/inc\xmc_dac.h **** 
 124:D:/XMC/Projekte/Temp/CF_XMC4700/cleanflight/lib/main/XMC4000/XMCLib/inc\xmc_dac.h **** #define XMC_DAC_PATTERN_TRIANGLE  {0U, 4U, 8U, 12U, 16U, 19U, 23U, 27U, 31U} /**< First quarter Tri
 125:D:/XMC/Projekte/Temp/CF_XMC4700/cleanflight/lib/main/XMC4000/XMCLib/inc\xmc_dac.h **** #define XMC_DAC_PATTERN_SINE      {0U, 6U, 12U, 17U, 22U, 26U, 29U, 30U, 31U} /**< First quarter Si
 126:D:/XMC/Projekte/Temp/CF_XMC4700/cleanflight/lib/main/XMC4000/XMCLib/inc\xmc_dac.h **** #define XMC_DAC_PATTERN_RECTANGLE {31U, 31U, 31U, 31U, 31U, 31U, 31U, 31U, 31U} /**< First quarter 
 127:D:/XMC/Projekte/Temp/CF_XMC4700/cleanflight/lib/main/XMC4000/XMCLib/inc\xmc_dac.h **** 
 128:D:/XMC/Projekte/Temp/CF_XMC4700/cleanflight/lib/main/XMC4000/XMCLib/inc\xmc_dac.h **** #define XMC_DAC_IS_DAC_VALID(PTR)            ((PTR) == XMC_DAC0)
 129:D:/XMC/Projekte/Temp/CF_XMC4700/cleanflight/lib/main/XMC4000/XMCLib/inc\xmc_dac.h **** #define XMC_DAC_IS_CHANNEL_VALID(CH)         (CH < XMC_DAC_NO_CHANNELS)
 130:D:/XMC/Projekte/Temp/CF_XMC4700/cleanflight/lib/main/XMC4000/XMCLib/inc\xmc_dac.h **** #define XMC_DAC_IS_TRIGGER_VALID(TRIGGER)    ((TRIGGER == XMC_DAC_CH_TRIGGER_INTERNAL) ||\
 131:D:/XMC/Projekte/Temp/CF_XMC4700/cleanflight/lib/main/XMC4000/XMCLib/inc\xmc_dac.h ****                                               (TRIGGER == XMC_DAC_CH_TRIGGER_EXTERNAL_CCU80_SR1) ||
 132:D:/XMC/Projekte/Temp/CF_XMC4700/cleanflight/lib/main/XMC4000/XMCLib/inc\xmc_dac.h ****                                               (TRIGGER == XMC_DAC_CH_TRIGGER_EXTERNAL_CCU40_SR1) ||
 133:D:/XMC/Projekte/Temp/CF_XMC4700/cleanflight/lib/main/XMC4000/XMCLib/inc\xmc_dac.h ****                                               (TRIGGER == XMC_DAC_CH_TRIGGER_EXTERNAL_CCU41_SR1) ||
 134:D:/XMC/Projekte/Temp/CF_XMC4700/cleanflight/lib/main/XMC4000/XMCLib/inc\xmc_dac.h ****                                               (TRIGGER == XMC_DAC_CH_TRIGGER_EXTERNAL_P2_9) ||\
 135:D:/XMC/Projekte/Temp/CF_XMC4700/cleanflight/lib/main/XMC4000/XMCLib/inc\xmc_dac.h ****                                               (TRIGGER == XMC_DAC_CH_TRIGGER_EXTERNAL_P2_8) ||\
 136:D:/XMC/Projekte/Temp/CF_XMC4700/cleanflight/lib/main/XMC4000/XMCLib/inc\xmc_dac.h ****                                               (TRIGGER == XMC_DAC_CH_TRIGGER_EXTERNAL_U0C0_DX1INS) 
 137:D:/XMC/Projekte/Temp/CF_XMC4700/cleanflight/lib/main/XMC4000/XMCLib/inc\xmc_dac.h ****                                               (TRIGGER == XMC_DAC_CH_TRIGGER_EXTERNAL_U1C0_DX1INS) 
 138:D:/XMC/Projekte/Temp/CF_XMC4700/cleanflight/lib/main/XMC4000/XMCLib/inc\xmc_dac.h ****                                               (TRIGGER == XMC_DAC_CH_TRIGGER_SOFTWARE))
 139:D:/XMC/Projekte/Temp/CF_XMC4700/cleanflight/lib/main/XMC4000/XMCLib/inc\xmc_dac.h **** #define XMC_DAC_IS_MODE_VALID(MODE)          ((MODE == XMC_DAC_CH_MODE_IDLE) ||\
 140:D:/XMC/Projekte/Temp/CF_XMC4700/cleanflight/lib/main/XMC4000/XMCLib/inc\xmc_dac.h ****                                               (MODE == XMC_DAC_CH_MODE_SINGLE) ||\
 141:D:/XMC/Projekte/Temp/CF_XMC4700/cleanflight/lib/main/XMC4000/XMCLib/inc\xmc_dac.h ****                                               (MODE == XMC_DAC_CH_MODE_DATA) ||\
 142:D:/XMC/Projekte/Temp/CF_XMC4700/cleanflight/lib/main/XMC4000/XMCLib/inc\xmc_dac.h ****                                               (MODE == XMC_DAC_CH_MODE_PATTERN) ||\
 143:D:/XMC/Projekte/Temp/CF_XMC4700/cleanflight/lib/main/XMC4000/XMCLib/inc\xmc_dac.h ****                                               (MODE == XMC_DAC_CH_MODE_NOISE) ||\
 144:D:/XMC/Projekte/Temp/CF_XMC4700/cleanflight/lib/main/XMC4000/XMCLib/inc\xmc_dac.h ****                                               (MODE == XMC_DAC_CH_MODE_RAMP))
 145:D:/XMC/Projekte/Temp/CF_XMC4700/cleanflight/lib/main/XMC4000/XMCLib/inc\xmc_dac.h **** #define XMC_DAC_IS_OUTPUT_SCALE_VALID(SCALE) ((SCALE == XMC_DAC_CH_OUTPUT_SCALE_NONE) ||\
 146:D:/XMC/Projekte/Temp/CF_XMC4700/cleanflight/lib/main/XMC4000/XMCLib/inc\xmc_dac.h ****                                               (SCALE == XMC_DAC_CH_OUTPUT_SCALE_MUL_2) ||\
 147:D:/XMC/Projekte/Temp/CF_XMC4700/cleanflight/lib/main/XMC4000/XMCLib/inc\xmc_dac.h ****                                               (SCALE == XMC_DAC_CH_OUTPUT_SCALE_MUL_4) ||\
 148:D:/XMC/Projekte/Temp/CF_XMC4700/cleanflight/lib/main/XMC4000/XMCLib/inc\xmc_dac.h ****                                               (SCALE == XMC_DAC_CH_OUTPUT_SCALE_MUL_8) ||\
 149:D:/XMC/Projekte/Temp/CF_XMC4700/cleanflight/lib/main/XMC4000/XMCLib/inc\xmc_dac.h ****                                               (SCALE == XMC_DAC_CH_OUTPUT_SCALE_MUL_16) ||\
 150:D:/XMC/Projekte/Temp/CF_XMC4700/cleanflight/lib/main/XMC4000/XMCLib/inc\xmc_dac.h ****                                               (SCALE == XMC_DAC_CH_OUTPUT_SCALE_MUL_32) ||\
 151:D:/XMC/Projekte/Temp/CF_XMC4700/cleanflight/lib/main/XMC4000/XMCLib/inc\xmc_dac.h ****                                               (SCALE == XMC_DAC_CH_OUTPUT_SCALE_MUL_64) ||\
 152:D:/XMC/Projekte/Temp/CF_XMC4700/cleanflight/lib/main/XMC4000/XMCLib/inc\xmc_dac.h ****                                               (SCALE == XMC_DAC_CH_OUTPUT_SCALE_MUL_128) ||\
 153:D:/XMC/Projekte/Temp/CF_XMC4700/cleanflight/lib/main/XMC4000/XMCLib/inc\xmc_dac.h ****                                               (SCALE == XMC_DAC_CH_OUTPUT_SCALE_DIV_2) ||\
 154:D:/XMC/Projekte/Temp/CF_XMC4700/cleanflight/lib/main/XMC4000/XMCLib/inc\xmc_dac.h ****                                               (SCALE == XMC_DAC_CH_OUTPUT_SCALE_DIV_4) ||\
 155:D:/XMC/Projekte/Temp/CF_XMC4700/cleanflight/lib/main/XMC4000/XMCLib/inc\xmc_dac.h ****                                               (SCALE == XMC_DAC_CH_OUTPUT_SCALE_DIV_8) ||\
 156:D:/XMC/Projekte/Temp/CF_XMC4700/cleanflight/lib/main/XMC4000/XMCLib/inc\xmc_dac.h ****                                               (SCALE == XMC_DAC_CH_OUTPUT_SCALE_DIV_16) ||\
 157:D:/XMC/Projekte/Temp/CF_XMC4700/cleanflight/lib/main/XMC4000/XMCLib/inc\xmc_dac.h ****                                               (SCALE == XMC_DAC_CH_OUTPUT_SCALE_DIV_32) ||\
 158:D:/XMC/Projekte/Temp/CF_XMC4700/cleanflight/lib/main/XMC4000/XMCLib/inc\xmc_dac.h ****                                               (SCALE == XMC_DAC_CH_OUTPUT_SCALE_DIV_64) ||\
 159:D:/XMC/Projekte/Temp/CF_XMC4700/cleanflight/lib/main/XMC4000/XMCLib/inc\xmc_dac.h ****                                               (SCALE == XMC_DAC_CH_OUTPUT_SCALE_DIV_128))
 160:D:/XMC/Projekte/Temp/CF_XMC4700/cleanflight/lib/main/XMC4000/XMCLib/inc\xmc_dac.h ****                                             
 161:D:/XMC/Projekte/Temp/CF_XMC4700/cleanflight/lib/main/XMC4000/XMCLib/inc\xmc_dac.h **** 
 162:D:/XMC/Projekte/Temp/CF_XMC4700/cleanflight/lib/main/XMC4000/XMCLib/inc\xmc_dac.h **** /*******************************************************************************
 163:D:/XMC/Projekte/Temp/CF_XMC4700/cleanflight/lib/main/XMC4000/XMCLib/inc\xmc_dac.h ****  * ENUMS
 164:D:/XMC/Projekte/Temp/CF_XMC4700/cleanflight/lib/main/XMC4000/XMCLib/inc\xmc_dac.h ****  *******************************************************************************/
 165:D:/XMC/Projekte/Temp/CF_XMC4700/cleanflight/lib/main/XMC4000/XMCLib/inc\xmc_dac.h **** 
 166:D:/XMC/Projekte/Temp/CF_XMC4700/cleanflight/lib/main/XMC4000/XMCLib/inc\xmc_dac.h **** /**
 167:D:/XMC/Projekte/Temp/CF_XMC4700/cleanflight/lib/main/XMC4000/XMCLib/inc\xmc_dac.h ****  * Return types of the API's
 168:D:/XMC/Projekte/Temp/CF_XMC4700/cleanflight/lib/main/XMC4000/XMCLib/inc\xmc_dac.h ****  */
 169:D:/XMC/Projekte/Temp/CF_XMC4700/cleanflight/lib/main/XMC4000/XMCLib/inc\xmc_dac.h **** typedef enum XMC_DAC_CH_STATUS
 170:D:/XMC/Projekte/Temp/CF_XMC4700/cleanflight/lib/main/XMC4000/XMCLib/inc\xmc_dac.h **** {
 171:D:/XMC/Projekte/Temp/CF_XMC4700/cleanflight/lib/main/XMC4000/XMCLib/inc\xmc_dac.h ****   XMC_DAC_CH_STATUS_OK              = 0U, /**< Status is ok, no error detected */
 172:D:/XMC/Projekte/Temp/CF_XMC4700/cleanflight/lib/main/XMC4000/XMCLib/inc\xmc_dac.h ****   XMC_DAC_CH_STATUS_ERROR           = 1U, /**< Error detected */
 173:D:/XMC/Projekte/Temp/CF_XMC4700/cleanflight/lib/main/XMC4000/XMCLib/inc\xmc_dac.h ****   XMC_DAC_CH_STATUS_BUSY            = 2U, /**< DAC is busy */
 174:D:/XMC/Projekte/Temp/CF_XMC4700/cleanflight/lib/main/XMC4000/XMCLib/inc\xmc_dac.h ****   XMC_DAC_CH_STATUS_ERROR_FREQ2LOW  = 3U, /**< Frequency can't be configured. Frequency is to low. 
 175:D:/XMC/Projekte/Temp/CF_XMC4700/cleanflight/lib/main/XMC4000/XMCLib/inc\xmc_dac.h ****   XMC_DAC_CH_STATUS_ERROR_FREQ2HIGH = 4U  /**< Frequency can't be configured. Frequency is to high.
 176:D:/XMC/Projekte/Temp/CF_XMC4700/cleanflight/lib/main/XMC4000/XMCLib/inc\xmc_dac.h **** } XMC_DAC_CH_STATUS_t;
 177:D:/XMC/Projekte/Temp/CF_XMC4700/cleanflight/lib/main/XMC4000/XMCLib/inc\xmc_dac.h **** 
 178:D:/XMC/Projekte/Temp/CF_XMC4700/cleanflight/lib/main/XMC4000/XMCLib/inc\xmc_dac.h **** /**
 179:D:/XMC/Projekte/Temp/CF_XMC4700/cleanflight/lib/main/XMC4000/XMCLib/inc\xmc_dac.h ****  * Operating modes of DAC
 180:D:/XMC/Projekte/Temp/CF_XMC4700/cleanflight/lib/main/XMC4000/XMCLib/inc\xmc_dac.h ****  */
 181:D:/XMC/Projekte/Temp/CF_XMC4700/cleanflight/lib/main/XMC4000/XMCLib/inc\xmc_dac.h **** typedef enum XMC_DAC_CH_MODE
 182:D:/XMC/Projekte/Temp/CF_XMC4700/cleanflight/lib/main/XMC4000/XMCLib/inc\xmc_dac.h **** {
 183:D:/XMC/Projekte/Temp/CF_XMC4700/cleanflight/lib/main/XMC4000/XMCLib/inc\xmc_dac.h ****   XMC_DAC_CH_MODE_IDLE    = 0x0U << DAC_DAC0CFG0_MODE_Pos,    /**< DAC is disabled */
 184:D:/XMC/Projekte/Temp/CF_XMC4700/cleanflight/lib/main/XMC4000/XMCLib/inc\xmc_dac.h ****   XMC_DAC_CH_MODE_SINGLE  = 0x1U << DAC_DAC0CFG0_MODE_Pos,    /**< Single value mode - single data 
 185:D:/XMC/Projekte/Temp/CF_XMC4700/cleanflight/lib/main/XMC4000/XMCLib/inc\xmc_dac.h ****   XMC_DAC_CH_MODE_DATA    = 0x2U << DAC_DAC0CFG0_MODE_Pos,    /**< Data mode - continuous data proc
 186:D:/XMC/Projekte/Temp/CF_XMC4700/cleanflight/lib/main/XMC4000/XMCLib/inc\xmc_dac.h ****   XMC_DAC_CH_MODE_PATTERN = 0x3U << DAC_DAC0CFG0_MODE_Pos,    /**< Pattern mode - inbuilt pattern w
 187:D:/XMC/Projekte/Temp/CF_XMC4700/cleanflight/lib/main/XMC4000/XMCLib/inc\xmc_dac.h ****                                                                    Sine, Triangle, Rectangle */
 188:D:/XMC/Projekte/Temp/CF_XMC4700/cleanflight/lib/main/XMC4000/XMCLib/inc\xmc_dac.h ****   XMC_DAC_CH_MODE_NOISE   = 0x4U << DAC_DAC0CFG0_MODE_Pos,    /**< Noise mode - pseudo-random noise
 189:D:/XMC/Projekte/Temp/CF_XMC4700/cleanflight/lib/main/XMC4000/XMCLib/inc\xmc_dac.h ****   XMC_DAC_CH_MODE_RAMP    = 0x5U << DAC_DAC0CFG0_MODE_Pos     /**< Ramp mode - ramp generation */
 190:D:/XMC/Projekte/Temp/CF_XMC4700/cleanflight/lib/main/XMC4000/XMCLib/inc\xmc_dac.h **** } XMC_DAC_CH_MODE_t;
 191:D:/XMC/Projekte/Temp/CF_XMC4700/cleanflight/lib/main/XMC4000/XMCLib/inc\xmc_dac.h **** 
 192:D:/XMC/Projekte/Temp/CF_XMC4700/cleanflight/lib/main/XMC4000/XMCLib/inc\xmc_dac.h **** /**
 193:D:/XMC/Projekte/Temp/CF_XMC4700/cleanflight/lib/main/XMC4000/XMCLib/inc\xmc_dac.h ****  * Trigger sources for the data update
 194:D:/XMC/Projekte/Temp/CF_XMC4700/cleanflight/lib/main/XMC4000/XMCLib/inc\xmc_dac.h ****  */
 195:D:/XMC/Projekte/Temp/CF_XMC4700/cleanflight/lib/main/XMC4000/XMCLib/inc\xmc_dac.h **** typedef enum XMC_DAC_CH_TRIGGER
 196:D:/XMC/Projekte/Temp/CF_XMC4700/cleanflight/lib/main/XMC4000/XMCLib/inc\xmc_dac.h **** {
 197:D:/XMC/Projekte/Temp/CF_XMC4700/cleanflight/lib/main/XMC4000/XMCLib/inc\xmc_dac.h ****   XMC_DAC_CH_TRIGGER_INTERNAL =
 198:D:/XMC/Projekte/Temp/CF_XMC4700/cleanflight/lib/main/XMC4000/XMCLib/inc\xmc_dac.h ****       (0x0U << DAC_DAC0CFG1_TRIGMOD_Pos),                                      /**< Internal trigge
 199:D:/XMC/Projekte/Temp/CF_XMC4700/cleanflight/lib/main/XMC4000/XMCLib/inc\xmc_dac.h ****   XMC_DAC_CH_TRIGGER_EXTERNAL_CCU80_SR1 =
 200:D:/XMC/Projekte/Temp/CF_XMC4700/cleanflight/lib/main/XMC4000/XMCLib/inc\xmc_dac.h ****       (0x1U << DAC_DAC0CFG1_TRIGMOD_Pos) | 0x0U,                               /**< External trigge
 201:D:/XMC/Projekte/Temp/CF_XMC4700/cleanflight/lib/main/XMC4000/XMCLib/inc\xmc_dac.h ****   XMC_DAC_CH_TRIGGER_EXTERNAL_CCU40_SR1 =
 202:D:/XMC/Projekte/Temp/CF_XMC4700/cleanflight/lib/main/XMC4000/XMCLib/inc\xmc_dac.h ****       (0x1U << DAC_DAC0CFG1_TRIGMOD_Pos) | (0x2U << DAC_DAC0CFG1_TRIGSEL_Pos), /**< External trigge
 203:D:/XMC/Projekte/Temp/CF_XMC4700/cleanflight/lib/main/XMC4000/XMCLib/inc\xmc_dac.h ****   XMC_DAC_CH_TRIGGER_EXTERNAL_CCU41_SR1 =
 204:D:/XMC/Projekte/Temp/CF_XMC4700/cleanflight/lib/main/XMC4000/XMCLib/inc\xmc_dac.h ****       (0x1U << DAC_DAC0CFG1_TRIGMOD_Pos) | (0x3U << DAC_DAC0CFG1_TRIGSEL_Pos), /**< External trigge
 205:D:/XMC/Projekte/Temp/CF_XMC4700/cleanflight/lib/main/XMC4000/XMCLib/inc\xmc_dac.h ****   XMC_DAC_CH_TRIGGER_EXTERNAL_P2_9 =
 206:D:/XMC/Projekte/Temp/CF_XMC4700/cleanflight/lib/main/XMC4000/XMCLib/inc\xmc_dac.h ****       (0x1U << DAC_DAC0CFG1_TRIGMOD_Pos) | (0x4U << DAC_DAC0CFG1_TRIGSEL_Pos), /**< External trigge
 207:D:/XMC/Projekte/Temp/CF_XMC4700/cleanflight/lib/main/XMC4000/XMCLib/inc\xmc_dac.h ****   XMC_DAC_CH_TRIGGER_EXTERNAL_P2_8 =
 208:D:/XMC/Projekte/Temp/CF_XMC4700/cleanflight/lib/main/XMC4000/XMCLib/inc\xmc_dac.h ****       (0x1U << DAC_DAC0CFG1_TRIGMOD_Pos) | (0x5U << DAC_DAC0CFG1_TRIGSEL_Pos), /**< External trigge
 209:D:/XMC/Projekte/Temp/CF_XMC4700/cleanflight/lib/main/XMC4000/XMCLib/inc\xmc_dac.h ****   XMC_DAC_CH_TRIGGER_EXTERNAL_U0C0_DX1INS =
 210:D:/XMC/Projekte/Temp/CF_XMC4700/cleanflight/lib/main/XMC4000/XMCLib/inc\xmc_dac.h ****       (0x1U << DAC_DAC0CFG1_TRIGMOD_Pos) | (0x6U << DAC_DAC0CFG1_TRIGSEL_Pos), /**< External trigge
 211:D:/XMC/Projekte/Temp/CF_XMC4700/cleanflight/lib/main/XMC4000/XMCLib/inc\xmc_dac.h ****   XMC_DAC_CH_TRIGGER_EXTERNAL_U1C0_DX1INS =
 212:D:/XMC/Projekte/Temp/CF_XMC4700/cleanflight/lib/main/XMC4000/XMCLib/inc\xmc_dac.h ****       (0x1U << DAC_DAC0CFG1_TRIGMOD_Pos) | (0x7U << DAC_DAC0CFG1_TRIGSEL_Pos), /**< External trigge
 213:D:/XMC/Projekte/Temp/CF_XMC4700/cleanflight/lib/main/XMC4000/XMCLib/inc\xmc_dac.h ****   XMC_DAC_CH_TRIGGER_SOFTWARE =
 214:D:/XMC/Projekte/Temp/CF_XMC4700/cleanflight/lib/main/XMC4000/XMCLib/inc\xmc_dac.h ****       (0x2U << DAC_DAC0CFG1_TRIGMOD_Pos)                                       /**< Software trigge
 215:D:/XMC/Projekte/Temp/CF_XMC4700/cleanflight/lib/main/XMC4000/XMCLib/inc\xmc_dac.h **** } XMC_DAC_CH_TRIGGER_t;
 216:D:/XMC/Projekte/Temp/CF_XMC4700/cleanflight/lib/main/XMC4000/XMCLib/inc\xmc_dac.h **** 
 217:D:/XMC/Projekte/Temp/CF_XMC4700/cleanflight/lib/main/XMC4000/XMCLib/inc\xmc_dac.h **** /**
 218:D:/XMC/Projekte/Temp/CF_XMC4700/cleanflight/lib/main/XMC4000/XMCLib/inc\xmc_dac.h ****  * Data type of the input data
 219:D:/XMC/Projekte/Temp/CF_XMC4700/cleanflight/lib/main/XMC4000/XMCLib/inc\xmc_dac.h ****  */
 220:D:/XMC/Projekte/Temp/CF_XMC4700/cleanflight/lib/main/XMC4000/XMCLib/inc\xmc_dac.h **** typedef enum XMC_DAC_CH_DATA_TYPE
 221:D:/XMC/Projekte/Temp/CF_XMC4700/cleanflight/lib/main/XMC4000/XMCLib/inc\xmc_dac.h **** {
 222:D:/XMC/Projekte/Temp/CF_XMC4700/cleanflight/lib/main/XMC4000/XMCLib/inc\xmc_dac.h ****   XMC_DAC_CH_DATA_TYPE_UNSIGNED = 0U , /**< input data is unsigned */
 223:D:/XMC/Projekte/Temp/CF_XMC4700/cleanflight/lib/main/XMC4000/XMCLib/inc\xmc_dac.h ****   XMC_DAC_CH_DATA_TYPE_SIGNED = 1U     /**< input data is signed */
 224:D:/XMC/Projekte/Temp/CF_XMC4700/cleanflight/lib/main/XMC4000/XMCLib/inc\xmc_dac.h **** } XMC_DAC_CH_DATA_TYPE_t;
 225:D:/XMC/Projekte/Temp/CF_XMC4700/cleanflight/lib/main/XMC4000/XMCLib/inc\xmc_dac.h **** 
 226:D:/XMC/Projekte/Temp/CF_XMC4700/cleanflight/lib/main/XMC4000/XMCLib/inc\xmc_dac.h **** /**
 227:D:/XMC/Projekte/Temp/CF_XMC4700/cleanflight/lib/main/XMC4000/XMCLib/inc\xmc_dac.h ****  * Scaling of the input data
 228:D:/XMC/Projekte/Temp/CF_XMC4700/cleanflight/lib/main/XMC4000/XMCLib/inc\xmc_dac.h ****  */
 229:D:/XMC/Projekte/Temp/CF_XMC4700/cleanflight/lib/main/XMC4000/XMCLib/inc\xmc_dac.h **** typedef enum XMC_DAC_CH_OUTPUT_SCALE
 230:D:/XMC/Projekte/Temp/CF_XMC4700/cleanflight/lib/main/XMC4000/XMCLib/inc\xmc_dac.h **** {
 231:D:/XMC/Projekte/Temp/CF_XMC4700/cleanflight/lib/main/XMC4000/XMCLib/inc\xmc_dac.h ****   XMC_DAC_CH_OUTPUT_SCALE_NONE =
 232:D:/XMC/Projekte/Temp/CF_XMC4700/cleanflight/lib/main/XMC4000/XMCLib/inc\xmc_dac.h ****       0x0U,                                                                   /**< No scaling */
 233:D:/XMC/Projekte/Temp/CF_XMC4700/cleanflight/lib/main/XMC4000/XMCLib/inc\xmc_dac.h ****   XMC_DAC_CH_OUTPUT_SCALE_MUL_2 =
 234:D:/XMC/Projekte/Temp/CF_XMC4700/cleanflight/lib/main/XMC4000/XMCLib/inc\xmc_dac.h ****       (0x1U << DAC_DAC0CFG1_MULDIV_Pos) | (0x1U << DAC_DAC0CFG1_SCALE_Pos),   /**< multiplied by 2 
 235:D:/XMC/Projekte/Temp/CF_XMC4700/cleanflight/lib/main/XMC4000/XMCLib/inc\xmc_dac.h ****   XMC_DAC_CH_OUTPUT_SCALE_MUL_4 =
 236:D:/XMC/Projekte/Temp/CF_XMC4700/cleanflight/lib/main/XMC4000/XMCLib/inc\xmc_dac.h ****       (0x1U << DAC_DAC0CFG1_MULDIV_Pos) | (0x2U << DAC_DAC0CFG1_SCALE_Pos),   /**< multiplied by 4 
 237:D:/XMC/Projekte/Temp/CF_XMC4700/cleanflight/lib/main/XMC4000/XMCLib/inc\xmc_dac.h ****   XMC_DAC_CH_OUTPUT_SCALE_MUL_8 =
 238:D:/XMC/Projekte/Temp/CF_XMC4700/cleanflight/lib/main/XMC4000/XMCLib/inc\xmc_dac.h ****       (0x1U << DAC_DAC0CFG1_MULDIV_Pos) | (0x3U << DAC_DAC0CFG1_SCALE_Pos),   /**< multiplied by 8 
 239:D:/XMC/Projekte/Temp/CF_XMC4700/cleanflight/lib/main/XMC4000/XMCLib/inc\xmc_dac.h ****   XMC_DAC_CH_OUTPUT_SCALE_MUL_16 =
 240:D:/XMC/Projekte/Temp/CF_XMC4700/cleanflight/lib/main/XMC4000/XMCLib/inc\xmc_dac.h ****       (0x1U << DAC_DAC0CFG1_MULDIV_Pos) | (0x4U << DAC_DAC0CFG1_SCALE_Pos),   /**< multiplied by 16
 241:D:/XMC/Projekte/Temp/CF_XMC4700/cleanflight/lib/main/XMC4000/XMCLib/inc\xmc_dac.h ****   XMC_DAC_CH_OUTPUT_SCALE_MUL_32 =
 242:D:/XMC/Projekte/Temp/CF_XMC4700/cleanflight/lib/main/XMC4000/XMCLib/inc\xmc_dac.h ****       (0x1U << DAC_DAC0CFG1_MULDIV_Pos) | (0x5U << DAC_DAC0CFG1_SCALE_Pos),   /**< multiplied by 32
 243:D:/XMC/Projekte/Temp/CF_XMC4700/cleanflight/lib/main/XMC4000/XMCLib/inc\xmc_dac.h ****   XMC_DAC_CH_OUTPUT_SCALE_MUL_64 =
 244:D:/XMC/Projekte/Temp/CF_XMC4700/cleanflight/lib/main/XMC4000/XMCLib/inc\xmc_dac.h ****       (0x1U << DAC_DAC0CFG1_MULDIV_Pos) | (0x6U << DAC_DAC0CFG1_SCALE_Pos),   /**< multiplied by 64
 245:D:/XMC/Projekte/Temp/CF_XMC4700/cleanflight/lib/main/XMC4000/XMCLib/inc\xmc_dac.h ****   XMC_DAC_CH_OUTPUT_SCALE_MUL_128 =
 246:D:/XMC/Projekte/Temp/CF_XMC4700/cleanflight/lib/main/XMC4000/XMCLib/inc\xmc_dac.h ****       (0x1U << DAC_DAC0CFG1_MULDIV_Pos) | (0x7U << DAC_DAC0CFG1_SCALE_Pos),   /**< multiplied by 12
 247:D:/XMC/Projekte/Temp/CF_XMC4700/cleanflight/lib/main/XMC4000/XMCLib/inc\xmc_dac.h ****   XMC_DAC_CH_OUTPUT_SCALE_DIV_2 =
 248:D:/XMC/Projekte/Temp/CF_XMC4700/cleanflight/lib/main/XMC4000/XMCLib/inc\xmc_dac.h ****       0x1U << DAC_DAC0CFG1_SCALE_Pos,                                         /**< divided by 2 */
 249:D:/XMC/Projekte/Temp/CF_XMC4700/cleanflight/lib/main/XMC4000/XMCLib/inc\xmc_dac.h ****   XMC_DAC_CH_OUTPUT_SCALE_DIV_4 =
 250:D:/XMC/Projekte/Temp/CF_XMC4700/cleanflight/lib/main/XMC4000/XMCLib/inc\xmc_dac.h ****       0x2U << DAC_DAC0CFG1_SCALE_Pos,                                         /**< divided by 4 */
 251:D:/XMC/Projekte/Temp/CF_XMC4700/cleanflight/lib/main/XMC4000/XMCLib/inc\xmc_dac.h ****   XMC_DAC_CH_OUTPUT_SCALE_DIV_8 =
 252:D:/XMC/Projekte/Temp/CF_XMC4700/cleanflight/lib/main/XMC4000/XMCLib/inc\xmc_dac.h ****       0x3U << DAC_DAC0CFG1_SCALE_Pos,                                         /**< divided by 8 */
 253:D:/XMC/Projekte/Temp/CF_XMC4700/cleanflight/lib/main/XMC4000/XMCLib/inc\xmc_dac.h ****   XMC_DAC_CH_OUTPUT_SCALE_DIV_16 =
 254:D:/XMC/Projekte/Temp/CF_XMC4700/cleanflight/lib/main/XMC4000/XMCLib/inc\xmc_dac.h ****       0x4U << DAC_DAC0CFG1_SCALE_Pos,                                         /**< divided by 16 */
 255:D:/XMC/Projekte/Temp/CF_XMC4700/cleanflight/lib/main/XMC4000/XMCLib/inc\xmc_dac.h ****   XMC_DAC_CH_OUTPUT_SCALE_DIV_32 =
 256:D:/XMC/Projekte/Temp/CF_XMC4700/cleanflight/lib/main/XMC4000/XMCLib/inc\xmc_dac.h ****       0x5U << DAC_DAC0CFG1_SCALE_Pos,                                         /**< divided by 32 */
 257:D:/XMC/Projekte/Temp/CF_XMC4700/cleanflight/lib/main/XMC4000/XMCLib/inc\xmc_dac.h ****   XMC_DAC_CH_OUTPUT_SCALE_DIV_64 =
 258:D:/XMC/Projekte/Temp/CF_XMC4700/cleanflight/lib/main/XMC4000/XMCLib/inc\xmc_dac.h ****       0x6U << DAC_DAC0CFG1_SCALE_Pos,                                         /**< divided by 64 */
 259:D:/XMC/Projekte/Temp/CF_XMC4700/cleanflight/lib/main/XMC4000/XMCLib/inc\xmc_dac.h ****   XMC_DAC_CH_OUTPUT_SCALE_DIV_128 =
 260:D:/XMC/Projekte/Temp/CF_XMC4700/cleanflight/lib/main/XMC4000/XMCLib/inc\xmc_dac.h ****       0x7U << DAC_DAC0CFG1_SCALE_Pos                                          /**< divided by 128 *
 261:D:/XMC/Projekte/Temp/CF_XMC4700/cleanflight/lib/main/XMC4000/XMCLib/inc\xmc_dac.h **** } XMC_DAC_CH_OUTPUT_SCALE_t;
 262:D:/XMC/Projekte/Temp/CF_XMC4700/cleanflight/lib/main/XMC4000/XMCLib/inc\xmc_dac.h **** 
 263:D:/XMC/Projekte/Temp/CF_XMC4700/cleanflight/lib/main/XMC4000/XMCLib/inc\xmc_dac.h **** /**
 264:D:/XMC/Projekte/Temp/CF_XMC4700/cleanflight/lib/main/XMC4000/XMCLib/inc\xmc_dac.h ****  * Negation of input data (applicable only for XMC44 device)
 265:D:/XMC/Projekte/Temp/CF_XMC4700/cleanflight/lib/main/XMC4000/XMCLib/inc\xmc_dac.h ****  */
 266:D:/XMC/Projekte/Temp/CF_XMC4700/cleanflight/lib/main/XMC4000/XMCLib/inc\xmc_dac.h **** typedef enum XMC_DAC_CH_OUTPUT_NEGATION
 267:D:/XMC/Projekte/Temp/CF_XMC4700/cleanflight/lib/main/XMC4000/XMCLib/inc\xmc_dac.h **** {
 268:D:/XMC/Projekte/Temp/CF_XMC4700/cleanflight/lib/main/XMC4000/XMCLib/inc\xmc_dac.h ****   XMC_DAC_CH_OUTPUT_NEGATION_DISABLED = 0U,                   /**< XMC_DAC_CH_OUTPUT_NEGATION_DISAB
 269:D:/XMC/Projekte/Temp/CF_XMC4700/cleanflight/lib/main/XMC4000/XMCLib/inc\xmc_dac.h ****   XMC_DAC_CH_OUTPUT_NEGATION_ENABLED = 1U                     /**< XMC_DAC_CH_OUTPUT_NEGATION_ENABL
 270:D:/XMC/Projekte/Temp/CF_XMC4700/cleanflight/lib/main/XMC4000/XMCLib/inc\xmc_dac.h **** } XMC_DAC_CH_OUTPUT_NEGATION_t;
 271:D:/XMC/Projekte/Temp/CF_XMC4700/cleanflight/lib/main/XMC4000/XMCLib/inc\xmc_dac.h **** 
 272:D:/XMC/Projekte/Temp/CF_XMC4700/cleanflight/lib/main/XMC4000/XMCLib/inc\xmc_dac.h **** /**
 273:D:/XMC/Projekte/Temp/CF_XMC4700/cleanflight/lib/main/XMC4000/XMCLib/inc\xmc_dac.h ****  * Output sign signal for the Pattern Generation Mode
 274:D:/XMC/Projekte/Temp/CF_XMC4700/cleanflight/lib/main/XMC4000/XMCLib/inc\xmc_dac.h ****  */
 275:D:/XMC/Projekte/Temp/CF_XMC4700/cleanflight/lib/main/XMC4000/XMCLib/inc\xmc_dac.h **** typedef enum XMC_DAC_CH_PATTERN_SIGN_OUTPUT
 276:D:/XMC/Projekte/Temp/CF_XMC4700/cleanflight/lib/main/XMC4000/XMCLib/inc\xmc_dac.h **** {
 277:D:/XMC/Projekte/Temp/CF_XMC4700/cleanflight/lib/main/XMC4000/XMCLib/inc\xmc_dac.h ****   XMC_DAC_CH_PATTERN_SIGN_OUTPUT_DISABLED = 0U,  /**< Sign output signal generation is disabled */
 278:D:/XMC/Projekte/Temp/CF_XMC4700/cleanflight/lib/main/XMC4000/XMCLib/inc\xmc_dac.h ****   XMC_DAC_CH_PATTERN_SIGN_OUTPUT_ENABLED = 1U    /**< Sign output signal generation is enabled */
 279:D:/XMC/Projekte/Temp/CF_XMC4700/cleanflight/lib/main/XMC4000/XMCLib/inc\xmc_dac.h **** } XMC_DAC_CH_PATTERN_SIGN_OUTPUT_t;
 280:D:/XMC/Projekte/Temp/CF_XMC4700/cleanflight/lib/main/XMC4000/XMCLib/inc\xmc_dac.h **** 
 281:D:/XMC/Projekte/Temp/CF_XMC4700/cleanflight/lib/main/XMC4000/XMCLib/inc\xmc_dac.h **** /*******************************************************************************
 282:D:/XMC/Projekte/Temp/CF_XMC4700/cleanflight/lib/main/XMC4000/XMCLib/inc\xmc_dac.h ****  * DATA STRUCTURES
 283:D:/XMC/Projekte/Temp/CF_XMC4700/cleanflight/lib/main/XMC4000/XMCLib/inc\xmc_dac.h ****  *******************************************************************************/
 284:D:/XMC/Projekte/Temp/CF_XMC4700/cleanflight/lib/main/XMC4000/XMCLib/inc\xmc_dac.h **** /**
 285:D:/XMC/Projekte/Temp/CF_XMC4700/cleanflight/lib/main/XMC4000/XMCLib/inc\xmc_dac.h ****  * DAC peripheral registers configuration.
 286:D:/XMC/Projekte/Temp/CF_XMC4700/cleanflight/lib/main/XMC4000/XMCLib/inc\xmc_dac.h ****  */
 287:D:/XMC/Projekte/Temp/CF_XMC4700/cleanflight/lib/main/XMC4000/XMCLib/inc\xmc_dac.h **** typedef struct
 288:D:/XMC/Projekte/Temp/CF_XMC4700/cleanflight/lib/main/XMC4000/XMCLib/inc\xmc_dac.h **** {
 289:D:/XMC/Projekte/Temp/CF_XMC4700/cleanflight/lib/main/XMC4000/XMCLib/inc\xmc_dac.h ****   __I  uint32_t  ID;
 290:D:/XMC/Projekte/Temp/CF_XMC4700/cleanflight/lib/main/XMC4000/XMCLib/inc\xmc_dac.h **** 
 291:D:/XMC/Projekte/Temp/CF_XMC4700/cleanflight/lib/main/XMC4000/XMCLib/inc\xmc_dac.h ****   struct
 292:D:/XMC/Projekte/Temp/CF_XMC4700/cleanflight/lib/main/XMC4000/XMCLib/inc\xmc_dac.h ****   {
 293:D:/XMC/Projekte/Temp/CF_XMC4700/cleanflight/lib/main/XMC4000/XMCLib/inc\xmc_dac.h ****      __IO uint32_t low;
 294:D:/XMC/Projekte/Temp/CF_XMC4700/cleanflight/lib/main/XMC4000/XMCLib/inc\xmc_dac.h ****      __IO uint32_t high;
 295:D:/XMC/Projekte/Temp/CF_XMC4700/cleanflight/lib/main/XMC4000/XMCLib/inc\xmc_dac.h ****   } DACCFG[XMC_DAC_NO_CHANNELS];
 296:D:/XMC/Projekte/Temp/CF_XMC4700/cleanflight/lib/main/XMC4000/XMCLib/inc\xmc_dac.h **** 
 297:D:/XMC/Projekte/Temp/CF_XMC4700/cleanflight/lib/main/XMC4000/XMCLib/inc\xmc_dac.h ****   __IO uint32_t DACDATA[XMC_DAC_NO_CHANNELS];
 298:D:/XMC/Projekte/Temp/CF_XMC4700/cleanflight/lib/main/XMC4000/XMCLib/inc\xmc_dac.h ****   __IO uint32_t DAC01DATA;
 299:D:/XMC/Projekte/Temp/CF_XMC4700/cleanflight/lib/main/XMC4000/XMCLib/inc\xmc_dac.h **** 
 300:D:/XMC/Projekte/Temp/CF_XMC4700/cleanflight/lib/main/XMC4000/XMCLib/inc\xmc_dac.h ****   struct
 301:D:/XMC/Projekte/Temp/CF_XMC4700/cleanflight/lib/main/XMC4000/XMCLib/inc\xmc_dac.h ****   {
 302:D:/XMC/Projekte/Temp/CF_XMC4700/cleanflight/lib/main/XMC4000/XMCLib/inc\xmc_dac.h ****      __IO uint32_t low;
 303:D:/XMC/Projekte/Temp/CF_XMC4700/cleanflight/lib/main/XMC4000/XMCLib/inc\xmc_dac.h ****      __IO uint32_t high;
 304:D:/XMC/Projekte/Temp/CF_XMC4700/cleanflight/lib/main/XMC4000/XMCLib/inc\xmc_dac.h ****   } DACPAT[XMC_DAC_NO_CHANNELS];
 305:D:/XMC/Projekte/Temp/CF_XMC4700/cleanflight/lib/main/XMC4000/XMCLib/inc\xmc_dac.h **** 
 306:D:/XMC/Projekte/Temp/CF_XMC4700/cleanflight/lib/main/XMC4000/XMCLib/inc\xmc_dac.h **** } XMC_DAC_t;
 307:D:/XMC/Projekte/Temp/CF_XMC4700/cleanflight/lib/main/XMC4000/XMCLib/inc\xmc_dac.h **** 
 308:D:/XMC/Projekte/Temp/CF_XMC4700/cleanflight/lib/main/XMC4000/XMCLib/inc\xmc_dac.h **** /*Anonymous structure/union guard start*/
 309:D:/XMC/Projekte/Temp/CF_XMC4700/cleanflight/lib/main/XMC4000/XMCLib/inc\xmc_dac.h **** #if defined(__CC_ARM)
 310:D:/XMC/Projekte/Temp/CF_XMC4700/cleanflight/lib/main/XMC4000/XMCLib/inc\xmc_dac.h ****   #pragma push
 311:D:/XMC/Projekte/Temp/CF_XMC4700/cleanflight/lib/main/XMC4000/XMCLib/inc\xmc_dac.h ****   #pragma anon_unions
 312:D:/XMC/Projekte/Temp/CF_XMC4700/cleanflight/lib/main/XMC4000/XMCLib/inc\xmc_dac.h **** #elif defined(__TASKING__)
 313:D:/XMC/Projekte/Temp/CF_XMC4700/cleanflight/lib/main/XMC4000/XMCLib/inc\xmc_dac.h ****   #pragma warning 586
 314:D:/XMC/Projekte/Temp/CF_XMC4700/cleanflight/lib/main/XMC4000/XMCLib/inc\xmc_dac.h **** #endif
 315:D:/XMC/Projekte/Temp/CF_XMC4700/cleanflight/lib/main/XMC4000/XMCLib/inc\xmc_dac.h **** 
 316:D:/XMC/Projekte/Temp/CF_XMC4700/cleanflight/lib/main/XMC4000/XMCLib/inc\xmc_dac.h **** /**
 317:D:/XMC/Projekte/Temp/CF_XMC4700/cleanflight/lib/main/XMC4000/XMCLib/inc\xmc_dac.h ****  * Channel related configuration
 318:D:/XMC/Projekte/Temp/CF_XMC4700/cleanflight/lib/main/XMC4000/XMCLib/inc\xmc_dac.h ****  */
 319:D:/XMC/Projekte/Temp/CF_XMC4700/cleanflight/lib/main/XMC4000/XMCLib/inc\xmc_dac.h **** typedef struct XMC_DAC_CH_CONFIG
 320:D:/XMC/Projekte/Temp/CF_XMC4700/cleanflight/lib/main/XMC4000/XMCLib/inc\xmc_dac.h **** {
 321:D:/XMC/Projekte/Temp/CF_XMC4700/cleanflight/lib/main/XMC4000/XMCLib/inc\xmc_dac.h ****   union
 322:D:/XMC/Projekte/Temp/CF_XMC4700/cleanflight/lib/main/XMC4000/XMCLib/inc\xmc_dac.h ****   {
 323:D:/XMC/Projekte/Temp/CF_XMC4700/cleanflight/lib/main/XMC4000/XMCLib/inc\xmc_dac.h ****   struct
 324:D:/XMC/Projekte/Temp/CF_XMC4700/cleanflight/lib/main/XMC4000/XMCLib/inc\xmc_dac.h ****   {
 325:D:/XMC/Projekte/Temp/CF_XMC4700/cleanflight/lib/main/XMC4000/XMCLib/inc\xmc_dac.h ****     uint32_t :23;                /**< Not used bits */
 326:D:/XMC/Projekte/Temp/CF_XMC4700/cleanflight/lib/main/XMC4000/XMCLib/inc\xmc_dac.h ****     uint32_t data_type:1;        /**< input data type - unsigned / signed */
 327:D:/XMC/Projekte/Temp/CF_XMC4700/cleanflight/lib/main/XMC4000/XMCLib/inc\xmc_dac.h ****     uint32_t :4;                 /**< Not used bits */
 328:D:/XMC/Projekte/Temp/CF_XMC4700/cleanflight/lib/main/XMC4000/XMCLib/inc\xmc_dac.h ****     uint32_t output_negation:1;  /**< Negation of the output waveform enabled/disabled */
 329:D:/XMC/Projekte/Temp/CF_XMC4700/cleanflight/lib/main/XMC4000/XMCLib/inc\xmc_dac.h ****     uint32_t :3;
 330:D:/XMC/Projekte/Temp/CF_XMC4700/cleanflight/lib/main/XMC4000/XMCLib/inc\xmc_dac.h ****   };
 331:D:/XMC/Projekte/Temp/CF_XMC4700/cleanflight/lib/main/XMC4000/XMCLib/inc\xmc_dac.h ****   uint32_t cfg0;
 332:D:/XMC/Projekte/Temp/CF_XMC4700/cleanflight/lib/main/XMC4000/XMCLib/inc\xmc_dac.h ****   };
 333:D:/XMC/Projekte/Temp/CF_XMC4700/cleanflight/lib/main/XMC4000/XMCLib/inc\xmc_dac.h ****   union
 334:D:/XMC/Projekte/Temp/CF_XMC4700/cleanflight/lib/main/XMC4000/XMCLib/inc\xmc_dac.h ****   {
 335:D:/XMC/Projekte/Temp/CF_XMC4700/cleanflight/lib/main/XMC4000/XMCLib/inc\xmc_dac.h ****   struct
 336:D:/XMC/Projekte/Temp/CF_XMC4700/cleanflight/lib/main/XMC4000/XMCLib/inc\xmc_dac.h ****   {
 337:D:/XMC/Projekte/Temp/CF_XMC4700/cleanflight/lib/main/XMC4000/XMCLib/inc\xmc_dac.h ****     uint32_t output_scale:4;  /**< Scale value of type XMC_DAC_CH_OUTPUT_SCALE_t. It includes scali
 338:D:/XMC/Projekte/Temp/CF_XMC4700/cleanflight/lib/main/XMC4000/XMCLib/inc\xmc_dac.h ****     uint32_t output_offset:8; /**< offset value */
 339:D:/XMC/Projekte/Temp/CF_XMC4700/cleanflight/lib/main/XMC4000/XMCLib/inc\xmc_dac.h ****     uint32_t :20;
 340:D:/XMC/Projekte/Temp/CF_XMC4700/cleanflight/lib/main/XMC4000/XMCLib/inc\xmc_dac.h ****   };
 341:D:/XMC/Projekte/Temp/CF_XMC4700/cleanflight/lib/main/XMC4000/XMCLib/inc\xmc_dac.h ****   uint32_t cfg1;
 342:D:/XMC/Projekte/Temp/CF_XMC4700/cleanflight/lib/main/XMC4000/XMCLib/inc\xmc_dac.h ****   };
 343:D:/XMC/Projekte/Temp/CF_XMC4700/cleanflight/lib/main/XMC4000/XMCLib/inc\xmc_dac.h **** } XMC_DAC_CH_CONFIG_t;
 344:D:/XMC/Projekte/Temp/CF_XMC4700/cleanflight/lib/main/XMC4000/XMCLib/inc\xmc_dac.h **** /*Anonymous structure/union guard end*/
 345:D:/XMC/Projekte/Temp/CF_XMC4700/cleanflight/lib/main/XMC4000/XMCLib/inc\xmc_dac.h **** #if defined(__CC_ARM)
 346:D:/XMC/Projekte/Temp/CF_XMC4700/cleanflight/lib/main/XMC4000/XMCLib/inc\xmc_dac.h ****   #pragma pop
 347:D:/XMC/Projekte/Temp/CF_XMC4700/cleanflight/lib/main/XMC4000/XMCLib/inc\xmc_dac.h **** #elif defined(__TASKING__)
 348:D:/XMC/Projekte/Temp/CF_XMC4700/cleanflight/lib/main/XMC4000/XMCLib/inc\xmc_dac.h ****   #pragma warning restore
 349:D:/XMC/Projekte/Temp/CF_XMC4700/cleanflight/lib/main/XMC4000/XMCLib/inc\xmc_dac.h **** #endif
 350:D:/XMC/Projekte/Temp/CF_XMC4700/cleanflight/lib/main/XMC4000/XMCLib/inc\xmc_dac.h **** /*******************************************************************************
 351:D:/XMC/Projekte/Temp/CF_XMC4700/cleanflight/lib/main/XMC4000/XMCLib/inc\xmc_dac.h ****  * API PROTOTYPES
 352:D:/XMC/Projekte/Temp/CF_XMC4700/cleanflight/lib/main/XMC4000/XMCLib/inc\xmc_dac.h ****  *******************************************************************************/
 353:D:/XMC/Projekte/Temp/CF_XMC4700/cleanflight/lib/main/XMC4000/XMCLib/inc\xmc_dac.h **** 
 354:D:/XMC/Projekte/Temp/CF_XMC4700/cleanflight/lib/main/XMC4000/XMCLib/inc\xmc_dac.h **** #ifdef __cplusplus
 355:D:/XMC/Projekte/Temp/CF_XMC4700/cleanflight/lib/main/XMC4000/XMCLib/inc\xmc_dac.h **** extern "C" {
 356:D:/XMC/Projekte/Temp/CF_XMC4700/cleanflight/lib/main/XMC4000/XMCLib/inc\xmc_dac.h **** #endif
 357:D:/XMC/Projekte/Temp/CF_XMC4700/cleanflight/lib/main/XMC4000/XMCLib/inc\xmc_dac.h **** 
 358:D:/XMC/Projekte/Temp/CF_XMC4700/cleanflight/lib/main/XMC4000/XMCLib/inc\xmc_dac.h **** /**
 359:D:/XMC/Projekte/Temp/CF_XMC4700/cleanflight/lib/main/XMC4000/XMCLib/inc\xmc_dac.h ****  * @param dac Pointer to an instance of DAC module
 360:D:/XMC/Projekte/Temp/CF_XMC4700/cleanflight/lib/main/XMC4000/XMCLib/inc\xmc_dac.h ****  *
 361:D:/XMC/Projekte/Temp/CF_XMC4700/cleanflight/lib/main/XMC4000/XMCLib/inc\xmc_dac.h ****  * @return None
 362:D:/XMC/Projekte/Temp/CF_XMC4700/cleanflight/lib/main/XMC4000/XMCLib/inc\xmc_dac.h ****  *
 363:D:/XMC/Projekte/Temp/CF_XMC4700/cleanflight/lib/main/XMC4000/XMCLib/inc\xmc_dac.h ****  * \par<b>Description:</b><br>
 364:D:/XMC/Projekte/Temp/CF_XMC4700/cleanflight/lib/main/XMC4000/XMCLib/inc\xmc_dac.h ****  * Enables DAC clock and releases DAC reset.<br>
 365:D:/XMC/Projekte/Temp/CF_XMC4700/cleanflight/lib/main/XMC4000/XMCLib/inc\xmc_dac.h ****  *
 366:D:/XMC/Projekte/Temp/CF_XMC4700/cleanflight/lib/main/XMC4000/XMCLib/inc\xmc_dac.h ****  * \par
 367:D:/XMC/Projekte/Temp/CF_XMC4700/cleanflight/lib/main/XMC4000/XMCLib/inc\xmc_dac.h ****  * Enabling DAC is the first step of DAC initialisation. This API is called by XMC_DAC_CH_Init().
 368:D:/XMC/Projekte/Temp/CF_XMC4700/cleanflight/lib/main/XMC4000/XMCLib/inc\xmc_dac.h ****  * DAC clock is enabled by setting \a DAC bit of \a CGATCLR1 register. DAC reset is released by set
 369:D:/XMC/Projekte/Temp/CF_XMC4700/cleanflight/lib/main/XMC4000/XMCLib/inc\xmc_dac.h ****  *
 370:D:/XMC/Projekte/Temp/CF_XMC4700/cleanflight/lib/main/XMC4000/XMCLib/inc\xmc_dac.h ****  *
 371:D:/XMC/Projekte/Temp/CF_XMC4700/cleanflight/lib/main/XMC4000/XMCLib/inc\xmc_dac.h ****  * \par<b>Related APIs:</b><BR>
 372:D:/XMC/Projekte/Temp/CF_XMC4700/cleanflight/lib/main/XMC4000/XMCLib/inc\xmc_dac.h ****  * XMC_DAC_IsEnabled(), XMC_DAC_Disable(), XMC_DAC_CH_Init()\n\n\n
 373:D:/XMC/Projekte/Temp/CF_XMC4700/cleanflight/lib/main/XMC4000/XMCLib/inc\xmc_dac.h ****  *
 374:D:/XMC/Projekte/Temp/CF_XMC4700/cleanflight/lib/main/XMC4000/XMCLib/inc\xmc_dac.h ****  */
 375:D:/XMC/Projekte/Temp/CF_XMC4700/cleanflight/lib/main/XMC4000/XMCLib/inc\xmc_dac.h **** void XMC_DAC_Enable(XMC_DAC_t *const dac);
 376:D:/XMC/Projekte/Temp/CF_XMC4700/cleanflight/lib/main/XMC4000/XMCLib/inc\xmc_dac.h **** 
 377:D:/XMC/Projekte/Temp/CF_XMC4700/cleanflight/lib/main/XMC4000/XMCLib/inc\xmc_dac.h **** /**
 378:D:/XMC/Projekte/Temp/CF_XMC4700/cleanflight/lib/main/XMC4000/XMCLib/inc\xmc_dac.h ****  * @param dac Pointer to an instance of DAC module
 379:D:/XMC/Projekte/Temp/CF_XMC4700/cleanflight/lib/main/XMC4000/XMCLib/inc\xmc_dac.h ****  *
 380:D:/XMC/Projekte/Temp/CF_XMC4700/cleanflight/lib/main/XMC4000/XMCLib/inc\xmc_dac.h ****  * @return None
 381:D:/XMC/Projekte/Temp/CF_XMC4700/cleanflight/lib/main/XMC4000/XMCLib/inc\xmc_dac.h ****  *
 382:D:/XMC/Projekte/Temp/CF_XMC4700/cleanflight/lib/main/XMC4000/XMCLib/inc\xmc_dac.h ****  * \par<b>Description:</b><br>
 383:D:/XMC/Projekte/Temp/CF_XMC4700/cleanflight/lib/main/XMC4000/XMCLib/inc\xmc_dac.h ****  * Disables DAC clock and resets DAC.
 384:D:/XMC/Projekte/Temp/CF_XMC4700/cleanflight/lib/main/XMC4000/XMCLib/inc\xmc_dac.h ****  *
 385:D:/XMC/Projekte/Temp/CF_XMC4700/cleanflight/lib/main/XMC4000/XMCLib/inc\xmc_dac.h ****  * \par
 386:D:/XMC/Projekte/Temp/CF_XMC4700/cleanflight/lib/main/XMC4000/XMCLib/inc\xmc_dac.h ****  * DAC clock is disabled by setting \a DAC bit of \a CGATSET1 register. DAC is reset by setting \a 
 387:D:/XMC/Projekte/Temp/CF_XMC4700/cleanflight/lib/main/XMC4000/XMCLib/inc\xmc_dac.h ****  *
 388:D:/XMC/Projekte/Temp/CF_XMC4700/cleanflight/lib/main/XMC4000/XMCLib/inc\xmc_dac.h ****  * \par<b>Related APIs:</b><BR>
 389:D:/XMC/Projekte/Temp/CF_XMC4700/cleanflight/lib/main/XMC4000/XMCLib/inc\xmc_dac.h ****  * XMC_DAC_IsEnabled(), XMC_DAC_Enable()\n\n\n
 390:D:/XMC/Projekte/Temp/CF_XMC4700/cleanflight/lib/main/XMC4000/XMCLib/inc\xmc_dac.h ****  *
 391:D:/XMC/Projekte/Temp/CF_XMC4700/cleanflight/lib/main/XMC4000/XMCLib/inc\xmc_dac.h ****  */
 392:D:/XMC/Projekte/Temp/CF_XMC4700/cleanflight/lib/main/XMC4000/XMCLib/inc\xmc_dac.h **** void XMC_DAC_Disable(XMC_DAC_t *const dac);
 393:D:/XMC/Projekte/Temp/CF_XMC4700/cleanflight/lib/main/XMC4000/XMCLib/inc\xmc_dac.h **** 
 394:D:/XMC/Projekte/Temp/CF_XMC4700/cleanflight/lib/main/XMC4000/XMCLib/inc\xmc_dac.h **** /**
 395:D:/XMC/Projekte/Temp/CF_XMC4700/cleanflight/lib/main/XMC4000/XMCLib/inc\xmc_dac.h ****  * @param dac Pointer to an instance of DAC module
 396:D:/XMC/Projekte/Temp/CF_XMC4700/cleanflight/lib/main/XMC4000/XMCLib/inc\xmc_dac.h ****  *
 397:D:/XMC/Projekte/Temp/CF_XMC4700/cleanflight/lib/main/XMC4000/XMCLib/inc\xmc_dac.h ****  * @return bool<br>
 398:D:/XMC/Projekte/Temp/CF_XMC4700/cleanflight/lib/main/XMC4000/XMCLib/inc\xmc_dac.h ****  * true  - if DAC is enabled<br>
 399:D:/XMC/Projekte/Temp/CF_XMC4700/cleanflight/lib/main/XMC4000/XMCLib/inc\xmc_dac.h ****  * false - if DAC is disabled
 400:D:/XMC/Projekte/Temp/CF_XMC4700/cleanflight/lib/main/XMC4000/XMCLib/inc\xmc_dac.h ****  *
 401:D:/XMC/Projekte/Temp/CF_XMC4700/cleanflight/lib/main/XMC4000/XMCLib/inc\xmc_dac.h ****  * \par<b>Description:</b><br>
 402:D:/XMC/Projekte/Temp/CF_XMC4700/cleanflight/lib/main/XMC4000/XMCLib/inc\xmc_dac.h ****  * Returns the state of the DAC.
 403:D:/XMC/Projekte/Temp/CF_XMC4700/cleanflight/lib/main/XMC4000/XMCLib/inc\xmc_dac.h ****  *
 404:D:/XMC/Projekte/Temp/CF_XMC4700/cleanflight/lib/main/XMC4000/XMCLib/inc\xmc_dac.h ****  * \par
 405:D:/XMC/Projekte/Temp/CF_XMC4700/cleanflight/lib/main/XMC4000/XMCLib/inc\xmc_dac.h ****  * DAC enabled status is determined by referring to \a DACRS bit of \a PRSTAT1 register.
 406:D:/XMC/Projekte/Temp/CF_XMC4700/cleanflight/lib/main/XMC4000/XMCLib/inc\xmc_dac.h ****  *
 407:D:/XMC/Projekte/Temp/CF_XMC4700/cleanflight/lib/main/XMC4000/XMCLib/inc\xmc_dac.h ****  * \par<b>Related APIs:</b><BR>
 408:D:/XMC/Projekte/Temp/CF_XMC4700/cleanflight/lib/main/XMC4000/XMCLib/inc\xmc_dac.h ****  * XMC_DAC_Enable(), XMC_DAC_Disable()\n\n\n
 409:D:/XMC/Projekte/Temp/CF_XMC4700/cleanflight/lib/main/XMC4000/XMCLib/inc\xmc_dac.h ****  *
 410:D:/XMC/Projekte/Temp/CF_XMC4700/cleanflight/lib/main/XMC4000/XMCLib/inc\xmc_dac.h ****  */
 411:D:/XMC/Projekte/Temp/CF_XMC4700/cleanflight/lib/main/XMC4000/XMCLib/inc\xmc_dac.h **** bool XMC_DAC_IsEnabled(const XMC_DAC_t *const dac);
 412:D:/XMC/Projekte/Temp/CF_XMC4700/cleanflight/lib/main/XMC4000/XMCLib/inc\xmc_dac.h **** 
 413:D:/XMC/Projekte/Temp/CF_XMC4700/cleanflight/lib/main/XMC4000/XMCLib/inc\xmc_dac.h **** /**
 414:D:/XMC/Projekte/Temp/CF_XMC4700/cleanflight/lib/main/XMC4000/XMCLib/inc\xmc_dac.h ****  * @param dac Pointer to an instance of DAC module
 415:D:/XMC/Projekte/Temp/CF_XMC4700/cleanflight/lib/main/XMC4000/XMCLib/inc\xmc_dac.h ****  *
 416:D:/XMC/Projekte/Temp/CF_XMC4700/cleanflight/lib/main/XMC4000/XMCLib/inc\xmc_dac.h ****  * @return None
 417:D:/XMC/Projekte/Temp/CF_XMC4700/cleanflight/lib/main/XMC4000/XMCLib/inc\xmc_dac.h ****  *
 418:D:/XMC/Projekte/Temp/CF_XMC4700/cleanflight/lib/main/XMC4000/XMCLib/inc\xmc_dac.h ****  * \par<b>Description:</b><br>
 419:D:/XMC/Projekte/Temp/CF_XMC4700/cleanflight/lib/main/XMC4000/XMCLib/inc\xmc_dac.h ****  * DAC switches to Simultaneous data mode from Independent data mode.
 420:D:/XMC/Projekte/Temp/CF_XMC4700/cleanflight/lib/main/XMC4000/XMCLib/inc\xmc_dac.h ****  *
 421:D:/XMC/Projekte/Temp/CF_XMC4700/cleanflight/lib/main/XMC4000/XMCLib/inc\xmc_dac.h ****  * \par
 422:D:/XMC/Projekte/Temp/CF_XMC4700/cleanflight/lib/main/XMC4000/XMCLib/inc\xmc_dac.h ****  * Independent data mode is the default data mode.
 423:D:/XMC/Projekte/Temp/CF_XMC4700/cleanflight/lib/main/XMC4000/XMCLib/inc\xmc_dac.h ****  * Simultaneous data mode is enabled by setting \a DATMOD bit of \a DAC0CFG1 register.
 424:D:/XMC/Projekte/Temp/CF_XMC4700/cleanflight/lib/main/XMC4000/XMCLib/inc\xmc_dac.h ****  *
 425:D:/XMC/Projekte/Temp/CF_XMC4700/cleanflight/lib/main/XMC4000/XMCLib/inc\xmc_dac.h ****  * \par<b>Note:</b><br>
 426:D:/XMC/Projekte/Temp/CF_XMC4700/cleanflight/lib/main/XMC4000/XMCLib/inc\xmc_dac.h ****  * Set channel 0 and channel 1 to Data mode before calling this API.
 427:D:/XMC/Projekte/Temp/CF_XMC4700/cleanflight/lib/main/XMC4000/XMCLib/inc\xmc_dac.h ****  *
 428:D:/XMC/Projekte/Temp/CF_XMC4700/cleanflight/lib/main/XMC4000/XMCLib/inc\xmc_dac.h ****  * \par<b>Related APIs:</b><BR>
 429:D:/XMC/Projekte/Temp/CF_XMC4700/cleanflight/lib/main/XMC4000/XMCLib/inc\xmc_dac.h ****  * XMC_DAC_CH_StartSingleValueMode(), XMC_DAC_CH_StartDataMode(), XMC_DAC_SimultaneousWrite(), XMC_
 430:D:/XMC/Projekte/Temp/CF_XMC4700/cleanflight/lib/main/XMC4000/XMCLib/inc\xmc_dac.h ****  *
 431:D:/XMC/Projekte/Temp/CF_XMC4700/cleanflight/lib/main/XMC4000/XMCLib/inc\xmc_dac.h ****  */
 432:D:/XMC/Projekte/Temp/CF_XMC4700/cleanflight/lib/main/XMC4000/XMCLib/inc\xmc_dac.h **** __STATIC_INLINE void XMC_DAC_EnableSimultaneousDataMode(XMC_DAC_t *const dac)
 433:D:/XMC/Projekte/Temp/CF_XMC4700/cleanflight/lib/main/XMC4000/XMCLib/inc\xmc_dac.h **** {
 434:D:/XMC/Projekte/Temp/CF_XMC4700/cleanflight/lib/main/XMC4000/XMCLib/inc\xmc_dac.h ****   XMC_ASSERT("XMC_DAC_EnableSimultaneousDataMode: dac parameter not valid\n", XMC_DAC_IS_DAC_VALID(
 435:D:/XMC/Projekte/Temp/CF_XMC4700/cleanflight/lib/main/XMC4000/XMCLib/inc\xmc_dac.h ****   
 436:D:/XMC/Projekte/Temp/CF_XMC4700/cleanflight/lib/main/XMC4000/XMCLib/inc\xmc_dac.h ****   dac->DACCFG[0].high |= DAC_DAC0CFG1_DATMOD_Msk;
 437:D:/XMC/Projekte/Temp/CF_XMC4700/cleanflight/lib/main/XMC4000/XMCLib/inc\xmc_dac.h **** }
 438:D:/XMC/Projekte/Temp/CF_XMC4700/cleanflight/lib/main/XMC4000/XMCLib/inc\xmc_dac.h **** 
 439:D:/XMC/Projekte/Temp/CF_XMC4700/cleanflight/lib/main/XMC4000/XMCLib/inc\xmc_dac.h **** /**
 440:D:/XMC/Projekte/Temp/CF_XMC4700/cleanflight/lib/main/XMC4000/XMCLib/inc\xmc_dac.h ****  * @param dac Pointer to an instance of DAC module
 441:D:/XMC/Projekte/Temp/CF_XMC4700/cleanflight/lib/main/XMC4000/XMCLib/inc\xmc_dac.h ****  *
 442:D:/XMC/Projekte/Temp/CF_XMC4700/cleanflight/lib/main/XMC4000/XMCLib/inc\xmc_dac.h ****  * @return None
 443:D:/XMC/Projekte/Temp/CF_XMC4700/cleanflight/lib/main/XMC4000/XMCLib/inc\xmc_dac.h ****  *
 444:D:/XMC/Projekte/Temp/CF_XMC4700/cleanflight/lib/main/XMC4000/XMCLib/inc\xmc_dac.h ****  * \par<b>Description:</b><br>
 445:D:/XMC/Projekte/Temp/CF_XMC4700/cleanflight/lib/main/XMC4000/XMCLib/inc\xmc_dac.h ****  * DAC switches to independent data mode from simultaneous Data mode.
 446:D:/XMC/Projekte/Temp/CF_XMC4700/cleanflight/lib/main/XMC4000/XMCLib/inc\xmc_dac.h ****  *
 447:D:/XMC/Projekte/Temp/CF_XMC4700/cleanflight/lib/main/XMC4000/XMCLib/inc\xmc_dac.h ****  * \par
 448:D:/XMC/Projekte/Temp/CF_XMC4700/cleanflight/lib/main/XMC4000/XMCLib/inc\xmc_dac.h ****  * Independent data mode is the default data mode.
 449:D:/XMC/Projekte/Temp/CF_XMC4700/cleanflight/lib/main/XMC4000/XMCLib/inc\xmc_dac.h ****  * Simultaneous data mode is disabled by clearing \a DATMOD bit of \a DAC0CFG1 register.
 450:D:/XMC/Projekte/Temp/CF_XMC4700/cleanflight/lib/main/XMC4000/XMCLib/inc\xmc_dac.h ****  *
 451:D:/XMC/Projekte/Temp/CF_XMC4700/cleanflight/lib/main/XMC4000/XMCLib/inc\xmc_dac.h ****  * \par<b>Related APIs:</b><BR>
 452:D:/XMC/Projekte/Temp/CF_XMC4700/cleanflight/lib/main/XMC4000/XMCLib/inc\xmc_dac.h ****  * XMC_DAC_CH_StartDataMode(), XMC_DAC_EnableSimultaneousDataMode()\n\n\n
 453:D:/XMC/Projekte/Temp/CF_XMC4700/cleanflight/lib/main/XMC4000/XMCLib/inc\xmc_dac.h ****  *
 454:D:/XMC/Projekte/Temp/CF_XMC4700/cleanflight/lib/main/XMC4000/XMCLib/inc\xmc_dac.h ****  */
 455:D:/XMC/Projekte/Temp/CF_XMC4700/cleanflight/lib/main/XMC4000/XMCLib/inc\xmc_dac.h **** __STATIC_INLINE void XMC_DAC_DisableSimultaneousDataMode(XMC_DAC_t *const dac)
 456:D:/XMC/Projekte/Temp/CF_XMC4700/cleanflight/lib/main/XMC4000/XMCLib/inc\xmc_dac.h **** {
 457:D:/XMC/Projekte/Temp/CF_XMC4700/cleanflight/lib/main/XMC4000/XMCLib/inc\xmc_dac.h ****   XMC_ASSERT("XMC_DAC_DisableSimultaneousDataMode: dac parameter not valid\n", XMC_DAC_IS_DAC_VALID
 458:D:/XMC/Projekte/Temp/CF_XMC4700/cleanflight/lib/main/XMC4000/XMCLib/inc\xmc_dac.h ****   
 459:D:/XMC/Projekte/Temp/CF_XMC4700/cleanflight/lib/main/XMC4000/XMCLib/inc\xmc_dac.h ****   dac->DACCFG[0].high &= ~DAC_DAC0CFG1_DATMOD_Msk;
 460:D:/XMC/Projekte/Temp/CF_XMC4700/cleanflight/lib/main/XMC4000/XMCLib/inc\xmc_dac.h **** }
 461:D:/XMC/Projekte/Temp/CF_XMC4700/cleanflight/lib/main/XMC4000/XMCLib/inc\xmc_dac.h **** 
 462:D:/XMC/Projekte/Temp/CF_XMC4700/cleanflight/lib/main/XMC4000/XMCLib/inc\xmc_dac.h **** /**
 463:D:/XMC/Projekte/Temp/CF_XMC4700/cleanflight/lib/main/XMC4000/XMCLib/inc\xmc_dac.h ****  * @param dac Pointer to an instance of DAC module
 464:D:/XMC/Projekte/Temp/CF_XMC4700/cleanflight/lib/main/XMC4000/XMCLib/inc\xmc_dac.h ****  * @param data0 Data for DAC channel 0 [0-4095]
 465:D:/XMC/Projekte/Temp/CF_XMC4700/cleanflight/lib/main/XMC4000/XMCLib/inc\xmc_dac.h ****  * @param data1 Data for DAC channel 1 [0-4095]
 466:D:/XMC/Projekte/Temp/CF_XMC4700/cleanflight/lib/main/XMC4000/XMCLib/inc\xmc_dac.h ****  *
 467:D:/XMC/Projekte/Temp/CF_XMC4700/cleanflight/lib/main/XMC4000/XMCLib/inc\xmc_dac.h ****  * @return None
 468:D:/XMC/Projekte/Temp/CF_XMC4700/cleanflight/lib/main/XMC4000/XMCLib/inc\xmc_dac.h ****  *
 469:D:/XMC/Projekte/Temp/CF_XMC4700/cleanflight/lib/main/XMC4000/XMCLib/inc\xmc_dac.h ****  * \par<b>Description:</b><br>
 470:D:/XMC/Projekte/Temp/CF_XMC4700/cleanflight/lib/main/XMC4000/XMCLib/inc\xmc_dac.h ****  * The data (\e data0 & \e data1) to be converted by channel 0 & channel 1 are updated to \a DATA1 
 471:D:/XMC/Projekte/Temp/CF_XMC4700/cleanflight/lib/main/XMC4000/XMCLib/inc\xmc_dac.h ****  * data0 and data1 have the range of [0-4095].
 472:D:/XMC/Projekte/Temp/CF_XMC4700/cleanflight/lib/main/XMC4000/XMCLib/inc\xmc_dac.h ****  *
 473:D:/XMC/Projekte/Temp/CF_XMC4700/cleanflight/lib/main/XMC4000/XMCLib/inc\xmc_dac.h ****  * \par<b>Note:</b><br>
 474:D:/XMC/Projekte/Temp/CF_XMC4700/cleanflight/lib/main/XMC4000/XMCLib/inc\xmc_dac.h ****  * Channel 0 and Channel 1 should be set to simultaneous data mode before calling this API.
 475:D:/XMC/Projekte/Temp/CF_XMC4700/cleanflight/lib/main/XMC4000/XMCLib/inc\xmc_dac.h ****  *
 476:D:/XMC/Projekte/Temp/CF_XMC4700/cleanflight/lib/main/XMC4000/XMCLib/inc\xmc_dac.h ****  * \par<b>Related APIs:</b><BR>
 477:D:/XMC/Projekte/Temp/CF_XMC4700/cleanflight/lib/main/XMC4000/XMCLib/inc\xmc_dac.h ****  * XMC_DAC_EnableSimultaneousDataMode()\n\n\n
 478:D:/XMC/Projekte/Temp/CF_XMC4700/cleanflight/lib/main/XMC4000/XMCLib/inc\xmc_dac.h ****  *
 479:D:/XMC/Projekte/Temp/CF_XMC4700/cleanflight/lib/main/XMC4000/XMCLib/inc\xmc_dac.h ****  */
 480:D:/XMC/Projekte/Temp/CF_XMC4700/cleanflight/lib/main/XMC4000/XMCLib/inc\xmc_dac.h **** __STATIC_INLINE void XMC_DAC_SimultaneousWrite(XMC_DAC_t *const dac, const uint16_t data0, const ui
 481:D:/XMC/Projekte/Temp/CF_XMC4700/cleanflight/lib/main/XMC4000/XMCLib/inc\xmc_dac.h **** {
 482:D:/XMC/Projekte/Temp/CF_XMC4700/cleanflight/lib/main/XMC4000/XMCLib/inc\xmc_dac.h ****   XMC_ASSERT("XMC_DAC_SimultaneousWrite: dac parameter not valid\n", XMC_DAC_IS_DAC_VALID(dac));
 483:D:/XMC/Projekte/Temp/CF_XMC4700/cleanflight/lib/main/XMC4000/XMCLib/inc\xmc_dac.h ****   
 484:D:/XMC/Projekte/Temp/CF_XMC4700/cleanflight/lib/main/XMC4000/XMCLib/inc\xmc_dac.h ****   dac->DAC01DATA = (data0 << DAC_DAC01DATA_DATA0_Pos) | (data1 << DAC_DAC01DATA_DATA1_Pos);
 485:D:/XMC/Projekte/Temp/CF_XMC4700/cleanflight/lib/main/XMC4000/XMCLib/inc\xmc_dac.h **** }
 486:D:/XMC/Projekte/Temp/CF_XMC4700/cleanflight/lib/main/XMC4000/XMCLib/inc\xmc_dac.h **** 
 487:D:/XMC/Projekte/Temp/CF_XMC4700/cleanflight/lib/main/XMC4000/XMCLib/inc\xmc_dac.h **** /**
 488:D:/XMC/Projekte/Temp/CF_XMC4700/cleanflight/lib/main/XMC4000/XMCLib/inc\xmc_dac.h ****  * @param dac Pointer to an instance of DAC module
 489:D:/XMC/Projekte/Temp/CF_XMC4700/cleanflight/lib/main/XMC4000/XMCLib/inc\xmc_dac.h ****  * @param channel DAC channel number
 490:D:/XMC/Projekte/Temp/CF_XMC4700/cleanflight/lib/main/XMC4000/XMCLib/inc\xmc_dac.h ****  * @param config Pointer to the DAC channel configuration structure
 491:D:/XMC/Projekte/Temp/CF_XMC4700/cleanflight/lib/main/XMC4000/XMCLib/inc\xmc_dac.h ****  *
 492:D:/XMC/Projekte/Temp/CF_XMC4700/cleanflight/lib/main/XMC4000/XMCLib/inc\xmc_dac.h ****  * @return None
 493:D:/XMC/Projekte/Temp/CF_XMC4700/cleanflight/lib/main/XMC4000/XMCLib/inc\xmc_dac.h ****  *
 494:D:/XMC/Projekte/Temp/CF_XMC4700/cleanflight/lib/main/XMC4000/XMCLib/inc\xmc_dac.h ****  * \par<b>Description:</b><br>
 495:D:/XMC/Projekte/Temp/CF_XMC4700/cleanflight/lib/main/XMC4000/XMCLib/inc\xmc_dac.h ****  * Initialises and configures the DAC \e channel with the configuration date pointed by \e config.
 496:D:/XMC/Projekte/Temp/CF_XMC4700/cleanflight/lib/main/XMC4000/XMCLib/inc\xmc_dac.h ****  *
 497:D:/XMC/Projekte/Temp/CF_XMC4700/cleanflight/lib/main/XMC4000/XMCLib/inc\xmc_dac.h ****  * \par
 498:D:/XMC/Projekte/Temp/CF_XMC4700/cleanflight/lib/main/XMC4000/XMCLib/inc\xmc_dac.h ****  * DAC channel is initialised by configuring the registers \a DAC0CFG0 and \a DAC0CFG1 registers (f
 499:D:/XMC/Projekte/Temp/CF_XMC4700/cleanflight/lib/main/XMC4000/XMCLib/inc\xmc_dac.h ****  * It enables the channel output by calling XMC_DAC_CH_EnableOutput().
 500:D:/XMC/Projekte/Temp/CF_XMC4700/cleanflight/lib/main/XMC4000/XMCLib/inc\xmc_dac.h ****  *
 501:D:/XMC/Projekte/Temp/CF_XMC4700/cleanflight/lib/main/XMC4000/XMCLib/inc\xmc_dac.h ****  */
 502:D:/XMC/Projekte/Temp/CF_XMC4700/cleanflight/lib/main/XMC4000/XMCLib/inc\xmc_dac.h **** void XMC_DAC_CH_Init(XMC_DAC_t *const dac, const uint8_t channel, const XMC_DAC_CH_CONFIG_t *const 
 503:D:/XMC/Projekte/Temp/CF_XMC4700/cleanflight/lib/main/XMC4000/XMCLib/inc\xmc_dac.h **** 
 504:D:/XMC/Projekte/Temp/CF_XMC4700/cleanflight/lib/main/XMC4000/XMCLib/inc\xmc_dac.h **** /**
 505:D:/XMC/Projekte/Temp/CF_XMC4700/cleanflight/lib/main/XMC4000/XMCLib/inc\xmc_dac.h ****  * @param dac Pointer to an instance of DAC module
 506:D:/XMC/Projekte/Temp/CF_XMC4700/cleanflight/lib/main/XMC4000/XMCLib/inc\xmc_dac.h ****  * @param channel DAC channel number
 507:D:/XMC/Projekte/Temp/CF_XMC4700/cleanflight/lib/main/XMC4000/XMCLib/inc\xmc_dac.h ****  *
 508:D:/XMC/Projekte/Temp/CF_XMC4700/cleanflight/lib/main/XMC4000/XMCLib/inc\xmc_dac.h ****  * @return None
 509:D:/XMC/Projekte/Temp/CF_XMC4700/cleanflight/lib/main/XMC4000/XMCLib/inc\xmc_dac.h ****  *
 510:D:/XMC/Projekte/Temp/CF_XMC4700/cleanflight/lib/main/XMC4000/XMCLib/inc\xmc_dac.h ****  * \par<b>Description:</b><br>
 511:D:/XMC/Projekte/Temp/CF_XMC4700/cleanflight/lib/main/XMC4000/XMCLib/inc\xmc_dac.h ****  * Channel \a channel output is enabled by setting the \a ANAEN bit of \a DAC0CFG1 register (for ch
 512:D:/XMC/Projekte/Temp/CF_XMC4700/cleanflight/lib/main/XMC4000/XMCLib/inc\xmc_dac.h ****  *
 513:D:/XMC/Projekte/Temp/CF_XMC4700/cleanflight/lib/main/XMC4000/XMCLib/inc\xmc_dac.h ****  * \par<b>Note:</b><BR>
 514:D:/XMC/Projekte/Temp/CF_XMC4700/cleanflight/lib/main/XMC4000/XMCLib/inc\xmc_dac.h ****  * \a tSTARTUP time for DAC analog output starts after the \a ANAEN bit is set to one.
 515:D:/XMC/Projekte/Temp/CF_XMC4700/cleanflight/lib/main/XMC4000/XMCLib/inc\xmc_dac.h ****  * After the expiry of the startup time the default value is driven to DAC output and a new value c
 516:D:/XMC/Projekte/Temp/CF_XMC4700/cleanflight/lib/main/XMC4000/XMCLib/inc\xmc_dac.h ****  *
 517:D:/XMC/Projekte/Temp/CF_XMC4700/cleanflight/lib/main/XMC4000/XMCLib/inc\xmc_dac.h ****  * \par<b>Related APIs:</b><BR>
 518:D:/XMC/Projekte/Temp/CF_XMC4700/cleanflight/lib/main/XMC4000/XMCLib/inc\xmc_dac.h ****  * XMC_DAC_CH_DisableOutput(), XMC_DAC_CH_IsOutputEnabled()\n\n\n
 519:D:/XMC/Projekte/Temp/CF_XMC4700/cleanflight/lib/main/XMC4000/XMCLib/inc\xmc_dac.h ****  *
 520:D:/XMC/Projekte/Temp/CF_XMC4700/cleanflight/lib/main/XMC4000/XMCLib/inc\xmc_dac.h ****  */
 521:D:/XMC/Projekte/Temp/CF_XMC4700/cleanflight/lib/main/XMC4000/XMCLib/inc\xmc_dac.h **** __STATIC_INLINE void XMC_DAC_CH_EnableOutput(XMC_DAC_t *const dac, const uint8_t channel)
 522:D:/XMC/Projekte/Temp/CF_XMC4700/cleanflight/lib/main/XMC4000/XMCLib/inc\xmc_dac.h **** {
  27              	 .loc 1 522 0
  28              	 .cfi_startproc
  29              	 
  30              	 
  31              	 
  32 0000 80B4     	 push {r7}
  33              	.LCFI0:
  34              	 .cfi_def_cfa_offset 4
  35              	 .cfi_offset 7,-4
  36 0002 83B0     	 sub sp,sp,#12
  37              	.LCFI1:
  38              	 .cfi_def_cfa_offset 16
  39 0004 00AF     	 add r7,sp,#0
  40              	.LCFI2:
  41              	 .cfi_def_cfa_register 7
  42 0006 7860     	 str r0,[r7,#4]
  43 0008 0B46     	 mov r3,r1
  44 000a FB70     	 strb r3,[r7,#3]
 523:D:/XMC/Projekte/Temp/CF_XMC4700/cleanflight/lib/main/XMC4000/XMCLib/inc\xmc_dac.h ****   XMC_ASSERT("XMC_DAC_CH_EnableOutput: dac parameter not valid\n", XMC_DAC_IS_DAC_VALID(dac));
 524:D:/XMC/Projekte/Temp/CF_XMC4700/cleanflight/lib/main/XMC4000/XMCLib/inc\xmc_dac.h ****   XMC_ASSERT("XMC_DAC_CH_EnableOutput: channel parameter not valid\n", XMC_DAC_IS_CHANNEL_VALID(cha
 525:D:/XMC/Projekte/Temp/CF_XMC4700/cleanflight/lib/main/XMC4000/XMCLib/inc\xmc_dac.h ****   
 526:D:/XMC/Projekte/Temp/CF_XMC4700/cleanflight/lib/main/XMC4000/XMCLib/inc\xmc_dac.h ****   dac->DACCFG[channel].high |= DAC_DAC0CFG1_ANAEN_Msk;
  45              	 .loc 1 526 0
  46 000c F878     	 ldrb r0,[r7,#3]
  47 000e FB78     	 ldrb r3,[r7,#3]
  48 0010 7A68     	 ldr r2,[r7,#4]
  49 0012 DB00     	 lsls r3,r3,#3
  50 0014 1344     	 add r3,r3,r2
  51 0016 9B68     	 ldr r3,[r3,#8]
  52 0018 43F08072 	 orr r2,r3,#16777216
  53 001c 7968     	 ldr r1,[r7,#4]
  54 001e C300     	 lsls r3,r0,#3
  55 0020 0B44     	 add r3,r3,r1
  56 0022 9968     	 ldr r1,[r3,#8]
  57 0024 0021     	 movs r1,#0
  58 0026 0A43     	 orrs r2,r2,r1
  59 0028 9A60     	 str r2,[r3,#8]
 527:D:/XMC/Projekte/Temp/CF_XMC4700/cleanflight/lib/main/XMC4000/XMCLib/inc\xmc_dac.h **** }
  60              	 .loc 1 527 0
  61 002a 0C37     	 adds r7,r7,#12
  62              	.LCFI3:
  63              	 .cfi_def_cfa_offset 4
  64 002c BD46     	 mov sp,r7
  65              	.LCFI4:
  66              	 .cfi_def_cfa_register 13
  67              	 
  68 002e 5DF8047B 	 ldr r7,[sp],#4
  69              	.LCFI5:
  70              	 .cfi_restore 7
  71              	 .cfi_def_cfa_offset 0
  72 0032 7047     	 bx lr
  73              	 .cfi_endproc
  74              	.LFE138:
  76              	 .section .text.XMC_DAC_CH_EnablePatternSignOutput,"ax",%progbits
  77              	 .align 2
  78              	 .thumb
  79              	 .thumb_func
  81              	XMC_DAC_CH_EnablePatternSignOutput:
  82              	.LFB142:
 528:D:/XMC/Projekte/Temp/CF_XMC4700/cleanflight/lib/main/XMC4000/XMCLib/inc\xmc_dac.h **** 
 529:D:/XMC/Projekte/Temp/CF_XMC4700/cleanflight/lib/main/XMC4000/XMCLib/inc\xmc_dac.h **** /**
 530:D:/XMC/Projekte/Temp/CF_XMC4700/cleanflight/lib/main/XMC4000/XMCLib/inc\xmc_dac.h ****  * @param dac Pointer to an instance of DAC module
 531:D:/XMC/Projekte/Temp/CF_XMC4700/cleanflight/lib/main/XMC4000/XMCLib/inc\xmc_dac.h ****  * @param channel DAC channel number
 532:D:/XMC/Projekte/Temp/CF_XMC4700/cleanflight/lib/main/XMC4000/XMCLib/inc\xmc_dac.h ****  *
 533:D:/XMC/Projekte/Temp/CF_XMC4700/cleanflight/lib/main/XMC4000/XMCLib/inc\xmc_dac.h ****  * @return None
 534:D:/XMC/Projekte/Temp/CF_XMC4700/cleanflight/lib/main/XMC4000/XMCLib/inc\xmc_dac.h ****  *
 535:D:/XMC/Projekte/Temp/CF_XMC4700/cleanflight/lib/main/XMC4000/XMCLib/inc\xmc_dac.h ****  * \par<b>Description:</b><br>
 536:D:/XMC/Projekte/Temp/CF_XMC4700/cleanflight/lib/main/XMC4000/XMCLib/inc\xmc_dac.h ****  * Channel \a channel output is disabled by clearing the \a ANAEN bit of \a DAC0CFG1 register (for 
 537:D:/XMC/Projekte/Temp/CF_XMC4700/cleanflight/lib/main/XMC4000/XMCLib/inc\xmc_dac.h ****  *
 538:D:/XMC/Projekte/Temp/CF_XMC4700/cleanflight/lib/main/XMC4000/XMCLib/inc\xmc_dac.h ****  * \par
 539:D:/XMC/Projekte/Temp/CF_XMC4700/cleanflight/lib/main/XMC4000/XMCLib/inc\xmc_dac.h ****  * A call to this API stops driving the converted digital input to its output.
 540:D:/XMC/Projekte/Temp/CF_XMC4700/cleanflight/lib/main/XMC4000/XMCLib/inc\xmc_dac.h ****  *
 541:D:/XMC/Projekte/Temp/CF_XMC4700/cleanflight/lib/main/XMC4000/XMCLib/inc\xmc_dac.h ****  * \par<b>Related APIs:</b><BR>
 542:D:/XMC/Projekte/Temp/CF_XMC4700/cleanflight/lib/main/XMC4000/XMCLib/inc\xmc_dac.h ****  * XMC_DAC_CH_EnableOutput(), XMC_DAC_CH_IsOutputEnabled()\n\n\n
 543:D:/XMC/Projekte/Temp/CF_XMC4700/cleanflight/lib/main/XMC4000/XMCLib/inc\xmc_dac.h ****  *
 544:D:/XMC/Projekte/Temp/CF_XMC4700/cleanflight/lib/main/XMC4000/XMCLib/inc\xmc_dac.h ****  */
 545:D:/XMC/Projekte/Temp/CF_XMC4700/cleanflight/lib/main/XMC4000/XMCLib/inc\xmc_dac.h **** __STATIC_INLINE void XMC_DAC_CH_DisableOutput(XMC_DAC_t *const dac, const uint8_t channel)
 546:D:/XMC/Projekte/Temp/CF_XMC4700/cleanflight/lib/main/XMC4000/XMCLib/inc\xmc_dac.h **** {
 547:D:/XMC/Projekte/Temp/CF_XMC4700/cleanflight/lib/main/XMC4000/XMCLib/inc\xmc_dac.h ****   XMC_ASSERT("XMC_DAC_CH_DisableOutput: dac parameter not valid\n", XMC_DAC_IS_DAC_VALID(dac));
 548:D:/XMC/Projekte/Temp/CF_XMC4700/cleanflight/lib/main/XMC4000/XMCLib/inc\xmc_dac.h ****   XMC_ASSERT("XMC_DAC_CH_DisableOutput: channel parameter not valid\n", XMC_DAC_IS_CHANNEL_VALID(ch
 549:D:/XMC/Projekte/Temp/CF_XMC4700/cleanflight/lib/main/XMC4000/XMCLib/inc\xmc_dac.h ****   
 550:D:/XMC/Projekte/Temp/CF_XMC4700/cleanflight/lib/main/XMC4000/XMCLib/inc\xmc_dac.h ****   dac->DACCFG[channel].high &= ~DAC_DAC0CFG1_ANAEN_Msk;
 551:D:/XMC/Projekte/Temp/CF_XMC4700/cleanflight/lib/main/XMC4000/XMCLib/inc\xmc_dac.h **** }
 552:D:/XMC/Projekte/Temp/CF_XMC4700/cleanflight/lib/main/XMC4000/XMCLib/inc\xmc_dac.h **** 
 553:D:/XMC/Projekte/Temp/CF_XMC4700/cleanflight/lib/main/XMC4000/XMCLib/inc\xmc_dac.h **** /**
 554:D:/XMC/Projekte/Temp/CF_XMC4700/cleanflight/lib/main/XMC4000/XMCLib/inc\xmc_dac.h ****  * @param dac Pointer to an instance of DAC module
 555:D:/XMC/Projekte/Temp/CF_XMC4700/cleanflight/lib/main/XMC4000/XMCLib/inc\xmc_dac.h ****  * @param channel DAC channel number
 556:D:/XMC/Projekte/Temp/CF_XMC4700/cleanflight/lib/main/XMC4000/XMCLib/inc\xmc_dac.h ****  *
 557:D:/XMC/Projekte/Temp/CF_XMC4700/cleanflight/lib/main/XMC4000/XMCLib/inc\xmc_dac.h ****  * @return bool <BR>
 558:D:/XMC/Projekte/Temp/CF_XMC4700/cleanflight/lib/main/XMC4000/XMCLib/inc\xmc_dac.h ****  * true  - if analog output is enabled <BR>
 559:D:/XMC/Projekte/Temp/CF_XMC4700/cleanflight/lib/main/XMC4000/XMCLib/inc\xmc_dac.h ****  * false - if analog output is disabled <BR>
 560:D:/XMC/Projekte/Temp/CF_XMC4700/cleanflight/lib/main/XMC4000/XMCLib/inc\xmc_dac.h ****  *
 561:D:/XMC/Projekte/Temp/CF_XMC4700/cleanflight/lib/main/XMC4000/XMCLib/inc\xmc_dac.h ****  * \par<b>Description:</b><br>
 562:D:/XMC/Projekte/Temp/CF_XMC4700/cleanflight/lib/main/XMC4000/XMCLib/inc\xmc_dac.h ****  * Returns the status of DAC analog output.
 563:D:/XMC/Projekte/Temp/CF_XMC4700/cleanflight/lib/main/XMC4000/XMCLib/inc\xmc_dac.h ****  *
 564:D:/XMC/Projekte/Temp/CF_XMC4700/cleanflight/lib/main/XMC4000/XMCLib/inc\xmc_dac.h ****  * \par
 565:D:/XMC/Projekte/Temp/CF_XMC4700/cleanflight/lib/main/XMC4000/XMCLib/inc\xmc_dac.h ****  * Channel \a channel output enabled or disabled is determined by reading the \a ANAEN bit of \a DA
 566:D:/XMC/Projekte/Temp/CF_XMC4700/cleanflight/lib/main/XMC4000/XMCLib/inc\xmc_dac.h ****  *
 567:D:/XMC/Projekte/Temp/CF_XMC4700/cleanflight/lib/main/XMC4000/XMCLib/inc\xmc_dac.h ****  * \par<b>Related APIs:</b><BR>
 568:D:/XMC/Projekte/Temp/CF_XMC4700/cleanflight/lib/main/XMC4000/XMCLib/inc\xmc_dac.h ****  * XMC_DAC_CH_EnableOutput(), XMC_DAC_CH_DisableOutput()\n\n\n
 569:D:/XMC/Projekte/Temp/CF_XMC4700/cleanflight/lib/main/XMC4000/XMCLib/inc\xmc_dac.h ****  *
 570:D:/XMC/Projekte/Temp/CF_XMC4700/cleanflight/lib/main/XMC4000/XMCLib/inc\xmc_dac.h ****  */
 571:D:/XMC/Projekte/Temp/CF_XMC4700/cleanflight/lib/main/XMC4000/XMCLib/inc\xmc_dac.h **** __STATIC_INLINE bool XMC_DAC_CH_IsOutputEnabled(const XMC_DAC_t *const dac, const uint8_t channel)
 572:D:/XMC/Projekte/Temp/CF_XMC4700/cleanflight/lib/main/XMC4000/XMCLib/inc\xmc_dac.h **** {
 573:D:/XMC/Projekte/Temp/CF_XMC4700/cleanflight/lib/main/XMC4000/XMCLib/inc\xmc_dac.h ****   XMC_ASSERT("XMC_DAC_CH_IsOutputEnabled: dac parameter not valid\n", XMC_DAC_IS_DAC_VALID(dac));
 574:D:/XMC/Projekte/Temp/CF_XMC4700/cleanflight/lib/main/XMC4000/XMCLib/inc\xmc_dac.h ****   XMC_ASSERT("XMC_DAC_CH_IsOutputEnabled: channel parameter not valid\n", XMC_DAC_IS_CHANNEL_VALID(
 575:D:/XMC/Projekte/Temp/CF_XMC4700/cleanflight/lib/main/XMC4000/XMCLib/inc\xmc_dac.h ****   
 576:D:/XMC/Projekte/Temp/CF_XMC4700/cleanflight/lib/main/XMC4000/XMCLib/inc\xmc_dac.h ****   return (bool)(dac->DACCFG[channel].high & DAC_DAC0CFG1_ANAEN_Msk);
 577:D:/XMC/Projekte/Temp/CF_XMC4700/cleanflight/lib/main/XMC4000/XMCLib/inc\xmc_dac.h **** }
 578:D:/XMC/Projekte/Temp/CF_XMC4700/cleanflight/lib/main/XMC4000/XMCLib/inc\xmc_dac.h **** 
 579:D:/XMC/Projekte/Temp/CF_XMC4700/cleanflight/lib/main/XMC4000/XMCLib/inc\xmc_dac.h **** /**
 580:D:/XMC/Projekte/Temp/CF_XMC4700/cleanflight/lib/main/XMC4000/XMCLib/inc\xmc_dac.h ****  * @param dac Pointer to an instance of DAC module
 581:D:/XMC/Projekte/Temp/CF_XMC4700/cleanflight/lib/main/XMC4000/XMCLib/inc\xmc_dac.h ****  * @param channel DAC channel number
 582:D:/XMC/Projekte/Temp/CF_XMC4700/cleanflight/lib/main/XMC4000/XMCLib/inc\xmc_dac.h ****  * @param data Data to be written  [0-4095]
 583:D:/XMC/Projekte/Temp/CF_XMC4700/cleanflight/lib/main/XMC4000/XMCLib/inc\xmc_dac.h ****  *
 584:D:/XMC/Projekte/Temp/CF_XMC4700/cleanflight/lib/main/XMC4000/XMCLib/inc\xmc_dac.h ****  * @return None
 585:D:/XMC/Projekte/Temp/CF_XMC4700/cleanflight/lib/main/XMC4000/XMCLib/inc\xmc_dac.h ****  *
 586:D:/XMC/Projekte/Temp/CF_XMC4700/cleanflight/lib/main/XMC4000/XMCLib/inc\xmc_dac.h ****  * \par<b>Description:</b><br>
 587:D:/XMC/Projekte/Temp/CF_XMC4700/cleanflight/lib/main/XMC4000/XMCLib/inc\xmc_dac.h ****  * Writes the \e data to the \e channel's DATA register.
 588:D:/XMC/Projekte/Temp/CF_XMC4700/cleanflight/lib/main/XMC4000/XMCLib/inc\xmc_dac.h ****  *
 589:D:/XMC/Projekte/Temp/CF_XMC4700/cleanflight/lib/main/XMC4000/XMCLib/inc\xmc_dac.h ****  * \par
 590:D:/XMC/Projekte/Temp/CF_XMC4700/cleanflight/lib/main/XMC4000/XMCLib/inc\xmc_dac.h ****  * The \e data is then converted and driven to the output.
 591:D:/XMC/Projekte/Temp/CF_XMC4700/cleanflight/lib/main/XMC4000/XMCLib/inc\xmc_dac.h ****  * If the trigger is set, On a trigger event the data in DATA register is converted and driven to \
 592:D:/XMC/Projekte/Temp/CF_XMC4700/cleanflight/lib/main/XMC4000/XMCLib/inc\xmc_dac.h ****  * Data \a data is written to the \a channel by loading \a data to \a DATA0 bit-field of \a DAC0DAT
 593:D:/XMC/Projekte/Temp/CF_XMC4700/cleanflight/lib/main/XMC4000/XMCLib/inc\xmc_dac.h ****  * data has the range of [0-4095].
 594:D:/XMC/Projekte/Temp/CF_XMC4700/cleanflight/lib/main/XMC4000/XMCLib/inc\xmc_dac.h ****  *
 595:D:/XMC/Projekte/Temp/CF_XMC4700/cleanflight/lib/main/XMC4000/XMCLib/inc\xmc_dac.h ****  * \par<b>Note:</b><br>
 596:D:/XMC/Projekte/Temp/CF_XMC4700/cleanflight/lib/main/XMC4000/XMCLib/inc\xmc_dac.h ****  * The API can be used for Single Value Mode, Data Mode (Individual) & Ramp Mode.
 597:D:/XMC/Projekte/Temp/CF_XMC4700/cleanflight/lib/main/XMC4000/XMCLib/inc\xmc_dac.h ****  * Call XMC_DAC_CH_EnableOutput() API to enable analog output.
 598:D:/XMC/Projekte/Temp/CF_XMC4700/cleanflight/lib/main/XMC4000/XMCLib/inc\xmc_dac.h ****  *
 599:D:/XMC/Projekte/Temp/CF_XMC4700/cleanflight/lib/main/XMC4000/XMCLib/inc\xmc_dac.h ****  * \par<b>Related APIs:</b><BR>
 600:D:/XMC/Projekte/Temp/CF_XMC4700/cleanflight/lib/main/XMC4000/XMCLib/inc\xmc_dac.h ****  * XMC_DAC_CH_StartSingleValueMode(), XMC_DAC_CH_StartDataMode(), XMC_DAC_CH_StartRampMode()\n\n\n
 601:D:/XMC/Projekte/Temp/CF_XMC4700/cleanflight/lib/main/XMC4000/XMCLib/inc\xmc_dac.h ****  *
 602:D:/XMC/Projekte/Temp/CF_XMC4700/cleanflight/lib/main/XMC4000/XMCLib/inc\xmc_dac.h ****  */
 603:D:/XMC/Projekte/Temp/CF_XMC4700/cleanflight/lib/main/XMC4000/XMCLib/inc\xmc_dac.h **** __STATIC_INLINE void XMC_DAC_CH_Write(XMC_DAC_t *const dac, const uint8_t channel, const uint16_t d
 604:D:/XMC/Projekte/Temp/CF_XMC4700/cleanflight/lib/main/XMC4000/XMCLib/inc\xmc_dac.h **** {
 605:D:/XMC/Projekte/Temp/CF_XMC4700/cleanflight/lib/main/XMC4000/XMCLib/inc\xmc_dac.h ****   XMC_ASSERT("XMC_DAC_CH_Write: dac parameter not valid\n", XMC_DAC_IS_DAC_VALID(dac));
 606:D:/XMC/Projekte/Temp/CF_XMC4700/cleanflight/lib/main/XMC4000/XMCLib/inc\xmc_dac.h ****   XMC_ASSERT("XMC_DAC_CH_Write: channel parameter not valid\n", XMC_DAC_IS_CHANNEL_VALID(channel));
 607:D:/XMC/Projekte/Temp/CF_XMC4700/cleanflight/lib/main/XMC4000/XMCLib/inc\xmc_dac.h ****   
 608:D:/XMC/Projekte/Temp/CF_XMC4700/cleanflight/lib/main/XMC4000/XMCLib/inc\xmc_dac.h ****   dac->DACDATA[channel] = data;
 609:D:/XMC/Projekte/Temp/CF_XMC4700/cleanflight/lib/main/XMC4000/XMCLib/inc\xmc_dac.h **** }
 610:D:/XMC/Projekte/Temp/CF_XMC4700/cleanflight/lib/main/XMC4000/XMCLib/inc\xmc_dac.h **** 
 611:D:/XMC/Projekte/Temp/CF_XMC4700/cleanflight/lib/main/XMC4000/XMCLib/inc\xmc_dac.h **** /**
 612:D:/XMC/Projekte/Temp/CF_XMC4700/cleanflight/lib/main/XMC4000/XMCLib/inc\xmc_dac.h ****  * @param dac Pointer to an instance of DAC module
 613:D:/XMC/Projekte/Temp/CF_XMC4700/cleanflight/lib/main/XMC4000/XMCLib/inc\xmc_dac.h ****  * @param channel DAC channel number
 614:D:/XMC/Projekte/Temp/CF_XMC4700/cleanflight/lib/main/XMC4000/XMCLib/inc\xmc_dac.h ****  *
 615:D:/XMC/Projekte/Temp/CF_XMC4700/cleanflight/lib/main/XMC4000/XMCLib/inc\xmc_dac.h ****  * @return None
 616:D:/XMC/Projekte/Temp/CF_XMC4700/cleanflight/lib/main/XMC4000/XMCLib/inc\xmc_dac.h ****  *
 617:D:/XMC/Projekte/Temp/CF_XMC4700/cleanflight/lib/main/XMC4000/XMCLib/inc\xmc_dac.h ****  * \par<b>Description:</b><br>
 618:D:/XMC/Projekte/Temp/CF_XMC4700/cleanflight/lib/main/XMC4000/XMCLib/inc\xmc_dac.h ****  * Sets the \e channel to Single Value Mode by calling XMC_DAC_CH_SetMode().
 619:D:/XMC/Projekte/Temp/CF_XMC4700/cleanflight/lib/main/XMC4000/XMCLib/inc\xmc_dac.h ****  *
 620:D:/XMC/Projekte/Temp/CF_XMC4700/cleanflight/lib/main/XMC4000/XMCLib/inc\xmc_dac.h ****  * \par<b>Note:</b><br>
 621:D:/XMC/Projekte/Temp/CF_XMC4700/cleanflight/lib/main/XMC4000/XMCLib/inc\xmc_dac.h ****  * Call XMC_DAC_CH_Write() API to write the data.
 622:D:/XMC/Projekte/Temp/CF_XMC4700/cleanflight/lib/main/XMC4000/XMCLib/inc\xmc_dac.h ****  *
 623:D:/XMC/Projekte/Temp/CF_XMC4700/cleanflight/lib/main/XMC4000/XMCLib/inc\xmc_dac.h ****  * \par<b>Related APIs:</b><BR>
 624:D:/XMC/Projekte/Temp/CF_XMC4700/cleanflight/lib/main/XMC4000/XMCLib/inc\xmc_dac.h ****  * XMC_DAC_CH_Write()\n\n\n
 625:D:/XMC/Projekte/Temp/CF_XMC4700/cleanflight/lib/main/XMC4000/XMCLib/inc\xmc_dac.h ****  *
 626:D:/XMC/Projekte/Temp/CF_XMC4700/cleanflight/lib/main/XMC4000/XMCLib/inc\xmc_dac.h ****  */
 627:D:/XMC/Projekte/Temp/CF_XMC4700/cleanflight/lib/main/XMC4000/XMCLib/inc\xmc_dac.h **** XMC_DAC_CH_STATUS_t XMC_DAC_CH_StartSingleValueMode(XMC_DAC_t *const dac, const uint8_t channel);
 628:D:/XMC/Projekte/Temp/CF_XMC4700/cleanflight/lib/main/XMC4000/XMCLib/inc\xmc_dac.h **** 
 629:D:/XMC/Projekte/Temp/CF_XMC4700/cleanflight/lib/main/XMC4000/XMCLib/inc\xmc_dac.h **** /**
 630:D:/XMC/Projekte/Temp/CF_XMC4700/cleanflight/lib/main/XMC4000/XMCLib/inc\xmc_dac.h ****  * @param dac Pointer to an instance of DAC module
 631:D:/XMC/Projekte/Temp/CF_XMC4700/cleanflight/lib/main/XMC4000/XMCLib/inc\xmc_dac.h ****  * @param channel DAC channel number
 632:D:/XMC/Projekte/Temp/CF_XMC4700/cleanflight/lib/main/XMC4000/XMCLib/inc\xmc_dac.h ****  * @param trigger Data points update trigger
 633:D:/XMC/Projekte/Temp/CF_XMC4700/cleanflight/lib/main/XMC4000/XMCLib/inc\xmc_dac.h ****  * @param frequency Waveform frequency [Hz]
 634:D:/XMC/Projekte/Temp/CF_XMC4700/cleanflight/lib/main/XMC4000/XMCLib/inc\xmc_dac.h ****  *
 635:D:/XMC/Projekte/Temp/CF_XMC4700/cleanflight/lib/main/XMC4000/XMCLib/inc\xmc_dac.h ****  * @return XMC_DAC_CH_STATUS_t status
 636:D:/XMC/Projekte/Temp/CF_XMC4700/cleanflight/lib/main/XMC4000/XMCLib/inc\xmc_dac.h ****  *
 637:D:/XMC/Projekte/Temp/CF_XMC4700/cleanflight/lib/main/XMC4000/XMCLib/inc\xmc_dac.h ****  * \par<b>Description:</b><br>
 638:D:/XMC/Projekte/Temp/CF_XMC4700/cleanflight/lib/main/XMC4000/XMCLib/inc\xmc_dac.h ****  * Sets the \e channel to Data mode. Trigger and frequency are configured.
 639:D:/XMC/Projekte/Temp/CF_XMC4700/cleanflight/lib/main/XMC4000/XMCLib/inc\xmc_dac.h ****  *
 640:D:/XMC/Projekte/Temp/CF_XMC4700/cleanflight/lib/main/XMC4000/XMCLib/inc\xmc_dac.h ****  * \par<b>Note:</b><br>
 641:D:/XMC/Projekte/Temp/CF_XMC4700/cleanflight/lib/main/XMC4000/XMCLib/inc\xmc_dac.h ****  * Call XMC_DAC_CH_Write() API to write the data. Call XMC_DAC_EnableSimultaneousDataMode() to swit
 642:D:/XMC/Projekte/Temp/CF_XMC4700/cleanflight/lib/main/XMC4000/XMCLib/inc\xmc_dac.h ****  *
 643:D:/XMC/Projekte/Temp/CF_XMC4700/cleanflight/lib/main/XMC4000/XMCLib/inc\xmc_dac.h ****  * \par<b>Related APIs:</b><BR>
 644:D:/XMC/Projekte/Temp/CF_XMC4700/cleanflight/lib/main/XMC4000/XMCLib/inc\xmc_dac.h ****  * XMC_DAC_CH_Init(), XMC_DAC_CH_Write(), XMC_DAC_EnableSimultaneousDataMode() \n\n\n
 645:D:/XMC/Projekte/Temp/CF_XMC4700/cleanflight/lib/main/XMC4000/XMCLib/inc\xmc_dac.h ****  *
 646:D:/XMC/Projekte/Temp/CF_XMC4700/cleanflight/lib/main/XMC4000/XMCLib/inc\xmc_dac.h ****  */
 647:D:/XMC/Projekte/Temp/CF_XMC4700/cleanflight/lib/main/XMC4000/XMCLib/inc\xmc_dac.h **** XMC_DAC_CH_STATUS_t XMC_DAC_CH_StartDataMode(XMC_DAC_t *const dac,
 648:D:/XMC/Projekte/Temp/CF_XMC4700/cleanflight/lib/main/XMC4000/XMCLib/inc\xmc_dac.h ****                                              const uint8_t channel,
 649:D:/XMC/Projekte/Temp/CF_XMC4700/cleanflight/lib/main/XMC4000/XMCLib/inc\xmc_dac.h ****                                              const XMC_DAC_CH_TRIGGER_t trigger,
 650:D:/XMC/Projekte/Temp/CF_XMC4700/cleanflight/lib/main/XMC4000/XMCLib/inc\xmc_dac.h ****                                              const uint32_t frequency);
 651:D:/XMC/Projekte/Temp/CF_XMC4700/cleanflight/lib/main/XMC4000/XMCLib/inc\xmc_dac.h **** 
 652:D:/XMC/Projekte/Temp/CF_XMC4700/cleanflight/lib/main/XMC4000/XMCLib/inc\xmc_dac.h **** /**
 653:D:/XMC/Projekte/Temp/CF_XMC4700/cleanflight/lib/main/XMC4000/XMCLib/inc\xmc_dac.h ****  * @param dac Pointer to an instance of DAC module
 654:D:/XMC/Projekte/Temp/CF_XMC4700/cleanflight/lib/main/XMC4000/XMCLib/inc\xmc_dac.h ****  * @param channel DAC channel number
 655:D:/XMC/Projekte/Temp/CF_XMC4700/cleanflight/lib/main/XMC4000/XMCLib/inc\xmc_dac.h ****  * @param start Start point of the ramp [0-4095]
 656:D:/XMC/Projekte/Temp/CF_XMC4700/cleanflight/lib/main/XMC4000/XMCLib/inc\xmc_dac.h ****  * @param stop Stop point of the ramp [0-4095]
 657:D:/XMC/Projekte/Temp/CF_XMC4700/cleanflight/lib/main/XMC4000/XMCLib/inc\xmc_dac.h ****  * @param trigger Data points update trigger
 658:D:/XMC/Projekte/Temp/CF_XMC4700/cleanflight/lib/main/XMC4000/XMCLib/inc\xmc_dac.h ****  * @param frequency Ramp frequency in [Hz]
 659:D:/XMC/Projekte/Temp/CF_XMC4700/cleanflight/lib/main/XMC4000/XMCLib/inc\xmc_dac.h ****  *
 660:D:/XMC/Projekte/Temp/CF_XMC4700/cleanflight/lib/main/XMC4000/XMCLib/inc\xmc_dac.h ****  * @return XMC_DAC_CH_STATUS_t status
 661:D:/XMC/Projekte/Temp/CF_XMC4700/cleanflight/lib/main/XMC4000/XMCLib/inc\xmc_dac.h ****  *
 662:D:/XMC/Projekte/Temp/CF_XMC4700/cleanflight/lib/main/XMC4000/XMCLib/inc\xmc_dac.h ****  * \par<b>Description:</b><br>
 663:D:/XMC/Projekte/Temp/CF_XMC4700/cleanflight/lib/main/XMC4000/XMCLib/inc\xmc_dac.h ****  * Sets the \e channel to Ramp mode. Trigger, frequency, start and stop values are configured.
 664:D:/XMC/Projekte/Temp/CF_XMC4700/cleanflight/lib/main/XMC4000/XMCLib/inc\xmc_dac.h ****  * On a \e trigger ramp values are converted and driven to \e channel output.
 665:D:/XMC/Projekte/Temp/CF_XMC4700/cleanflight/lib/main/XMC4000/XMCLib/inc\xmc_dac.h ****  * Start and stop have the range of [0-4095]. Stop should be equal or greater than start. 
 666:D:/XMC/Projekte/Temp/CF_XMC4700/cleanflight/lib/main/XMC4000/XMCLib/inc\xmc_dac.h ****  *
 667:D:/XMC/Projekte/Temp/CF_XMC4700/cleanflight/lib/main/XMC4000/XMCLib/inc\xmc_dac.h ****  * \par<b>Note:</b><br>
 668:D:/XMC/Projekte/Temp/CF_XMC4700/cleanflight/lib/main/XMC4000/XMCLib/inc\xmc_dac.h ****  * If the ramp counter reaches its \e stop value, it restarts from the \e start value with the next
 669:D:/XMC/Projekte/Temp/CF_XMC4700/cleanflight/lib/main/XMC4000/XMCLib/inc\xmc_dac.h ****  *
 670:D:/XMC/Projekte/Temp/CF_XMC4700/cleanflight/lib/main/XMC4000/XMCLib/inc\xmc_dac.h ****  * \par<b>Related APIs:</b><BR>
 671:D:/XMC/Projekte/Temp/CF_XMC4700/cleanflight/lib/main/XMC4000/XMCLib/inc\xmc_dac.h ****  * XMC_DAC_CH_Init(), XMC_DAC_CH_GetRampStart(), XMC_DAC_CH_GetRampStop() \n\n\n
 672:D:/XMC/Projekte/Temp/CF_XMC4700/cleanflight/lib/main/XMC4000/XMCLib/inc\xmc_dac.h ****  *
 673:D:/XMC/Projekte/Temp/CF_XMC4700/cleanflight/lib/main/XMC4000/XMCLib/inc\xmc_dac.h ****  */
 674:D:/XMC/Projekte/Temp/CF_XMC4700/cleanflight/lib/main/XMC4000/XMCLib/inc\xmc_dac.h **** XMC_DAC_CH_STATUS_t XMC_DAC_CH_StartRampMode(XMC_DAC_t *const dac,
 675:D:/XMC/Projekte/Temp/CF_XMC4700/cleanflight/lib/main/XMC4000/XMCLib/inc\xmc_dac.h ****                                              const uint8_t channel,
 676:D:/XMC/Projekte/Temp/CF_XMC4700/cleanflight/lib/main/XMC4000/XMCLib/inc\xmc_dac.h ****                                              const uint16_t start,
 677:D:/XMC/Projekte/Temp/CF_XMC4700/cleanflight/lib/main/XMC4000/XMCLib/inc\xmc_dac.h ****                                              const uint16_t stop,
 678:D:/XMC/Projekte/Temp/CF_XMC4700/cleanflight/lib/main/XMC4000/XMCLib/inc\xmc_dac.h ****                                              const XMC_DAC_CH_TRIGGER_t trigger,
 679:D:/XMC/Projekte/Temp/CF_XMC4700/cleanflight/lib/main/XMC4000/XMCLib/inc\xmc_dac.h ****                                              const uint32_t frequency);
 680:D:/XMC/Projekte/Temp/CF_XMC4700/cleanflight/lib/main/XMC4000/XMCLib/inc\xmc_dac.h **** 
 681:D:/XMC/Projekte/Temp/CF_XMC4700/cleanflight/lib/main/XMC4000/XMCLib/inc\xmc_dac.h **** /**
 682:D:/XMC/Projekte/Temp/CF_XMC4700/cleanflight/lib/main/XMC4000/XMCLib/inc\xmc_dac.h ****  * @param dac Pointer to an instance of DAC module
 683:D:/XMC/Projekte/Temp/CF_XMC4700/cleanflight/lib/main/XMC4000/XMCLib/inc\xmc_dac.h ****  * @param channel DAC channel number
 684:D:/XMC/Projekte/Temp/CF_XMC4700/cleanflight/lib/main/XMC4000/XMCLib/inc\xmc_dac.h ****  * @param pattern Data table of a pattern
 685:D:/XMC/Projekte/Temp/CF_XMC4700/cleanflight/lib/main/XMC4000/XMCLib/inc\xmc_dac.h ****  * @param sign_output Sign information of the waveform
 686:D:/XMC/Projekte/Temp/CF_XMC4700/cleanflight/lib/main/XMC4000/XMCLib/inc\xmc_dac.h ****  * @param trigger Data points update trigger
 687:D:/XMC/Projekte/Temp/CF_XMC4700/cleanflight/lib/main/XMC4000/XMCLib/inc\xmc_dac.h ****  * @param frequency Waveform frequency in [Hz]
 688:D:/XMC/Projekte/Temp/CF_XMC4700/cleanflight/lib/main/XMC4000/XMCLib/inc\xmc_dac.h ****  *
 689:D:/XMC/Projekte/Temp/CF_XMC4700/cleanflight/lib/main/XMC4000/XMCLib/inc\xmc_dac.h ****  * @return XMC_DAC_CH_STATUS_t status
 690:D:/XMC/Projekte/Temp/CF_XMC4700/cleanflight/lib/main/XMC4000/XMCLib/inc\xmc_dac.h ****  *
 691:D:/XMC/Projekte/Temp/CF_XMC4700/cleanflight/lib/main/XMC4000/XMCLib/inc\xmc_dac.h ****  * \par<b>Description:</b><br>
 692:D:/XMC/Projekte/Temp/CF_XMC4700/cleanflight/lib/main/XMC4000/XMCLib/inc\xmc_dac.h ****  * Sets the \e channel to Pattern mode. Trigger, frequency, sign output and data are configured.
 693:D:/XMC/Projekte/Temp/CF_XMC4700/cleanflight/lib/main/XMC4000/XMCLib/inc\xmc_dac.h ****  * On a \e trigger, the \e pattern values are converted and driven to \e channel output.
 694:D:/XMC/Projekte/Temp/CF_XMC4700/cleanflight/lib/main/XMC4000/XMCLib/inc\xmc_dac.h ****  *
 695:D:/XMC/Projekte/Temp/CF_XMC4700/cleanflight/lib/main/XMC4000/XMCLib/inc\xmc_dac.h ****  * \par<b>Related APIs:</b><BR>
 696:D:/XMC/Projekte/Temp/CF_XMC4700/cleanflight/lib/main/XMC4000/XMCLib/inc\xmc_dac.h ****  * XMC_DAC_CH_Init(), XMC_DAC_CH_DisablePatternSignOutput() \n\n\n
 697:D:/XMC/Projekte/Temp/CF_XMC4700/cleanflight/lib/main/XMC4000/XMCLib/inc\xmc_dac.h ****  *
 698:D:/XMC/Projekte/Temp/CF_XMC4700/cleanflight/lib/main/XMC4000/XMCLib/inc\xmc_dac.h ****  */
 699:D:/XMC/Projekte/Temp/CF_XMC4700/cleanflight/lib/main/XMC4000/XMCLib/inc\xmc_dac.h **** XMC_DAC_CH_STATUS_t XMC_DAC_CH_StartPatternMode(XMC_DAC_t *const dac,
 700:D:/XMC/Projekte/Temp/CF_XMC4700/cleanflight/lib/main/XMC4000/XMCLib/inc\xmc_dac.h ****                                                 const uint8_t channel,
 701:D:/XMC/Projekte/Temp/CF_XMC4700/cleanflight/lib/main/XMC4000/XMCLib/inc\xmc_dac.h ****                                                 const uint8_t *const pattern,
 702:D:/XMC/Projekte/Temp/CF_XMC4700/cleanflight/lib/main/XMC4000/XMCLib/inc\xmc_dac.h ****                                                 const XMC_DAC_CH_PATTERN_SIGN_OUTPUT_t sign_output,
 703:D:/XMC/Projekte/Temp/CF_XMC4700/cleanflight/lib/main/XMC4000/XMCLib/inc\xmc_dac.h ****                                                 const XMC_DAC_CH_TRIGGER_t trigger,
 704:D:/XMC/Projekte/Temp/CF_XMC4700/cleanflight/lib/main/XMC4000/XMCLib/inc\xmc_dac.h ****                                                 const uint32_t frequency);
 705:D:/XMC/Projekte/Temp/CF_XMC4700/cleanflight/lib/main/XMC4000/XMCLib/inc\xmc_dac.h **** 
 706:D:/XMC/Projekte/Temp/CF_XMC4700/cleanflight/lib/main/XMC4000/XMCLib/inc\xmc_dac.h **** /**
 707:D:/XMC/Projekte/Temp/CF_XMC4700/cleanflight/lib/main/XMC4000/XMCLib/inc\xmc_dac.h ****  * @param dac Pointer to an instance of DAC module
 708:D:/XMC/Projekte/Temp/CF_XMC4700/cleanflight/lib/main/XMC4000/XMCLib/inc\xmc_dac.h ****  * @param channel DAC channel number
 709:D:/XMC/Projekte/Temp/CF_XMC4700/cleanflight/lib/main/XMC4000/XMCLib/inc\xmc_dac.h ****  * @param trigger Data points update trigger
 710:D:/XMC/Projekte/Temp/CF_XMC4700/cleanflight/lib/main/XMC4000/XMCLib/inc\xmc_dac.h ****  * @param frequency Waveform frequency in [Hz]
 711:D:/XMC/Projekte/Temp/CF_XMC4700/cleanflight/lib/main/XMC4000/XMCLib/inc\xmc_dac.h ****  *
 712:D:/XMC/Projekte/Temp/CF_XMC4700/cleanflight/lib/main/XMC4000/XMCLib/inc\xmc_dac.h ****  * @return XMC_DAC_CH_STATUS_t status
 713:D:/XMC/Projekte/Temp/CF_XMC4700/cleanflight/lib/main/XMC4000/XMCLib/inc\xmc_dac.h ****  *
 714:D:/XMC/Projekte/Temp/CF_XMC4700/cleanflight/lib/main/XMC4000/XMCLib/inc\xmc_dac.h ****  * \par<b>Description:</b><br>
 715:D:/XMC/Projekte/Temp/CF_XMC4700/cleanflight/lib/main/XMC4000/XMCLib/inc\xmc_dac.h ****  * Sets the \e channel to Noise mode. Trigger and frequency are configured.
 716:D:/XMC/Projekte/Temp/CF_XMC4700/cleanflight/lib/main/XMC4000/XMCLib/inc\xmc_dac.h ****  * On a \e trigger the DAC starts converting and drives to \e channel output.
 717:D:/XMC/Projekte/Temp/CF_XMC4700/cleanflight/lib/main/XMC4000/XMCLib/inc\xmc_dac.h ****  *
 718:D:/XMC/Projekte/Temp/CF_XMC4700/cleanflight/lib/main/XMC4000/XMCLib/inc\xmc_dac.h ****  * \par<b>Related APIs:</b><BR>
 719:D:/XMC/Projekte/Temp/CF_XMC4700/cleanflight/lib/main/XMC4000/XMCLib/inc\xmc_dac.h ****  * XMC_DAC_CH_Init()\n\n\n
 720:D:/XMC/Projekte/Temp/CF_XMC4700/cleanflight/lib/main/XMC4000/XMCLib/inc\xmc_dac.h ****  *
 721:D:/XMC/Projekte/Temp/CF_XMC4700/cleanflight/lib/main/XMC4000/XMCLib/inc\xmc_dac.h ****  */
 722:D:/XMC/Projekte/Temp/CF_XMC4700/cleanflight/lib/main/XMC4000/XMCLib/inc\xmc_dac.h **** XMC_DAC_CH_STATUS_t XMC_DAC_CH_StartNoiseMode(XMC_DAC_t *const dac,
 723:D:/XMC/Projekte/Temp/CF_XMC4700/cleanflight/lib/main/XMC4000/XMCLib/inc\xmc_dac.h ****                                               const uint8_t channel,
 724:D:/XMC/Projekte/Temp/CF_XMC4700/cleanflight/lib/main/XMC4000/XMCLib/inc\xmc_dac.h ****                                               const XMC_DAC_CH_TRIGGER_t trigger,
 725:D:/XMC/Projekte/Temp/CF_XMC4700/cleanflight/lib/main/XMC4000/XMCLib/inc\xmc_dac.h ****                                               const uint32_t frequency);
 726:D:/XMC/Projekte/Temp/CF_XMC4700/cleanflight/lib/main/XMC4000/XMCLib/inc\xmc_dac.h **** 
 727:D:/XMC/Projekte/Temp/CF_XMC4700/cleanflight/lib/main/XMC4000/XMCLib/inc\xmc_dac.h **** /**
 728:D:/XMC/Projekte/Temp/CF_XMC4700/cleanflight/lib/main/XMC4000/XMCLib/inc\xmc_dac.h ****  * @param dac Pointer to an instance of DAC module
 729:D:/XMC/Projekte/Temp/CF_XMC4700/cleanflight/lib/main/XMC4000/XMCLib/inc\xmc_dac.h ****  * @param channel DAC channel number
 730:D:/XMC/Projekte/Temp/CF_XMC4700/cleanflight/lib/main/XMC4000/XMCLib/inc\xmc_dac.h ****  * @param pattern Pointer to the data table
 731:D:/XMC/Projekte/Temp/CF_XMC4700/cleanflight/lib/main/XMC4000/XMCLib/inc\xmc_dac.h ****  *
 732:D:/XMC/Projekte/Temp/CF_XMC4700/cleanflight/lib/main/XMC4000/XMCLib/inc\xmc_dac.h ****  * @return None
 733:D:/XMC/Projekte/Temp/CF_XMC4700/cleanflight/lib/main/XMC4000/XMCLib/inc\xmc_dac.h ****  *
 734:D:/XMC/Projekte/Temp/CF_XMC4700/cleanflight/lib/main/XMC4000/XMCLib/inc\xmc_dac.h ****  * \par<b>Description:</b><br>
 735:D:/XMC/Projekte/Temp/CF_XMC4700/cleanflight/lib/main/XMC4000/XMCLib/inc\xmc_dac.h ****  * The data for the Pattern mode is written to the \a DAC0PATL and \a DAC0PATH registers.
 736:D:/XMC/Projekte/Temp/CF_XMC4700/cleanflight/lib/main/XMC4000/XMCLib/inc\xmc_dac.h ****  * The API is called by XMC_DAC_CH_StartPatternMode().
 737:D:/XMC/Projekte/Temp/CF_XMC4700/cleanflight/lib/main/XMC4000/XMCLib/inc\xmc_dac.h ****  *
 738:D:/XMC/Projekte/Temp/CF_XMC4700/cleanflight/lib/main/XMC4000/XMCLib/inc\xmc_dac.h ****  * \par<b>Note:</b><br>
 739:D:/XMC/Projekte/Temp/CF_XMC4700/cleanflight/lib/main/XMC4000/XMCLib/inc\xmc_dac.h ****  * Call this API if the \a channel is set to Pattern mode.
 740:D:/XMC/Projekte/Temp/CF_XMC4700/cleanflight/lib/main/XMC4000/XMCLib/inc\xmc_dac.h ****  *
 741:D:/XMC/Projekte/Temp/CF_XMC4700/cleanflight/lib/main/XMC4000/XMCLib/inc\xmc_dac.h ****  * \par<b>Related APIs:</b><BR>
 742:D:/XMC/Projekte/Temp/CF_XMC4700/cleanflight/lib/main/XMC4000/XMCLib/inc\xmc_dac.h ****  * XMC_DAC_CH_EnablePatternSignOutput(), XMC_DAC_CH_DisablePatternSignOutput()\n\n\n
 743:D:/XMC/Projekte/Temp/CF_XMC4700/cleanflight/lib/main/XMC4000/XMCLib/inc\xmc_dac.h ****  *
 744:D:/XMC/Projekte/Temp/CF_XMC4700/cleanflight/lib/main/XMC4000/XMCLib/inc\xmc_dac.h ****  */
 745:D:/XMC/Projekte/Temp/CF_XMC4700/cleanflight/lib/main/XMC4000/XMCLib/inc\xmc_dac.h **** void XMC_DAC_CH_SetPattern(XMC_DAC_t *const dac, const uint8_t channel, const uint8_t *const patter
 746:D:/XMC/Projekte/Temp/CF_XMC4700/cleanflight/lib/main/XMC4000/XMCLib/inc\xmc_dac.h **** 
 747:D:/XMC/Projekte/Temp/CF_XMC4700/cleanflight/lib/main/XMC4000/XMCLib/inc\xmc_dac.h **** /**
 748:D:/XMC/Projekte/Temp/CF_XMC4700/cleanflight/lib/main/XMC4000/XMCLib/inc\xmc_dac.h ****  * @param dac Pointer to an instance of DAC module
 749:D:/XMC/Projekte/Temp/CF_XMC4700/cleanflight/lib/main/XMC4000/XMCLib/inc\xmc_dac.h ****  * @param channel DAC channel number
 750:D:/XMC/Projekte/Temp/CF_XMC4700/cleanflight/lib/main/XMC4000/XMCLib/inc\xmc_dac.h ****  *
 751:D:/XMC/Projekte/Temp/CF_XMC4700/cleanflight/lib/main/XMC4000/XMCLib/inc\xmc_dac.h ****  * @return None
 752:D:/XMC/Projekte/Temp/CF_XMC4700/cleanflight/lib/main/XMC4000/XMCLib/inc\xmc_dac.h ****  *
 753:D:/XMC/Projekte/Temp/CF_XMC4700/cleanflight/lib/main/XMC4000/XMCLib/inc\xmc_dac.h ****  * \par<b>Description:</b><br>
 754:D:/XMC/Projekte/Temp/CF_XMC4700/cleanflight/lib/main/XMC4000/XMCLib/inc\xmc_dac.h ****  * Enables the output sign information for Pattern Mode.
 755:D:/XMC/Projekte/Temp/CF_XMC4700/cleanflight/lib/main/XMC4000/XMCLib/inc\xmc_dac.h ****  *
 756:D:/XMC/Projekte/Temp/CF_XMC4700/cleanflight/lib/main/XMC4000/XMCLib/inc\xmc_dac.h ****  * \par
 757:D:/XMC/Projekte/Temp/CF_XMC4700/cleanflight/lib/main/XMC4000/XMCLib/inc\xmc_dac.h ****  * Sign output is enabled by setting \a SIGNEN bit of \a DAC0CFG0 register (for channel 0) / DAC1CF
 758:D:/XMC/Projekte/Temp/CF_XMC4700/cleanflight/lib/main/XMC4000/XMCLib/inc\xmc_dac.h ****  *
 759:D:/XMC/Projekte/Temp/CF_XMC4700/cleanflight/lib/main/XMC4000/XMCLib/inc\xmc_dac.h ****  * \par<b>Note:</b><br>
 760:D:/XMC/Projekte/Temp/CF_XMC4700/cleanflight/lib/main/XMC4000/XMCLib/inc\xmc_dac.h ****  * Call this API if the \e channel is set to Pattern mode.
 761:D:/XMC/Projekte/Temp/CF_XMC4700/cleanflight/lib/main/XMC4000/XMCLib/inc\xmc_dac.h ****  *
 762:D:/XMC/Projekte/Temp/CF_XMC4700/cleanflight/lib/main/XMC4000/XMCLib/inc\xmc_dac.h ****  * \par<b>Related APIs:</b><BR>
 763:D:/XMC/Projekte/Temp/CF_XMC4700/cleanflight/lib/main/XMC4000/XMCLib/inc\xmc_dac.h ****  * XMC_DAC_CH_StartPatternMode(), XMC_DAC_CH_DisablePatternSignOutput()\n\n\n
 764:D:/XMC/Projekte/Temp/CF_XMC4700/cleanflight/lib/main/XMC4000/XMCLib/inc\xmc_dac.h ****  *
 765:D:/XMC/Projekte/Temp/CF_XMC4700/cleanflight/lib/main/XMC4000/XMCLib/inc\xmc_dac.h ****  */
 766:D:/XMC/Projekte/Temp/CF_XMC4700/cleanflight/lib/main/XMC4000/XMCLib/inc\xmc_dac.h **** __STATIC_INLINE void XMC_DAC_CH_EnablePatternSignOutput(XMC_DAC_t *const dac,
 767:D:/XMC/Projekte/Temp/CF_XMC4700/cleanflight/lib/main/XMC4000/XMCLib/inc\xmc_dac.h ****                                                      const uint8_t channel)
 768:D:/XMC/Projekte/Temp/CF_XMC4700/cleanflight/lib/main/XMC4000/XMCLib/inc\xmc_dac.h **** {
  83              	 .loc 1 768 0
  84              	 .cfi_startproc
  85              	 
  86              	 
  87              	 
  88 0000 80B4     	 push {r7}
  89              	.LCFI6:
  90              	 .cfi_def_cfa_offset 4
  91              	 .cfi_offset 7,-4
  92 0002 83B0     	 sub sp,sp,#12
  93              	.LCFI7:
  94              	 .cfi_def_cfa_offset 16
  95 0004 00AF     	 add r7,sp,#0
  96              	.LCFI8:
  97              	 .cfi_def_cfa_register 7
  98 0006 7860     	 str r0,[r7,#4]
  99 0008 0B46     	 mov r3,r1
 100 000a FB70     	 strb r3,[r7,#3]
 769:D:/XMC/Projekte/Temp/CF_XMC4700/cleanflight/lib/main/XMC4000/XMCLib/inc\xmc_dac.h ****   XMC_ASSERT("XMC_DAC_CH_EnablePatternSignOutput: dac parameter not valid\n", XMC_DAC_IS_DAC_VALID(
 770:D:/XMC/Projekte/Temp/CF_XMC4700/cleanflight/lib/main/XMC4000/XMCLib/inc\xmc_dac.h ****   XMC_ASSERT("XMC_DAC_CH_EnablePatternSignOutput: channel parameter not valid\n", XMC_DAC_IS_CHANNE
 771:D:/XMC/Projekte/Temp/CF_XMC4700/cleanflight/lib/main/XMC4000/XMCLib/inc\xmc_dac.h ****   
 772:D:/XMC/Projekte/Temp/CF_XMC4700/cleanflight/lib/main/XMC4000/XMCLib/inc\xmc_dac.h ****   dac->DACCFG[channel].low |= DAC_DAC0CFG0_SIGNEN_Msk;
 101              	 .loc 1 772 0
 102 000c F878     	 ldrb r0,[r7,#3]
 103 000e FB78     	 ldrb r3,[r7,#3]
 104 0010 7A68     	 ldr r2,[r7,#4]
 105 0012 DB00     	 lsls r3,r3,#3
 106 0014 1344     	 add r3,r3,r2
 107 0016 5B68     	 ldr r3,[r3,#4]
 108 0018 43F00052 	 orr r2,r3,#536870912
 109 001c 7968     	 ldr r1,[r7,#4]
 110 001e C300     	 lsls r3,r0,#3
 111 0020 0B44     	 add r3,r3,r1
 112 0022 5968     	 ldr r1,[r3,#4]
 113 0024 0021     	 movs r1,#0
 114 0026 0A43     	 orrs r2,r2,r1
 115 0028 5A60     	 str r2,[r3,#4]
 773:D:/XMC/Projekte/Temp/CF_XMC4700/cleanflight/lib/main/XMC4000/XMCLib/inc\xmc_dac.h **** }
 116              	 .loc 1 773 0
 117 002a 0C37     	 adds r7,r7,#12
 118              	.LCFI9:
 119              	 .cfi_def_cfa_offset 4
 120 002c BD46     	 mov sp,r7
 121              	.LCFI10:
 122              	 .cfi_def_cfa_register 13
 123              	 
 124 002e 5DF8047B 	 ldr r7,[sp],#4
 125              	.LCFI11:
 126              	 .cfi_restore 7
 127              	 .cfi_def_cfa_offset 0
 128 0032 7047     	 bx lr
 129              	 .cfi_endproc
 130              	.LFE142:
 132              	 .section .text.XMC_DAC_CH_DisablePatternSignOutput,"ax",%progbits
 133              	 .align 2
 134              	 .thumb
 135              	 .thumb_func
 137              	XMC_DAC_CH_DisablePatternSignOutput:
 138              	.LFB143:
 774:D:/XMC/Projekte/Temp/CF_XMC4700/cleanflight/lib/main/XMC4000/XMCLib/inc\xmc_dac.h **** 
 775:D:/XMC/Projekte/Temp/CF_XMC4700/cleanflight/lib/main/XMC4000/XMCLib/inc\xmc_dac.h **** /**
 776:D:/XMC/Projekte/Temp/CF_XMC4700/cleanflight/lib/main/XMC4000/XMCLib/inc\xmc_dac.h ****  * @param dac Pointer to an instance of DAC module
 777:D:/XMC/Projekte/Temp/CF_XMC4700/cleanflight/lib/main/XMC4000/XMCLib/inc\xmc_dac.h ****  * @param channel DAC channel number
 778:D:/XMC/Projekte/Temp/CF_XMC4700/cleanflight/lib/main/XMC4000/XMCLib/inc\xmc_dac.h ****  *
 779:D:/XMC/Projekte/Temp/CF_XMC4700/cleanflight/lib/main/XMC4000/XMCLib/inc\xmc_dac.h ****  * @return None
 780:D:/XMC/Projekte/Temp/CF_XMC4700/cleanflight/lib/main/XMC4000/XMCLib/inc\xmc_dac.h ****  *
 781:D:/XMC/Projekte/Temp/CF_XMC4700/cleanflight/lib/main/XMC4000/XMCLib/inc\xmc_dac.h ****  * \par<b>Description:</b><br>
 782:D:/XMC/Projekte/Temp/CF_XMC4700/cleanflight/lib/main/XMC4000/XMCLib/inc\xmc_dac.h ****  * Disables output sign information for Pattern Mode.
 783:D:/XMC/Projekte/Temp/CF_XMC4700/cleanflight/lib/main/XMC4000/XMCLib/inc\xmc_dac.h ****  *
 784:D:/XMC/Projekte/Temp/CF_XMC4700/cleanflight/lib/main/XMC4000/XMCLib/inc\xmc_dac.h ****  * \par
 785:D:/XMC/Projekte/Temp/CF_XMC4700/cleanflight/lib/main/XMC4000/XMCLib/inc\xmc_dac.h ****  * Sign output is disabled by clearing \a SIGNEN bit of \a DAC0CFG0 register (for channel 0) / DAC1
 786:D:/XMC/Projekte/Temp/CF_XMC4700/cleanflight/lib/main/XMC4000/XMCLib/inc\xmc_dac.h ****  *
 787:D:/XMC/Projekte/Temp/CF_XMC4700/cleanflight/lib/main/XMC4000/XMCLib/inc\xmc_dac.h ****  * \par<b>Note:</b><br>
 788:D:/XMC/Projekte/Temp/CF_XMC4700/cleanflight/lib/main/XMC4000/XMCLib/inc\xmc_dac.h ****  * Call this API if the \e channel is set to Pattern mode.
 789:D:/XMC/Projekte/Temp/CF_XMC4700/cleanflight/lib/main/XMC4000/XMCLib/inc\xmc_dac.h ****  *
 790:D:/XMC/Projekte/Temp/CF_XMC4700/cleanflight/lib/main/XMC4000/XMCLib/inc\xmc_dac.h ****  * \par<b>Related APIs:</b><BR>
 791:D:/XMC/Projekte/Temp/CF_XMC4700/cleanflight/lib/main/XMC4000/XMCLib/inc\xmc_dac.h ****  * XMC_DAC_CH_StartPatternMode(), XMC_DAC_CH_EnablePatternSignOutput()\n\n\n
 792:D:/XMC/Projekte/Temp/CF_XMC4700/cleanflight/lib/main/XMC4000/XMCLib/inc\xmc_dac.h ****  *
 793:D:/XMC/Projekte/Temp/CF_XMC4700/cleanflight/lib/main/XMC4000/XMCLib/inc\xmc_dac.h ****  */
 794:D:/XMC/Projekte/Temp/CF_XMC4700/cleanflight/lib/main/XMC4000/XMCLib/inc\xmc_dac.h **** __STATIC_INLINE void XMC_DAC_CH_DisablePatternSignOutput(XMC_DAC_t *const dac,
 795:D:/XMC/Projekte/Temp/CF_XMC4700/cleanflight/lib/main/XMC4000/XMCLib/inc\xmc_dac.h ****                                                      const uint8_t channel)
 796:D:/XMC/Projekte/Temp/CF_XMC4700/cleanflight/lib/main/XMC4000/XMCLib/inc\xmc_dac.h **** {
 139              	 .loc 1 796 0
 140              	 .cfi_startproc
 141              	 
 142              	 
 143              	 
 144 0000 80B4     	 push {r7}
 145              	.LCFI12:
 146              	 .cfi_def_cfa_offset 4
 147              	 .cfi_offset 7,-4
 148 0002 83B0     	 sub sp,sp,#12
 149              	.LCFI13:
 150              	 .cfi_def_cfa_offset 16
 151 0004 00AF     	 add r7,sp,#0
 152              	.LCFI14:
 153              	 .cfi_def_cfa_register 7
 154 0006 7860     	 str r0,[r7,#4]
 155 0008 0B46     	 mov r3,r1
 156 000a FB70     	 strb r3,[r7,#3]
 797:D:/XMC/Projekte/Temp/CF_XMC4700/cleanflight/lib/main/XMC4000/XMCLib/inc\xmc_dac.h ****   XMC_ASSERT("XMC_DAC_CH_DisablePatternSignOutput: dac parameter not valid\n", XMC_DAC_IS_DAC_VALID
 798:D:/XMC/Projekte/Temp/CF_XMC4700/cleanflight/lib/main/XMC4000/XMCLib/inc\xmc_dac.h ****   XMC_ASSERT("XMC_DAC_CH_DisablePatternSignOutput: channel parameter not valid\n", XMC_DAC_IS_CHANN
 799:D:/XMC/Projekte/Temp/CF_XMC4700/cleanflight/lib/main/XMC4000/XMCLib/inc\xmc_dac.h ****   
 800:D:/XMC/Projekte/Temp/CF_XMC4700/cleanflight/lib/main/XMC4000/XMCLib/inc\xmc_dac.h ****   dac->DACCFG[channel].low &= ~DAC_DAC0CFG0_SIGNEN_Msk;
 157              	 .loc 1 800 0
 158 000c F878     	 ldrb r0,[r7,#3]
 159 000e FB78     	 ldrb r3,[r7,#3]
 160 0010 7A68     	 ldr r2,[r7,#4]
 161 0012 DB00     	 lsls r3,r3,#3
 162 0014 1344     	 add r3,r3,r2
 163 0016 5B68     	 ldr r3,[r3,#4]
 164 0018 23F00052 	 bic r2,r3,#536870912
 165 001c 7968     	 ldr r1,[r7,#4]
 166 001e C300     	 lsls r3,r0,#3
 167 0020 0B44     	 add r3,r3,r1
 168 0022 5968     	 ldr r1,[r3,#4]
 169 0024 0021     	 movs r1,#0
 170 0026 0A43     	 orrs r2,r2,r1
 171 0028 5A60     	 str r2,[r3,#4]
 801:D:/XMC/Projekte/Temp/CF_XMC4700/cleanflight/lib/main/XMC4000/XMCLib/inc\xmc_dac.h **** }
 172              	 .loc 1 801 0
 173 002a 0C37     	 adds r7,r7,#12
 174              	.LCFI15:
 175              	 .cfi_def_cfa_offset 4
 176 002c BD46     	 mov sp,r7
 177              	.LCFI16:
 178              	 .cfi_def_cfa_register 13
 179              	 
 180 002e 5DF8047B 	 ldr r7,[sp],#4
 181              	.LCFI17:
 182              	 .cfi_restore 7
 183              	 .cfi_def_cfa_offset 0
 184 0032 7047     	 bx lr
 185              	 .cfi_endproc
 186              	.LFE143:
 188              	 .section .text.XMC_DAC_CH_SetRampStart,"ax",%progbits
 189              	 .align 2
 190              	 .thumb
 191              	 .thumb_func
 193              	XMC_DAC_CH_SetRampStart:
 194              	.LFB144:
 802:D:/XMC/Projekte/Temp/CF_XMC4700/cleanflight/lib/main/XMC4000/XMCLib/inc\xmc_dac.h **** 
 803:D:/XMC/Projekte/Temp/CF_XMC4700/cleanflight/lib/main/XMC4000/XMCLib/inc\xmc_dac.h **** /**
 804:D:/XMC/Projekte/Temp/CF_XMC4700/cleanflight/lib/main/XMC4000/XMCLib/inc\xmc_dac.h ****  * @param dac Pointer to an instance of DAC module
 805:D:/XMC/Projekte/Temp/CF_XMC4700/cleanflight/lib/main/XMC4000/XMCLib/inc\xmc_dac.h ****  * @param channel DAC channel number
 806:D:/XMC/Projekte/Temp/CF_XMC4700/cleanflight/lib/main/XMC4000/XMCLib/inc\xmc_dac.h ****  * @param start Ramp start point [0-4095]
 807:D:/XMC/Projekte/Temp/CF_XMC4700/cleanflight/lib/main/XMC4000/XMCLib/inc\xmc_dac.h ****  *
 808:D:/XMC/Projekte/Temp/CF_XMC4700/cleanflight/lib/main/XMC4000/XMCLib/inc\xmc_dac.h ****  * @return None
 809:D:/XMC/Projekte/Temp/CF_XMC4700/cleanflight/lib/main/XMC4000/XMCLib/inc\xmc_dac.h ****  *
 810:D:/XMC/Projekte/Temp/CF_XMC4700/cleanflight/lib/main/XMC4000/XMCLib/inc\xmc_dac.h ****  * \par<b>Description:</b><br>
 811:D:/XMC/Projekte/Temp/CF_XMC4700/cleanflight/lib/main/XMC4000/XMCLib/inc\xmc_dac.h ****  * Sets the ramp start value by writing to the register \a DAC0DATA (for \e channel 0) or \a DAC1DA
 812:D:/XMC/Projekte/Temp/CF_XMC4700/cleanflight/lib/main/XMC4000/XMCLib/inc\xmc_dac.h ****  * If the ramp counter reaches its stop value, it restarts from the \a start value with the next tr
 813:D:/XMC/Projekte/Temp/CF_XMC4700/cleanflight/lib/main/XMC4000/XMCLib/inc\xmc_dac.h ****  * Ensure \e start value is lower than the stop value.
 814:D:/XMC/Projekte/Temp/CF_XMC4700/cleanflight/lib/main/XMC4000/XMCLib/inc\xmc_dac.h ****  *
 815:D:/XMC/Projekte/Temp/CF_XMC4700/cleanflight/lib/main/XMC4000/XMCLib/inc\xmc_dac.h ****  * \par<b>Note:</b><br>
 816:D:/XMC/Projekte/Temp/CF_XMC4700/cleanflight/lib/main/XMC4000/XMCLib/inc\xmc_dac.h ****  * Call this API if the \a channel is set to Ramp mode.
 817:D:/XMC/Projekte/Temp/CF_XMC4700/cleanflight/lib/main/XMC4000/XMCLib/inc\xmc_dac.h ****  * Start value is a 12 bit data.
 818:D:/XMC/Projekte/Temp/CF_XMC4700/cleanflight/lib/main/XMC4000/XMCLib/inc\xmc_dac.h ****  *
 819:D:/XMC/Projekte/Temp/CF_XMC4700/cleanflight/lib/main/XMC4000/XMCLib/inc\xmc_dac.h ****  * \par<b>Related APIs:</b><BR>
 820:D:/XMC/Projekte/Temp/CF_XMC4700/cleanflight/lib/main/XMC4000/XMCLib/inc\xmc_dac.h ****  * XMC_DAC_CH_GetRampStart(), XMC_DAC_CH_GetRampStop(), XMC_DAC_CH_SetRampStop()\n\n\n
 821:D:/XMC/Projekte/Temp/CF_XMC4700/cleanflight/lib/main/XMC4000/XMCLib/inc\xmc_dac.h ****  *
 822:D:/XMC/Projekte/Temp/CF_XMC4700/cleanflight/lib/main/XMC4000/XMCLib/inc\xmc_dac.h ****  */
 823:D:/XMC/Projekte/Temp/CF_XMC4700/cleanflight/lib/main/XMC4000/XMCLib/inc\xmc_dac.h **** __STATIC_INLINE void XMC_DAC_CH_SetRampStart(XMC_DAC_t *const dac, const uint8_t channel, const uin
 824:D:/XMC/Projekte/Temp/CF_XMC4700/cleanflight/lib/main/XMC4000/XMCLib/inc\xmc_dac.h **** {
 195              	 .loc 1 824 0
 196              	 .cfi_startproc
 197              	 
 198              	 
 199              	 
 200 0000 80B4     	 push {r7}
 201              	.LCFI18:
 202              	 .cfi_def_cfa_offset 4
 203              	 .cfi_offset 7,-4
 204 0002 83B0     	 sub sp,sp,#12
 205              	.LCFI19:
 206              	 .cfi_def_cfa_offset 16
 207 0004 00AF     	 add r7,sp,#0
 208              	.LCFI20:
 209              	 .cfi_def_cfa_register 7
 210 0006 7860     	 str r0,[r7,#4]
 211 0008 0B46     	 mov r3,r1
 212 000a FB70     	 strb r3,[r7,#3]
 213 000c 1346     	 mov r3,r2
 214 000e 3B80     	 strh r3,[r7]
 825:D:/XMC/Projekte/Temp/CF_XMC4700/cleanflight/lib/main/XMC4000/XMCLib/inc\xmc_dac.h ****   XMC_ASSERT("XMC_DAC_CH_SetRampStart: dac parameter not valid\n", XMC_DAC_IS_DAC_VALID(dac));
 826:D:/XMC/Projekte/Temp/CF_XMC4700/cleanflight/lib/main/XMC4000/XMCLib/inc\xmc_dac.h ****   XMC_ASSERT("XMC_DAC_CH_SetRampStart: channel parameter not valid\n", XMC_DAC_IS_CHANNEL_VALID(cha
 827:D:/XMC/Projekte/Temp/CF_XMC4700/cleanflight/lib/main/XMC4000/XMCLib/inc\xmc_dac.h ****   
 828:D:/XMC/Projekte/Temp/CF_XMC4700/cleanflight/lib/main/XMC4000/XMCLib/inc\xmc_dac.h ****   dac->DACDATA[channel] = start;
 215              	 .loc 1 828 0
 216 0010 FB78     	 ldrb r3,[r7,#3]
 217 0012 3A88     	 ldrh r2,[r7]
 218 0014 7968     	 ldr r1,[r7,#4]
 219 0016 0433     	 adds r3,r3,#4
 220 0018 9B00     	 lsls r3,r3,#2
 221 001a 0B44     	 add r3,r3,r1
 222 001c 5968     	 ldr r1,[r3,#4]
 223 001e 0021     	 movs r1,#0
 224 0020 0A43     	 orrs r2,r2,r1
 225 0022 5A60     	 str r2,[r3,#4]
 829:D:/XMC/Projekte/Temp/CF_XMC4700/cleanflight/lib/main/XMC4000/XMCLib/inc\xmc_dac.h **** }
 226              	 .loc 1 829 0
 227 0024 0C37     	 adds r7,r7,#12
 228              	.LCFI21:
 229              	 .cfi_def_cfa_offset 4
 230 0026 BD46     	 mov sp,r7
 231              	.LCFI22:
 232              	 .cfi_def_cfa_register 13
 233              	 
 234 0028 5DF8047B 	 ldr r7,[sp],#4
 235              	.LCFI23:
 236              	 .cfi_restore 7
 237              	 .cfi_def_cfa_offset 0
 238 002c 7047     	 bx lr
 239              	 .cfi_endproc
 240              	.LFE144:
 242 002e 00BF     	 .section .text.XMC_DAC_CH_SetRampStop,"ax",%progbits
 243              	 .align 2
 244              	 .thumb
 245              	 .thumb_func
 247              	XMC_DAC_CH_SetRampStop:
 248              	.LFB146:
 830:D:/XMC/Projekte/Temp/CF_XMC4700/cleanflight/lib/main/XMC4000/XMCLib/inc\xmc_dac.h **** 
 831:D:/XMC/Projekte/Temp/CF_XMC4700/cleanflight/lib/main/XMC4000/XMCLib/inc\xmc_dac.h **** /**
 832:D:/XMC/Projekte/Temp/CF_XMC4700/cleanflight/lib/main/XMC4000/XMCLib/inc\xmc_dac.h ****  * @param dac Pointer to an instance of DAC module
 833:D:/XMC/Projekte/Temp/CF_XMC4700/cleanflight/lib/main/XMC4000/XMCLib/inc\xmc_dac.h ****  * @param channel DAC channel number
 834:D:/XMC/Projekte/Temp/CF_XMC4700/cleanflight/lib/main/XMC4000/XMCLib/inc\xmc_dac.h ****  *
 835:D:/XMC/Projekte/Temp/CF_XMC4700/cleanflight/lib/main/XMC4000/XMCLib/inc\xmc_dac.h ****  * @return uint16_t
 836:D:/XMC/Projekte/Temp/CF_XMC4700/cleanflight/lib/main/XMC4000/XMCLib/inc\xmc_dac.h ****  *
 837:D:/XMC/Projekte/Temp/CF_XMC4700/cleanflight/lib/main/XMC4000/XMCLib/inc\xmc_dac.h ****  * \par<b>Description:</b><br>
 838:D:/XMC/Projekte/Temp/CF_XMC4700/cleanflight/lib/main/XMC4000/XMCLib/inc\xmc_dac.h ****  * Gets the ramp start value by reading \a DATA0 bit-field of \a DAC0DATA register (for channel 0) 
 839:D:/XMC/Projekte/Temp/CF_XMC4700/cleanflight/lib/main/XMC4000/XMCLib/inc\xmc_dac.h ****  * If the ramp counter reaches its stop value, it restarts from the start value with the next trigg
 840:D:/XMC/Projekte/Temp/CF_XMC4700/cleanflight/lib/main/XMC4000/XMCLib/inc\xmc_dac.h ****  *
 841:D:/XMC/Projekte/Temp/CF_XMC4700/cleanflight/lib/main/XMC4000/XMCLib/inc\xmc_dac.h ****  * \par<b>Note:</b><br>
 842:D:/XMC/Projekte/Temp/CF_XMC4700/cleanflight/lib/main/XMC4000/XMCLib/inc\xmc_dac.h ****  * Call this API if the \e channel is set to Ramp mode.
 843:D:/XMC/Projekte/Temp/CF_XMC4700/cleanflight/lib/main/XMC4000/XMCLib/inc\xmc_dac.h ****  *
 844:D:/XMC/Projekte/Temp/CF_XMC4700/cleanflight/lib/main/XMC4000/XMCLib/inc\xmc_dac.h ****  * \par<b>Related APIs:</b><BR>
 845:D:/XMC/Projekte/Temp/CF_XMC4700/cleanflight/lib/main/XMC4000/XMCLib/inc\xmc_dac.h ****  * XMC_DAC_CH_SetRampStart(), XMC_DAC_CH_StartRampMode(), XMC_DAC_CH_GetRampStop(), XMC_DAC_CH_SetR
 846:D:/XMC/Projekte/Temp/CF_XMC4700/cleanflight/lib/main/XMC4000/XMCLib/inc\xmc_dac.h ****  *
 847:D:/XMC/Projekte/Temp/CF_XMC4700/cleanflight/lib/main/XMC4000/XMCLib/inc\xmc_dac.h ****  */
 848:D:/XMC/Projekte/Temp/CF_XMC4700/cleanflight/lib/main/XMC4000/XMCLib/inc\xmc_dac.h **** __STATIC_INLINE uint16_t XMC_DAC_CH_GetRampStart(XMC_DAC_t *const dac, const uint8_t channel)
 849:D:/XMC/Projekte/Temp/CF_XMC4700/cleanflight/lib/main/XMC4000/XMCLib/inc\xmc_dac.h **** {
 850:D:/XMC/Projekte/Temp/CF_XMC4700/cleanflight/lib/main/XMC4000/XMCLib/inc\xmc_dac.h ****   XMC_ASSERT("XMC_DAC_CH_GetRampStart: dac parameter not valid\n", XMC_DAC_IS_DAC_VALID(dac));
 851:D:/XMC/Projekte/Temp/CF_XMC4700/cleanflight/lib/main/XMC4000/XMCLib/inc\xmc_dac.h ****   XMC_ASSERT("XMC_DAC_CH_GetRampStart: channel parameter not valid\n", XMC_DAC_IS_CHANNEL_VALID(cha
 852:D:/XMC/Projekte/Temp/CF_XMC4700/cleanflight/lib/main/XMC4000/XMCLib/inc\xmc_dac.h ****   
 853:D:/XMC/Projekte/Temp/CF_XMC4700/cleanflight/lib/main/XMC4000/XMCLib/inc\xmc_dac.h ****   return (uint16_t)(dac->DACDATA[channel]);
 854:D:/XMC/Projekte/Temp/CF_XMC4700/cleanflight/lib/main/XMC4000/XMCLib/inc\xmc_dac.h **** }
 855:D:/XMC/Projekte/Temp/CF_XMC4700/cleanflight/lib/main/XMC4000/XMCLib/inc\xmc_dac.h **** 
 856:D:/XMC/Projekte/Temp/CF_XMC4700/cleanflight/lib/main/XMC4000/XMCLib/inc\xmc_dac.h **** /**
 857:D:/XMC/Projekte/Temp/CF_XMC4700/cleanflight/lib/main/XMC4000/XMCLib/inc\xmc_dac.h ****  * @param dac Pointer to an instance of DAC module
 858:D:/XMC/Projekte/Temp/CF_XMC4700/cleanflight/lib/main/XMC4000/XMCLib/inc\xmc_dac.h ****  * @param channel DAC channel number
 859:D:/XMC/Projekte/Temp/CF_XMC4700/cleanflight/lib/main/XMC4000/XMCLib/inc\xmc_dac.h ****  * @param stop Ramp stop point [0-4095]
 860:D:/XMC/Projekte/Temp/CF_XMC4700/cleanflight/lib/main/XMC4000/XMCLib/inc\xmc_dac.h ****  *
 861:D:/XMC/Projekte/Temp/CF_XMC4700/cleanflight/lib/main/XMC4000/XMCLib/inc\xmc_dac.h ****  * @return None
 862:D:/XMC/Projekte/Temp/CF_XMC4700/cleanflight/lib/main/XMC4000/XMCLib/inc\xmc_dac.h ****  *
 863:D:/XMC/Projekte/Temp/CF_XMC4700/cleanflight/lib/main/XMC4000/XMCLib/inc\xmc_dac.h ****  * \par<b>Description:</b><br>
 864:D:/XMC/Projekte/Temp/CF_XMC4700/cleanflight/lib/main/XMC4000/XMCLib/inc\xmc_dac.h ****  * Sets the ramp stop value by writing to the bit-field \a DATA0 (for \e channel 0) or \a DATA1 (fo
 865:D:/XMC/Projekte/Temp/CF_XMC4700/cleanflight/lib/main/XMC4000/XMCLib/inc\xmc_dac.h ****  * If the ramp counter reaches its \a stop value, it restarts from the start value with the next tr
 866:D:/XMC/Projekte/Temp/CF_XMC4700/cleanflight/lib/main/XMC4000/XMCLib/inc\xmc_dac.h ****  * Ensure \e stop value is higher than the start value.
 867:D:/XMC/Projekte/Temp/CF_XMC4700/cleanflight/lib/main/XMC4000/XMCLib/inc\xmc_dac.h ****  *
 868:D:/XMC/Projekte/Temp/CF_XMC4700/cleanflight/lib/main/XMC4000/XMCLib/inc\xmc_dac.h ****  * \par<b>Note:</b><br>
 869:D:/XMC/Projekte/Temp/CF_XMC4700/cleanflight/lib/main/XMC4000/XMCLib/inc\xmc_dac.h ****  * Call this API if the \e channel is set to Ramp mode.
 870:D:/XMC/Projekte/Temp/CF_XMC4700/cleanflight/lib/main/XMC4000/XMCLib/inc\xmc_dac.h ****  * Stop value is a 12 bit data.
 871:D:/XMC/Projekte/Temp/CF_XMC4700/cleanflight/lib/main/XMC4000/XMCLib/inc\xmc_dac.h ****  *
 872:D:/XMC/Projekte/Temp/CF_XMC4700/cleanflight/lib/main/XMC4000/XMCLib/inc\xmc_dac.h ****  * \par<b>Related APIs:</b><BR>
 873:D:/XMC/Projekte/Temp/CF_XMC4700/cleanflight/lib/main/XMC4000/XMCLib/inc\xmc_dac.h ****  * XMC_DAC_CH_GetRampStop(), XMC_DAC_CH_SetRampStart()\n\n\n
 874:D:/XMC/Projekte/Temp/CF_XMC4700/cleanflight/lib/main/XMC4000/XMCLib/inc\xmc_dac.h ****  *
 875:D:/XMC/Projekte/Temp/CF_XMC4700/cleanflight/lib/main/XMC4000/XMCLib/inc\xmc_dac.h ****  */
 876:D:/XMC/Projekte/Temp/CF_XMC4700/cleanflight/lib/main/XMC4000/XMCLib/inc\xmc_dac.h **** __STATIC_INLINE void XMC_DAC_CH_SetRampStop(XMC_DAC_t *const dac, const uint8_t channel, const uint
 877:D:/XMC/Projekte/Temp/CF_XMC4700/cleanflight/lib/main/XMC4000/XMCLib/inc\xmc_dac.h **** {
 249              	 .loc 1 877 0
 250              	 .cfi_startproc
 251              	 
 252              	 
 253              	 
 254 0000 80B4     	 push {r7}
 255              	.LCFI24:
 256              	 .cfi_def_cfa_offset 4
 257              	 .cfi_offset 7,-4
 258 0002 83B0     	 sub sp,sp,#12
 259              	.LCFI25:
 260              	 .cfi_def_cfa_offset 16
 261 0004 00AF     	 add r7,sp,#0
 262              	.LCFI26:
 263              	 .cfi_def_cfa_register 7
 264 0006 7860     	 str r0,[r7,#4]
 265 0008 0B46     	 mov r3,r1
 266 000a FB70     	 strb r3,[r7,#3]
 267 000c 1346     	 mov r3,r2
 268 000e 3B80     	 strh r3,[r7]
 878:D:/XMC/Projekte/Temp/CF_XMC4700/cleanflight/lib/main/XMC4000/XMCLib/inc\xmc_dac.h ****   XMC_ASSERT("XMC_DAC_CH_SetRampStop: dac parameter not valid\n", XMC_DAC_IS_DAC_VALID(dac));
 879:D:/XMC/Projekte/Temp/CF_XMC4700/cleanflight/lib/main/XMC4000/XMCLib/inc\xmc_dac.h ****   XMC_ASSERT("XMC_DAC_CH_SetRampStop: channel parameter not valid\n", XMC_DAC_IS_CHANNEL_VALID(chan
 880:D:/XMC/Projekte/Temp/CF_XMC4700/cleanflight/lib/main/XMC4000/XMCLib/inc\xmc_dac.h ****     
 881:D:/XMC/Projekte/Temp/CF_XMC4700/cleanflight/lib/main/XMC4000/XMCLib/inc\xmc_dac.h ****   dac->DAC01DATA = (dac->DAC01DATA & ~(DAC_DAC01DATA_DATA0_Msk << (channel * DAC_DAC01DATA_DATA1_Po
 269              	 .loc 1 881 0
 270 0010 7B68     	 ldr r3,[r7,#4]
 271 0012 DA69     	 ldr r2,[r3,#28]
 272 0014 FB78     	 ldrb r3,[r7,#3]
 273 0016 1B01     	 lsls r3,r3,#4
 274 0018 1946     	 mov r1,r3
 275 001a 40F6FF73 	 movw r3,#4095
 276 001e 8B40     	 lsls r3,r3,r1
 277 0020 DB43     	 mvns r3,r3
 278 0022 1340     	 ands r3,r3,r2
 882:D:/XMC/Projekte/Temp/CF_XMC4700/cleanflight/lib/main/XMC4000/XMCLib/inc\xmc_dac.h ****                (stop << (channel * DAC_DAC01DATA_DATA1_Pos));
 279              	 .loc 1 882 0
 280 0024 3A88     	 ldrh r2,[r7]
 281 0026 F978     	 ldrb r1,[r7,#3]
 282 0028 0901     	 lsls r1,r1,#4
 283 002a 8A40     	 lsls r2,r2,r1
 881:D:/XMC/Projekte/Temp/CF_XMC4700/cleanflight/lib/main/XMC4000/XMCLib/inc\xmc_dac.h ****                (stop << (channel * DAC_DAC01DATA_DATA1_Pos));
 284              	 .loc 1 881 0
 285 002c 1A43     	 orrs r2,r2,r3
 286 002e 7B68     	 ldr r3,[r7,#4]
 287 0030 D969     	 ldr r1,[r3,#28]
 288 0032 0021     	 movs r1,#0
 289 0034 0A43     	 orrs r2,r2,r1
 290 0036 DA61     	 str r2,[r3,#28]
 883:D:/XMC/Projekte/Temp/CF_XMC4700/cleanflight/lib/main/XMC4000/XMCLib/inc\xmc_dac.h **** }
 291              	 .loc 1 883 0
 292 0038 0C37     	 adds r7,r7,#12
 293              	.LCFI27:
 294              	 .cfi_def_cfa_offset 4
 295 003a BD46     	 mov sp,r7
 296              	.LCFI28:
 297              	 .cfi_def_cfa_register 13
 298              	 
 299 003c 5DF8047B 	 ldr r7,[sp],#4
 300              	.LCFI29:
 301              	 .cfi_restore 7
 302              	 .cfi_def_cfa_offset 0
 303 0040 7047     	 bx lr
 304              	 .cfi_endproc
 305              	.LFE146:
 307 0042 00BF     	 .section .text.XMC_DAC_CH_SetTrigger,"ax",%progbits
 308              	 .align 2
 309              	 .thumb
 310              	 .thumb_func
 312              	XMC_DAC_CH_SetTrigger:
 313              	.LFB148:
 884:D:/XMC/Projekte/Temp/CF_XMC4700/cleanflight/lib/main/XMC4000/XMCLib/inc\xmc_dac.h **** 
 885:D:/XMC/Projekte/Temp/CF_XMC4700/cleanflight/lib/main/XMC4000/XMCLib/inc\xmc_dac.h **** /**
 886:D:/XMC/Projekte/Temp/CF_XMC4700/cleanflight/lib/main/XMC4000/XMCLib/inc\xmc_dac.h ****  * @param dac Pointer to an instance of DAC module
 887:D:/XMC/Projekte/Temp/CF_XMC4700/cleanflight/lib/main/XMC4000/XMCLib/inc\xmc_dac.h ****  * @param channel DAC channel number
 888:D:/XMC/Projekte/Temp/CF_XMC4700/cleanflight/lib/main/XMC4000/XMCLib/inc\xmc_dac.h ****  *
 889:D:/XMC/Projekte/Temp/CF_XMC4700/cleanflight/lib/main/XMC4000/XMCLib/inc\xmc_dac.h ****  * @return uint16_t
 890:D:/XMC/Projekte/Temp/CF_XMC4700/cleanflight/lib/main/XMC4000/XMCLib/inc\xmc_dac.h ****  *
 891:D:/XMC/Projekte/Temp/CF_XMC4700/cleanflight/lib/main/XMC4000/XMCLib/inc\xmc_dac.h ****  * \par<b>Description:</b><br>
 892:D:/XMC/Projekte/Temp/CF_XMC4700/cleanflight/lib/main/XMC4000/XMCLib/inc\xmc_dac.h ****  * Gets the ramp stop value by reading \a DATA0 bit-field of \a DAC01DATA register (for channel 0) 
 893:D:/XMC/Projekte/Temp/CF_XMC4700/cleanflight/lib/main/XMC4000/XMCLib/inc\xmc_dac.h ****  * If the ramp counter reaches its stop value, it restarts from the start value with the next trigg
 894:D:/XMC/Projekte/Temp/CF_XMC4700/cleanflight/lib/main/XMC4000/XMCLib/inc\xmc_dac.h ****  *
 895:D:/XMC/Projekte/Temp/CF_XMC4700/cleanflight/lib/main/XMC4000/XMCLib/inc\xmc_dac.h ****  * \par<b>Note:</b><br>
 896:D:/XMC/Projekte/Temp/CF_XMC4700/cleanflight/lib/main/XMC4000/XMCLib/inc\xmc_dac.h ****  * Call this API if the \e channel is set to Ramp mode.
 897:D:/XMC/Projekte/Temp/CF_XMC4700/cleanflight/lib/main/XMC4000/XMCLib/inc\xmc_dac.h ****  *
 898:D:/XMC/Projekte/Temp/CF_XMC4700/cleanflight/lib/main/XMC4000/XMCLib/inc\xmc_dac.h ****  * \par<b>Related APIs:</b><BR>
 899:D:/XMC/Projekte/Temp/CF_XMC4700/cleanflight/lib/main/XMC4000/XMCLib/inc\xmc_dac.h ****  * XMC_DAC_CH_SetRampStop(), XMC_DAC_CH_StartRampMode(), XMC_DAC_CH_GetRampStart()\n\n\n
 900:D:/XMC/Projekte/Temp/CF_XMC4700/cleanflight/lib/main/XMC4000/XMCLib/inc\xmc_dac.h ****  *
 901:D:/XMC/Projekte/Temp/CF_XMC4700/cleanflight/lib/main/XMC4000/XMCLib/inc\xmc_dac.h ****  */
 902:D:/XMC/Projekte/Temp/CF_XMC4700/cleanflight/lib/main/XMC4000/XMCLib/inc\xmc_dac.h **** __STATIC_INLINE uint16_t XMC_DAC_CH_GetRampStop(XMC_DAC_t *const dac, const uint8_t channel)
 903:D:/XMC/Projekte/Temp/CF_XMC4700/cleanflight/lib/main/XMC4000/XMCLib/inc\xmc_dac.h **** {
 904:D:/XMC/Projekte/Temp/CF_XMC4700/cleanflight/lib/main/XMC4000/XMCLib/inc\xmc_dac.h ****   XMC_ASSERT("XMC_DAC_CH_GetRampStop: dac parameter not valid\n", XMC_DAC_IS_DAC_VALID(dac));
 905:D:/XMC/Projekte/Temp/CF_XMC4700/cleanflight/lib/main/XMC4000/XMCLib/inc\xmc_dac.h ****   XMC_ASSERT("XMC_DAC_CH_GetRampStop: channel parameter not valid\n", XMC_DAC_IS_CHANNEL_VALID(chan
 906:D:/XMC/Projekte/Temp/CF_XMC4700/cleanflight/lib/main/XMC4000/XMCLib/inc\xmc_dac.h **** 
 907:D:/XMC/Projekte/Temp/CF_XMC4700/cleanflight/lib/main/XMC4000/XMCLib/inc\xmc_dac.h ****   return((dac->DAC01DATA >> (channel * DAC_DAC01DATA_DATA1_Pos)) & DAC_DAC01DATA_DATA0_Msk);
 908:D:/XMC/Projekte/Temp/CF_XMC4700/cleanflight/lib/main/XMC4000/XMCLib/inc\xmc_dac.h **** }
 909:D:/XMC/Projekte/Temp/CF_XMC4700/cleanflight/lib/main/XMC4000/XMCLib/inc\xmc_dac.h **** 
 910:D:/XMC/Projekte/Temp/CF_XMC4700/cleanflight/lib/main/XMC4000/XMCLib/inc\xmc_dac.h **** /**
 911:D:/XMC/Projekte/Temp/CF_XMC4700/cleanflight/lib/main/XMC4000/XMCLib/inc\xmc_dac.h ****  * @param dac Pointer to an instance of DAC module
 912:D:/XMC/Projekte/Temp/CF_XMC4700/cleanflight/lib/main/XMC4000/XMCLib/inc\xmc_dac.h ****  * @param channel DAC channel number
 913:D:/XMC/Projekte/Temp/CF_XMC4700/cleanflight/lib/main/XMC4000/XMCLib/inc\xmc_dac.h ****  * @param trigger Trigger source
 914:D:/XMC/Projekte/Temp/CF_XMC4700/cleanflight/lib/main/XMC4000/XMCLib/inc\xmc_dac.h ****  *
 915:D:/XMC/Projekte/Temp/CF_XMC4700/cleanflight/lib/main/XMC4000/XMCLib/inc\xmc_dac.h ****  * @return None
 916:D:/XMC/Projekte/Temp/CF_XMC4700/cleanflight/lib/main/XMC4000/XMCLib/inc\xmc_dac.h ****  *
 917:D:/XMC/Projekte/Temp/CF_XMC4700/cleanflight/lib/main/XMC4000/XMCLib/inc\xmc_dac.h ****  * \par<b>Description:</b><br>
 918:D:/XMC/Projekte/Temp/CF_XMC4700/cleanflight/lib/main/XMC4000/XMCLib/inc\xmc_dac.h ****  * Selects the \e trigger source for the \e channel by configuring the bits TRIGSEL & TRIGMOD of CF
 919:D:/XMC/Projekte/Temp/CF_XMC4700/cleanflight/lib/main/XMC4000/XMCLib/inc\xmc_dac.h ****  *
 920:D:/XMC/Projekte/Temp/CF_XMC4700/cleanflight/lib/main/XMC4000/XMCLib/inc\xmc_dac.h ****  * \par
 921:D:/XMC/Projekte/Temp/CF_XMC4700/cleanflight/lib/main/XMC4000/XMCLib/inc\xmc_dac.h ****  * Channel \a channel trigger source is selected by \a TRIGSEL bit-field of \a DAC0CFG1 register (f
 922:D:/XMC/Projekte/Temp/CF_XMC4700/cleanflight/lib/main/XMC4000/XMCLib/inc\xmc_dac.h ****  *
 923:D:/XMC/Projekte/Temp/CF_XMC4700/cleanflight/lib/main/XMC4000/XMCLib/inc\xmc_dac.h ****  */
 924:D:/XMC/Projekte/Temp/CF_XMC4700/cleanflight/lib/main/XMC4000/XMCLib/inc\xmc_dac.h **** __STATIC_INLINE void XMC_DAC_CH_SetTrigger(XMC_DAC_t *const dac, const uint8_t channel, const XMC_D
 925:D:/XMC/Projekte/Temp/CF_XMC4700/cleanflight/lib/main/XMC4000/XMCLib/inc\xmc_dac.h **** {
 314              	 .loc 1 925 0
 315              	 .cfi_startproc
 316              	 
 317              	 
 318              	 
 319 0000 80B4     	 push {r7}
 320              	.LCFI30:
 321              	 .cfi_def_cfa_offset 4
 322              	 .cfi_offset 7,-4
 323 0002 85B0     	 sub sp,sp,#20
 324              	.LCFI31:
 325              	 .cfi_def_cfa_offset 24
 326 0004 00AF     	 add r7,sp,#0
 327              	.LCFI32:
 328              	 .cfi_def_cfa_register 7
 329 0006 F860     	 str r0,[r7,#12]
 330 0008 0B46     	 mov r3,r1
 331 000a 7A60     	 str r2,[r7,#4]
 332 000c FB72     	 strb r3,[r7,#11]
 926:D:/XMC/Projekte/Temp/CF_XMC4700/cleanflight/lib/main/XMC4000/XMCLib/inc\xmc_dac.h ****   XMC_ASSERT("XMC_DAC_CH_SetTrigger: dac parameter not valid\n", XMC_DAC_IS_DAC_VALID(dac));
 927:D:/XMC/Projekte/Temp/CF_XMC4700/cleanflight/lib/main/XMC4000/XMCLib/inc\xmc_dac.h ****   XMC_ASSERT("XMC_DAC_CH_SetTrigger: channel parameter not valid\n", XMC_DAC_IS_CHANNEL_VALID(chann
 928:D:/XMC/Projekte/Temp/CF_XMC4700/cleanflight/lib/main/XMC4000/XMCLib/inc\xmc_dac.h ****   XMC_ASSERT("XMC_DAC_CH_SetTrigger: trigger parameter not valid\n", XMC_DAC_IS_TRIGGER_VALID(trigg
 929:D:/XMC/Projekte/Temp/CF_XMC4700/cleanflight/lib/main/XMC4000/XMCLib/inc\xmc_dac.h **** 
 930:D:/XMC/Projekte/Temp/CF_XMC4700/cleanflight/lib/main/XMC4000/XMCLib/inc\xmc_dac.h ****   dac->DACCFG[channel].high = (dac->DACCFG[channel].high & ~(DAC_DAC0CFG1_TRIGSEL_Msk | DAC_DAC0CFG
 333              	 .loc 1 930 0
 334 000e F87A     	 ldrb r0,[r7,#11]
 335 0010 FB7A     	 ldrb r3,[r7,#11]
 336 0012 FA68     	 ldr r2,[r7,#12]
 337 0014 DB00     	 lsls r3,r3,#3
 338 0016 1344     	 add r3,r3,r2
 339 0018 9B68     	 ldr r3,[r3,#8]
 340 001a 23F4CE22 	 bic r2,r3,#421888
 341 001e 7B68     	 ldr r3,[r7,#4]
 342 0020 1A43     	 orrs r2,r2,r3
 343 0022 F968     	 ldr r1,[r7,#12]
 344 0024 C300     	 lsls r3,r0,#3
 345 0026 0B44     	 add r3,r3,r1
 346 0028 9968     	 ldr r1,[r3,#8]
 347 002a 0021     	 movs r1,#0
 348 002c 0A43     	 orrs r2,r2,r1
 349 002e 9A60     	 str r2,[r3,#8]
 931:D:/XMC/Projekte/Temp/CF_XMC4700/cleanflight/lib/main/XMC4000/XMCLib/inc\xmc_dac.h ****                               trigger;
 932:D:/XMC/Projekte/Temp/CF_XMC4700/cleanflight/lib/main/XMC4000/XMCLib/inc\xmc_dac.h **** }
 350              	 .loc 1 932 0
 351 0030 1437     	 adds r7,r7,#20
 352              	.LCFI33:
 353              	 .cfi_def_cfa_offset 4
 354 0032 BD46     	 mov sp,r7
 355              	.LCFI34:
 356              	 .cfi_def_cfa_register 13
 357              	 
 358 0034 5DF8047B 	 ldr r7,[sp],#4
 359              	.LCFI35:
 360              	 .cfi_restore 7
 361              	 .cfi_def_cfa_offset 0
 362 0038 7047     	 bx lr
 363              	 .cfi_endproc
 364              	.LFE148:
 366 003a 00BF     	 .section .text.XMC_DAC_CH_SetMode,"ax",%progbits
 367              	 .align 2
 368              	 .thumb
 369              	 .thumb_func
 371              	XMC_DAC_CH_SetMode:
 372              	.LFB150:
 933:D:/XMC/Projekte/Temp/CF_XMC4700/cleanflight/lib/main/XMC4000/XMCLib/inc\xmc_dac.h **** 
 934:D:/XMC/Projekte/Temp/CF_XMC4700/cleanflight/lib/main/XMC4000/XMCLib/inc\xmc_dac.h **** /**
 935:D:/XMC/Projekte/Temp/CF_XMC4700/cleanflight/lib/main/XMC4000/XMCLib/inc\xmc_dac.h ****  * @param dac Pointer to an instance of DAC module
 936:D:/XMC/Projekte/Temp/CF_XMC4700/cleanflight/lib/main/XMC4000/XMCLib/inc\xmc_dac.h ****  * @param channel DAC channel number
 937:D:/XMC/Projekte/Temp/CF_XMC4700/cleanflight/lib/main/XMC4000/XMCLib/inc\xmc_dac.h ****  * @param frequency Waveform frequency in [Hz]
 938:D:/XMC/Projekte/Temp/CF_XMC4700/cleanflight/lib/main/XMC4000/XMCLib/inc\xmc_dac.h ****  *
 939:D:/XMC/Projekte/Temp/CF_XMC4700/cleanflight/lib/main/XMC4000/XMCLib/inc\xmc_dac.h ****  * @return XMC_DAC_CH_STATUS_t
 940:D:/XMC/Projekte/Temp/CF_XMC4700/cleanflight/lib/main/XMC4000/XMCLib/inc\xmc_dac.h ****  *
 941:D:/XMC/Projekte/Temp/CF_XMC4700/cleanflight/lib/main/XMC4000/XMCLib/inc\xmc_dac.h ****  * \par<b>Description:</b><br>
 942:D:/XMC/Projekte/Temp/CF_XMC4700/cleanflight/lib/main/XMC4000/XMCLib/inc\xmc_dac.h ****  * Sets the \e frequency of DAC channel.
 943:D:/XMC/Projekte/Temp/CF_XMC4700/cleanflight/lib/main/XMC4000/XMCLib/inc\xmc_dac.h ****  *
 944:D:/XMC/Projekte/Temp/CF_XMC4700/cleanflight/lib/main/XMC4000/XMCLib/inc\xmc_dac.h ****  * \par
 945:D:/XMC/Projekte/Temp/CF_XMC4700/cleanflight/lib/main/XMC4000/XMCLib/inc\xmc_dac.h ****  * The value \e frequency acts as clock divider. The smallest \e frequency divider value is 16.
 946:D:/XMC/Projekte/Temp/CF_XMC4700/cleanflight/lib/main/XMC4000/XMCLib/inc\xmc_dac.h ****  * A valid \e frequency value should be within the range XMC_DAC_MIN_FREQ_DIVIDER to XMC_DAC_MAX_FR
 947:D:/XMC/Projekte/Temp/CF_XMC4700/cleanflight/lib/main/XMC4000/XMCLib/inc\xmc_dac.h ****  * Frequency \a frequency is configured by setting \a FREQ bit-field of \a DAC0CFG0 register (for c
 948:D:/XMC/Projekte/Temp/CF_XMC4700/cleanflight/lib/main/XMC4000/XMCLib/inc\xmc_dac.h ****  *
 949:D:/XMC/Projekte/Temp/CF_XMC4700/cleanflight/lib/main/XMC4000/XMCLib/inc\xmc_dac.h ****  * \par<b>Note:</b><br>
 950:D:/XMC/Projekte/Temp/CF_XMC4700/cleanflight/lib/main/XMC4000/XMCLib/inc\xmc_dac.h ****  * Call this API only for Single value mode, Data mode and Noise mode.
 951:D:/XMC/Projekte/Temp/CF_XMC4700/cleanflight/lib/main/XMC4000/XMCLib/inc\xmc_dac.h ****  * Call XMC_DAC_CH_SetRampFrequency() in case of Ramp mode and XMC_DAC_CH_SetPatternFrequency() in 
 952:D:/XMC/Projekte/Temp/CF_XMC4700/cleanflight/lib/main/XMC4000/XMCLib/inc\xmc_dac.h ****  *
 953:D:/XMC/Projekte/Temp/CF_XMC4700/cleanflight/lib/main/XMC4000/XMCLib/inc\xmc_dac.h ****  * \par<b>Related APIs:</b><BR>
 954:D:/XMC/Projekte/Temp/CF_XMC4700/cleanflight/lib/main/XMC4000/XMCLib/inc\xmc_dac.h ****  * XMC_DAC_CH_SetRampFrequency(), XMC_DAC_CH_SetPatternFrequency()\n\n\n
 955:D:/XMC/Projekte/Temp/CF_XMC4700/cleanflight/lib/main/XMC4000/XMCLib/inc\xmc_dac.h ****  *
 956:D:/XMC/Projekte/Temp/CF_XMC4700/cleanflight/lib/main/XMC4000/XMCLib/inc\xmc_dac.h ****  */
 957:D:/XMC/Projekte/Temp/CF_XMC4700/cleanflight/lib/main/XMC4000/XMCLib/inc\xmc_dac.h **** XMC_DAC_CH_STATUS_t XMC_DAC_CH_SetFrequency(XMC_DAC_t *const dac, const uint8_t channel, const uint
 958:D:/XMC/Projekte/Temp/CF_XMC4700/cleanflight/lib/main/XMC4000/XMCLib/inc\xmc_dac.h **** 
 959:D:/XMC/Projekte/Temp/CF_XMC4700/cleanflight/lib/main/XMC4000/XMCLib/inc\xmc_dac.h **** /**
 960:D:/XMC/Projekte/Temp/CF_XMC4700/cleanflight/lib/main/XMC4000/XMCLib/inc\xmc_dac.h ****  * @param dac Pointer to an instance of DAC module
 961:D:/XMC/Projekte/Temp/CF_XMC4700/cleanflight/lib/main/XMC4000/XMCLib/inc\xmc_dac.h ****  * @param channel DAC channel number
 962:D:/XMC/Projekte/Temp/CF_XMC4700/cleanflight/lib/main/XMC4000/XMCLib/inc\xmc_dac.h ****  * @param frequency [Hz]
 963:D:/XMC/Projekte/Temp/CF_XMC4700/cleanflight/lib/main/XMC4000/XMCLib/inc\xmc_dac.h ****  *
 964:D:/XMC/Projekte/Temp/CF_XMC4700/cleanflight/lib/main/XMC4000/XMCLib/inc\xmc_dac.h ****  * @return XMC_DAC_CH_STATUS_t
 965:D:/XMC/Projekte/Temp/CF_XMC4700/cleanflight/lib/main/XMC4000/XMCLib/inc\xmc_dac.h ****  *
 966:D:/XMC/Projekte/Temp/CF_XMC4700/cleanflight/lib/main/XMC4000/XMCLib/inc\xmc_dac.h ****  * \par<b>Description:</b><br>
 967:D:/XMC/Projekte/Temp/CF_XMC4700/cleanflight/lib/main/XMC4000/XMCLib/inc\xmc_dac.h ****  * Sets the \e frequency of DAC channel by calling XMC_DAC_CH_SetFrequency().
 968:D:/XMC/Projekte/Temp/CF_XMC4700/cleanflight/lib/main/XMC4000/XMCLib/inc\xmc_dac.h ****  *
 969:D:/XMC/Projekte/Temp/CF_XMC4700/cleanflight/lib/main/XMC4000/XMCLib/inc\xmc_dac.h ****  * \par
 970:D:/XMC/Projekte/Temp/CF_XMC4700/cleanflight/lib/main/XMC4000/XMCLib/inc\xmc_dac.h ****  * For the Ramp mode, the \a frequency of operation depends on the total number of sample points (\
 971:D:/XMC/Projekte/Temp/CF_XMC4700/cleanflight/lib/main/XMC4000/XMCLib/inc\xmc_dac.h ****  * Frequency \e frequency is multiplied by the total number of sample points, so that each trigger 
 972:D:/XMC/Projekte/Temp/CF_XMC4700/cleanflight/lib/main/XMC4000/XMCLib/inc\xmc_dac.h ****  *
 973:D:/XMC/Projekte/Temp/CF_XMC4700/cleanflight/lib/main/XMC4000/XMCLib/inc\xmc_dac.h ****  * \par<b>Note:</b><br>
 974:D:/XMC/Projekte/Temp/CF_XMC4700/cleanflight/lib/main/XMC4000/XMCLib/inc\xmc_dac.h ****  * Call this API only if the \a channel is set to Ramp mode.
 975:D:/XMC/Projekte/Temp/CF_XMC4700/cleanflight/lib/main/XMC4000/XMCLib/inc\xmc_dac.h ****  *
 976:D:/XMC/Projekte/Temp/CF_XMC4700/cleanflight/lib/main/XMC4000/XMCLib/inc\xmc_dac.h ****  * \par<b>Related APIs:</b><BR>
 977:D:/XMC/Projekte/Temp/CF_XMC4700/cleanflight/lib/main/XMC4000/XMCLib/inc\xmc_dac.h ****  * XMC_DAC_CH_StartRampMode()\n\n\n
 978:D:/XMC/Projekte/Temp/CF_XMC4700/cleanflight/lib/main/XMC4000/XMCLib/inc\xmc_dac.h ****  *
 979:D:/XMC/Projekte/Temp/CF_XMC4700/cleanflight/lib/main/XMC4000/XMCLib/inc\xmc_dac.h ****  */
 980:D:/XMC/Projekte/Temp/CF_XMC4700/cleanflight/lib/main/XMC4000/XMCLib/inc\xmc_dac.h **** XMC_DAC_CH_STATUS_t XMC_DAC_CH_SetRampFrequency(XMC_DAC_t *const dac, const uint8_t channel, const 
 981:D:/XMC/Projekte/Temp/CF_XMC4700/cleanflight/lib/main/XMC4000/XMCLib/inc\xmc_dac.h **** 
 982:D:/XMC/Projekte/Temp/CF_XMC4700/cleanflight/lib/main/XMC4000/XMCLib/inc\xmc_dac.h **** /**
 983:D:/XMC/Projekte/Temp/CF_XMC4700/cleanflight/lib/main/XMC4000/XMCLib/inc\xmc_dac.h ****  * @param dac Pointer to an instance of DAC module
 984:D:/XMC/Projekte/Temp/CF_XMC4700/cleanflight/lib/main/XMC4000/XMCLib/inc\xmc_dac.h ****  * @param channel DAC channel number
 985:D:/XMC/Projekte/Temp/CF_XMC4700/cleanflight/lib/main/XMC4000/XMCLib/inc\xmc_dac.h ****  * @param frequency in [Hz]
 986:D:/XMC/Projekte/Temp/CF_XMC4700/cleanflight/lib/main/XMC4000/XMCLib/inc\xmc_dac.h ****  *
 987:D:/XMC/Projekte/Temp/CF_XMC4700/cleanflight/lib/main/XMC4000/XMCLib/inc\xmc_dac.h ****  * @return XMC_DAC_CH_STATUS_t
 988:D:/XMC/Projekte/Temp/CF_XMC4700/cleanflight/lib/main/XMC4000/XMCLib/inc\xmc_dac.h ****  *
 989:D:/XMC/Projekte/Temp/CF_XMC4700/cleanflight/lib/main/XMC4000/XMCLib/inc\xmc_dac.h ****  * \par<b>Description:</b><br>
 990:D:/XMC/Projekte/Temp/CF_XMC4700/cleanflight/lib/main/XMC4000/XMCLib/inc\xmc_dac.h ****  * Sets the \e frequency of DAC channel by calling XMC_DAC_CH_SetFrequency().
 991:D:/XMC/Projekte/Temp/CF_XMC4700/cleanflight/lib/main/XMC4000/XMCLib/inc\xmc_dac.h ****  *
 992:D:/XMC/Projekte/Temp/CF_XMC4700/cleanflight/lib/main/XMC4000/XMCLib/inc\xmc_dac.h ****  * \par
 993:D:/XMC/Projekte/Temp/CF_XMC4700/cleanflight/lib/main/XMC4000/XMCLib/inc\xmc_dac.h ****  * For the Pattern mode, the \a frequency of operation depends on the total number of sample points
 994:D:/XMC/Projekte/Temp/CF_XMC4700/cleanflight/lib/main/XMC4000/XMCLib/inc\xmc_dac.h ****  * Frequency \e frequency is multiplied by the total number of sample points, so that each trigger 
 995:D:/XMC/Projekte/Temp/CF_XMC4700/cleanflight/lib/main/XMC4000/XMCLib/inc\xmc_dac.h ****  *
 996:D:/XMC/Projekte/Temp/CF_XMC4700/cleanflight/lib/main/XMC4000/XMCLib/inc\xmc_dac.h ****  * \par<b>Note:</b><br>
 997:D:/XMC/Projekte/Temp/CF_XMC4700/cleanflight/lib/main/XMC4000/XMCLib/inc\xmc_dac.h ****  * Call this API only if the \a channel is set to Pattern mode.
 998:D:/XMC/Projekte/Temp/CF_XMC4700/cleanflight/lib/main/XMC4000/XMCLib/inc\xmc_dac.h ****  *
 999:D:/XMC/Projekte/Temp/CF_XMC4700/cleanflight/lib/main/XMC4000/XMCLib/inc\xmc_dac.h ****  * \par<b>Related APIs:</b><BR>
1000:D:/XMC/Projekte/Temp/CF_XMC4700/cleanflight/lib/main/XMC4000/XMCLib/inc\xmc_dac.h ****  * XMC_DAC_CH_StartPatternMode()\n\n\n
1001:D:/XMC/Projekte/Temp/CF_XMC4700/cleanflight/lib/main/XMC4000/XMCLib/inc\xmc_dac.h ****  *
1002:D:/XMC/Projekte/Temp/CF_XMC4700/cleanflight/lib/main/XMC4000/XMCLib/inc\xmc_dac.h ****  */
1003:D:/XMC/Projekte/Temp/CF_XMC4700/cleanflight/lib/main/XMC4000/XMCLib/inc\xmc_dac.h **** __STATIC_INLINE XMC_DAC_CH_STATUS_t XMC_DAC_CH_SetPatternFrequency(XMC_DAC_t *const dac,
1004:D:/XMC/Projekte/Temp/CF_XMC4700/cleanflight/lib/main/XMC4000/XMCLib/inc\xmc_dac.h ****                                                                    const uint8_t channel,
1005:D:/XMC/Projekte/Temp/CF_XMC4700/cleanflight/lib/main/XMC4000/XMCLib/inc\xmc_dac.h ****                                                                    const uint32_t frequency)
1006:D:/XMC/Projekte/Temp/CF_XMC4700/cleanflight/lib/main/XMC4000/XMCLib/inc\xmc_dac.h **** {
1007:D:/XMC/Projekte/Temp/CF_XMC4700/cleanflight/lib/main/XMC4000/XMCLib/inc\xmc_dac.h ****   XMC_ASSERT("XMC_DAC_CH_SetPatternFrequency: dac parameter not valid\n", XMC_DAC_IS_DAC_VALID(dac)
1008:D:/XMC/Projekte/Temp/CF_XMC4700/cleanflight/lib/main/XMC4000/XMCLib/inc\xmc_dac.h ****   XMC_ASSERT("XMC_DAC_CH_SetPatternFrequency: channel parameter not valid\n", XMC_DAC_IS_CHANNEL_VA
1009:D:/XMC/Projekte/Temp/CF_XMC4700/cleanflight/lib/main/XMC4000/XMCLib/inc\xmc_dac.h **** 
1010:D:/XMC/Projekte/Temp/CF_XMC4700/cleanflight/lib/main/XMC4000/XMCLib/inc\xmc_dac.h ****   return XMC_DAC_CH_SetFrequency(dac, channel, frequency * XMC_DAC_SAMPLES_PER_PERIOD);
1011:D:/XMC/Projekte/Temp/CF_XMC4700/cleanflight/lib/main/XMC4000/XMCLib/inc\xmc_dac.h **** }
1012:D:/XMC/Projekte/Temp/CF_XMC4700/cleanflight/lib/main/XMC4000/XMCLib/inc\xmc_dac.h **** 
1013:D:/XMC/Projekte/Temp/CF_XMC4700/cleanflight/lib/main/XMC4000/XMCLib/inc\xmc_dac.h **** /**
1014:D:/XMC/Projekte/Temp/CF_XMC4700/cleanflight/lib/main/XMC4000/XMCLib/inc\xmc_dac.h ****  * @param dac Pointer to an instance of DAC module
1015:D:/XMC/Projekte/Temp/CF_XMC4700/cleanflight/lib/main/XMC4000/XMCLib/inc\xmc_dac.h ****  * @param channel DAC channel number
1016:D:/XMC/Projekte/Temp/CF_XMC4700/cleanflight/lib/main/XMC4000/XMCLib/inc\xmc_dac.h ****  * @param mode DAC operation mode
1017:D:/XMC/Projekte/Temp/CF_XMC4700/cleanflight/lib/main/XMC4000/XMCLib/inc\xmc_dac.h ****  *
1018:D:/XMC/Projekte/Temp/CF_XMC4700/cleanflight/lib/main/XMC4000/XMCLib/inc\xmc_dac.h ****  * @return None
1019:D:/XMC/Projekte/Temp/CF_XMC4700/cleanflight/lib/main/XMC4000/XMCLib/inc\xmc_dac.h ****  *
1020:D:/XMC/Projekte/Temp/CF_XMC4700/cleanflight/lib/main/XMC4000/XMCLib/inc\xmc_dac.h ****  * \par<b>Description:</b><br>
1021:D:/XMC/Projekte/Temp/CF_XMC4700/cleanflight/lib/main/XMC4000/XMCLib/inc\xmc_dac.h ****  * Sets the operating \e mode for the \e channel by setting the \a MODE bit-field of \a DAC0CFG0 re
1022:D:/XMC/Projekte/Temp/CF_XMC4700/cleanflight/lib/main/XMC4000/XMCLib/inc\xmc_dac.h ****  * Different modes of DAC operation are defined by enum XMC_DAC_CH_MODE_t.
1023:D:/XMC/Projekte/Temp/CF_XMC4700/cleanflight/lib/main/XMC4000/XMCLib/inc\xmc_dac.h ****  *
1024:D:/XMC/Projekte/Temp/CF_XMC4700/cleanflight/lib/main/XMC4000/XMCLib/inc\xmc_dac.h ****  */
1025:D:/XMC/Projekte/Temp/CF_XMC4700/cleanflight/lib/main/XMC4000/XMCLib/inc\xmc_dac.h **** __STATIC_INLINE void XMC_DAC_CH_SetMode(XMC_DAC_t *const dac, const uint8_t channel, const XMC_DAC_
1026:D:/XMC/Projekte/Temp/CF_XMC4700/cleanflight/lib/main/XMC4000/XMCLib/inc\xmc_dac.h **** {
 373              	 .loc 1 1026 0
 374              	 .cfi_startproc
 375              	 
 376              	 
 377              	 
 378 0000 80B4     	 push {r7}
 379              	.LCFI36:
 380              	 .cfi_def_cfa_offset 4
 381              	 .cfi_offset 7,-4
 382 0002 85B0     	 sub sp,sp,#20
 383              	.LCFI37:
 384              	 .cfi_def_cfa_offset 24
 385 0004 00AF     	 add r7,sp,#0
 386              	.LCFI38:
 387              	 .cfi_def_cfa_register 7
 388 0006 F860     	 str r0,[r7,#12]
 389 0008 0B46     	 mov r3,r1
 390 000a 7A60     	 str r2,[r7,#4]
 391 000c FB72     	 strb r3,[r7,#11]
1027:D:/XMC/Projekte/Temp/CF_XMC4700/cleanflight/lib/main/XMC4000/XMCLib/inc\xmc_dac.h ****   XMC_ASSERT("XMC_DAC_CH_SetMode: dac parameter not valid\n", XMC_DAC_IS_DAC_VALID(dac));
1028:D:/XMC/Projekte/Temp/CF_XMC4700/cleanflight/lib/main/XMC4000/XMCLib/inc\xmc_dac.h ****   XMC_ASSERT("XMC_DAC_CH_SetMode: channel parameter not valid\n", XMC_DAC_IS_CHANNEL_VALID(channel)
1029:D:/XMC/Projekte/Temp/CF_XMC4700/cleanflight/lib/main/XMC4000/XMCLib/inc\xmc_dac.h ****   XMC_ASSERT("XMC_DAC_CH_SetMode: trigger parameter not valid\n", XMC_DAC_IS_MODE_VALID(mode));
1030:D:/XMC/Projekte/Temp/CF_XMC4700/cleanflight/lib/main/XMC4000/XMCLib/inc\xmc_dac.h ****     
1031:D:/XMC/Projekte/Temp/CF_XMC4700/cleanflight/lib/main/XMC4000/XMCLib/inc\xmc_dac.h ****   dac->DACCFG[channel].low = (dac->DACCFG[channel].low & ~DAC_DAC0CFG0_MODE_Msk) |
 392              	 .loc 1 1031 0
 393 000e F87A     	 ldrb r0,[r7,#11]
 394 0010 FB7A     	 ldrb r3,[r7,#11]
 395 0012 FA68     	 ldr r2,[r7,#12]
 396 0014 DB00     	 lsls r3,r3,#3
 397 0016 1344     	 add r3,r3,r2
 398 0018 5B68     	 ldr r3,[r3,#4]
 399 001a 23F4E002 	 bic r2,r3,#7340032
 400 001e 7B68     	 ldr r3,[r7,#4]
 401 0020 1A43     	 orrs r2,r2,r3
 402 0022 F968     	 ldr r1,[r7,#12]
 403 0024 C300     	 lsls r3,r0,#3
 404 0026 0B44     	 add r3,r3,r1
 405 0028 5968     	 ldr r1,[r3,#4]
 406 002a 0021     	 movs r1,#0
 407 002c 0A43     	 orrs r2,r2,r1
 408 002e 5A60     	 str r2,[r3,#4]
1032:D:/XMC/Projekte/Temp/CF_XMC4700/cleanflight/lib/main/XMC4000/XMCLib/inc\xmc_dac.h ****                              mode;
1033:D:/XMC/Projekte/Temp/CF_XMC4700/cleanflight/lib/main/XMC4000/XMCLib/inc\xmc_dac.h **** }
 409              	 .loc 1 1033 0
 410 0030 1437     	 adds r7,r7,#20
 411              	.LCFI39:
 412              	 .cfi_def_cfa_offset 4
 413 0032 BD46     	 mov sp,r7
 414              	.LCFI40:
 415              	 .cfi_def_cfa_register 13
 416              	 
 417 0034 5DF8047B 	 ldr r7,[sp],#4
 418              	.LCFI41:
 419              	 .cfi_restore 7
 420              	 .cfi_def_cfa_offset 0
 421 0038 7047     	 bx lr
 422              	 .cfi_endproc
 423              	.LFE150:
 425 003a 00BF     	 .section .text.XMC_DAC_Enable,"ax",%progbits
 426              	 .align 2
 427              	 .global XMC_DAC_Enable
 428              	 .thumb
 429              	 .thumb_func
 431              	XMC_DAC_Enable:
 432              	.LFB197:
 433              	 .file 2 "../cleanflight/lib/main/XMC4000/XMCLib/src/xmc_dac.c"
   1:../cleanflight/lib/main/XMC4000/XMCLib/src/xmc_dac.c **** /**
   2:../cleanflight/lib/main/XMC4000/XMCLib/src/xmc_dac.c ****  * @file xmc_dac.c
   3:../cleanflight/lib/main/XMC4000/XMCLib/src/xmc_dac.c ****  * @date 2015-06-19
   4:../cleanflight/lib/main/XMC4000/XMCLib/src/xmc_dac.c ****  *
   5:../cleanflight/lib/main/XMC4000/XMCLib/src/xmc_dac.c ****  * @cond
   6:../cleanflight/lib/main/XMC4000/XMCLib/src/xmc_dac.c ****  **********************************************************************************
   7:../cleanflight/lib/main/XMC4000/XMCLib/src/xmc_dac.c ****  * XMClib v2.1.20 - XMC Peripheral Driver Library 
   8:../cleanflight/lib/main/XMC4000/XMCLib/src/xmc_dac.c ****  *
   9:../cleanflight/lib/main/XMC4000/XMCLib/src/xmc_dac.c ****  * Copyright (c) 2015-2018, Infineon Technologies AG
  10:../cleanflight/lib/main/XMC4000/XMCLib/src/xmc_dac.c ****  * All rights reserved.                        
  11:../cleanflight/lib/main/XMC4000/XMCLib/src/xmc_dac.c ****  *                                             
  12:../cleanflight/lib/main/XMC4000/XMCLib/src/xmc_dac.c ****  * Redistribution and use in source and binary forms, with or without           
  13:../cleanflight/lib/main/XMC4000/XMCLib/src/xmc_dac.c ****  * modification,are permitted provided that the following conditions are met:   
  14:../cleanflight/lib/main/XMC4000/XMCLib/src/xmc_dac.c ****  *                                                                              
  15:../cleanflight/lib/main/XMC4000/XMCLib/src/xmc_dac.c ****  *   Redistributions of source code must retain the above copyright notice,      
  16:../cleanflight/lib/main/XMC4000/XMCLib/src/xmc_dac.c ****  *   this list of conditions and the following disclaimer.                        
  17:../cleanflight/lib/main/XMC4000/XMCLib/src/xmc_dac.c ****  * 
  18:../cleanflight/lib/main/XMC4000/XMCLib/src/xmc_dac.c ****  *   Redistributions in binary form must reproduce the above copyright notice,   
  19:../cleanflight/lib/main/XMC4000/XMCLib/src/xmc_dac.c ****  *   this list of conditions and the following disclaimer in the documentation    
  20:../cleanflight/lib/main/XMC4000/XMCLib/src/xmc_dac.c ****  *   and/or other materials provided with the distribution.                       
  21:../cleanflight/lib/main/XMC4000/XMCLib/src/xmc_dac.c ****  * 
  22:../cleanflight/lib/main/XMC4000/XMCLib/src/xmc_dac.c ****  *   Neither the name of the copyright holders nor the names of its contributors 
  23:../cleanflight/lib/main/XMC4000/XMCLib/src/xmc_dac.c ****  *   may be used to endorse or promote products derived from this software without
  24:../cleanflight/lib/main/XMC4000/XMCLib/src/xmc_dac.c ****  *   specific prior written permission.                                           
  25:../cleanflight/lib/main/XMC4000/XMCLib/src/xmc_dac.c ****  *                                                                              
  26:../cleanflight/lib/main/XMC4000/XMCLib/src/xmc_dac.c ****  * THIS SOFTWARE IS PROVIDED BY THE COPYRIGHT HOLDERS AND CONTRIBUTORS "AS IS"  
  27:../cleanflight/lib/main/XMC4000/XMCLib/src/xmc_dac.c ****  * AND ANY EXPRESS OR IMPLIED WARRANTIES, INCLUDING, BUT NOT LIMITED TO, THE    
  28:../cleanflight/lib/main/XMC4000/XMCLib/src/xmc_dac.c ****  * IMPLIED WARRANTIES OF MERCHANTABILITY AND FITNESS FOR A PARTICULAR PURPOSE   
  29:../cleanflight/lib/main/XMC4000/XMCLib/src/xmc_dac.c ****  * ARE  DISCLAIMED. IN NO EVENT SHALL THE COPYRIGHT HOLDER OR CONTRIBUTORS BE   
  30:../cleanflight/lib/main/XMC4000/XMCLib/src/xmc_dac.c ****  * LIABLE  FOR ANY DIRECT, INDIRECT, INCIDENTAL, SPECIAL, EXEMPLARY, OR         
  31:../cleanflight/lib/main/XMC4000/XMCLib/src/xmc_dac.c ****  * CONSEQUENTIAL DAMAGES (INCLUDING, BUT NOT LIMITED TO, PROCUREMENT OF         
  32:../cleanflight/lib/main/XMC4000/XMCLib/src/xmc_dac.c ****  * SUBSTITUTE GOODS OR  SERVICES; LOSS OF USE, DATA, OR PROFITS; OR BUSINESS    
  33:../cleanflight/lib/main/XMC4000/XMCLib/src/xmc_dac.c ****  * INTERRUPTION) HOWEVER CAUSED AND ON ANY THEORY OF LIABILITY, WHETHER IN      
  34:../cleanflight/lib/main/XMC4000/XMCLib/src/xmc_dac.c ****  * CONTRACT, STRICT LIABILITY,OR TORT (INCLUDING NEGLIGENCE OR OTHERWISE)       
  35:../cleanflight/lib/main/XMC4000/XMCLib/src/xmc_dac.c ****  * ARISING IN ANY WAY OUT OF THE USE OF THIS SOFTWARE, EVEN IF ADVISED OF THE   
  36:../cleanflight/lib/main/XMC4000/XMCLib/src/xmc_dac.c ****  * POSSIBILITY OF SUCH DAMAGE.                                                  
  37:../cleanflight/lib/main/XMC4000/XMCLib/src/xmc_dac.c ****  *                                                                              
  38:../cleanflight/lib/main/XMC4000/XMCLib/src/xmc_dac.c ****  * To improve the quality of the software, users are encouraged to share        
  39:../cleanflight/lib/main/XMC4000/XMCLib/src/xmc_dac.c ****  * modifications, enhancements or bug fixes with Infineon Technologies AG       
  40:../cleanflight/lib/main/XMC4000/XMCLib/src/xmc_dac.c ****  * dave@infineon.com).                                                          
  41:../cleanflight/lib/main/XMC4000/XMCLib/src/xmc_dac.c ****  **********************************************************************************
  42:../cleanflight/lib/main/XMC4000/XMCLib/src/xmc_dac.c ****  *
  43:../cleanflight/lib/main/XMC4000/XMCLib/src/xmc_dac.c ****  * Change History
  44:../cleanflight/lib/main/XMC4000/XMCLib/src/xmc_dac.c ****  * --------------
  45:../cleanflight/lib/main/XMC4000/XMCLib/src/xmc_dac.c ****  *
  46:../cleanflight/lib/main/XMC4000/XMCLib/src/xmc_dac.c ****  * 2015-02-18:
  47:../cleanflight/lib/main/XMC4000/XMCLib/src/xmc_dac.c ****  *     - Initial version
  48:../cleanflight/lib/main/XMC4000/XMCLib/src/xmc_dac.c ****  *
  49:../cleanflight/lib/main/XMC4000/XMCLib/src/xmc_dac.c ****  * 2015-06-19:
  50:../cleanflight/lib/main/XMC4000/XMCLib/src/xmc_dac.c ****  *     - Removed GetDriverVersion API
  51:../cleanflight/lib/main/XMC4000/XMCLib/src/xmc_dac.c ****  * @endcond 
  52:../cleanflight/lib/main/XMC4000/XMCLib/src/xmc_dac.c ****  *
  53:../cleanflight/lib/main/XMC4000/XMCLib/src/xmc_dac.c ****  */
  54:../cleanflight/lib/main/XMC4000/XMCLib/src/xmc_dac.c **** 
  55:../cleanflight/lib/main/XMC4000/XMCLib/src/xmc_dac.c **** /*******************************************************************************
  56:../cleanflight/lib/main/XMC4000/XMCLib/src/xmc_dac.c ****  * HEADER FILES
  57:../cleanflight/lib/main/XMC4000/XMCLib/src/xmc_dac.c ****  *******************************************************************************/
  58:../cleanflight/lib/main/XMC4000/XMCLib/src/xmc_dac.c **** 
  59:../cleanflight/lib/main/XMC4000/XMCLib/src/xmc_dac.c **** #include <xmc_dac.h>
  60:../cleanflight/lib/main/XMC4000/XMCLib/src/xmc_dac.c **** #include <xmc_scu.h>
  61:../cleanflight/lib/main/XMC4000/XMCLib/src/xmc_dac.c **** 
  62:../cleanflight/lib/main/XMC4000/XMCLib/src/xmc_dac.c **** /* DAC peripheral is not available on XMC1X devices. */
  63:../cleanflight/lib/main/XMC4000/XMCLib/src/xmc_dac.c **** #if defined(DAC)
  64:../cleanflight/lib/main/XMC4000/XMCLib/src/xmc_dac.c **** 
  65:../cleanflight/lib/main/XMC4000/XMCLib/src/xmc_dac.c **** /*******************************************************************************
  66:../cleanflight/lib/main/XMC4000/XMCLib/src/xmc_dac.c ****  * MACROS
  67:../cleanflight/lib/main/XMC4000/XMCLib/src/xmc_dac.c ****  *******************************************************************************/
  68:../cleanflight/lib/main/XMC4000/XMCLib/src/xmc_dac.c **** 
  69:../cleanflight/lib/main/XMC4000/XMCLib/src/xmc_dac.c **** #define XMC_DAC_MIN_FREQ_DIVIDER (16U)
  70:../cleanflight/lib/main/XMC4000/XMCLib/src/xmc_dac.c **** #define XMC_DAC_MAX_FREQ_DIVIDER (1048576U)
  71:../cleanflight/lib/main/XMC4000/XMCLib/src/xmc_dac.c **** #define XMC_DAC_DAC0PATL_PAT_BITSIZE (5U)
  72:../cleanflight/lib/main/XMC4000/XMCLib/src/xmc_dac.c **** 
  73:../cleanflight/lib/main/XMC4000/XMCLib/src/xmc_dac.c **** /*******************************************************************************
  74:../cleanflight/lib/main/XMC4000/XMCLib/src/xmc_dac.c ****  * API IMPLEMENTATION
  75:../cleanflight/lib/main/XMC4000/XMCLib/src/xmc_dac.c ****  *******************************************************************************/
  76:../cleanflight/lib/main/XMC4000/XMCLib/src/xmc_dac.c **** 
  77:../cleanflight/lib/main/XMC4000/XMCLib/src/xmc_dac.c **** /* API to enable the DAC module */
  78:../cleanflight/lib/main/XMC4000/XMCLib/src/xmc_dac.c **** void XMC_DAC_Enable(XMC_DAC_t *const dac)
  79:../cleanflight/lib/main/XMC4000/XMCLib/src/xmc_dac.c **** {
 434              	 .loc 2 79 0
 435              	 .cfi_startproc
 436              	 
 437              	 
 438 0000 80B5     	 push {r7,lr}
 439              	.LCFI42:
 440              	 .cfi_def_cfa_offset 8
 441              	 .cfi_offset 7,-8
 442              	 .cfi_offset 14,-4
 443 0002 82B0     	 sub sp,sp,#8
 444              	.LCFI43:
 445              	 .cfi_def_cfa_offset 16
 446 0004 00AF     	 add r7,sp,#0
 447              	.LCFI44:
 448              	 .cfi_def_cfa_register 7
 449 0006 7860     	 str r0,[r7,#4]
  80:../cleanflight/lib/main/XMC4000/XMCLib/src/xmc_dac.c ****   XMC_UNUSED_ARG(dac);
  81:../cleanflight/lib/main/XMC4000/XMCLib/src/xmc_dac.c ****   
  82:../cleanflight/lib/main/XMC4000/XMCLib/src/xmc_dac.c **** #if defined(CLOCK_GATING_SUPPORTED)
  83:../cleanflight/lib/main/XMC4000/XMCLib/src/xmc_dac.c ****   XMC_SCU_CLOCK_UngatePeripheralClock(XMC_SCU_PERIPHERAL_CLOCK_DAC);
 450              	 .loc 2 83 0
 451 0008 0448     	 ldr r0,.L9
 452 000a FFF7FEFF 	 bl XMC_SCU_CLOCK_UngatePeripheralClock
  84:../cleanflight/lib/main/XMC4000/XMCLib/src/xmc_dac.c **** #endif
  85:../cleanflight/lib/main/XMC4000/XMCLib/src/xmc_dac.c ****   XMC_SCU_RESET_DeassertPeripheralReset(XMC_SCU_PERIPHERAL_RESET_DAC);
 453              	 .loc 2 85 0
 454 000e 0348     	 ldr r0,.L9
 455 0010 FFF7FEFF 	 bl XMC_SCU_RESET_DeassertPeripheralReset
  86:../cleanflight/lib/main/XMC4000/XMCLib/src/xmc_dac.c **** }
 456              	 .loc 2 86 0
 457 0014 0837     	 adds r7,r7,#8
 458              	.LCFI45:
 459              	 .cfi_def_cfa_offset 8
 460 0016 BD46     	 mov sp,r7
 461              	.LCFI46:
 462              	 .cfi_def_cfa_register 13
 463              	 
 464 0018 80BD     	 pop {r7,pc}
 465              	.L10:
 466 001a 00BF     	 .align 2
 467              	.L9:
 468 001c 20000010 	 .word 268435488
 469              	 .cfi_endproc
 470              	.LFE197:
 472              	 .section .text.XMC_DAC_Disable,"ax",%progbits
 473              	 .align 2
 474              	 .global XMC_DAC_Disable
 475              	 .thumb
 476              	 .thumb_func
 478              	XMC_DAC_Disable:
 479              	.LFB198:
  87:../cleanflight/lib/main/XMC4000/XMCLib/src/xmc_dac.c **** 
  88:../cleanflight/lib/main/XMC4000/XMCLib/src/xmc_dac.c **** /* API to disable the DAC module */
  89:../cleanflight/lib/main/XMC4000/XMCLib/src/xmc_dac.c **** void XMC_DAC_Disable(XMC_DAC_t *const dac)
  90:../cleanflight/lib/main/XMC4000/XMCLib/src/xmc_dac.c **** {
 480              	 .loc 2 90 0
 481              	 .cfi_startproc
 482              	 
 483              	 
 484 0000 80B5     	 push {r7,lr}
 485              	.LCFI47:
 486              	 .cfi_def_cfa_offset 8
 487              	 .cfi_offset 7,-8
 488              	 .cfi_offset 14,-4
 489 0002 82B0     	 sub sp,sp,#8
 490              	.LCFI48:
 491              	 .cfi_def_cfa_offset 16
 492 0004 00AF     	 add r7,sp,#0
 493              	.LCFI49:
 494              	 .cfi_def_cfa_register 7
 495 0006 7860     	 str r0,[r7,#4]
  91:../cleanflight/lib/main/XMC4000/XMCLib/src/xmc_dac.c ****   XMC_UNUSED_ARG(dac);
  92:../cleanflight/lib/main/XMC4000/XMCLib/src/xmc_dac.c **** 
  93:../cleanflight/lib/main/XMC4000/XMCLib/src/xmc_dac.c ****   XMC_SCU_RESET_AssertPeripheralReset(XMC_SCU_PERIPHERAL_RESET_DAC);
 496              	 .loc 2 93 0
 497 0008 0448     	 ldr r0,.L12
 498 000a FFF7FEFF 	 bl XMC_SCU_RESET_AssertPeripheralReset
  94:../cleanflight/lib/main/XMC4000/XMCLib/src/xmc_dac.c **** #if defined(CLOCK_GATING_SUPPORTED)
  95:../cleanflight/lib/main/XMC4000/XMCLib/src/xmc_dac.c ****   XMC_SCU_CLOCK_GatePeripheralClock(XMC_SCU_PERIPHERAL_CLOCK_DAC);
 499              	 .loc 2 95 0
 500 000e 0348     	 ldr r0,.L12
 501 0010 FFF7FEFF 	 bl XMC_SCU_CLOCK_GatePeripheralClock
  96:../cleanflight/lib/main/XMC4000/XMCLib/src/xmc_dac.c **** #endif
  97:../cleanflight/lib/main/XMC4000/XMCLib/src/xmc_dac.c **** }
 502              	 .loc 2 97 0
 503 0014 0837     	 adds r7,r7,#8
 504              	.LCFI50:
 505              	 .cfi_def_cfa_offset 8
 506 0016 BD46     	 mov sp,r7
 507              	.LCFI51:
 508              	 .cfi_def_cfa_register 13
 509              	 
 510 0018 80BD     	 pop {r7,pc}
 511              	.L13:
 512 001a 00BF     	 .align 2
 513              	.L12:
 514 001c 20000010 	 .word 268435488
 515              	 .cfi_endproc
 516              	.LFE198:
 518              	 .section .text.XMC_DAC_IsEnabled,"ax",%progbits
 519              	 .align 2
 520              	 .global XMC_DAC_IsEnabled
 521              	 .thumb
 522              	 .thumb_func
 524              	XMC_DAC_IsEnabled:
 525              	.LFB199:
  98:../cleanflight/lib/main/XMC4000/XMCLib/src/xmc_dac.c **** 
  99:../cleanflight/lib/main/XMC4000/XMCLib/src/xmc_dac.c **** /* API to check whether DAC is enabled */
 100:../cleanflight/lib/main/XMC4000/XMCLib/src/xmc_dac.c **** bool XMC_DAC_IsEnabled(const XMC_DAC_t *const dac)
 101:../cleanflight/lib/main/XMC4000/XMCLib/src/xmc_dac.c **** {
 526              	 .loc 2 101 0
 527              	 .cfi_startproc
 528              	 
 529              	 
 530 0000 80B5     	 push {r7,lr}
 531              	.LCFI52:
 532              	 .cfi_def_cfa_offset 8
 533              	 .cfi_offset 7,-8
 534              	 .cfi_offset 14,-4
 535 0002 84B0     	 sub sp,sp,#16
 536              	.LCFI53:
 537              	 .cfi_def_cfa_offset 24
 538 0004 00AF     	 add r7,sp,#0
 539              	.LCFI54:
 540              	 .cfi_def_cfa_register 7
 541 0006 7860     	 str r0,[r7,#4]
 102:../cleanflight/lib/main/XMC4000/XMCLib/src/xmc_dac.c ****   bool status;
 103:../cleanflight/lib/main/XMC4000/XMCLib/src/xmc_dac.c **** 
 104:../cleanflight/lib/main/XMC4000/XMCLib/src/xmc_dac.c ****   XMC_UNUSED_ARG(dac);
 105:../cleanflight/lib/main/XMC4000/XMCLib/src/xmc_dac.c **** 
 106:../cleanflight/lib/main/XMC4000/XMCLib/src/xmc_dac.c ****   status = XMC_SCU_RESET_IsPeripheralResetAsserted(XMC_SCU_PERIPHERAL_RESET_DAC);
 542              	 .loc 2 106 0
 543 0008 0848     	 ldr r0,.L18
 544 000a FFF7FEFF 	 bl XMC_SCU_RESET_IsPeripheralResetAsserted
 545 000e 0346     	 mov r3,r0
 546 0010 FB73     	 strb r3,[r7,#15]
 107:../cleanflight/lib/main/XMC4000/XMCLib/src/xmc_dac.c ****   if(status == true)
 547              	 .loc 2 107 0
 548 0012 FB7B     	 ldrb r3,[r7,#15]
 549 0014 002B     	 cmp r3,#0
 550 0016 02D0     	 beq .L15
 108:../cleanflight/lib/main/XMC4000/XMCLib/src/xmc_dac.c ****   {
 109:../cleanflight/lib/main/XMC4000/XMCLib/src/xmc_dac.c ****     status = false;
 551              	 .loc 2 109 0
 552 0018 0023     	 movs r3,#0
 553 001a FB73     	 strb r3,[r7,#15]
 554 001c 01E0     	 b .L16
 555              	.L15:
 110:../cleanflight/lib/main/XMC4000/XMCLib/src/xmc_dac.c ****   }
 111:../cleanflight/lib/main/XMC4000/XMCLib/src/xmc_dac.c ****   else
 112:../cleanflight/lib/main/XMC4000/XMCLib/src/xmc_dac.c ****   {
 113:../cleanflight/lib/main/XMC4000/XMCLib/src/xmc_dac.c ****     status = true;
 556              	 .loc 2 113 0
 557 001e 0123     	 movs r3,#1
 558 0020 FB73     	 strb r3,[r7,#15]
 559              	.L16:
 114:../cleanflight/lib/main/XMC4000/XMCLib/src/xmc_dac.c ****   }
 115:../cleanflight/lib/main/XMC4000/XMCLib/src/xmc_dac.c ****   return (status);
 560              	 .loc 2 115 0
 561 0022 FB7B     	 ldrb r3,[r7,#15]
 116:../cleanflight/lib/main/XMC4000/XMCLib/src/xmc_dac.c **** }
 562              	 .loc 2 116 0
 563 0024 1846     	 mov r0,r3
 564 0026 1037     	 adds r7,r7,#16
 565              	.LCFI55:
 566              	 .cfi_def_cfa_offset 8
 567 0028 BD46     	 mov sp,r7
 568              	.LCFI56:
 569              	 .cfi_def_cfa_register 13
 570              	 
 571 002a 80BD     	 pop {r7,pc}
 572              	.L19:
 573              	 .align 2
 574              	.L18:
 575 002c 20000010 	 .word 268435488
 576              	 .cfi_endproc
 577              	.LFE199:
 579              	 .section .text.XMC_DAC_CH_Init,"ax",%progbits
 580              	 .align 2
 581              	 .global XMC_DAC_CH_Init
 582              	 .thumb
 583              	 .thumb_func
 585              	XMC_DAC_CH_Init:
 586              	.LFB200:
 117:../cleanflight/lib/main/XMC4000/XMCLib/src/xmc_dac.c **** 
 118:../cleanflight/lib/main/XMC4000/XMCLib/src/xmc_dac.c **** /* API to initialize DAC channel configuration */
 119:../cleanflight/lib/main/XMC4000/XMCLib/src/xmc_dac.c **** void XMC_DAC_CH_Init(XMC_DAC_t *const dac, const uint8_t channel, const XMC_DAC_CH_CONFIG_t *const 
 120:../cleanflight/lib/main/XMC4000/XMCLib/src/xmc_dac.c **** {
 587              	 .loc 2 120 0
 588              	 .cfi_startproc
 589              	 
 590              	 
 591 0000 80B5     	 push {r7,lr}
 592              	.LCFI57:
 593              	 .cfi_def_cfa_offset 8
 594              	 .cfi_offset 7,-8
 595              	 .cfi_offset 14,-4
 596 0002 84B0     	 sub sp,sp,#16
 597              	.LCFI58:
 598              	 .cfi_def_cfa_offset 24
 599 0004 00AF     	 add r7,sp,#0
 600              	.LCFI59:
 601              	 .cfi_def_cfa_register 7
 602 0006 F860     	 str r0,[r7,#12]
 603 0008 0B46     	 mov r3,r1
 604 000a 7A60     	 str r2,[r7,#4]
 605 000c FB72     	 strb r3,[r7,#11]
 121:../cleanflight/lib/main/XMC4000/XMCLib/src/xmc_dac.c ****   XMC_DAC_Enable(dac);
 606              	 .loc 2 121 0
 607 000e F868     	 ldr r0,[r7,#12]
 608 0010 FFF7FEFF 	 bl XMC_DAC_Enable
 122:../cleanflight/lib/main/XMC4000/XMCLib/src/xmc_dac.c **** 
 123:../cleanflight/lib/main/XMC4000/XMCLib/src/xmc_dac.c ****   dac->DACCFG[channel].low = config->cfg0;
 609              	 .loc 2 123 0
 610 0014 FB7A     	 ldrb r3,[r7,#11]
 611 0016 7A68     	 ldr r2,[r7,#4]
 612 0018 1268     	 ldr r2,[r2]
 613 001a F968     	 ldr r1,[r7,#12]
 614 001c DB00     	 lsls r3,r3,#3
 615 001e 0B44     	 add r3,r3,r1
 616 0020 5968     	 ldr r1,[r3,#4]
 617 0022 0021     	 movs r1,#0
 618 0024 0A43     	 orrs r2,r2,r1
 619 0026 5A60     	 str r2,[r3,#4]
 124:../cleanflight/lib/main/XMC4000/XMCLib/src/xmc_dac.c ****   dac->DACCFG[channel].high = config->cfg1;
 620              	 .loc 2 124 0
 621 0028 FB7A     	 ldrb r3,[r7,#11]
 622 002a 7A68     	 ldr r2,[r7,#4]
 623 002c 5268     	 ldr r2,[r2,#4]
 624 002e F968     	 ldr r1,[r7,#12]
 625 0030 DB00     	 lsls r3,r3,#3
 626 0032 0B44     	 add r3,r3,r1
 627 0034 9968     	 ldr r1,[r3,#8]
 628 0036 0021     	 movs r1,#0
 629 0038 0A43     	 orrs r2,r2,r1
 630 003a 9A60     	 str r2,[r3,#8]
 125:../cleanflight/lib/main/XMC4000/XMCLib/src/xmc_dac.c ****   if (channel < XMC_DAC_NO_CHANNELS)
 631              	 .loc 2 125 0
 632 003c FB7A     	 ldrb r3,[r7,#11]
 633 003e 012B     	 cmp r3,#1
 634 0040 04D8     	 bhi .L20
 126:../cleanflight/lib/main/XMC4000/XMCLib/src/xmc_dac.c ****   {
 127:../cleanflight/lib/main/XMC4000/XMCLib/src/xmc_dac.c ****     XMC_DAC_CH_EnableOutput(dac, channel);
 635              	 .loc 2 127 0
 636 0042 FB7A     	 ldrb r3,[r7,#11]
 637 0044 F868     	 ldr r0,[r7,#12]
 638 0046 1946     	 mov r1,r3
 639 0048 FFF7FEFF 	 bl XMC_DAC_CH_EnableOutput
 640              	.L20:
 128:../cleanflight/lib/main/XMC4000/XMCLib/src/xmc_dac.c ****   }
 129:../cleanflight/lib/main/XMC4000/XMCLib/src/xmc_dac.c **** }
 641              	 .loc 2 129 0
 642 004c 1037     	 adds r7,r7,#16
 643              	.LCFI60:
 644              	 .cfi_def_cfa_offset 8
 645 004e BD46     	 mov sp,r7
 646              	.LCFI61:
 647              	 .cfi_def_cfa_register 13
 648              	 
 649 0050 80BD     	 pop {r7,pc}
 650              	 .cfi_endproc
 651              	.LFE200:
 653 0052 00BF     	 .section .text.XMC_DAC_CH_SetFrequency,"ax",%progbits
 654              	 .align 2
 655              	 .global XMC_DAC_CH_SetFrequency
 656              	 .thumb
 657              	 .thumb_func
 659              	XMC_DAC_CH_SetFrequency:
 660              	.LFB201:
 130:../cleanflight/lib/main/XMC4000/XMCLib/src/xmc_dac.c **** 
 131:../cleanflight/lib/main/XMC4000/XMCLib/src/xmc_dac.c **** /* API to set the waveform frequency except in Ramp and Pattern generation mode. */
 132:../cleanflight/lib/main/XMC4000/XMCLib/src/xmc_dac.c **** XMC_DAC_CH_STATUS_t XMC_DAC_CH_SetFrequency(XMC_DAC_t *const dac,
 133:../cleanflight/lib/main/XMC4000/XMCLib/src/xmc_dac.c ****                                             const uint8_t channel,
 134:../cleanflight/lib/main/XMC4000/XMCLib/src/xmc_dac.c ****                                             const uint32_t frequency)
 135:../cleanflight/lib/main/XMC4000/XMCLib/src/xmc_dac.c **** {
 661              	 .loc 2 135 0
 662              	 .cfi_startproc
 663              	 
 664              	 
 665 0000 80B5     	 push {r7,lr}
 666              	.LCFI62:
 667              	 .cfi_def_cfa_offset 8
 668              	 .cfi_offset 7,-8
 669              	 .cfi_offset 14,-4
 670 0002 86B0     	 sub sp,sp,#24
 671              	.LCFI63:
 672              	 .cfi_def_cfa_offset 32
 673 0004 00AF     	 add r7,sp,#0
 674              	.LCFI64:
 675              	 .cfi_def_cfa_register 7
 676 0006 F860     	 str r0,[r7,#12]
 677 0008 0B46     	 mov r3,r1
 678 000a 7A60     	 str r2,[r7,#4]
 679 000c FB72     	 strb r3,[r7,#11]
 136:../cleanflight/lib/main/XMC4000/XMCLib/src/xmc_dac.c ****   uint32_t divider;
 137:../cleanflight/lib/main/XMC4000/XMCLib/src/xmc_dac.c ****   XMC_DAC_CH_STATUS_t status;
 138:../cleanflight/lib/main/XMC4000/XMCLib/src/xmc_dac.c **** 
 139:../cleanflight/lib/main/XMC4000/XMCLib/src/xmc_dac.c ****   XMC_ASSERT("XMC_DAC_CH_SetFrequency: frequency must be greater than zero", frequency > 0U);
 140:../cleanflight/lib/main/XMC4000/XMCLib/src/xmc_dac.c **** 
 141:../cleanflight/lib/main/XMC4000/XMCLib/src/xmc_dac.c ****   divider = XMC_SCU_CLOCK_GetPeripheralClockFrequency() / frequency;
 680              	 .loc 2 141 0
 681 000e FFF7FEFF 	 bl XMC_SCU_CLOCK_GetPeripheralClockFrequency
 682 0012 0246     	 mov r2,r0
 683 0014 7B68     	 ldr r3,[r7,#4]
 684 0016 B2FBF3F3 	 udiv r3,r2,r3
 685 001a 3B61     	 str r3,[r7,#16]
 142:../cleanflight/lib/main/XMC4000/XMCLib/src/xmc_dac.c **** 
 143:../cleanflight/lib/main/XMC4000/XMCLib/src/xmc_dac.c ****   if (divider < XMC_DAC_MIN_FREQ_DIVIDER)
 686              	 .loc 2 143 0
 687 001c 3B69     	 ldr r3,[r7,#16]
 688 001e 0F2B     	 cmp r3,#15
 689 0020 02D8     	 bhi .L23
 144:../cleanflight/lib/main/XMC4000/XMCLib/src/xmc_dac.c ****   {
 145:../cleanflight/lib/main/XMC4000/XMCLib/src/xmc_dac.c ****     status = XMC_DAC_CH_STATUS_ERROR_FREQ2HIGH;
 690              	 .loc 2 145 0
 691 0022 0423     	 movs r3,#4
 692 0024 FB75     	 strb r3,[r7,#23]
 693 0026 19E0     	 b .L24
 694              	.L23:
 146:../cleanflight/lib/main/XMC4000/XMCLib/src/xmc_dac.c ****   }
 147:../cleanflight/lib/main/XMC4000/XMCLib/src/xmc_dac.c ****   else if (divider >= XMC_DAC_MAX_FREQ_DIVIDER)
 695              	 .loc 2 147 0
 696 0028 3B69     	 ldr r3,[r7,#16]
 697 002a B3F5801F 	 cmp r3,#1048576
 698 002e 02D3     	 bcc .L25
 148:../cleanflight/lib/main/XMC4000/XMCLib/src/xmc_dac.c ****   {
 149:../cleanflight/lib/main/XMC4000/XMCLib/src/xmc_dac.c ****     status = XMC_DAC_CH_STATUS_ERROR_FREQ2LOW;
 699              	 .loc 2 149 0
 700 0030 0323     	 movs r3,#3
 701 0032 FB75     	 strb r3,[r7,#23]
 702 0034 12E0     	 b .L24
 703              	.L25:
 150:../cleanflight/lib/main/XMC4000/XMCLib/src/xmc_dac.c ****   }
 151:../cleanflight/lib/main/XMC4000/XMCLib/src/xmc_dac.c ****   else {
 152:../cleanflight/lib/main/XMC4000/XMCLib/src/xmc_dac.c ****     dac->DACCFG[channel].low = (dac->DACCFG[channel].low & (uint32_t)(~DAC_DAC0CFG0_FREQ_Msk)) |
 704              	 .loc 2 152 0
 705 0036 F87A     	 ldrb r0,[r7,#11]
 706 0038 FB7A     	 ldrb r3,[r7,#11]
 707 003a FA68     	 ldr r2,[r7,#12]
 708 003c DB00     	 lsls r3,r3,#3
 709 003e 1344     	 add r3,r3,r2
 710 0040 5B68     	 ldr r3,[r3,#4]
 711 0042 1B0D     	 lsrs r3,r3,#20
 712 0044 1B05     	 lsls r3,r3,#20
 713 0046 3A69     	 ldr r2,[r7,#16]
 714 0048 1A43     	 orrs r2,r2,r3
 715 004a F968     	 ldr r1,[r7,#12]
 716 004c C300     	 lsls r3,r0,#3
 717 004e 0B44     	 add r3,r3,r1
 718 0050 5968     	 ldr r1,[r3,#4]
 719 0052 0021     	 movs r1,#0
 720 0054 0A43     	 orrs r2,r2,r1
 721 0056 5A60     	 str r2,[r3,#4]
 153:../cleanflight/lib/main/XMC4000/XMCLib/src/xmc_dac.c ****                                (divider << DAC_DAC0CFG0_FREQ_Pos);
 154:../cleanflight/lib/main/XMC4000/XMCLib/src/xmc_dac.c ****     status = XMC_DAC_CH_STATUS_OK;
 722              	 .loc 2 154 0
 723 0058 0023     	 movs r3,#0
 724 005a FB75     	 strb r3,[r7,#23]
 725              	.L24:
 155:../cleanflight/lib/main/XMC4000/XMCLib/src/xmc_dac.c ****   }
 156:../cleanflight/lib/main/XMC4000/XMCLib/src/xmc_dac.c **** 
 157:../cleanflight/lib/main/XMC4000/XMCLib/src/xmc_dac.c ****   return status;
 726              	 .loc 2 157 0
 727 005c FB7D     	 ldrb r3,[r7,#23]
 158:../cleanflight/lib/main/XMC4000/XMCLib/src/xmc_dac.c **** }
 728              	 .loc 2 158 0
 729 005e 1846     	 mov r0,r3
 730 0060 1837     	 adds r7,r7,#24
 731              	.LCFI65:
 732              	 .cfi_def_cfa_offset 8
 733 0062 BD46     	 mov sp,r7
 734              	.LCFI66:
 735              	 .cfi_def_cfa_register 13
 736              	 
 737 0064 80BD     	 pop {r7,pc}
 738              	 .cfi_endproc
 739              	.LFE201:
 741 0066 00BF     	 .section .text.XMC_DAC_CH_SetRampFrequency,"ax",%progbits
 742              	 .align 2
 743              	 .global XMC_DAC_CH_SetRampFrequency
 744              	 .thumb
 745              	 .thumb_func
 747              	XMC_DAC_CH_SetRampFrequency:
 748              	.LFB202:
 159:../cleanflight/lib/main/XMC4000/XMCLib/src/xmc_dac.c **** 
 160:../cleanflight/lib/main/XMC4000/XMCLib/src/xmc_dac.c **** /* API to set the waveform frequency in Ramp Mode. */
 161:../cleanflight/lib/main/XMC4000/XMCLib/src/xmc_dac.c **** XMC_DAC_CH_STATUS_t XMC_DAC_CH_SetRampFrequency(XMC_DAC_t *const dac,
 162:../cleanflight/lib/main/XMC4000/XMCLib/src/xmc_dac.c ****                                                 const uint8_t channel,
 163:../cleanflight/lib/main/XMC4000/XMCLib/src/xmc_dac.c ****                                                 const uint32_t frequency)
 164:../cleanflight/lib/main/XMC4000/XMCLib/src/xmc_dac.c **** {
 749              	 .loc 2 164 0
 750              	 .cfi_startproc
 751              	 
 752              	 
 753 0000 80B5     	 push {r7,lr}
 754              	.LCFI67:
 755              	 .cfi_def_cfa_offset 8
 756              	 .cfi_offset 7,-8
 757              	 .cfi_offset 14,-4
 758 0002 86B0     	 sub sp,sp,#24
 759              	.LCFI68:
 760              	 .cfi_def_cfa_offset 32
 761 0004 00AF     	 add r7,sp,#0
 762              	.LCFI69:
 763              	 .cfi_def_cfa_register 7
 764 0006 F860     	 str r0,[r7,#12]
 765 0008 0B46     	 mov r3,r1
 766 000a 7A60     	 str r2,[r7,#4]
 767 000c FB72     	 strb r3,[r7,#11]
 165:../cleanflight/lib/main/XMC4000/XMCLib/src/xmc_dac.c ****   uint32_t stop;
 166:../cleanflight/lib/main/XMC4000/XMCLib/src/xmc_dac.c ****   uint32_t start;
 167:../cleanflight/lib/main/XMC4000/XMCLib/src/xmc_dac.c **** 
 168:../cleanflight/lib/main/XMC4000/XMCLib/src/xmc_dac.c ****   start = dac->DACDATA[channel];
 768              	 .loc 2 168 0
 769 000e FB7A     	 ldrb r3,[r7,#11]
 770 0010 FA68     	 ldr r2,[r7,#12]
 771 0012 0433     	 adds r3,r3,#4
 772 0014 9B00     	 lsls r3,r3,#2
 773 0016 1344     	 add r3,r3,r2
 774 0018 5B68     	 ldr r3,[r3,#4]
 775 001a 7B61     	 str r3,[r7,#20]
 169:../cleanflight/lib/main/XMC4000/XMCLib/src/xmc_dac.c ****   stop = (dac->DAC01DATA >> (channel * DAC_DAC01DATA_DATA1_Pos)) & (uint32_t)DAC_DAC01DATA_DATA0_Ms
 776              	 .loc 2 169 0
 777 001c FB68     	 ldr r3,[r7,#12]
 778 001e DB69     	 ldr r3,[r3,#28]
 779 0020 FA7A     	 ldrb r2,[r7,#11]
 780 0022 1201     	 lsls r2,r2,#4
 781 0024 D340     	 lsrs r3,r3,r2
 782 0026 C3F30B03 	 ubfx r3,r3,#0,#12
 783 002a 3B61     	 str r3,[r7,#16]
 170:../cleanflight/lib/main/XMC4000/XMCLib/src/xmc_dac.c **** 
 171:../cleanflight/lib/main/XMC4000/XMCLib/src/xmc_dac.c ****   return XMC_DAC_CH_SetFrequency(dac, channel, frequency * ((stop - start) + 1U));
 784              	 .loc 2 171 0
 785 002c 3A69     	 ldr r2,[r7,#16]
 786 002e 7B69     	 ldr r3,[r7,#20]
 787 0030 D31A     	 subs r3,r2,r3
 788 0032 0133     	 adds r3,r3,#1
 789 0034 7A68     	 ldr r2,[r7,#4]
 790 0036 02FB03F3 	 mul r3,r2,r3
 791 003a FA7A     	 ldrb r2,[r7,#11]
 792 003c F868     	 ldr r0,[r7,#12]
 793 003e 1146     	 mov r1,r2
 794 0040 1A46     	 mov r2,r3
 795 0042 FFF7FEFF 	 bl XMC_DAC_CH_SetFrequency
 796 0046 0346     	 mov r3,r0
 172:../cleanflight/lib/main/XMC4000/XMCLib/src/xmc_dac.c **** }
 797              	 .loc 2 172 0
 798 0048 1846     	 mov r0,r3
 799 004a 1837     	 adds r7,r7,#24
 800              	.LCFI70:
 801              	 .cfi_def_cfa_offset 8
 802 004c BD46     	 mov sp,r7
 803              	.LCFI71:
 804              	 .cfi_def_cfa_register 13
 805              	 
 806 004e 80BD     	 pop {r7,pc}
 807              	 .cfi_endproc
 808              	.LFE202:
 810              	 .section .text.XMC_DAC_CH_StartSingleValueMode,"ax",%progbits
 811              	 .align 2
 812              	 .global XMC_DAC_CH_StartSingleValueMode
 813              	 .thumb
 814              	 .thumb_func
 816              	XMC_DAC_CH_StartSingleValueMode:
 817              	.LFB203:
 173:../cleanflight/lib/main/XMC4000/XMCLib/src/xmc_dac.c **** 
 174:../cleanflight/lib/main/XMC4000/XMCLib/src/xmc_dac.c **** /* API to start the operation in Single Value Mode. */
 175:../cleanflight/lib/main/XMC4000/XMCLib/src/xmc_dac.c **** XMC_DAC_CH_STATUS_t XMC_DAC_CH_StartSingleValueMode(XMC_DAC_t *const dac, const uint8_t channel)
 176:../cleanflight/lib/main/XMC4000/XMCLib/src/xmc_dac.c **** {
 818              	 .loc 2 176 0
 819              	 .cfi_startproc
 820              	 
 821              	 
 822 0000 80B5     	 push {r7,lr}
 823              	.LCFI72:
 824              	 .cfi_def_cfa_offset 8
 825              	 .cfi_offset 7,-8
 826              	 .cfi_offset 14,-4
 827 0002 82B0     	 sub sp,sp,#8
 828              	.LCFI73:
 829              	 .cfi_def_cfa_offset 16
 830 0004 00AF     	 add r7,sp,#0
 831              	.LCFI74:
 832              	 .cfi_def_cfa_register 7
 833 0006 7860     	 str r0,[r7,#4]
 834 0008 0B46     	 mov r3,r1
 835 000a FB70     	 strb r3,[r7,#3]
 177:../cleanflight/lib/main/XMC4000/XMCLib/src/xmc_dac.c ****   XMC_ASSERT("XMC_DAC_CH_StartSingleValueMode: dac parameter not valid\n", XMC_DAC_IS_DAC_VALID(dac
 178:../cleanflight/lib/main/XMC4000/XMCLib/src/xmc_dac.c ****   XMC_ASSERT("XMC_DAC_CH_StartSingleValueMode: channel parameter not valid\n", XMC_DAC_IS_CHANNEL_V
 179:../cleanflight/lib/main/XMC4000/XMCLib/src/xmc_dac.c ****   XMC_ASSERT("XMC_DAC_CH_StartSingleValueMode: dac module not enabled\n", XMC_DAC_IsEnabled(dac));
 180:../cleanflight/lib/main/XMC4000/XMCLib/src/xmc_dac.c **** 
 181:../cleanflight/lib/main/XMC4000/XMCLib/src/xmc_dac.c ****   XMC_DAC_CH_SetMode(dac, channel, XMC_DAC_CH_MODE_SINGLE);
 836              	 .loc 2 181 0
 837 000c FB78     	 ldrb r3,[r7,#3]
 838 000e 7868     	 ldr r0,[r7,#4]
 839 0010 1946     	 mov r1,r3
 840 0012 4FF48012 	 mov r2,#1048576
 841 0016 FFF7FEFF 	 bl XMC_DAC_CH_SetMode
 182:../cleanflight/lib/main/XMC4000/XMCLib/src/xmc_dac.c **** 
 183:../cleanflight/lib/main/XMC4000/XMCLib/src/xmc_dac.c ****   return XMC_DAC_CH_STATUS_OK;
 842              	 .loc 2 183 0
 843 001a 0023     	 movs r3,#0
 184:../cleanflight/lib/main/XMC4000/XMCLib/src/xmc_dac.c **** }
 844              	 .loc 2 184 0
 845 001c 1846     	 mov r0,r3
 846 001e 0837     	 adds r7,r7,#8
 847              	.LCFI75:
 848              	 .cfi_def_cfa_offset 8
 849 0020 BD46     	 mov sp,r7
 850              	.LCFI76:
 851              	 .cfi_def_cfa_register 13
 852              	 
 853 0022 80BD     	 pop {r7,pc}
 854              	 .cfi_endproc
 855              	.LFE203:
 857              	 .section .text.XMC_DAC_CH_StartDataMode,"ax",%progbits
 858              	 .align 2
 859              	 .global XMC_DAC_CH_StartDataMode
 860              	 .thumb
 861              	 .thumb_func
 863              	XMC_DAC_CH_StartDataMode:
 864              	.LFB204:
 185:../cleanflight/lib/main/XMC4000/XMCLib/src/xmc_dac.c **** 
 186:../cleanflight/lib/main/XMC4000/XMCLib/src/xmc_dac.c **** /* API to start the operation in Data Mode. */
 187:../cleanflight/lib/main/XMC4000/XMCLib/src/xmc_dac.c **** XMC_DAC_CH_STATUS_t XMC_DAC_CH_StartDataMode(XMC_DAC_t *const dac,
 188:../cleanflight/lib/main/XMC4000/XMCLib/src/xmc_dac.c ****                                              const uint8_t channel,
 189:../cleanflight/lib/main/XMC4000/XMCLib/src/xmc_dac.c ****                                              const XMC_DAC_CH_TRIGGER_t trigger,
 190:../cleanflight/lib/main/XMC4000/XMCLib/src/xmc_dac.c ****                                              const uint32_t frequency)
 191:../cleanflight/lib/main/XMC4000/XMCLib/src/xmc_dac.c **** {
 865              	 .loc 2 191 0
 866              	 .cfi_startproc
 867              	 
 868              	 
 869 0000 80B5     	 push {r7,lr}
 870              	.LCFI77:
 871              	 .cfi_def_cfa_offset 8
 872              	 .cfi_offset 7,-8
 873              	 .cfi_offset 14,-4
 874 0002 86B0     	 sub sp,sp,#24
 875              	.LCFI78:
 876              	 .cfi_def_cfa_offset 32
 877 0004 00AF     	 add r7,sp,#0
 878              	.LCFI79:
 879              	 .cfi_def_cfa_register 7
 880 0006 F860     	 str r0,[r7,#12]
 881 0008 7A60     	 str r2,[r7,#4]
 882 000a 3B60     	 str r3,[r7]
 883 000c 0B46     	 mov r3,r1
 884 000e FB72     	 strb r3,[r7,#11]
 192:../cleanflight/lib/main/XMC4000/XMCLib/src/xmc_dac.c ****   XMC_DAC_CH_STATUS_t status = XMC_DAC_CH_STATUS_OK;
 885              	 .loc 2 192 0
 886 0010 0023     	 movs r3,#0
 887 0012 FB75     	 strb r3,[r7,#23]
 193:../cleanflight/lib/main/XMC4000/XMCLib/src/xmc_dac.c **** 
 194:../cleanflight/lib/main/XMC4000/XMCLib/src/xmc_dac.c ****   XMC_ASSERT("XMC_DAC_CH_StartDataMode: dac parameter not valid\n", XMC_DAC_IS_DAC_VALID(dac));
 195:../cleanflight/lib/main/XMC4000/XMCLib/src/xmc_dac.c ****   XMC_ASSERT("XMC_DAC_CH_StartDataMode: channel parameter not valid\n", XMC_DAC_IS_CHANNEL_VALID(ch
 196:../cleanflight/lib/main/XMC4000/XMCLib/src/xmc_dac.c ****   XMC_ASSERT("XMC_DAC_CH_StartDataMode: dac module not enabled\n", XMC_DAC_IsEnabled(dac));
 197:../cleanflight/lib/main/XMC4000/XMCLib/src/xmc_dac.c **** 
 198:../cleanflight/lib/main/XMC4000/XMCLib/src/xmc_dac.c ****   XMC_DAC_CH_SetMode(dac, channel, XMC_DAC_CH_MODE_IDLE);
 888              	 .loc 2 198 0
 889 0014 FB7A     	 ldrb r3,[r7,#11]
 890 0016 F868     	 ldr r0,[r7,#12]
 891 0018 1946     	 mov r1,r3
 892 001a 0022     	 movs r2,#0
 893 001c FFF7FEFF 	 bl XMC_DAC_CH_SetMode
 199:../cleanflight/lib/main/XMC4000/XMCLib/src/xmc_dac.c **** 
 200:../cleanflight/lib/main/XMC4000/XMCLib/src/xmc_dac.c ****   if (trigger == XMC_DAC_CH_TRIGGER_INTERNAL)
 894              	 .loc 2 200 0
 895 0020 7B68     	 ldr r3,[r7,#4]
 896 0022 002B     	 cmp r3,#0
 897 0024 07D1     	 bne .L32
 201:../cleanflight/lib/main/XMC4000/XMCLib/src/xmc_dac.c ****   {
 202:../cleanflight/lib/main/XMC4000/XMCLib/src/xmc_dac.c ****     status = XMC_DAC_CH_SetFrequency(dac, channel, frequency);
 898              	 .loc 2 202 0
 899 0026 FB7A     	 ldrb r3,[r7,#11]
 900 0028 F868     	 ldr r0,[r7,#12]
 901 002a 1946     	 mov r1,r3
 902 002c 3A68     	 ldr r2,[r7]
 903 002e FFF7FEFF 	 bl XMC_DAC_CH_SetFrequency
 904 0032 0346     	 mov r3,r0
 905 0034 FB75     	 strb r3,[r7,#23]
 906              	.L32:
 203:../cleanflight/lib/main/XMC4000/XMCLib/src/xmc_dac.c ****   }
 204:../cleanflight/lib/main/XMC4000/XMCLib/src/xmc_dac.c **** 
 205:../cleanflight/lib/main/XMC4000/XMCLib/src/xmc_dac.c ****   if (status == XMC_DAC_CH_STATUS_OK)
 907              	 .loc 2 205 0
 908 0036 FB7D     	 ldrb r3,[r7,#23]
 909 0038 002B     	 cmp r3,#0
 910 003a 0CD1     	 bne .L33
 206:../cleanflight/lib/main/XMC4000/XMCLib/src/xmc_dac.c ****   {
 207:../cleanflight/lib/main/XMC4000/XMCLib/src/xmc_dac.c ****     XMC_DAC_CH_SetTrigger(dac, channel, trigger);
 911              	 .loc 2 207 0
 912 003c FB7A     	 ldrb r3,[r7,#11]
 913 003e F868     	 ldr r0,[r7,#12]
 914 0040 1946     	 mov r1,r3
 915 0042 7A68     	 ldr r2,[r7,#4]
 916 0044 FFF7FEFF 	 bl XMC_DAC_CH_SetTrigger
 208:../cleanflight/lib/main/XMC4000/XMCLib/src/xmc_dac.c ****     XMC_DAC_CH_SetMode(dac, channel, XMC_DAC_CH_MODE_DATA);
 917              	 .loc 2 208 0
 918 0048 FB7A     	 ldrb r3,[r7,#11]
 919 004a F868     	 ldr r0,[r7,#12]
 920 004c 1946     	 mov r1,r3
 921 004e 4FF40012 	 mov r2,#2097152
 922 0052 FFF7FEFF 	 bl XMC_DAC_CH_SetMode
 923              	.L33:
 209:../cleanflight/lib/main/XMC4000/XMCLib/src/xmc_dac.c ****   }
 210:../cleanflight/lib/main/XMC4000/XMCLib/src/xmc_dac.c **** 
 211:../cleanflight/lib/main/XMC4000/XMCLib/src/xmc_dac.c ****   return status;
 924              	 .loc 2 211 0
 925 0056 FB7D     	 ldrb r3,[r7,#23]
 212:../cleanflight/lib/main/XMC4000/XMCLib/src/xmc_dac.c **** }
 926              	 .loc 2 212 0
 927 0058 1846     	 mov r0,r3
 928 005a 1837     	 adds r7,r7,#24
 929              	.LCFI80:
 930              	 .cfi_def_cfa_offset 8
 931 005c BD46     	 mov sp,r7
 932              	.LCFI81:
 933              	 .cfi_def_cfa_register 13
 934              	 
 935 005e 80BD     	 pop {r7,pc}
 936              	 .cfi_endproc
 937              	.LFE204:
 939              	 .section .text.XMC_DAC_CH_StartRampMode,"ax",%progbits
 940              	 .align 2
 941              	 .global XMC_DAC_CH_StartRampMode
 942              	 .thumb
 943              	 .thumb_func
 945              	XMC_DAC_CH_StartRampMode:
 946              	.LFB205:
 213:../cleanflight/lib/main/XMC4000/XMCLib/src/xmc_dac.c **** 
 214:../cleanflight/lib/main/XMC4000/XMCLib/src/xmc_dac.c **** /* API to start the operation in Ramp Mode. */
 215:../cleanflight/lib/main/XMC4000/XMCLib/src/xmc_dac.c **** XMC_DAC_CH_STATUS_t XMC_DAC_CH_StartRampMode(XMC_DAC_t *const dac,
 216:../cleanflight/lib/main/XMC4000/XMCLib/src/xmc_dac.c ****                                              const uint8_t channel,
 217:../cleanflight/lib/main/XMC4000/XMCLib/src/xmc_dac.c ****                                              const uint16_t start,
 218:../cleanflight/lib/main/XMC4000/XMCLib/src/xmc_dac.c ****                                              const uint16_t stop,
 219:../cleanflight/lib/main/XMC4000/XMCLib/src/xmc_dac.c ****                                              const XMC_DAC_CH_TRIGGER_t trigger,
 220:../cleanflight/lib/main/XMC4000/XMCLib/src/xmc_dac.c ****                                              const uint32_t frequency)
 221:../cleanflight/lib/main/XMC4000/XMCLib/src/xmc_dac.c **** {
 947              	 .loc 2 221 0
 948              	 .cfi_startproc
 949              	 
 950              	 
 951 0000 80B5     	 push {r7,lr}
 952              	.LCFI82:
 953              	 .cfi_def_cfa_offset 8
 954              	 .cfi_offset 7,-8
 955              	 .cfi_offset 14,-4
 956 0002 86B0     	 sub sp,sp,#24
 957              	.LCFI83:
 958              	 .cfi_def_cfa_offset 32
 959 0004 00AF     	 add r7,sp,#0
 960              	.LCFI84:
 961              	 .cfi_def_cfa_register 7
 962 0006 F860     	 str r0,[r7,#12]
 963 0008 0846     	 mov r0,r1
 964 000a 1146     	 mov r1,r2
 965 000c 1A46     	 mov r2,r3
 966 000e 0346     	 mov r3,r0
 967 0010 FB72     	 strb r3,[r7,#11]
 968 0012 0B46     	 mov r3,r1
 969 0014 3B81     	 strh r3,[r7,#8]
 970 0016 1346     	 mov r3,r2
 971 0018 FB80     	 strh r3,[r7,#6]
 222:../cleanflight/lib/main/XMC4000/XMCLib/src/xmc_dac.c ****   XMC_DAC_CH_STATUS_t status = XMC_DAC_CH_STATUS_OK;
 972              	 .loc 2 222 0
 973 001a 0023     	 movs r3,#0
 974 001c FB75     	 strb r3,[r7,#23]
 223:../cleanflight/lib/main/XMC4000/XMCLib/src/xmc_dac.c **** 
 224:../cleanflight/lib/main/XMC4000/XMCLib/src/xmc_dac.c ****   XMC_ASSERT("XMC_DAC_CH_StartRampMode: dac parameter not valid\n", XMC_DAC_IS_DAC_VALID(dac));
 225:../cleanflight/lib/main/XMC4000/XMCLib/src/xmc_dac.c ****   XMC_ASSERT("XMC_DAC_CH_StartRampMode: channel parameter not valid\n", XMC_DAC_IS_CHANNEL_VALID(ch
 226:../cleanflight/lib/main/XMC4000/XMCLib/src/xmc_dac.c ****   XMC_ASSERT("XMC_DAC_CH_StartRampMode: dac module not enabled\n", XMC_DAC_IsEnabled(dac));
 227:../cleanflight/lib/main/XMC4000/XMCLib/src/xmc_dac.c **** 
 228:../cleanflight/lib/main/XMC4000/XMCLib/src/xmc_dac.c ****   XMC_DAC_CH_SetMode(dac, channel, XMC_DAC_CH_MODE_IDLE);
 975              	 .loc 2 228 0
 976 001e FB7A     	 ldrb r3,[r7,#11]
 977 0020 F868     	 ldr r0,[r7,#12]
 978 0022 1946     	 mov r1,r3
 979 0024 0022     	 movs r2,#0
 980 0026 FFF7FEFF 	 bl XMC_DAC_CH_SetMode
 229:../cleanflight/lib/main/XMC4000/XMCLib/src/xmc_dac.c **** 
 230:../cleanflight/lib/main/XMC4000/XMCLib/src/xmc_dac.c ****   XMC_DAC_CH_SetRampStart(dac, channel, start);
 981              	 .loc 2 230 0
 982 002a FA7A     	 ldrb r2,[r7,#11]
 983 002c 3B89     	 ldrh r3,[r7,#8]
 984 002e F868     	 ldr r0,[r7,#12]
 985 0030 1146     	 mov r1,r2
 986 0032 1A46     	 mov r2,r3
 987 0034 FFF7FEFF 	 bl XMC_DAC_CH_SetRampStart
 231:../cleanflight/lib/main/XMC4000/XMCLib/src/xmc_dac.c ****   XMC_DAC_CH_SetRampStop(dac, channel, stop);
 988              	 .loc 2 231 0
 989 0038 FA7A     	 ldrb r2,[r7,#11]
 990 003a FB88     	 ldrh r3,[r7,#6]
 991 003c F868     	 ldr r0,[r7,#12]
 992 003e 1146     	 mov r1,r2
 993 0040 1A46     	 mov r2,r3
 994 0042 FFF7FEFF 	 bl XMC_DAC_CH_SetRampStop
 232:../cleanflight/lib/main/XMC4000/XMCLib/src/xmc_dac.c ****   XMC_DAC_CH_SetTrigger(dac, channel, trigger);
 995              	 .loc 2 232 0
 996 0046 FB7A     	 ldrb r3,[r7,#11]
 997 0048 F868     	 ldr r0,[r7,#12]
 998 004a 1946     	 mov r1,r3
 999 004c 3A6A     	 ldr r2,[r7,#32]
 1000 004e FFF7FEFF 	 bl XMC_DAC_CH_SetTrigger
 233:../cleanflight/lib/main/XMC4000/XMCLib/src/xmc_dac.c **** 
 234:../cleanflight/lib/main/XMC4000/XMCLib/src/xmc_dac.c ****   if (trigger == XMC_DAC_CH_TRIGGER_INTERNAL)
 1001              	 .loc 2 234 0
 1002 0052 3B6A     	 ldr r3,[r7,#32]
 1003 0054 002B     	 cmp r3,#0
 1004 0056 07D1     	 bne .L36
 235:../cleanflight/lib/main/XMC4000/XMCLib/src/xmc_dac.c ****   {
 236:../cleanflight/lib/main/XMC4000/XMCLib/src/xmc_dac.c ****     status = XMC_DAC_CH_SetRampFrequency(dac, channel, frequency);
 1005              	 .loc 2 236 0
 1006 0058 FB7A     	 ldrb r3,[r7,#11]
 1007 005a F868     	 ldr r0,[r7,#12]
 1008 005c 1946     	 mov r1,r3
 1009 005e 7A6A     	 ldr r2,[r7,#36]
 1010 0060 FFF7FEFF 	 bl XMC_DAC_CH_SetRampFrequency
 1011 0064 0346     	 mov r3,r0
 1012 0066 FB75     	 strb r3,[r7,#23]
 1013              	.L36:
 237:../cleanflight/lib/main/XMC4000/XMCLib/src/xmc_dac.c ****   }
 238:../cleanflight/lib/main/XMC4000/XMCLib/src/xmc_dac.c **** 
 239:../cleanflight/lib/main/XMC4000/XMCLib/src/xmc_dac.c ****   if (status == XMC_DAC_CH_STATUS_OK)
 1014              	 .loc 2 239 0
 1015 0068 FB7D     	 ldrb r3,[r7,#23]
 1016 006a 002B     	 cmp r3,#0
 1017 006c 06D1     	 bne .L37
 240:../cleanflight/lib/main/XMC4000/XMCLib/src/xmc_dac.c ****   {
 241:../cleanflight/lib/main/XMC4000/XMCLib/src/xmc_dac.c ****     XMC_DAC_CH_SetMode(dac, channel, XMC_DAC_CH_MODE_RAMP);
 1018              	 .loc 2 241 0
 1019 006e FB7A     	 ldrb r3,[r7,#11]
 1020 0070 F868     	 ldr r0,[r7,#12]
 1021 0072 1946     	 mov r1,r3
 1022 0074 4FF4A002 	 mov r2,#5242880
 1023 0078 FFF7FEFF 	 bl XMC_DAC_CH_SetMode
 1024              	.L37:
 242:../cleanflight/lib/main/XMC4000/XMCLib/src/xmc_dac.c ****   }
 243:../cleanflight/lib/main/XMC4000/XMCLib/src/xmc_dac.c **** 
 244:../cleanflight/lib/main/XMC4000/XMCLib/src/xmc_dac.c ****   return status;
 1025              	 .loc 2 244 0
 1026 007c FB7D     	 ldrb r3,[r7,#23]
 245:../cleanflight/lib/main/XMC4000/XMCLib/src/xmc_dac.c **** }
 1027              	 .loc 2 245 0
 1028 007e 1846     	 mov r0,r3
 1029 0080 1837     	 adds r7,r7,#24
 1030              	.LCFI85:
 1031              	 .cfi_def_cfa_offset 8
 1032 0082 BD46     	 mov sp,r7
 1033              	.LCFI86:
 1034              	 .cfi_def_cfa_register 13
 1035              	 
 1036 0084 80BD     	 pop {r7,pc}
 1037              	 .cfi_endproc
 1038              	.LFE205:
 1040 0086 00BF     	 .section .text.XMC_DAC_CH_StartPatternMode,"ax",%progbits
 1041              	 .align 2
 1042              	 .global XMC_DAC_CH_StartPatternMode
 1043              	 .thumb
 1044              	 .thumb_func
 1046              	XMC_DAC_CH_StartPatternMode:
 1047              	.LFB206:
 246:../cleanflight/lib/main/XMC4000/XMCLib/src/xmc_dac.c **** 
 247:../cleanflight/lib/main/XMC4000/XMCLib/src/xmc_dac.c **** /* API to start the operation in Pattern Mode. */
 248:../cleanflight/lib/main/XMC4000/XMCLib/src/xmc_dac.c **** XMC_DAC_CH_STATUS_t XMC_DAC_CH_StartPatternMode(XMC_DAC_t *const dac,
 249:../cleanflight/lib/main/XMC4000/XMCLib/src/xmc_dac.c ****                                                 const uint8_t channel,
 250:../cleanflight/lib/main/XMC4000/XMCLib/src/xmc_dac.c ****                                                 const uint8_t *const pattern,
 251:../cleanflight/lib/main/XMC4000/XMCLib/src/xmc_dac.c ****                                                 const XMC_DAC_CH_PATTERN_SIGN_OUTPUT_t sign_output,
 252:../cleanflight/lib/main/XMC4000/XMCLib/src/xmc_dac.c ****                                                 const XMC_DAC_CH_TRIGGER_t trigger,
 253:../cleanflight/lib/main/XMC4000/XMCLib/src/xmc_dac.c ****                                                 const uint32_t frequency)
 254:../cleanflight/lib/main/XMC4000/XMCLib/src/xmc_dac.c **** {
 1048              	 .loc 2 254 0
 1049              	 .cfi_startproc
 1050              	 
 1051              	 
 1052 0000 80B5     	 push {r7,lr}
 1053              	.LCFI87:
 1054              	 .cfi_def_cfa_offset 8
 1055              	 .cfi_offset 7,-8
 1056              	 .cfi_offset 14,-4
 1057 0002 86B0     	 sub sp,sp,#24
 1058              	.LCFI88:
 1059              	 .cfi_def_cfa_offset 32
 1060 0004 00AF     	 add r7,sp,#0
 1061              	.LCFI89:
 1062              	 .cfi_def_cfa_register 7
 1063 0006 F860     	 str r0,[r7,#12]
 1064 0008 7A60     	 str r2,[r7,#4]
 1065 000a 1A46     	 mov r2,r3
 1066 000c 0B46     	 mov r3,r1
 1067 000e FB72     	 strb r3,[r7,#11]
 1068 0010 1346     	 mov r3,r2
 1069 0012 BB72     	 strb r3,[r7,#10]
 255:../cleanflight/lib/main/XMC4000/XMCLib/src/xmc_dac.c ****   XMC_DAC_CH_STATUS_t status = XMC_DAC_CH_STATUS_OK;
 1070              	 .loc 2 255 0
 1071 0014 0023     	 movs r3,#0
 1072 0016 FB75     	 strb r3,[r7,#23]
 256:../cleanflight/lib/main/XMC4000/XMCLib/src/xmc_dac.c **** 
 257:../cleanflight/lib/main/XMC4000/XMCLib/src/xmc_dac.c ****   XMC_ASSERT("XMC_DAC_CH_StartPatternMode: dac parameter not valid\n", XMC_DAC_IS_DAC_VALID(dac));
 258:../cleanflight/lib/main/XMC4000/XMCLib/src/xmc_dac.c ****   XMC_ASSERT("XMC_DAC_CH_StartPatternMode: channel parameter not valid\n", XMC_DAC_IS_CHANNEL_VALID
 259:../cleanflight/lib/main/XMC4000/XMCLib/src/xmc_dac.c ****   XMC_ASSERT("XMC_DAC_CH_StartPatternMode: dac module not enabled\n", XMC_DAC_IsEnabled(dac));
 260:../cleanflight/lib/main/XMC4000/XMCLib/src/xmc_dac.c **** 
 261:../cleanflight/lib/main/XMC4000/XMCLib/src/xmc_dac.c ****   XMC_DAC_CH_SetMode(dac, channel, XMC_DAC_CH_MODE_IDLE);
 1073              	 .loc 2 261 0
 1074 0018 FB7A     	 ldrb r3,[r7,#11]
 1075 001a F868     	 ldr r0,[r7,#12]
 1076 001c 1946     	 mov r1,r3
 1077 001e 0022     	 movs r2,#0
 1078 0020 FFF7FEFF 	 bl XMC_DAC_CH_SetMode
 262:../cleanflight/lib/main/XMC4000/XMCLib/src/xmc_dac.c **** 
 263:../cleanflight/lib/main/XMC4000/XMCLib/src/xmc_dac.c ****   if (trigger == XMC_DAC_CH_TRIGGER_INTERNAL)
 1079              	 .loc 2 263 0
 1080 0024 3B6A     	 ldr r3,[r7,#32]
 1081 0026 002B     	 cmp r3,#0
 1082 0028 09D1     	 bne .L40
 264:../cleanflight/lib/main/XMC4000/XMCLib/src/xmc_dac.c ****   {
 265:../cleanflight/lib/main/XMC4000/XMCLib/src/xmc_dac.c ****     status = XMC_DAC_CH_SetFrequency(dac, channel, frequency * XMC_DAC_SAMPLES_PER_PERIOD);
 1083              	 .loc 2 265 0
 1084 002a 7B6A     	 ldr r3,[r7,#36]
 1085 002c 5B01     	 lsls r3,r3,#5
 1086 002e FA7A     	 ldrb r2,[r7,#11]
 1087 0030 F868     	 ldr r0,[r7,#12]
 1088 0032 1146     	 mov r1,r2
 1089 0034 1A46     	 mov r2,r3
 1090 0036 FFF7FEFF 	 bl XMC_DAC_CH_SetFrequency
 1091 003a 0346     	 mov r3,r0
 1092 003c FB75     	 strb r3,[r7,#23]
 1093              	.L40:
 266:../cleanflight/lib/main/XMC4000/XMCLib/src/xmc_dac.c ****   }
 267:../cleanflight/lib/main/XMC4000/XMCLib/src/xmc_dac.c **** 
 268:../cleanflight/lib/main/XMC4000/XMCLib/src/xmc_dac.c ****   if (status == XMC_DAC_CH_STATUS_OK)
 1094              	 .loc 2 268 0
 1095 003e FB7D     	 ldrb r3,[r7,#23]
 1096 0040 002B     	 cmp r3,#0
 1097 0042 20D1     	 bne .L41
 269:../cleanflight/lib/main/XMC4000/XMCLib/src/xmc_dac.c ****   {
 270:../cleanflight/lib/main/XMC4000/XMCLib/src/xmc_dac.c ****     XMC_DAC_CH_SetPattern(dac, channel, pattern);
 1098              	 .loc 2 270 0
 1099 0044 FB7A     	 ldrb r3,[r7,#11]
 1100 0046 F868     	 ldr r0,[r7,#12]
 1101 0048 1946     	 mov r1,r3
 1102 004a 7A68     	 ldr r2,[r7,#4]
 1103 004c FFF7FEFF 	 bl XMC_DAC_CH_SetPattern
 271:../cleanflight/lib/main/XMC4000/XMCLib/src/xmc_dac.c ****     if (XMC_DAC_CH_PATTERN_SIGN_OUTPUT_ENABLED == sign_output)
 1104              	 .loc 2 271 0
 1105 0050 BB7A     	 ldrb r3,[r7,#10]
 1106 0052 012B     	 cmp r3,#1
 1107 0054 05D1     	 bne .L42
 272:../cleanflight/lib/main/XMC4000/XMCLib/src/xmc_dac.c ****     {
 273:../cleanflight/lib/main/XMC4000/XMCLib/src/xmc_dac.c ****       XMC_DAC_CH_EnablePatternSignOutput(dac, channel);
 1108              	 .loc 2 273 0
 1109 0056 FB7A     	 ldrb r3,[r7,#11]
 1110 0058 F868     	 ldr r0,[r7,#12]
 1111 005a 1946     	 mov r1,r3
 1112 005c FFF7FEFF 	 bl XMC_DAC_CH_EnablePatternSignOutput
 1113 0060 04E0     	 b .L43
 1114              	.L42:
 274:../cleanflight/lib/main/XMC4000/XMCLib/src/xmc_dac.c ****     }
 275:../cleanflight/lib/main/XMC4000/XMCLib/src/xmc_dac.c ****     else
 276:../cleanflight/lib/main/XMC4000/XMCLib/src/xmc_dac.c ****     {
 277:../cleanflight/lib/main/XMC4000/XMCLib/src/xmc_dac.c ****       XMC_DAC_CH_DisablePatternSignOutput(dac, channel);
 1115              	 .loc 2 277 0
 1116 0062 FB7A     	 ldrb r3,[r7,#11]
 1117 0064 F868     	 ldr r0,[r7,#12]
 1118 0066 1946     	 mov r1,r3
 1119 0068 FFF7FEFF 	 bl XMC_DAC_CH_DisablePatternSignOutput
 1120              	.L43:
 278:../cleanflight/lib/main/XMC4000/XMCLib/src/xmc_dac.c ****     }
 279:../cleanflight/lib/main/XMC4000/XMCLib/src/xmc_dac.c ****     XMC_DAC_CH_SetTrigger(dac, channel, trigger);
 1121              	 .loc 2 279 0
 1122 006c FB7A     	 ldrb r3,[r7,#11]
 1123 006e F868     	 ldr r0,[r7,#12]
 1124 0070 1946     	 mov r1,r3
 1125 0072 3A6A     	 ldr r2,[r7,#32]
 1126 0074 FFF7FEFF 	 bl XMC_DAC_CH_SetTrigger
 280:../cleanflight/lib/main/XMC4000/XMCLib/src/xmc_dac.c ****     XMC_DAC_CH_SetMode(dac, channel, XMC_DAC_CH_MODE_PATTERN);
 1127              	 .loc 2 280 0
 1128 0078 FB7A     	 ldrb r3,[r7,#11]
 1129 007a F868     	 ldr r0,[r7,#12]
 1130 007c 1946     	 mov r1,r3
 1131 007e 4FF44012 	 mov r2,#3145728
 1132 0082 FFF7FEFF 	 bl XMC_DAC_CH_SetMode
 1133              	.L41:
 281:../cleanflight/lib/main/XMC4000/XMCLib/src/xmc_dac.c ****   }
 282:../cleanflight/lib/main/XMC4000/XMCLib/src/xmc_dac.c **** 
 283:../cleanflight/lib/main/XMC4000/XMCLib/src/xmc_dac.c ****   return status;
 1134              	 .loc 2 283 0
 1135 0086 FB7D     	 ldrb r3,[r7,#23]
 284:../cleanflight/lib/main/XMC4000/XMCLib/src/xmc_dac.c **** }
 1136              	 .loc 2 284 0
 1137 0088 1846     	 mov r0,r3
 1138 008a 1837     	 adds r7,r7,#24
 1139              	.LCFI90:
 1140              	 .cfi_def_cfa_offset 8
 1141 008c BD46     	 mov sp,r7
 1142              	.LCFI91:
 1143              	 .cfi_def_cfa_register 13
 1144              	 
 1145 008e 80BD     	 pop {r7,pc}
 1146              	 .cfi_endproc
 1147              	.LFE206:
 1149              	 .section .text.XMC_DAC_CH_StartNoiseMode,"ax",%progbits
 1150              	 .align 2
 1151              	 .global XMC_DAC_CH_StartNoiseMode
 1152              	 .thumb
 1153              	 .thumb_func
 1155              	XMC_DAC_CH_StartNoiseMode:
 1156              	.LFB207:
 285:../cleanflight/lib/main/XMC4000/XMCLib/src/xmc_dac.c **** 
 286:../cleanflight/lib/main/XMC4000/XMCLib/src/xmc_dac.c **** /* API to start the operation in Noise Mode. */
 287:../cleanflight/lib/main/XMC4000/XMCLib/src/xmc_dac.c **** XMC_DAC_CH_STATUS_t XMC_DAC_CH_StartNoiseMode(XMC_DAC_t *const dac,
 288:../cleanflight/lib/main/XMC4000/XMCLib/src/xmc_dac.c ****                                               const uint8_t channel,
 289:../cleanflight/lib/main/XMC4000/XMCLib/src/xmc_dac.c ****                                               const XMC_DAC_CH_TRIGGER_t trigger,
 290:../cleanflight/lib/main/XMC4000/XMCLib/src/xmc_dac.c ****                                               const uint32_t frequency)
 291:../cleanflight/lib/main/XMC4000/XMCLib/src/xmc_dac.c **** {
 1157              	 .loc 2 291 0
 1158              	 .cfi_startproc
 1159              	 
 1160              	 
 1161 0000 80B5     	 push {r7,lr}
 1162              	.LCFI92:
 1163              	 .cfi_def_cfa_offset 8
 1164              	 .cfi_offset 7,-8
 1165              	 .cfi_offset 14,-4
 1166 0002 86B0     	 sub sp,sp,#24
 1167              	.LCFI93:
 1168              	 .cfi_def_cfa_offset 32
 1169 0004 00AF     	 add r7,sp,#0
 1170              	.LCFI94:
 1171              	 .cfi_def_cfa_register 7
 1172 0006 F860     	 str r0,[r7,#12]
 1173 0008 7A60     	 str r2,[r7,#4]
 1174 000a 3B60     	 str r3,[r7]
 1175 000c 0B46     	 mov r3,r1
 1176 000e FB72     	 strb r3,[r7,#11]
 292:../cleanflight/lib/main/XMC4000/XMCLib/src/xmc_dac.c ****   XMC_DAC_CH_STATUS_t status = XMC_DAC_CH_STATUS_OK;
 1177              	 .loc 2 292 0
 1178 0010 0023     	 movs r3,#0
 1179 0012 FB75     	 strb r3,[r7,#23]
 293:../cleanflight/lib/main/XMC4000/XMCLib/src/xmc_dac.c **** 
 294:../cleanflight/lib/main/XMC4000/XMCLib/src/xmc_dac.c ****   XMC_ASSERT("XMC_DAC_CH_StartNoiseMode: dac parameter not valid\n", XMC_DAC_IS_DAC_VALID(dac));
 295:../cleanflight/lib/main/XMC4000/XMCLib/src/xmc_dac.c ****   XMC_ASSERT("XMC_DAC_CH_StartNoiseMode: channel parameter not valid\n", XMC_DAC_IS_CHANNEL_VALID(c
 296:../cleanflight/lib/main/XMC4000/XMCLib/src/xmc_dac.c ****   XMC_ASSERT("XMC_DAC_CH_StartNoiseMode: dac module not enabled\n", XMC_DAC_IsEnabled(dac));
 297:../cleanflight/lib/main/XMC4000/XMCLib/src/xmc_dac.c **** 
 298:../cleanflight/lib/main/XMC4000/XMCLib/src/xmc_dac.c ****   XMC_DAC_CH_SetMode(dac, channel, XMC_DAC_CH_MODE_IDLE);
 1180              	 .loc 2 298 0
 1181 0014 FB7A     	 ldrb r3,[r7,#11]
 1182 0016 F868     	 ldr r0,[r7,#12]
 1183 0018 1946     	 mov r1,r3
 1184 001a 0022     	 movs r2,#0
 1185 001c FFF7FEFF 	 bl XMC_DAC_CH_SetMode
 299:../cleanflight/lib/main/XMC4000/XMCLib/src/xmc_dac.c **** 
 300:../cleanflight/lib/main/XMC4000/XMCLib/src/xmc_dac.c ****   if (trigger == XMC_DAC_CH_TRIGGER_INTERNAL)
 1186              	 .loc 2 300 0
 1187 0020 7B68     	 ldr r3,[r7,#4]
 1188 0022 002B     	 cmp r3,#0
 1189 0024 07D1     	 bne .L46
 301:../cleanflight/lib/main/XMC4000/XMCLib/src/xmc_dac.c ****   {
 302:../cleanflight/lib/main/XMC4000/XMCLib/src/xmc_dac.c ****     status = XMC_DAC_CH_SetFrequency(dac, channel, frequency);
 1190              	 .loc 2 302 0
 1191 0026 FB7A     	 ldrb r3,[r7,#11]
 1192 0028 F868     	 ldr r0,[r7,#12]
 1193 002a 1946     	 mov r1,r3
 1194 002c 3A68     	 ldr r2,[r7]
 1195 002e FFF7FEFF 	 bl XMC_DAC_CH_SetFrequency
 1196 0032 0346     	 mov r3,r0
 1197 0034 FB75     	 strb r3,[r7,#23]
 1198              	.L46:
 303:../cleanflight/lib/main/XMC4000/XMCLib/src/xmc_dac.c ****   }
 304:../cleanflight/lib/main/XMC4000/XMCLib/src/xmc_dac.c **** 
 305:../cleanflight/lib/main/XMC4000/XMCLib/src/xmc_dac.c ****   if (status == XMC_DAC_CH_STATUS_OK)
 1199              	 .loc 2 305 0
 1200 0036 FB7D     	 ldrb r3,[r7,#23]
 1201 0038 002B     	 cmp r3,#0
 1202 003a 0CD1     	 bne .L47
 306:../cleanflight/lib/main/XMC4000/XMCLib/src/xmc_dac.c ****   {
 307:../cleanflight/lib/main/XMC4000/XMCLib/src/xmc_dac.c ****     XMC_DAC_CH_SetTrigger(dac, channel, trigger);
 1203              	 .loc 2 307 0
 1204 003c FB7A     	 ldrb r3,[r7,#11]
 1205 003e F868     	 ldr r0,[r7,#12]
 1206 0040 1946     	 mov r1,r3
 1207 0042 7A68     	 ldr r2,[r7,#4]
 1208 0044 FFF7FEFF 	 bl XMC_DAC_CH_SetTrigger
 308:../cleanflight/lib/main/XMC4000/XMCLib/src/xmc_dac.c ****     XMC_DAC_CH_SetMode(dac, channel, XMC_DAC_CH_MODE_NOISE);
 1209              	 .loc 2 308 0
 1210 0048 FB7A     	 ldrb r3,[r7,#11]
 1211 004a F868     	 ldr r0,[r7,#12]
 1212 004c 1946     	 mov r1,r3
 1213 004e 4FF48002 	 mov r2,#4194304
 1214 0052 FFF7FEFF 	 bl XMC_DAC_CH_SetMode
 1215              	.L47:
 309:../cleanflight/lib/main/XMC4000/XMCLib/src/xmc_dac.c ****   }
 310:../cleanflight/lib/main/XMC4000/XMCLib/src/xmc_dac.c **** 
 311:../cleanflight/lib/main/XMC4000/XMCLib/src/xmc_dac.c ****   return status;
 1216              	 .loc 2 311 0
 1217 0056 FB7D     	 ldrb r3,[r7,#23]
 312:../cleanflight/lib/main/XMC4000/XMCLib/src/xmc_dac.c **** }
 1218              	 .loc 2 312 0
 1219 0058 1846     	 mov r0,r3
 1220 005a 1837     	 adds r7,r7,#24
 1221              	.LCFI95:
 1222              	 .cfi_def_cfa_offset 8
 1223 005c BD46     	 mov sp,r7
 1224              	.LCFI96:
 1225              	 .cfi_def_cfa_register 13
 1226              	 
 1227 005e 80BD     	 pop {r7,pc}
 1228              	 .cfi_endproc
 1229              	.LFE207:
 1231              	 .section .text.XMC_DAC_CH_SetPattern,"ax",%progbits
 1232              	 .align 2
 1233              	 .global XMC_DAC_CH_SetPattern
 1234              	 .thumb
 1235              	 .thumb_func
 1237              	XMC_DAC_CH_SetPattern:
 1238              	.LFB208:
 313:../cleanflight/lib/main/XMC4000/XMCLib/src/xmc_dac.c **** 
 314:../cleanflight/lib/main/XMC4000/XMCLib/src/xmc_dac.c **** /* API to write the pattern data table. */
 315:../cleanflight/lib/main/XMC4000/XMCLib/src/xmc_dac.c **** void XMC_DAC_CH_SetPattern(XMC_DAC_t *const dac, uint8_t channel, const uint8_t *const data)
 316:../cleanflight/lib/main/XMC4000/XMCLib/src/xmc_dac.c **** {
 1239              	 .loc 2 316 0
 1240              	 .cfi_startproc
 1241              	 
 1242              	 
 1243              	 
 1244 0000 80B4     	 push {r7}
 1245              	.LCFI97:
 1246              	 .cfi_def_cfa_offset 4
 1247              	 .cfi_offset 7,-4
 1248 0002 87B0     	 sub sp,sp,#28
 1249              	.LCFI98:
 1250              	 .cfi_def_cfa_offset 32
 1251 0004 00AF     	 add r7,sp,#0
 1252              	.LCFI99:
 1253              	 .cfi_def_cfa_register 7
 1254 0006 F860     	 str r0,[r7,#12]
 1255 0008 0B46     	 mov r3,r1
 1256 000a 7A60     	 str r2,[r7,#4]
 1257 000c FB72     	 strb r3,[r7,#11]
 317:../cleanflight/lib/main/XMC4000/XMCLib/src/xmc_dac.c ****   uint32_t index;
 318:../cleanflight/lib/main/XMC4000/XMCLib/src/xmc_dac.c ****   uint32_t temp;
 319:../cleanflight/lib/main/XMC4000/XMCLib/src/xmc_dac.c **** 
 320:../cleanflight/lib/main/XMC4000/XMCLib/src/xmc_dac.c ****   XMC_ASSERT("XMC_DAC_CH_SetPattern: dac parameter not valid\n", XMC_DAC_IS_DAC_VALID(dac));
 321:../cleanflight/lib/main/XMC4000/XMCLib/src/xmc_dac.c ****   XMC_ASSERT("XMC_DAC_CH_SetPattern: channel parameter not valid\n", XMC_DAC_IS_CHANNEL_VALID(chann
 322:../cleanflight/lib/main/XMC4000/XMCLib/src/xmc_dac.c ****   XMC_ASSERT("XMC_DAC_CH_SetPattern: dac module not enabled\n", XMC_DAC_IsEnabled(dac));
 323:../cleanflight/lib/main/XMC4000/XMCLib/src/xmc_dac.c **** 
 324:../cleanflight/lib/main/XMC4000/XMCLib/src/xmc_dac.c ****   temp = data[0U];
 1258              	 .loc 2 324 0
 1259 000e 7B68     	 ldr r3,[r7,#4]
 1260 0010 1B78     	 ldrb r3,[r3]
 1261 0012 3B61     	 str r3,[r7,#16]
 325:../cleanflight/lib/main/XMC4000/XMCLib/src/xmc_dac.c ****   for(index = 1U; index < 6U; ++index)
 1262              	 .loc 2 325 0
 1263 0014 0123     	 movs r3,#1
 1264 0016 7B61     	 str r3,[r7,#20]
 1265 0018 10E0     	 b .L50
 1266              	.L51:
 326:../cleanflight/lib/main/XMC4000/XMCLib/src/xmc_dac.c ****   {
 327:../cleanflight/lib/main/XMC4000/XMCLib/src/xmc_dac.c ****     temp |= (uint32_t)data[index] << (index * XMC_DAC_DAC0PATL_PAT_BITSIZE);
 1267              	 .loc 2 327 0 discriminator 3
 1268 001a 7A68     	 ldr r2,[r7,#4]
 1269 001c 7B69     	 ldr r3,[r7,#20]
 1270 001e 1344     	 add r3,r3,r2
 1271 0020 1B78     	 ldrb r3,[r3]
 1272 0022 1946     	 mov r1,r3
 1273 0024 7A69     	 ldr r2,[r7,#20]
 1274 0026 1346     	 mov r3,r2
 1275 0028 9B00     	 lsls r3,r3,#2
 1276 002a 1344     	 add r3,r3,r2
 1277 002c 01FA03F3 	 lsl r3,r1,r3
 1278 0030 3A69     	 ldr r2,[r7,#16]
 1279 0032 1343     	 orrs r3,r3,r2
 1280 0034 3B61     	 str r3,[r7,#16]
 325:../cleanflight/lib/main/XMC4000/XMCLib/src/xmc_dac.c ****   for(index = 1U; index < 6U; ++index)
 1281              	 .loc 2 325 0 discriminator 3
 1282 0036 7B69     	 ldr r3,[r7,#20]
 1283 0038 0133     	 adds r3,r3,#1
 1284 003a 7B61     	 str r3,[r7,#20]
 1285              	.L50:
 325:../cleanflight/lib/main/XMC4000/XMCLib/src/xmc_dac.c ****   for(index = 1U; index < 6U; ++index)
 1286              	 .loc 2 325 0 is_stmt 0 discriminator 1
 1287 003c 7B69     	 ldr r3,[r7,#20]
 1288 003e 052B     	 cmp r3,#5
 1289 0040 EBD9     	 bls .L51
 328:../cleanflight/lib/main/XMC4000/XMCLib/src/xmc_dac.c ****   }
 329:../cleanflight/lib/main/XMC4000/XMCLib/src/xmc_dac.c ****   dac->DACPAT[channel].low = temp;
 1290              	 .loc 2 329 0 is_stmt 1
 1291 0042 FA7A     	 ldrb r2,[r7,#11]
 1292 0044 FB68     	 ldr r3,[r7,#12]
 1293 0046 0432     	 adds r2,r2,#4
 1294 0048 53F83210 	 ldr r1,[r3,r2,lsl#3]
 1295 004c 0020     	 movs r0,#0
 1296 004e 3969     	 ldr r1,[r7,#16]
 1297 0050 0143     	 orrs r1,r1,r0
 1298 0052 43F83210 	 str r1,[r3,r2,lsl#3]
 330:../cleanflight/lib/main/XMC4000/XMCLib/src/xmc_dac.c **** 
 331:../cleanflight/lib/main/XMC4000/XMCLib/src/xmc_dac.c ****   temp = data[6U];
 1299              	 .loc 2 331 0
 1300 0056 7B68     	 ldr r3,[r7,#4]
 1301 0058 0633     	 adds r3,r3,#6
 1302 005a 1B78     	 ldrb r3,[r3]
 1303 005c 3B61     	 str r3,[r7,#16]
 332:../cleanflight/lib/main/XMC4000/XMCLib/src/xmc_dac.c ****   for(index = 1U; index < 6U; ++index)
 1304              	 .loc 2 332 0
 1305 005e 0123     	 movs r3,#1
 1306 0060 7B61     	 str r3,[r7,#20]
 1307 0062 11E0     	 b .L52
 1308              	.L53:
 333:../cleanflight/lib/main/XMC4000/XMCLib/src/xmc_dac.c ****   {
 334:../cleanflight/lib/main/XMC4000/XMCLib/src/xmc_dac.c ****     temp |= (uint32_t)data[index + 6U] << (index * XMC_DAC_DAC0PATL_PAT_BITSIZE);
 1309              	 .loc 2 334 0 discriminator 3
 1310 0064 7B69     	 ldr r3,[r7,#20]
 1311 0066 0633     	 adds r3,r3,#6
 1312 0068 7A68     	 ldr r2,[r7,#4]
 1313 006a 1344     	 add r3,r3,r2
 1314 006c 1B78     	 ldrb r3,[r3]
 1315 006e 1946     	 mov r1,r3
 1316 0070 7A69     	 ldr r2,[r7,#20]
 1317 0072 1346     	 mov r3,r2
 1318 0074 9B00     	 lsls r3,r3,#2
 1319 0076 1344     	 add r3,r3,r2
 1320 0078 01FA03F3 	 lsl r3,r1,r3
 1321 007c 3A69     	 ldr r2,[r7,#16]
 1322 007e 1343     	 orrs r3,r3,r2
 1323 0080 3B61     	 str r3,[r7,#16]
 332:../cleanflight/lib/main/XMC4000/XMCLib/src/xmc_dac.c ****   for(index = 1U; index < 6U; ++index)
 1324              	 .loc 2 332 0 discriminator 3
 1325 0082 7B69     	 ldr r3,[r7,#20]
 1326 0084 0133     	 adds r3,r3,#1
 1327 0086 7B61     	 str r3,[r7,#20]
 1328              	.L52:
 332:../cleanflight/lib/main/XMC4000/XMCLib/src/xmc_dac.c ****   for(index = 1U; index < 6U; ++index)
 1329              	 .loc 2 332 0 is_stmt 0 discriminator 1
 1330 0088 7B69     	 ldr r3,[r7,#20]
 1331 008a 052B     	 cmp r3,#5
 1332 008c EAD9     	 bls .L53
 335:../cleanflight/lib/main/XMC4000/XMCLib/src/xmc_dac.c ****   }
 336:../cleanflight/lib/main/XMC4000/XMCLib/src/xmc_dac.c ****   dac->DACPAT[channel].high = temp;
 1333              	 .loc 2 336 0 is_stmt 1
 1334 008e FB7A     	 ldrb r3,[r7,#11]
 1335 0090 FA68     	 ldr r2,[r7,#12]
 1336 0092 0433     	 adds r3,r3,#4
 1337 0094 DB00     	 lsls r3,r3,#3
 1338 0096 1344     	 add r3,r3,r2
 1339 0098 5A68     	 ldr r2,[r3,#4]
 1340 009a 0021     	 movs r1,#0
 1341 009c 3A69     	 ldr r2,[r7,#16]
 1342 009e 0A43     	 orrs r2,r2,r1
 1343 00a0 5A60     	 str r2,[r3,#4]
 337:../cleanflight/lib/main/XMC4000/XMCLib/src/xmc_dac.c **** }
 1344              	 .loc 2 337 0
 1345 00a2 1C37     	 adds r7,r7,#28
 1346              	.LCFI100:
 1347              	 .cfi_def_cfa_offset 4
 1348 00a4 BD46     	 mov sp,r7
 1349              	.LCFI101:
 1350              	 .cfi_def_cfa_register 13
 1351              	 
 1352 00a6 5DF8047B 	 ldr r7,[sp],#4
 1353              	.LCFI102:
 1354              	 .cfi_restore 7
 1355              	 .cfi_def_cfa_offset 0
 1356 00aa 7047     	 bx lr
 1357              	 .cfi_endproc
 1358              	.LFE208:
 1360              	 .text
 1361              	.Letext0:
 1362              	 .file 3 "d:\\xmc\\dave-ide-4.4.2-64bit\\eclipse\\arm-gcc-49\\arm-none-eabi\\include\\machine\\_default_types.h"
 1363              	 .file 4 "d:\\xmc\\dave-ide-4.4.2-64bit\\eclipse\\arm-gcc-49\\arm-none-eabi\\include\\stdint.h"
 1364              	 .file 5 "D:/XMC/Projekte/Temp/CF_XMC4700/cleanflight/lib/main/XMC4000/XMCLib/inc/xmc4_scu.h"
 1365              	 .file 6 "D:/XMC/Projekte/Temp/CF_XMC4700/cleanflight/lib/main/CMSIS/Core/Include/core_cm4.h"
 1366              	 .file 7 "D:/XMC/Projekte/Temp/CF_XMC4700/cleanflight/lib/main/XMC4000/system_XMC4700.h"