   1              	 .syntax unified
   2              	 .cpu cortex-m4
   3              	 .eabi_attribute 27,3
   4              	 .fpu fpv4-sp-d16
   5              	 .eabi_attribute 20,1
   6              	 .eabi_attribute 21,1
   7              	 .eabi_attribute 23,3
   8              	 .eabi_attribute 24,1
   9              	 .eabi_attribute 25,1
  10              	 .eabi_attribute 26,1
  11              	 .eabi_attribute 30,6
  12              	 .eabi_attribute 34,1
  13              	 .eabi_attribute 18,4
  14              	 .thumb
  15              	 .file "fc_core.c"
  16              	 .text
  17              	.Ltext0:
  18              	 .cfi_sections .debug_frame
  19              	 .section .text.cmpTimeUs,"ax",%progbits
  20              	 .align 2
  21              	 .thumb
  22              	 .thumb_func
  24              	cmpTimeUs:
  25              	.LFB524:
  26              	 .file 1 "D:/XMC/Projekte/Temp/CF_XMC4700/cleanflight/src/main/common/time.h"
   1:D:/XMC/Projekte/Temp/CF_XMC4700/cleanflight/src/main/common\time.h **** /*
   2:D:/XMC/Projekte/Temp/CF_XMC4700/cleanflight/src/main/common\time.h ****  * This file is part of Cleanflight and Betaflight.
   3:D:/XMC/Projekte/Temp/CF_XMC4700/cleanflight/src/main/common\time.h ****  *
   4:D:/XMC/Projekte/Temp/CF_XMC4700/cleanflight/src/main/common\time.h ****  * Cleanflight and Betaflight are free software. You can redistribute
   5:D:/XMC/Projekte/Temp/CF_XMC4700/cleanflight/src/main/common\time.h ****  * this software and/or modify this software under the terms of the
   6:D:/XMC/Projekte/Temp/CF_XMC4700/cleanflight/src/main/common\time.h ****  * GNU General Public License as published by the Free Software
   7:D:/XMC/Projekte/Temp/CF_XMC4700/cleanflight/src/main/common\time.h ****  * Foundation, either version 3 of the License, or (at your option)
   8:D:/XMC/Projekte/Temp/CF_XMC4700/cleanflight/src/main/common\time.h ****  * any later version.
   9:D:/XMC/Projekte/Temp/CF_XMC4700/cleanflight/src/main/common\time.h ****  *
  10:D:/XMC/Projekte/Temp/CF_XMC4700/cleanflight/src/main/common\time.h ****  * Cleanflight and Betaflight are distributed in the hope that they
  11:D:/XMC/Projekte/Temp/CF_XMC4700/cleanflight/src/main/common\time.h ****  * will be useful, but WITHOUT ANY WARRANTY; without even the implied
  12:D:/XMC/Projekte/Temp/CF_XMC4700/cleanflight/src/main/common\time.h ****  * warranty of MERCHANTABILITY or FITNESS FOR A PARTICULAR PURPOSE.
  13:D:/XMC/Projekte/Temp/CF_XMC4700/cleanflight/src/main/common\time.h ****  * See the GNU General Public License for more details.
  14:D:/XMC/Projekte/Temp/CF_XMC4700/cleanflight/src/main/common\time.h ****  *
  15:D:/XMC/Projekte/Temp/CF_XMC4700/cleanflight/src/main/common\time.h ****  * You should have received a copy of the GNU General Public License
  16:D:/XMC/Projekte/Temp/CF_XMC4700/cleanflight/src/main/common\time.h ****  * along with this software.
  17:D:/XMC/Projekte/Temp/CF_XMC4700/cleanflight/src/main/common\time.h ****  *
  18:D:/XMC/Projekte/Temp/CF_XMC4700/cleanflight/src/main/common\time.h ****  * If not, see <http://www.gnu.org/licenses/>.
  19:D:/XMC/Projekte/Temp/CF_XMC4700/cleanflight/src/main/common\time.h ****  */
  20:D:/XMC/Projekte/Temp/CF_XMC4700/cleanflight/src/main/common\time.h **** 
  21:D:/XMC/Projekte/Temp/CF_XMC4700/cleanflight/src/main/common\time.h **** #pragma once
  22:D:/XMC/Projekte/Temp/CF_XMC4700/cleanflight/src/main/common\time.h **** 
  23:D:/XMC/Projekte/Temp/CF_XMC4700/cleanflight/src/main/common\time.h **** #include <stdbool.h>
  24:D:/XMC/Projekte/Temp/CF_XMC4700/cleanflight/src/main/common\time.h **** #include <stdint.h>
  25:D:/XMC/Projekte/Temp/CF_XMC4700/cleanflight/src/main/common\time.h **** 
  26:D:/XMC/Projekte/Temp/CF_XMC4700/cleanflight/src/main/common\time.h **** #include "platform.h"
  27:D:/XMC/Projekte/Temp/CF_XMC4700/cleanflight/src/main/common\time.h **** 
  28:D:/XMC/Projekte/Temp/CF_XMC4700/cleanflight/src/main/common\time.h **** #include "pg/pg.h"
  29:D:/XMC/Projekte/Temp/CF_XMC4700/cleanflight/src/main/common\time.h **** 
  30:D:/XMC/Projekte/Temp/CF_XMC4700/cleanflight/src/main/common\time.h **** // time difference, 32 bits always sufficient
  31:D:/XMC/Projekte/Temp/CF_XMC4700/cleanflight/src/main/common\time.h **** typedef int32_t timeDelta_t;
  32:D:/XMC/Projekte/Temp/CF_XMC4700/cleanflight/src/main/common\time.h **** // millisecond time
  33:D:/XMC/Projekte/Temp/CF_XMC4700/cleanflight/src/main/common\time.h **** typedef uint32_t timeMs_t ;
  34:D:/XMC/Projekte/Temp/CF_XMC4700/cleanflight/src/main/common\time.h **** // microsecond time
  35:D:/XMC/Projekte/Temp/CF_XMC4700/cleanflight/src/main/common\time.h **** #ifdef USE_64BIT_TIME
  36:D:/XMC/Projekte/Temp/CF_XMC4700/cleanflight/src/main/common\time.h **** typedef uint64_t timeUs_t;
  37:D:/XMC/Projekte/Temp/CF_XMC4700/cleanflight/src/main/common\time.h **** #define TIMEUS_MAX UINT64_MAX
  38:D:/XMC/Projekte/Temp/CF_XMC4700/cleanflight/src/main/common\time.h **** #else
  39:D:/XMC/Projekte/Temp/CF_XMC4700/cleanflight/src/main/common\time.h **** typedef uint32_t timeUs_t;
  40:D:/XMC/Projekte/Temp/CF_XMC4700/cleanflight/src/main/common\time.h **** #define TIMEUS_MAX UINT32_MAX
  41:D:/XMC/Projekte/Temp/CF_XMC4700/cleanflight/src/main/common\time.h **** #endif
  42:D:/XMC/Projekte/Temp/CF_XMC4700/cleanflight/src/main/common\time.h **** 
  43:D:/XMC/Projekte/Temp/CF_XMC4700/cleanflight/src/main/common\time.h **** static inline timeDelta_t cmpTimeUs(timeUs_t a, timeUs_t b) { return (timeDelta_t)(a - b); }
  27              	 .loc 1 43 0
  28              	 .cfi_startproc
  29              	 
  30              	 
  31              	 
  32 0000 80B4     	 push {r7}
  33              	.LCFI0:
  34              	 .cfi_def_cfa_offset 4
  35              	 .cfi_offset 7,-4
  36 0002 83B0     	 sub sp,sp,#12
  37              	.LCFI1:
  38              	 .cfi_def_cfa_offset 16
  39 0004 00AF     	 add r7,sp,#0
  40              	.LCFI2:
  41              	 .cfi_def_cfa_register 7
  42 0006 7860     	 str r0,[r7,#4]
  43 0008 3960     	 str r1,[r7]
  44              	 .loc 1 43 0
  45 000a 7A68     	 ldr r2,[r7,#4]
  46 000c 3B68     	 ldr r3,[r7]
  47 000e D31A     	 subs r3,r2,r3
  48 0010 1846     	 mov r0,r3
  49 0012 0C37     	 adds r7,r7,#12
  50              	.LCFI3:
  51              	 .cfi_def_cfa_offset 4
  52 0014 BD46     	 mov sp,r7
  53              	.LCFI4:
  54              	 .cfi_def_cfa_register 13
  55              	 
  56 0016 5DF8047B 	 ldr r7,[sp],#4
  57              	.LCFI5:
  58              	 .cfi_restore 7
  59              	 .cfi_def_cfa_offset 0
  60 001a 7047     	 bx lr
  61              	 .cfi_endproc
  62              	.LFE524:
  64              	 .section .text.blackboxConfig,"ax",%progbits
  65              	 .align 2
  66              	 .thumb
  67              	 .thumb_func
  69              	blackboxConfig:
  70              	.LFB527:
  71              	 .file 2 "D:/XMC/Projekte/Temp/CF_XMC4700/cleanflight/src/main/blackbox/blackbox.h"
   1:D:/XMC/Projekte/Temp/CF_XMC4700/cleanflight/src/main/blackbox\blackbox.h **** /*
   2:D:/XMC/Projekte/Temp/CF_XMC4700/cleanflight/src/main/blackbox\blackbox.h ****  * This file is part of Cleanflight and Betaflight.
   3:D:/XMC/Projekte/Temp/CF_XMC4700/cleanflight/src/main/blackbox\blackbox.h ****  *
   4:D:/XMC/Projekte/Temp/CF_XMC4700/cleanflight/src/main/blackbox\blackbox.h ****  * Cleanflight and Betaflight are free software. You can redistribute
   5:D:/XMC/Projekte/Temp/CF_XMC4700/cleanflight/src/main/blackbox\blackbox.h ****  * this software and/or modify this software under the terms of the
   6:D:/XMC/Projekte/Temp/CF_XMC4700/cleanflight/src/main/blackbox\blackbox.h ****  * GNU General Public License as published by the Free Software
   7:D:/XMC/Projekte/Temp/CF_XMC4700/cleanflight/src/main/blackbox\blackbox.h ****  * Foundation, either version 3 of the License, or (at your option)
   8:D:/XMC/Projekte/Temp/CF_XMC4700/cleanflight/src/main/blackbox\blackbox.h ****  * any later version.
   9:D:/XMC/Projekte/Temp/CF_XMC4700/cleanflight/src/main/blackbox\blackbox.h ****  *
  10:D:/XMC/Projekte/Temp/CF_XMC4700/cleanflight/src/main/blackbox\blackbox.h ****  * Cleanflight and Betaflight are distributed in the hope that they
  11:D:/XMC/Projekte/Temp/CF_XMC4700/cleanflight/src/main/blackbox\blackbox.h ****  * will be useful, but WITHOUT ANY WARRANTY; without even the implied
  12:D:/XMC/Projekte/Temp/CF_XMC4700/cleanflight/src/main/blackbox\blackbox.h ****  * warranty of MERCHANTABILITY or FITNESS FOR A PARTICULAR PURPOSE.
  13:D:/XMC/Projekte/Temp/CF_XMC4700/cleanflight/src/main/blackbox\blackbox.h ****  * See the GNU General Public License for more details.
  14:D:/XMC/Projekte/Temp/CF_XMC4700/cleanflight/src/main/blackbox\blackbox.h ****  *
  15:D:/XMC/Projekte/Temp/CF_XMC4700/cleanflight/src/main/blackbox\blackbox.h ****  * You should have received a copy of the GNU General Public License
  16:D:/XMC/Projekte/Temp/CF_XMC4700/cleanflight/src/main/blackbox\blackbox.h ****  * along with this software.
  17:D:/XMC/Projekte/Temp/CF_XMC4700/cleanflight/src/main/blackbox\blackbox.h ****  *
  18:D:/XMC/Projekte/Temp/CF_XMC4700/cleanflight/src/main/blackbox\blackbox.h ****  * If not, see <http://www.gnu.org/licenses/>.
  19:D:/XMC/Projekte/Temp/CF_XMC4700/cleanflight/src/main/blackbox\blackbox.h ****  */
  20:D:/XMC/Projekte/Temp/CF_XMC4700/cleanflight/src/main/blackbox\blackbox.h **** 
  21:D:/XMC/Projekte/Temp/CF_XMC4700/cleanflight/src/main/blackbox\blackbox.h **** #pragma once
  22:D:/XMC/Projekte/Temp/CF_XMC4700/cleanflight/src/main/blackbox\blackbox.h **** 
  23:D:/XMC/Projekte/Temp/CF_XMC4700/cleanflight/src/main/blackbox\blackbox.h **** #include "platform.h"
  24:D:/XMC/Projekte/Temp/CF_XMC4700/cleanflight/src/main/blackbox\blackbox.h **** #include "build/build_config.h"
  25:D:/XMC/Projekte/Temp/CF_XMC4700/cleanflight/src/main/blackbox\blackbox.h **** #include "common/time.h"
  26:D:/XMC/Projekte/Temp/CF_XMC4700/cleanflight/src/main/blackbox\blackbox.h **** #include "pg/pg.h"
  27:D:/XMC/Projekte/Temp/CF_XMC4700/cleanflight/src/main/blackbox\blackbox.h **** 
  28:D:/XMC/Projekte/Temp/CF_XMC4700/cleanflight/src/main/blackbox\blackbox.h **** typedef enum BlackboxDevice {
  29:D:/XMC/Projekte/Temp/CF_XMC4700/cleanflight/src/main/blackbox\blackbox.h ****     BLACKBOX_DEVICE_NONE = 0,
  30:D:/XMC/Projekte/Temp/CF_XMC4700/cleanflight/src/main/blackbox\blackbox.h **** #ifdef USE_FLASHFS
  31:D:/XMC/Projekte/Temp/CF_XMC4700/cleanflight/src/main/blackbox\blackbox.h ****     BLACKBOX_DEVICE_FLASH = 1,
  32:D:/XMC/Projekte/Temp/CF_XMC4700/cleanflight/src/main/blackbox\blackbox.h **** #endif
  33:D:/XMC/Projekte/Temp/CF_XMC4700/cleanflight/src/main/blackbox\blackbox.h **** #ifdef USE_SDCARD
  34:D:/XMC/Projekte/Temp/CF_XMC4700/cleanflight/src/main/blackbox\blackbox.h ****     BLACKBOX_DEVICE_SDCARD = 2,
  35:D:/XMC/Projekte/Temp/CF_XMC4700/cleanflight/src/main/blackbox\blackbox.h **** #endif
  36:D:/XMC/Projekte/Temp/CF_XMC4700/cleanflight/src/main/blackbox\blackbox.h ****     BLACKBOX_DEVICE_SERIAL = 3
  37:D:/XMC/Projekte/Temp/CF_XMC4700/cleanflight/src/main/blackbox\blackbox.h **** } BlackboxDevice_e;
  38:D:/XMC/Projekte/Temp/CF_XMC4700/cleanflight/src/main/blackbox\blackbox.h **** 
  39:D:/XMC/Projekte/Temp/CF_XMC4700/cleanflight/src/main/blackbox\blackbox.h **** typedef enum BlackboxMode {
  40:D:/XMC/Projekte/Temp/CF_XMC4700/cleanflight/src/main/blackbox\blackbox.h ****     BLACKBOX_MODE_NORMAL = 0,
  41:D:/XMC/Projekte/Temp/CF_XMC4700/cleanflight/src/main/blackbox\blackbox.h ****     BLACKBOX_MODE_MOTOR_TEST,
  42:D:/XMC/Projekte/Temp/CF_XMC4700/cleanflight/src/main/blackbox\blackbox.h ****     BLACKBOX_MODE_ALWAYS_ON
  43:D:/XMC/Projekte/Temp/CF_XMC4700/cleanflight/src/main/blackbox\blackbox.h **** } BlackboxMode;
  44:D:/XMC/Projekte/Temp/CF_XMC4700/cleanflight/src/main/blackbox\blackbox.h **** 
  45:D:/XMC/Projekte/Temp/CF_XMC4700/cleanflight/src/main/blackbox\blackbox.h **** typedef enum FlightLogEvent {
  46:D:/XMC/Projekte/Temp/CF_XMC4700/cleanflight/src/main/blackbox\blackbox.h ****     FLIGHT_LOG_EVENT_SYNC_BEEP = 0,
  47:D:/XMC/Projekte/Temp/CF_XMC4700/cleanflight/src/main/blackbox\blackbox.h ****     FLIGHT_LOG_EVENT_INFLIGHT_ADJUSTMENT = 13,
  48:D:/XMC/Projekte/Temp/CF_XMC4700/cleanflight/src/main/blackbox\blackbox.h ****     FLIGHT_LOG_EVENT_LOGGING_RESUME = 14,
  49:D:/XMC/Projekte/Temp/CF_XMC4700/cleanflight/src/main/blackbox\blackbox.h ****     FLIGHT_LOG_EVENT_FLIGHTMODE = 30, // Add new event type for flight mode status.
  50:D:/XMC/Projekte/Temp/CF_XMC4700/cleanflight/src/main/blackbox\blackbox.h ****     FLIGHT_LOG_EVENT_LOG_END = 255
  51:D:/XMC/Projekte/Temp/CF_XMC4700/cleanflight/src/main/blackbox\blackbox.h **** } FlightLogEvent;
  52:D:/XMC/Projekte/Temp/CF_XMC4700/cleanflight/src/main/blackbox\blackbox.h **** 
  53:D:/XMC/Projekte/Temp/CF_XMC4700/cleanflight/src/main/blackbox\blackbox.h **** typedef struct blackboxConfig_s {
  54:D:/XMC/Projekte/Temp/CF_XMC4700/cleanflight/src/main/blackbox\blackbox.h ****     uint16_t p_ratio; // I-frame interval / P-frame interval
  55:D:/XMC/Projekte/Temp/CF_XMC4700/cleanflight/src/main/blackbox\blackbox.h ****     uint8_t device;
  56:D:/XMC/Projekte/Temp/CF_XMC4700/cleanflight/src/main/blackbox\blackbox.h ****     uint8_t record_acc;
  57:D:/XMC/Projekte/Temp/CF_XMC4700/cleanflight/src/main/blackbox\blackbox.h ****     uint8_t mode;
  58:D:/XMC/Projekte/Temp/CF_XMC4700/cleanflight/src/main/blackbox\blackbox.h **** } blackboxConfig_t;
  59:D:/XMC/Projekte/Temp/CF_XMC4700/cleanflight/src/main/blackbox\blackbox.h **** 
  60:D:/XMC/Projekte/Temp/CF_XMC4700/cleanflight/src/main/blackbox\blackbox.h **** PG_DECLARE(blackboxConfig_t, blackboxConfig);
  72              	 .loc 2 60 0
  73              	 .cfi_startproc
  74              	 
  75              	 
  76              	 
  77 0000 80B4     	 push {r7}
  78              	.LCFI6:
  79              	 .cfi_def_cfa_offset 4
  80              	 .cfi_offset 7,-4
  81 0002 00AF     	 add r7,sp,#0
  82              	.LCFI7:
  83              	 .cfi_def_cfa_register 7
  84              	 .loc 2 60 0
  85 0004 024B     	 ldr r3,.L5
  86 0006 1846     	 mov r0,r3
  87 0008 BD46     	 mov sp,r7
  88              	.LCFI8:
  89              	 .cfi_def_cfa_register 13
  90              	 
  91 000a 5DF8047B 	 ldr r7,[sp],#4
  92              	.LCFI9:
  93              	 .cfi_restore 7
  94              	 .cfi_def_cfa_offset 0
  95 000e 7047     	 bx lr
  96              	.L6:
  97              	 .align 2
  98              	.L5:
  99 0010 00000000 	 .word blackboxConfig_System
 100              	 .cfi_endproc
 101              	.LFE527:
 103              	 .section .text.constrain,"ax",%progbits
 104              	 .align 2
 105              	 .thumb
 106              	 .thumb_func
 108              	constrain:
 109              	.LFB529:
 110              	 .file 3 "D:/XMC/Projekte/Temp/CF_XMC4700/cleanflight/src/main/common/maths.h"
   1:D:/XMC/Projekte/Temp/CF_XMC4700/cleanflight/src/main/common\maths.h **** /*
   2:D:/XMC/Projekte/Temp/CF_XMC4700/cleanflight/src/main/common\maths.h ****  * This file is part of Cleanflight and Betaflight.
   3:D:/XMC/Projekte/Temp/CF_XMC4700/cleanflight/src/main/common\maths.h ****  *
   4:D:/XMC/Projekte/Temp/CF_XMC4700/cleanflight/src/main/common\maths.h ****  * Cleanflight and Betaflight are free software. You can redistribute
   5:D:/XMC/Projekte/Temp/CF_XMC4700/cleanflight/src/main/common\maths.h ****  * this software and/or modify this software under the terms of the
   6:D:/XMC/Projekte/Temp/CF_XMC4700/cleanflight/src/main/common\maths.h ****  * GNU General Public License as published by the Free Software
   7:D:/XMC/Projekte/Temp/CF_XMC4700/cleanflight/src/main/common\maths.h ****  * Foundation, either version 3 of the License, or (at your option)
   8:D:/XMC/Projekte/Temp/CF_XMC4700/cleanflight/src/main/common\maths.h ****  * any later version.
   9:D:/XMC/Projekte/Temp/CF_XMC4700/cleanflight/src/main/common\maths.h ****  *
  10:D:/XMC/Projekte/Temp/CF_XMC4700/cleanflight/src/main/common\maths.h ****  * Cleanflight and Betaflight are distributed in the hope that they
  11:D:/XMC/Projekte/Temp/CF_XMC4700/cleanflight/src/main/common\maths.h ****  * will be useful, but WITHOUT ANY WARRANTY; without even the implied
  12:D:/XMC/Projekte/Temp/CF_XMC4700/cleanflight/src/main/common\maths.h ****  * warranty of MERCHANTABILITY or FITNESS FOR A PARTICULAR PURPOSE.
  13:D:/XMC/Projekte/Temp/CF_XMC4700/cleanflight/src/main/common\maths.h ****  * See the GNU General Public License for more details.
  14:D:/XMC/Projekte/Temp/CF_XMC4700/cleanflight/src/main/common\maths.h ****  *
  15:D:/XMC/Projekte/Temp/CF_XMC4700/cleanflight/src/main/common\maths.h ****  * You should have received a copy of the GNU General Public License
  16:D:/XMC/Projekte/Temp/CF_XMC4700/cleanflight/src/main/common\maths.h ****  * along with this software.
  17:D:/XMC/Projekte/Temp/CF_XMC4700/cleanflight/src/main/common\maths.h ****  *
  18:D:/XMC/Projekte/Temp/CF_XMC4700/cleanflight/src/main/common\maths.h ****  * If not, see <http://www.gnu.org/licenses/>.
  19:D:/XMC/Projekte/Temp/CF_XMC4700/cleanflight/src/main/common\maths.h ****  */
  20:D:/XMC/Projekte/Temp/CF_XMC4700/cleanflight/src/main/common\maths.h **** 
  21:D:/XMC/Projekte/Temp/CF_XMC4700/cleanflight/src/main/common\maths.h **** #pragma once
  22:D:/XMC/Projekte/Temp/CF_XMC4700/cleanflight/src/main/common\maths.h **** 
  23:D:/XMC/Projekte/Temp/CF_XMC4700/cleanflight/src/main/common\maths.h **** #include <stdint.h>
  24:D:/XMC/Projekte/Temp/CF_XMC4700/cleanflight/src/main/common\maths.h **** 
  25:D:/XMC/Projekte/Temp/CF_XMC4700/cleanflight/src/main/common\maths.h **** #ifndef sq
  26:D:/XMC/Projekte/Temp/CF_XMC4700/cleanflight/src/main/common\maths.h **** #define sq(x) ((x)*(x))
  27:D:/XMC/Projekte/Temp/CF_XMC4700/cleanflight/src/main/common\maths.h **** #endif
  28:D:/XMC/Projekte/Temp/CF_XMC4700/cleanflight/src/main/common\maths.h **** #define power3(x) ((x)*(x)*(x))
  29:D:/XMC/Projekte/Temp/CF_XMC4700/cleanflight/src/main/common\maths.h **** 
  30:D:/XMC/Projekte/Temp/CF_XMC4700/cleanflight/src/main/common\maths.h **** // Undefine this for use libc sinf/cosf. Keep this defined to use fast sin/cos approximations
  31:D:/XMC/Projekte/Temp/CF_XMC4700/cleanflight/src/main/common\maths.h **** #define FAST_MATH             // order 9 approximation
  32:D:/XMC/Projekte/Temp/CF_XMC4700/cleanflight/src/main/common\maths.h **** #define VERY_FAST_MATH      // order 7 approximation
  33:D:/XMC/Projekte/Temp/CF_XMC4700/cleanflight/src/main/common\maths.h **** 
  34:D:/XMC/Projekte/Temp/CF_XMC4700/cleanflight/src/main/common\maths.h **** // Use floating point M_PI instead explicitly.
  35:D:/XMC/Projekte/Temp/CF_XMC4700/cleanflight/src/main/common\maths.h **** #define M_PIf       3.14159265358979323846f
  36:D:/XMC/Projekte/Temp/CF_XMC4700/cleanflight/src/main/common\maths.h **** 
  37:D:/XMC/Projekte/Temp/CF_XMC4700/cleanflight/src/main/common\maths.h **** #define RAD    (M_PIf / 180.0f)
  38:D:/XMC/Projekte/Temp/CF_XMC4700/cleanflight/src/main/common\maths.h **** #define DEGREES_TO_DECIDEGREES(angle) ((angle) * 10)
  39:D:/XMC/Projekte/Temp/CF_XMC4700/cleanflight/src/main/common\maths.h **** #define DECIDEGREES_TO_DEGREES(angle) ((angle) / 10)
  40:D:/XMC/Projekte/Temp/CF_XMC4700/cleanflight/src/main/common\maths.h **** #define DECIDEGREES_TO_RADIANS(angle) ((angle) / 10.0f * 0.0174532925f)
  41:D:/XMC/Projekte/Temp/CF_XMC4700/cleanflight/src/main/common\maths.h **** #define DEGREES_TO_RADIANS(angle) ((angle) * 0.0174532925f)
  42:D:/XMC/Projekte/Temp/CF_XMC4700/cleanflight/src/main/common\maths.h **** 
  43:D:/XMC/Projekte/Temp/CF_XMC4700/cleanflight/src/main/common\maths.h **** #define CM_S_TO_KM_H(centimetersPerSecond) ((centimetersPerSecond) * 36 / 1000)
  44:D:/XMC/Projekte/Temp/CF_XMC4700/cleanflight/src/main/common\maths.h **** #define CM_S_TO_MPH(centimetersPerSecond) ((centimetersPerSecond) * 10000 / 5080 / 88)
  45:D:/XMC/Projekte/Temp/CF_XMC4700/cleanflight/src/main/common\maths.h **** 
  46:D:/XMC/Projekte/Temp/CF_XMC4700/cleanflight/src/main/common\maths.h **** #define MIN(a,b) \
  47:D:/XMC/Projekte/Temp/CF_XMC4700/cleanflight/src/main/common\maths.h ****   __extension__ ({ __typeof__ (a) _a = (a); \
  48:D:/XMC/Projekte/Temp/CF_XMC4700/cleanflight/src/main/common\maths.h ****   __typeof__ (b) _b = (b); \
  49:D:/XMC/Projekte/Temp/CF_XMC4700/cleanflight/src/main/common\maths.h ****   _a < _b ? _a : _b; })
  50:D:/XMC/Projekte/Temp/CF_XMC4700/cleanflight/src/main/common\maths.h **** #define MAX(a,b) \
  51:D:/XMC/Projekte/Temp/CF_XMC4700/cleanflight/src/main/common\maths.h ****   __extension__ ({ __typeof__ (a) _a = (a); \
  52:D:/XMC/Projekte/Temp/CF_XMC4700/cleanflight/src/main/common\maths.h ****   __typeof__ (b) _b = (b); \
  53:D:/XMC/Projekte/Temp/CF_XMC4700/cleanflight/src/main/common\maths.h ****   _a > _b ? _a : _b; })
  54:D:/XMC/Projekte/Temp/CF_XMC4700/cleanflight/src/main/common\maths.h **** #define ABS(x) \
  55:D:/XMC/Projekte/Temp/CF_XMC4700/cleanflight/src/main/common\maths.h ****   __extension__ ({ __typeof__ (x) _x = (x); \
  56:D:/XMC/Projekte/Temp/CF_XMC4700/cleanflight/src/main/common\maths.h ****   _x > 0 ? _x : -_x; })
  57:D:/XMC/Projekte/Temp/CF_XMC4700/cleanflight/src/main/common\maths.h **** 
  58:D:/XMC/Projekte/Temp/CF_XMC4700/cleanflight/src/main/common\maths.h **** #define Q12 (1 << 12)
  59:D:/XMC/Projekte/Temp/CF_XMC4700/cleanflight/src/main/common\maths.h **** 
  60:D:/XMC/Projekte/Temp/CF_XMC4700/cleanflight/src/main/common\maths.h **** #define HZ_TO_INTERVAL_US(x) (1000000 / (x))
  61:D:/XMC/Projekte/Temp/CF_XMC4700/cleanflight/src/main/common\maths.h **** 
  62:D:/XMC/Projekte/Temp/CF_XMC4700/cleanflight/src/main/common\maths.h **** typedef int32_t fix12_t;
  63:D:/XMC/Projekte/Temp/CF_XMC4700/cleanflight/src/main/common\maths.h **** 
  64:D:/XMC/Projekte/Temp/CF_XMC4700/cleanflight/src/main/common\maths.h **** typedef struct stdev_s
  65:D:/XMC/Projekte/Temp/CF_XMC4700/cleanflight/src/main/common\maths.h **** {
  66:D:/XMC/Projekte/Temp/CF_XMC4700/cleanflight/src/main/common\maths.h ****     float m_oldM, m_newM, m_oldS, m_newS;
  67:D:/XMC/Projekte/Temp/CF_XMC4700/cleanflight/src/main/common\maths.h ****     int m_n;
  68:D:/XMC/Projekte/Temp/CF_XMC4700/cleanflight/src/main/common\maths.h **** } stdev_t;
  69:D:/XMC/Projekte/Temp/CF_XMC4700/cleanflight/src/main/common\maths.h **** 
  70:D:/XMC/Projekte/Temp/CF_XMC4700/cleanflight/src/main/common\maths.h **** // Floating point 3 vector.
  71:D:/XMC/Projekte/Temp/CF_XMC4700/cleanflight/src/main/common\maths.h **** typedef struct fp_vector {
  72:D:/XMC/Projekte/Temp/CF_XMC4700/cleanflight/src/main/common\maths.h ****     float X;
  73:D:/XMC/Projekte/Temp/CF_XMC4700/cleanflight/src/main/common\maths.h ****     float Y;
  74:D:/XMC/Projekte/Temp/CF_XMC4700/cleanflight/src/main/common\maths.h ****     float Z;
  75:D:/XMC/Projekte/Temp/CF_XMC4700/cleanflight/src/main/common\maths.h **** } t_fp_vector_def;
  76:D:/XMC/Projekte/Temp/CF_XMC4700/cleanflight/src/main/common\maths.h **** 
  77:D:/XMC/Projekte/Temp/CF_XMC4700/cleanflight/src/main/common\maths.h **** typedef union u_fp_vector {
  78:D:/XMC/Projekte/Temp/CF_XMC4700/cleanflight/src/main/common\maths.h ****     float A[3];
  79:D:/XMC/Projekte/Temp/CF_XMC4700/cleanflight/src/main/common\maths.h ****     t_fp_vector_def V;
  80:D:/XMC/Projekte/Temp/CF_XMC4700/cleanflight/src/main/common\maths.h **** } t_fp_vector;
  81:D:/XMC/Projekte/Temp/CF_XMC4700/cleanflight/src/main/common\maths.h **** 
  82:D:/XMC/Projekte/Temp/CF_XMC4700/cleanflight/src/main/common\maths.h **** // Floating point Euler angles.
  83:D:/XMC/Projekte/Temp/CF_XMC4700/cleanflight/src/main/common\maths.h **** // Be carefull, could be either of degrees or radians.
  84:D:/XMC/Projekte/Temp/CF_XMC4700/cleanflight/src/main/common\maths.h **** typedef struct fp_angles {
  85:D:/XMC/Projekte/Temp/CF_XMC4700/cleanflight/src/main/common\maths.h ****     float roll;
  86:D:/XMC/Projekte/Temp/CF_XMC4700/cleanflight/src/main/common\maths.h ****     float pitch;
  87:D:/XMC/Projekte/Temp/CF_XMC4700/cleanflight/src/main/common\maths.h ****     float yaw;
  88:D:/XMC/Projekte/Temp/CF_XMC4700/cleanflight/src/main/common\maths.h **** } fp_angles_def;
  89:D:/XMC/Projekte/Temp/CF_XMC4700/cleanflight/src/main/common\maths.h **** 
  90:D:/XMC/Projekte/Temp/CF_XMC4700/cleanflight/src/main/common\maths.h **** typedef union {
  91:D:/XMC/Projekte/Temp/CF_XMC4700/cleanflight/src/main/common\maths.h ****     float raw[3];
  92:D:/XMC/Projekte/Temp/CF_XMC4700/cleanflight/src/main/common\maths.h ****     fp_angles_def angles;
  93:D:/XMC/Projekte/Temp/CF_XMC4700/cleanflight/src/main/common\maths.h **** } fp_angles_t;
  94:D:/XMC/Projekte/Temp/CF_XMC4700/cleanflight/src/main/common\maths.h **** 
  95:D:/XMC/Projekte/Temp/CF_XMC4700/cleanflight/src/main/common\maths.h **** int gcd(int num, int denom);
  96:D:/XMC/Projekte/Temp/CF_XMC4700/cleanflight/src/main/common\maths.h **** float powerf(float base, int exp);
  97:D:/XMC/Projekte/Temp/CF_XMC4700/cleanflight/src/main/common\maths.h **** int32_t applyDeadband(int32_t value, int32_t deadband);
  98:D:/XMC/Projekte/Temp/CF_XMC4700/cleanflight/src/main/common\maths.h **** float fapplyDeadband(float value, float deadband);
  99:D:/XMC/Projekte/Temp/CF_XMC4700/cleanflight/src/main/common\maths.h **** 
 100:D:/XMC/Projekte/Temp/CF_XMC4700/cleanflight/src/main/common\maths.h **** void devClear(stdev_t *dev);
 101:D:/XMC/Projekte/Temp/CF_XMC4700/cleanflight/src/main/common\maths.h **** void devPush(stdev_t *dev, float x);
 102:D:/XMC/Projekte/Temp/CF_XMC4700/cleanflight/src/main/common\maths.h **** float devVariance(stdev_t *dev);
 103:D:/XMC/Projekte/Temp/CF_XMC4700/cleanflight/src/main/common\maths.h **** float devStandardDeviation(stdev_t *dev);
 104:D:/XMC/Projekte/Temp/CF_XMC4700/cleanflight/src/main/common\maths.h **** float degreesToRadians(int16_t degrees);
 105:D:/XMC/Projekte/Temp/CF_XMC4700/cleanflight/src/main/common\maths.h **** 
 106:D:/XMC/Projekte/Temp/CF_XMC4700/cleanflight/src/main/common\maths.h **** int scaleRange(int x, int srcFrom, int srcTo, int destFrom, int destTo);
 107:D:/XMC/Projekte/Temp/CF_XMC4700/cleanflight/src/main/common\maths.h **** float scaleRangef(float x, float srcFrom, float srcTo, float destFrom, float destTo);
 108:D:/XMC/Projekte/Temp/CF_XMC4700/cleanflight/src/main/common\maths.h **** 
 109:D:/XMC/Projekte/Temp/CF_XMC4700/cleanflight/src/main/common\maths.h **** void normalizeV(struct fp_vector *src, struct fp_vector *dest);
 110:D:/XMC/Projekte/Temp/CF_XMC4700/cleanflight/src/main/common\maths.h **** 
 111:D:/XMC/Projekte/Temp/CF_XMC4700/cleanflight/src/main/common\maths.h **** void rotateV(struct fp_vector *v, fp_angles_t *delta);
 112:D:/XMC/Projekte/Temp/CF_XMC4700/cleanflight/src/main/common\maths.h **** void buildRotationMatrix(fp_angles_t *delta, float matrix[3][3]);
 113:D:/XMC/Projekte/Temp/CF_XMC4700/cleanflight/src/main/common\maths.h **** 
 114:D:/XMC/Projekte/Temp/CF_XMC4700/cleanflight/src/main/common\maths.h **** int32_t quickMedianFilter3(int32_t * v);
 115:D:/XMC/Projekte/Temp/CF_XMC4700/cleanflight/src/main/common\maths.h **** int32_t quickMedianFilter5(int32_t * v);
 116:D:/XMC/Projekte/Temp/CF_XMC4700/cleanflight/src/main/common\maths.h **** int32_t quickMedianFilter7(int32_t * v);
 117:D:/XMC/Projekte/Temp/CF_XMC4700/cleanflight/src/main/common\maths.h **** int32_t quickMedianFilter9(int32_t * v);
 118:D:/XMC/Projekte/Temp/CF_XMC4700/cleanflight/src/main/common\maths.h **** 
 119:D:/XMC/Projekte/Temp/CF_XMC4700/cleanflight/src/main/common\maths.h **** float quickMedianFilter3f(float * v);
 120:D:/XMC/Projekte/Temp/CF_XMC4700/cleanflight/src/main/common\maths.h **** float quickMedianFilter5f(float * v);
 121:D:/XMC/Projekte/Temp/CF_XMC4700/cleanflight/src/main/common\maths.h **** float quickMedianFilter7f(float * v);
 122:D:/XMC/Projekte/Temp/CF_XMC4700/cleanflight/src/main/common\maths.h **** float quickMedianFilter9f(float * v);
 123:D:/XMC/Projekte/Temp/CF_XMC4700/cleanflight/src/main/common\maths.h **** 
 124:D:/XMC/Projekte/Temp/CF_XMC4700/cleanflight/src/main/common\maths.h **** #if defined(FAST_MATH) || defined(VERY_FAST_MATH)
 125:D:/XMC/Projekte/Temp/CF_XMC4700/cleanflight/src/main/common\maths.h **** float sin_approx(float x);
 126:D:/XMC/Projekte/Temp/CF_XMC4700/cleanflight/src/main/common\maths.h **** float cos_approx(float x);
 127:D:/XMC/Projekte/Temp/CF_XMC4700/cleanflight/src/main/common\maths.h **** float atan2_approx(float y, float x);
 128:D:/XMC/Projekte/Temp/CF_XMC4700/cleanflight/src/main/common\maths.h **** float acos_approx(float x);
 129:D:/XMC/Projekte/Temp/CF_XMC4700/cleanflight/src/main/common\maths.h **** #define tan_approx(x)       (sin_approx(x) / cos_approx(x))
 130:D:/XMC/Projekte/Temp/CF_XMC4700/cleanflight/src/main/common\maths.h **** float exp_approx(float val);
 131:D:/XMC/Projekte/Temp/CF_XMC4700/cleanflight/src/main/common\maths.h **** float log_approx(float val);
 132:D:/XMC/Projekte/Temp/CF_XMC4700/cleanflight/src/main/common\maths.h **** float pow_approx(float a, float b);
 133:D:/XMC/Projekte/Temp/CF_XMC4700/cleanflight/src/main/common\maths.h **** #else
 134:D:/XMC/Projekte/Temp/CF_XMC4700/cleanflight/src/main/common\maths.h **** #define sin_approx(x)   sinf(x)
 135:D:/XMC/Projekte/Temp/CF_XMC4700/cleanflight/src/main/common\maths.h **** #define cos_approx(x)   cosf(x)
 136:D:/XMC/Projekte/Temp/CF_XMC4700/cleanflight/src/main/common\maths.h **** #define atan2_approx(y,x)   atan2f(y,x)
 137:D:/XMC/Projekte/Temp/CF_XMC4700/cleanflight/src/main/common\maths.h **** #define acos_approx(x)      acosf(x)
 138:D:/XMC/Projekte/Temp/CF_XMC4700/cleanflight/src/main/common\maths.h **** #define tan_approx(x)       tanf(x)
 139:D:/XMC/Projekte/Temp/CF_XMC4700/cleanflight/src/main/common\maths.h **** #define exp_approx(x)       expf(x)
 140:D:/XMC/Projekte/Temp/CF_XMC4700/cleanflight/src/main/common\maths.h **** #define log_approx(x)       logf(x)
 141:D:/XMC/Projekte/Temp/CF_XMC4700/cleanflight/src/main/common\maths.h **** #define pow_approx(a, b)    powf(b, a)
 142:D:/XMC/Projekte/Temp/CF_XMC4700/cleanflight/src/main/common\maths.h **** #endif
 143:D:/XMC/Projekte/Temp/CF_XMC4700/cleanflight/src/main/common\maths.h **** 
 144:D:/XMC/Projekte/Temp/CF_XMC4700/cleanflight/src/main/common\maths.h **** void arraySubInt32(int32_t *dest, int32_t *array1, int32_t *array2, int count);
 145:D:/XMC/Projekte/Temp/CF_XMC4700/cleanflight/src/main/common\maths.h **** 
 146:D:/XMC/Projekte/Temp/CF_XMC4700/cleanflight/src/main/common\maths.h **** int16_t qPercent(fix12_t q);
 147:D:/XMC/Projekte/Temp/CF_XMC4700/cleanflight/src/main/common\maths.h **** int16_t qMultiply(fix12_t q, int16_t input);
 148:D:/XMC/Projekte/Temp/CF_XMC4700/cleanflight/src/main/common\maths.h **** fix12_t qConstruct(int16_t num, int16_t den);
 149:D:/XMC/Projekte/Temp/CF_XMC4700/cleanflight/src/main/common\maths.h **** 
 150:D:/XMC/Projekte/Temp/CF_XMC4700/cleanflight/src/main/common\maths.h **** static inline int constrain(int amt, int low, int high)
 151:D:/XMC/Projekte/Temp/CF_XMC4700/cleanflight/src/main/common\maths.h **** {
 111              	 .loc 3 151 0
 112              	 .cfi_startproc
 113              	 
 114              	 
 115              	 
 116 0000 80B4     	 push {r7}
 117              	.LCFI10:
 118              	 .cfi_def_cfa_offset 4
 119              	 .cfi_offset 7,-4
 120 0002 85B0     	 sub sp,sp,#20
 121              	.LCFI11:
 122              	 .cfi_def_cfa_offset 24
 123 0004 00AF     	 add r7,sp,#0
 124              	.LCFI12:
 125              	 .cfi_def_cfa_register 7
 126 0006 F860     	 str r0,[r7,#12]
 127 0008 B960     	 str r1,[r7,#8]
 128 000a 7A60     	 str r2,[r7,#4]
 152:D:/XMC/Projekte/Temp/CF_XMC4700/cleanflight/src/main/common\maths.h ****     if (amt < low)
 129              	 .loc 3 152 0
 130 000c FA68     	 ldr r2,[r7,#12]
 131 000e BB68     	 ldr r3,[r7,#8]
 132 0010 9A42     	 cmp r2,r3
 133 0012 01DA     	 bge .L8
 153:D:/XMC/Projekte/Temp/CF_XMC4700/cleanflight/src/main/common\maths.h ****         return low;
 134              	 .loc 3 153 0
 135 0014 BB68     	 ldr r3,[r7,#8]
 136 0016 06E0     	 b .L9
 137              	.L8:
 154:D:/XMC/Projekte/Temp/CF_XMC4700/cleanflight/src/main/common\maths.h ****     else if (amt > high)
 138              	 .loc 3 154 0
 139 0018 FA68     	 ldr r2,[r7,#12]
 140 001a 7B68     	 ldr r3,[r7,#4]
 141 001c 9A42     	 cmp r2,r3
 142 001e 01DD     	 ble .L10
 155:D:/XMC/Projekte/Temp/CF_XMC4700/cleanflight/src/main/common\maths.h ****         return high;
 143              	 .loc 3 155 0
 144 0020 7B68     	 ldr r3,[r7,#4]
 145 0022 00E0     	 b .L9
 146              	.L10:
 156:D:/XMC/Projekte/Temp/CF_XMC4700/cleanflight/src/main/common\maths.h ****     else
 157:D:/XMC/Projekte/Temp/CF_XMC4700/cleanflight/src/main/common\maths.h ****         return amt;
 147              	 .loc 3 157 0
 148 0024 FB68     	 ldr r3,[r7,#12]
 149              	.L9:
 158:D:/XMC/Projekte/Temp/CF_XMC4700/cleanflight/src/main/common\maths.h **** }
 150              	 .loc 3 158 0
 151 0026 1846     	 mov r0,r3
 152 0028 1437     	 adds r7,r7,#20
 153              	.LCFI13:
 154              	 .cfi_def_cfa_offset 4
 155 002a BD46     	 mov sp,r7
 156              	.LCFI14:
 157              	 .cfi_def_cfa_register 13
 158              	 
 159 002c 5DF8047B 	 ldr r7,[sp],#4
 160              	.LCFI15:
 161              	 .cfi_restore 7
 162              	 .cfi_def_cfa_offset 0
 163 0030 7047     	 bx lr
 164              	 .cfi_endproc
 165              	.LFE529:
 167 0032 00BF     	 .section .text.rxConfig,"ax",%progbits
 168              	 .align 2
 169              	 .thumb
 170              	 .thumb_func
 172              	rxConfig:
 173              	.LFB533:
 174              	 .file 4 "D:/XMC/Projekte/Temp/CF_XMC4700/cleanflight/src/main/pg/rx.h"
   1:D:/XMC/Projekte/Temp/CF_XMC4700/cleanflight/src/main/pg\rx.h **** /*
   2:D:/XMC/Projekte/Temp/CF_XMC4700/cleanflight/src/main/pg\rx.h ****  * This file is part of Cleanflight and Betaflight.
   3:D:/XMC/Projekte/Temp/CF_XMC4700/cleanflight/src/main/pg\rx.h ****  *
   4:D:/XMC/Projekte/Temp/CF_XMC4700/cleanflight/src/main/pg\rx.h ****  * Cleanflight and Betaflight are free software. You can redistribute
   5:D:/XMC/Projekte/Temp/CF_XMC4700/cleanflight/src/main/pg\rx.h ****  * this software and/or modify this software under the terms of the
   6:D:/XMC/Projekte/Temp/CF_XMC4700/cleanflight/src/main/pg\rx.h ****  * GNU General Public License as published by the Free Software
   7:D:/XMC/Projekte/Temp/CF_XMC4700/cleanflight/src/main/pg\rx.h ****  * Foundation, either version 3 of the License, or (at your option)
   8:D:/XMC/Projekte/Temp/CF_XMC4700/cleanflight/src/main/pg\rx.h ****  * any later version.
   9:D:/XMC/Projekte/Temp/CF_XMC4700/cleanflight/src/main/pg\rx.h ****  *
  10:D:/XMC/Projekte/Temp/CF_XMC4700/cleanflight/src/main/pg\rx.h ****  * Cleanflight and Betaflight are distributed in the hope that they
  11:D:/XMC/Projekte/Temp/CF_XMC4700/cleanflight/src/main/pg\rx.h ****  * will be useful, but WITHOUT ANY WARRANTY; without even the implied
  12:D:/XMC/Projekte/Temp/CF_XMC4700/cleanflight/src/main/pg\rx.h ****  * warranty of MERCHANTABILITY or FITNESS FOR A PARTICULAR PURPOSE.
  13:D:/XMC/Projekte/Temp/CF_XMC4700/cleanflight/src/main/pg\rx.h ****  * See the GNU General Public License for more details.
  14:D:/XMC/Projekte/Temp/CF_XMC4700/cleanflight/src/main/pg\rx.h ****  *
  15:D:/XMC/Projekte/Temp/CF_XMC4700/cleanflight/src/main/pg\rx.h ****  * You should have received a copy of the GNU General Public License
  16:D:/XMC/Projekte/Temp/CF_XMC4700/cleanflight/src/main/pg\rx.h ****  * along with this software.
  17:D:/XMC/Projekte/Temp/CF_XMC4700/cleanflight/src/main/pg\rx.h ****  *
  18:D:/XMC/Projekte/Temp/CF_XMC4700/cleanflight/src/main/pg\rx.h ****  * If not, see <http://www.gnu.org/licenses/>.
  19:D:/XMC/Projekte/Temp/CF_XMC4700/cleanflight/src/main/pg\rx.h ****  */
  20:D:/XMC/Projekte/Temp/CF_XMC4700/cleanflight/src/main/pg\rx.h **** 
  21:D:/XMC/Projekte/Temp/CF_XMC4700/cleanflight/src/main/pg\rx.h **** #pragma once
  22:D:/XMC/Projekte/Temp/CF_XMC4700/cleanflight/src/main/pg\rx.h **** 
  23:D:/XMC/Projekte/Temp/CF_XMC4700/cleanflight/src/main/pg\rx.h **** #include "drivers/io_types.h"
  24:D:/XMC/Projekte/Temp/CF_XMC4700/cleanflight/src/main/pg\rx.h **** 
  25:D:/XMC/Projekte/Temp/CF_XMC4700/cleanflight/src/main/pg\rx.h **** #include "pg/pg.h"
  26:D:/XMC/Projekte/Temp/CF_XMC4700/cleanflight/src/main/pg\rx.h **** 
  27:D:/XMC/Projekte/Temp/CF_XMC4700/cleanflight/src/main/pg\rx.h **** typedef struct rxConfig_s {
  28:D:/XMC/Projekte/Temp/CF_XMC4700/cleanflight/src/main/pg\rx.h ****     uint8_t rcmap[RX_MAPPABLE_CHANNEL_COUNT];  // mapping of radio channels to internal RPYTA+ orde
  29:D:/XMC/Projekte/Temp/CF_XMC4700/cleanflight/src/main/pg\rx.h ****     uint8_t serialrx_provider;              // type of UART-based receiver (0 = spek 10, 1 = spek 1
  30:D:/XMC/Projekte/Temp/CF_XMC4700/cleanflight/src/main/pg\rx.h ****     uint8_t serialrx_inverted;              // invert the serial RX protocol compared to it's defau
  31:D:/XMC/Projekte/Temp/CF_XMC4700/cleanflight/src/main/pg\rx.h ****     uint8_t halfDuplex;                     // allow rx to operate in half duplex mode on F4, ignor
  32:D:/XMC/Projekte/Temp/CF_XMC4700/cleanflight/src/main/pg\rx.h ****     ioTag_t spektrum_bind_pin_override_ioTag;
  33:D:/XMC/Projekte/Temp/CF_XMC4700/cleanflight/src/main/pg\rx.h ****     ioTag_t spektrum_bind_plug_ioTag;
  34:D:/XMC/Projekte/Temp/CF_XMC4700/cleanflight/src/main/pg\rx.h ****     uint8_t spektrum_sat_bind;              // number of bind pulses for Spektrum satellite receive
  35:D:/XMC/Projekte/Temp/CF_XMC4700/cleanflight/src/main/pg\rx.h ****     uint8_t spektrum_sat_bind_autoreset;    // whenever we will reset (exit) binding mode after har
  36:D:/XMC/Projekte/Temp/CF_XMC4700/cleanflight/src/main/pg\rx.h ****     uint8_t rssi_channel;
  37:D:/XMC/Projekte/Temp/CF_XMC4700/cleanflight/src/main/pg\rx.h ****     uint8_t rssi_scale;
  38:D:/XMC/Projekte/Temp/CF_XMC4700/cleanflight/src/main/pg\rx.h ****     uint8_t rssi_invert;
  39:D:/XMC/Projekte/Temp/CF_XMC4700/cleanflight/src/main/pg\rx.h ****     uint16_t midrc;                         // Some radios have not a neutral point centered on 150
  40:D:/XMC/Projekte/Temp/CF_XMC4700/cleanflight/src/main/pg\rx.h ****     uint16_t mincheck;                      // minimum rc end
  41:D:/XMC/Projekte/Temp/CF_XMC4700/cleanflight/src/main/pg\rx.h ****     uint16_t maxcheck;                      // maximum rc end
  42:D:/XMC/Projekte/Temp/CF_XMC4700/cleanflight/src/main/pg\rx.h ****     uint8_t rcInterpolation;
  43:D:/XMC/Projekte/Temp/CF_XMC4700/cleanflight/src/main/pg\rx.h ****     uint8_t rcInterpolationChannels;
  44:D:/XMC/Projekte/Temp/CF_XMC4700/cleanflight/src/main/pg\rx.h ****     uint8_t rcInterpolationInterval;
  45:D:/XMC/Projekte/Temp/CF_XMC4700/cleanflight/src/main/pg\rx.h ****     uint8_t fpvCamAngleDegrees;             // Camera angle to be scaled into rc commands
  46:D:/XMC/Projekte/Temp/CF_XMC4700/cleanflight/src/main/pg\rx.h ****     uint8_t airModeActivateThreshold;       // Throttle setpoint percent where airmode gets activat
  47:D:/XMC/Projekte/Temp/CF_XMC4700/cleanflight/src/main/pg\rx.h **** 
  48:D:/XMC/Projekte/Temp/CF_XMC4700/cleanflight/src/main/pg\rx.h ****     uint16_t rx_min_usec;
  49:D:/XMC/Projekte/Temp/CF_XMC4700/cleanflight/src/main/pg\rx.h ****     uint16_t rx_max_usec;
  50:D:/XMC/Projekte/Temp/CF_XMC4700/cleanflight/src/main/pg\rx.h ****     uint8_t max_aux_channel;
  51:D:/XMC/Projekte/Temp/CF_XMC4700/cleanflight/src/main/pg\rx.h ****     uint8_t rssi_src_frame_errors;          // true to use frame drop flags in the rx protocol
  52:D:/XMC/Projekte/Temp/CF_XMC4700/cleanflight/src/main/pg\rx.h ****     int8_t rssi_offset;                     // offset applied to the RSSI value before it is return
  53:D:/XMC/Projekte/Temp/CF_XMC4700/cleanflight/src/main/pg\rx.h ****     uint8_t rc_smoothing_type;              // Determines the smoothing algorithm to use: INTERPOLA
  54:D:/XMC/Projekte/Temp/CF_XMC4700/cleanflight/src/main/pg\rx.h ****     uint8_t rc_smoothing_input_cutoff;      // Filter cutoff frequency for the input filter (0 = au
  55:D:/XMC/Projekte/Temp/CF_XMC4700/cleanflight/src/main/pg\rx.h ****     uint8_t rc_smoothing_derivative_cutoff; // Filter cutoff frequency for the setpoint weight deri
  56:D:/XMC/Projekte/Temp/CF_XMC4700/cleanflight/src/main/pg\rx.h ****     uint8_t rc_smoothing_debug_axis;        // Axis to log as debug values when debug_mode = RC_SMO
  57:D:/XMC/Projekte/Temp/CF_XMC4700/cleanflight/src/main/pg\rx.h ****     uint8_t rc_smoothing_input_type;        // Input filter type (0 = PT1, 1 = BIQUAD)
  58:D:/XMC/Projekte/Temp/CF_XMC4700/cleanflight/src/main/pg\rx.h ****     uint8_t rc_smoothing_derivative_type;   // Derivative filter type (0 = OFF, 1 = PT1, 2 = BIQUAD
  59:D:/XMC/Projekte/Temp/CF_XMC4700/cleanflight/src/main/pg\rx.h **** } rxConfig_t;
  60:D:/XMC/Projekte/Temp/CF_XMC4700/cleanflight/src/main/pg\rx.h **** 
  61:D:/XMC/Projekte/Temp/CF_XMC4700/cleanflight/src/main/pg\rx.h **** PG_DECLARE(rxConfig_t, rxConfig);
 175              	 .loc 4 61 0
 176              	 .cfi_startproc
 177              	 
 178              	 
 179              	 
 180 0000 80B4     	 push {r7}
 181              	.LCFI16:
 182              	 .cfi_def_cfa_offset 4
 183              	 .cfi_offset 7,-4
 184 0002 00AF     	 add r7,sp,#0
 185              	.LCFI17:
 186              	 .cfi_def_cfa_register 7
 187              	 .loc 4 61 0
 188 0004 024B     	 ldr r3,.L13
 189 0006 1846     	 mov r0,r3
 190 0008 BD46     	 mov sp,r7
 191              	.LCFI18:
 192              	 .cfi_def_cfa_register 13
 193              	 
 194 000a 5DF8047B 	 ldr r7,[sp],#4
 195              	.LCFI19:
 196              	 .cfi_restore 7
 197              	 .cfi_def_cfa_offset 0
 198 000e 7047     	 bx lr
 199              	.L14:
 200              	 .align 2
 201              	.L13:
 202 0010 00000000 	 .word rxConfig_System
 203              	 .cfi_endproc
 204              	.LFE533:
 206              	 .section .text.accelerometerConfig,"ax",%progbits
 207              	 .align 2
 208              	 .thumb
 209              	 .thumb_func
 211              	accelerometerConfig:
 212              	.LFB543:
 213              	 .file 5 "D:/XMC/Projekte/Temp/CF_XMC4700/cleanflight/src/main/sensors/acceleration.h"
   1:D:/XMC/Projekte/Temp/CF_XMC4700/cleanflight/src/main/sensors\acceleration.h **** /*
   2:D:/XMC/Projekte/Temp/CF_XMC4700/cleanflight/src/main/sensors\acceleration.h ****  * This file is part of Cleanflight and Betaflight.
   3:D:/XMC/Projekte/Temp/CF_XMC4700/cleanflight/src/main/sensors\acceleration.h ****  *
   4:D:/XMC/Projekte/Temp/CF_XMC4700/cleanflight/src/main/sensors\acceleration.h ****  * Cleanflight and Betaflight are free software. You can redistribute
   5:D:/XMC/Projekte/Temp/CF_XMC4700/cleanflight/src/main/sensors\acceleration.h ****  * this software and/or modify this software under the terms of the
   6:D:/XMC/Projekte/Temp/CF_XMC4700/cleanflight/src/main/sensors\acceleration.h ****  * GNU General Public License as published by the Free Software
   7:D:/XMC/Projekte/Temp/CF_XMC4700/cleanflight/src/main/sensors\acceleration.h ****  * Foundation, either version 3 of the License, or (at your option)
   8:D:/XMC/Projekte/Temp/CF_XMC4700/cleanflight/src/main/sensors\acceleration.h ****  * any later version.
   9:D:/XMC/Projekte/Temp/CF_XMC4700/cleanflight/src/main/sensors\acceleration.h ****  *
  10:D:/XMC/Projekte/Temp/CF_XMC4700/cleanflight/src/main/sensors\acceleration.h ****  * Cleanflight and Betaflight are distributed in the hope that they
  11:D:/XMC/Projekte/Temp/CF_XMC4700/cleanflight/src/main/sensors\acceleration.h ****  * will be useful, but WITHOUT ANY WARRANTY; without even the implied
  12:D:/XMC/Projekte/Temp/CF_XMC4700/cleanflight/src/main/sensors\acceleration.h ****  * warranty of MERCHANTABILITY or FITNESS FOR A PARTICULAR PURPOSE.
  13:D:/XMC/Projekte/Temp/CF_XMC4700/cleanflight/src/main/sensors\acceleration.h ****  * See the GNU General Public License for more details.
  14:D:/XMC/Projekte/Temp/CF_XMC4700/cleanflight/src/main/sensors\acceleration.h ****  *
  15:D:/XMC/Projekte/Temp/CF_XMC4700/cleanflight/src/main/sensors\acceleration.h ****  * You should have received a copy of the GNU General Public License
  16:D:/XMC/Projekte/Temp/CF_XMC4700/cleanflight/src/main/sensors\acceleration.h ****  * along with this software.
  17:D:/XMC/Projekte/Temp/CF_XMC4700/cleanflight/src/main/sensors\acceleration.h ****  *
  18:D:/XMC/Projekte/Temp/CF_XMC4700/cleanflight/src/main/sensors\acceleration.h ****  * If not, see <http://www.gnu.org/licenses/>.
  19:D:/XMC/Projekte/Temp/CF_XMC4700/cleanflight/src/main/sensors\acceleration.h ****  */
  20:D:/XMC/Projekte/Temp/CF_XMC4700/cleanflight/src/main/sensors\acceleration.h **** 
  21:D:/XMC/Projekte/Temp/CF_XMC4700/cleanflight/src/main/sensors\acceleration.h **** #pragma once
  22:D:/XMC/Projekte/Temp/CF_XMC4700/cleanflight/src/main/sensors\acceleration.h **** 
  23:D:/XMC/Projekte/Temp/CF_XMC4700/cleanflight/src/main/sensors\acceleration.h **** #include "common/time.h"
  24:D:/XMC/Projekte/Temp/CF_XMC4700/cleanflight/src/main/sensors\acceleration.h **** #include "pg/pg.h"
  25:D:/XMC/Projekte/Temp/CF_XMC4700/cleanflight/src/main/sensors\acceleration.h **** #include "drivers/accgyro/accgyro.h"
  26:D:/XMC/Projekte/Temp/CF_XMC4700/cleanflight/src/main/sensors\acceleration.h **** #include "sensors/sensors.h"
  27:D:/XMC/Projekte/Temp/CF_XMC4700/cleanflight/src/main/sensors\acceleration.h **** 
  28:D:/XMC/Projekte/Temp/CF_XMC4700/cleanflight/src/main/sensors\acceleration.h **** // Type of accelerometer used/detected
  29:D:/XMC/Projekte/Temp/CF_XMC4700/cleanflight/src/main/sensors\acceleration.h **** typedef enum {
  30:D:/XMC/Projekte/Temp/CF_XMC4700/cleanflight/src/main/sensors\acceleration.h ****     ACC_DEFAULT,
  31:D:/XMC/Projekte/Temp/CF_XMC4700/cleanflight/src/main/sensors\acceleration.h ****     ACC_NONE,
  32:D:/XMC/Projekte/Temp/CF_XMC4700/cleanflight/src/main/sensors\acceleration.h ****     ACC_ADXL345,
  33:D:/XMC/Projekte/Temp/CF_XMC4700/cleanflight/src/main/sensors\acceleration.h ****     ACC_MPU6050,
  34:D:/XMC/Projekte/Temp/CF_XMC4700/cleanflight/src/main/sensors\acceleration.h ****     ACC_MMA8452,
  35:D:/XMC/Projekte/Temp/CF_XMC4700/cleanflight/src/main/sensors\acceleration.h ****     ACC_BMA280,
  36:D:/XMC/Projekte/Temp/CF_XMC4700/cleanflight/src/main/sensors\acceleration.h ****     ACC_LSM303DLHC,
  37:D:/XMC/Projekte/Temp/CF_XMC4700/cleanflight/src/main/sensors\acceleration.h ****     ACC_MPU6000,
  38:D:/XMC/Projekte/Temp/CF_XMC4700/cleanflight/src/main/sensors\acceleration.h ****     ACC_MPU6500,
  39:D:/XMC/Projekte/Temp/CF_XMC4700/cleanflight/src/main/sensors\acceleration.h ****     ACC_MPU9250,
  40:D:/XMC/Projekte/Temp/CF_XMC4700/cleanflight/src/main/sensors\acceleration.h ****     ACC_ICM20601,
  41:D:/XMC/Projekte/Temp/CF_XMC4700/cleanflight/src/main/sensors\acceleration.h ****     ACC_ICM20602,
  42:D:/XMC/Projekte/Temp/CF_XMC4700/cleanflight/src/main/sensors\acceleration.h ****     ACC_ICM20608G,
  43:D:/XMC/Projekte/Temp/CF_XMC4700/cleanflight/src/main/sensors\acceleration.h ****     ACC_ICM20649,
  44:D:/XMC/Projekte/Temp/CF_XMC4700/cleanflight/src/main/sensors\acceleration.h ****     ACC_ICM20689,
  45:D:/XMC/Projekte/Temp/CF_XMC4700/cleanflight/src/main/sensors\acceleration.h ****     ACC_BMI160,
  46:D:/XMC/Projekte/Temp/CF_XMC4700/cleanflight/src/main/sensors\acceleration.h ****     ACC_FAKE
  47:D:/XMC/Projekte/Temp/CF_XMC4700/cleanflight/src/main/sensors\acceleration.h **** } accelerationSensor_e;
  48:D:/XMC/Projekte/Temp/CF_XMC4700/cleanflight/src/main/sensors\acceleration.h **** 
  49:D:/XMC/Projekte/Temp/CF_XMC4700/cleanflight/src/main/sensors\acceleration.h **** typedef struct acc_s {
  50:D:/XMC/Projekte/Temp/CF_XMC4700/cleanflight/src/main/sensors\acceleration.h ****     accDev_t dev;
  51:D:/XMC/Projekte/Temp/CF_XMC4700/cleanflight/src/main/sensors\acceleration.h ****     uint32_t accSamplingInterval;
  52:D:/XMC/Projekte/Temp/CF_XMC4700/cleanflight/src/main/sensors\acceleration.h ****     float accADC[XYZ_AXIS_COUNT];
  53:D:/XMC/Projekte/Temp/CF_XMC4700/cleanflight/src/main/sensors\acceleration.h ****     bool isAccelUpdatedAtLeastOnce;
  54:D:/XMC/Projekte/Temp/CF_XMC4700/cleanflight/src/main/sensors\acceleration.h **** } acc_t;
  55:D:/XMC/Projekte/Temp/CF_XMC4700/cleanflight/src/main/sensors\acceleration.h **** 
  56:D:/XMC/Projekte/Temp/CF_XMC4700/cleanflight/src/main/sensors\acceleration.h **** extern acc_t acc;
  57:D:/XMC/Projekte/Temp/CF_XMC4700/cleanflight/src/main/sensors\acceleration.h **** 
  58:D:/XMC/Projekte/Temp/CF_XMC4700/cleanflight/src/main/sensors\acceleration.h **** typedef struct rollAndPitchTrims_s {
  59:D:/XMC/Projekte/Temp/CF_XMC4700/cleanflight/src/main/sensors\acceleration.h ****     int16_t roll;
  60:D:/XMC/Projekte/Temp/CF_XMC4700/cleanflight/src/main/sensors\acceleration.h ****     int16_t pitch;
  61:D:/XMC/Projekte/Temp/CF_XMC4700/cleanflight/src/main/sensors\acceleration.h **** } rollAndPitchTrims_t_def;
  62:D:/XMC/Projekte/Temp/CF_XMC4700/cleanflight/src/main/sensors\acceleration.h **** 
  63:D:/XMC/Projekte/Temp/CF_XMC4700/cleanflight/src/main/sensors\acceleration.h **** typedef union rollAndPitchTrims_u {
  64:D:/XMC/Projekte/Temp/CF_XMC4700/cleanflight/src/main/sensors\acceleration.h ****     int16_t raw[2];
  65:D:/XMC/Projekte/Temp/CF_XMC4700/cleanflight/src/main/sensors\acceleration.h ****     rollAndPitchTrims_t_def values;
  66:D:/XMC/Projekte/Temp/CF_XMC4700/cleanflight/src/main/sensors\acceleration.h **** } rollAndPitchTrims_t;
  67:D:/XMC/Projekte/Temp/CF_XMC4700/cleanflight/src/main/sensors\acceleration.h **** 
  68:D:/XMC/Projekte/Temp/CF_XMC4700/cleanflight/src/main/sensors\acceleration.h **** 
  69:D:/XMC/Projekte/Temp/CF_XMC4700/cleanflight/src/main/sensors\acceleration.h **** typedef struct accelerometerConfig_s {
  70:D:/XMC/Projekte/Temp/CF_XMC4700/cleanflight/src/main/sensors\acceleration.h ****     uint16_t acc_lpf_hz;                    // cutoff frequency for the low pass filter used on the
  71:D:/XMC/Projekte/Temp/CF_XMC4700/cleanflight/src/main/sensors\acceleration.h ****     sensor_align_e acc_align;               // acc alignment
  72:D:/XMC/Projekte/Temp/CF_XMC4700/cleanflight/src/main/sensors\acceleration.h ****     uint8_t acc_hardware;                   // Which acc hardware to use on boards with more than o
  73:D:/XMC/Projekte/Temp/CF_XMC4700/cleanflight/src/main/sensors\acceleration.h ****     bool acc_high_fsr;
  74:D:/XMC/Projekte/Temp/CF_XMC4700/cleanflight/src/main/sensors\acceleration.h ****     flightDynamicsTrims_t accZero;
  75:D:/XMC/Projekte/Temp/CF_XMC4700/cleanflight/src/main/sensors\acceleration.h ****     rollAndPitchTrims_t accelerometerTrims;
  76:D:/XMC/Projekte/Temp/CF_XMC4700/cleanflight/src/main/sensors\acceleration.h **** } accelerometerConfig_t;
  77:D:/XMC/Projekte/Temp/CF_XMC4700/cleanflight/src/main/sensors\acceleration.h **** 
  78:D:/XMC/Projekte/Temp/CF_XMC4700/cleanflight/src/main/sensors\acceleration.h **** PG_DECLARE(accelerometerConfig_t, accelerometerConfig);
 214              	 .loc 5 78 0
 215              	 .cfi_startproc
 216              	 
 217              	 
 218              	 
 219 0000 80B4     	 push {r7}
 220              	.LCFI20:
 221              	 .cfi_def_cfa_offset 4
 222              	 .cfi_offset 7,-4
 223 0002 00AF     	 add r7,sp,#0
 224              	.LCFI21:
 225              	 .cfi_def_cfa_register 7
 226              	 .loc 5 78 0
 227 0004 024B     	 ldr r3,.L17
 228 0006 1846     	 mov r0,r3
 229 0008 BD46     	 mov sp,r7
 230              	.LCFI22:
 231              	 .cfi_def_cfa_register 13
 232              	 
 233 000a 5DF8047B 	 ldr r7,[sp],#4
 234              	.LCFI23:
 235              	 .cfi_restore 7
 236              	 .cfi_def_cfa_offset 0
 237 000e 7047     	 bx lr
 238              	.L18:
 239              	 .align 2
 240              	.L17:
 241 0010 00000000 	 .word accelerometerConfig_System
 242              	 .cfi_endproc
 243              	.LFE543:
 245              	 .section .text.accelerometerConfigMutable,"ax",%progbits
 246              	 .align 2
 247              	 .thumb
 248              	 .thumb_func
 250              	accelerometerConfigMutable:
 251              	.LFB544:
 252              	 .loc 5 78 0
 253              	 .cfi_startproc
 254              	 
 255              	 
 256              	 
 257 0000 80B4     	 push {r7}
 258              	.LCFI24:
 259              	 .cfi_def_cfa_offset 4
 260              	 .cfi_offset 7,-4
 261 0002 00AF     	 add r7,sp,#0
 262              	.LCFI25:
 263              	 .cfi_def_cfa_register 7
 264              	 .loc 5 78 0
 265 0004 024B     	 ldr r3,.L21
 266 0006 1846     	 mov r0,r3
 267 0008 BD46     	 mov sp,r7
 268              	.LCFI26:
 269              	 .cfi_def_cfa_register 13
 270              	 
 271 000a 5DF8047B 	 ldr r7,[sp],#4
 272              	.LCFI27:
 273              	 .cfi_restore 7
 274              	 .cfi_def_cfa_offset 0
 275 000e 7047     	 bx lr
 276              	.L22:
 277              	 .align 2
 278              	.L21:
 279 0010 00000000 	 .word accelerometerConfig_System
 280              	 .cfi_endproc
 281              	.LFE544:
 283              	 .section .text.systemConfig,"ax",%progbits
 284              	 .align 2
 285              	 .thumb
 286              	 .thumb_func
 288              	systemConfig:
 289              	.LFB560:
 290              	 .file 6 "D:/XMC/Projekte/Temp/CF_XMC4700/cleanflight/src/main/fc/config.h"
   1:D:/XMC/Projekte/Temp/CF_XMC4700/cleanflight/src/main/fc\config.h **** /*
   2:D:/XMC/Projekte/Temp/CF_XMC4700/cleanflight/src/main/fc\config.h ****  * This file is part of Cleanflight and Betaflight.
   3:D:/XMC/Projekte/Temp/CF_XMC4700/cleanflight/src/main/fc\config.h ****  *
   4:D:/XMC/Projekte/Temp/CF_XMC4700/cleanflight/src/main/fc\config.h ****  * Cleanflight and Betaflight are free software. You can redistribute
   5:D:/XMC/Projekte/Temp/CF_XMC4700/cleanflight/src/main/fc\config.h ****  * this software and/or modify this software under the terms of the
   6:D:/XMC/Projekte/Temp/CF_XMC4700/cleanflight/src/main/fc\config.h ****  * GNU General Public License as published by the Free Software
   7:D:/XMC/Projekte/Temp/CF_XMC4700/cleanflight/src/main/fc\config.h ****  * Foundation, either version 3 of the License, or (at your option)
   8:D:/XMC/Projekte/Temp/CF_XMC4700/cleanflight/src/main/fc\config.h ****  * any later version.
   9:D:/XMC/Projekte/Temp/CF_XMC4700/cleanflight/src/main/fc\config.h ****  *
  10:D:/XMC/Projekte/Temp/CF_XMC4700/cleanflight/src/main/fc\config.h ****  * Cleanflight and Betaflight are distributed in the hope that they
  11:D:/XMC/Projekte/Temp/CF_XMC4700/cleanflight/src/main/fc\config.h ****  * will be useful, but WITHOUT ANY WARRANTY; without even the implied
  12:D:/XMC/Projekte/Temp/CF_XMC4700/cleanflight/src/main/fc\config.h ****  * warranty of MERCHANTABILITY or FITNESS FOR A PARTICULAR PURPOSE.
  13:D:/XMC/Projekte/Temp/CF_XMC4700/cleanflight/src/main/fc\config.h ****  * See the GNU General Public License for more details.
  14:D:/XMC/Projekte/Temp/CF_XMC4700/cleanflight/src/main/fc\config.h ****  *
  15:D:/XMC/Projekte/Temp/CF_XMC4700/cleanflight/src/main/fc\config.h ****  * You should have received a copy of the GNU General Public License
  16:D:/XMC/Projekte/Temp/CF_XMC4700/cleanflight/src/main/fc\config.h ****  * along with this software.
  17:D:/XMC/Projekte/Temp/CF_XMC4700/cleanflight/src/main/fc\config.h ****  *
  18:D:/XMC/Projekte/Temp/CF_XMC4700/cleanflight/src/main/fc\config.h ****  * If not, see <http://www.gnu.org/licenses/>.
  19:D:/XMC/Projekte/Temp/CF_XMC4700/cleanflight/src/main/fc\config.h ****  */
  20:D:/XMC/Projekte/Temp/CF_XMC4700/cleanflight/src/main/fc\config.h **** 
  21:D:/XMC/Projekte/Temp/CF_XMC4700/cleanflight/src/main/fc\config.h **** #pragma once
  22:D:/XMC/Projekte/Temp/CF_XMC4700/cleanflight/src/main/fc\config.h **** 
  23:D:/XMC/Projekte/Temp/CF_XMC4700/cleanflight/src/main/fc\config.h **** #include <stdint.h>
  24:D:/XMC/Projekte/Temp/CF_XMC4700/cleanflight/src/main/fc\config.h **** #include <stdbool.h>
  25:D:/XMC/Projekte/Temp/CF_XMC4700/cleanflight/src/main/fc\config.h **** 
  26:D:/XMC/Projekte/Temp/CF_XMC4700/cleanflight/src/main/fc\config.h **** #include "pg/pg.h"
  27:D:/XMC/Projekte/Temp/CF_XMC4700/cleanflight/src/main/fc\config.h **** 
  28:D:/XMC/Projekte/Temp/CF_XMC4700/cleanflight/src/main/fc\config.h **** #define MAX_NAME_LENGTH 16u
  29:D:/XMC/Projekte/Temp/CF_XMC4700/cleanflight/src/main/fc\config.h **** 
  30:D:/XMC/Projekte/Temp/CF_XMC4700/cleanflight/src/main/fc\config.h **** typedef struct pilotConfig_s {
  31:D:/XMC/Projekte/Temp/CF_XMC4700/cleanflight/src/main/fc\config.h ****     char name[MAX_NAME_LENGTH + 1];
  32:D:/XMC/Projekte/Temp/CF_XMC4700/cleanflight/src/main/fc\config.h **** } pilotConfig_t;
  33:D:/XMC/Projekte/Temp/CF_XMC4700/cleanflight/src/main/fc\config.h **** 
  34:D:/XMC/Projekte/Temp/CF_XMC4700/cleanflight/src/main/fc\config.h **** PG_DECLARE(pilotConfig_t, pilotConfig);
  35:D:/XMC/Projekte/Temp/CF_XMC4700/cleanflight/src/main/fc\config.h **** 
  36:D:/XMC/Projekte/Temp/CF_XMC4700/cleanflight/src/main/fc\config.h **** typedef struct systemConfig_s {
  37:D:/XMC/Projekte/Temp/CF_XMC4700/cleanflight/src/main/fc\config.h ****     uint8_t pidProfileIndex;
  38:D:/XMC/Projekte/Temp/CF_XMC4700/cleanflight/src/main/fc\config.h ****     uint8_t activeRateProfile;
  39:D:/XMC/Projekte/Temp/CF_XMC4700/cleanflight/src/main/fc\config.h ****     uint8_t debug_mode;
  40:D:/XMC/Projekte/Temp/CF_XMC4700/cleanflight/src/main/fc\config.h ****     uint8_t task_statistics;
  41:D:/XMC/Projekte/Temp/CF_XMC4700/cleanflight/src/main/fc\config.h ****     uint8_t rateProfile6PosSwitch;
  42:D:/XMC/Projekte/Temp/CF_XMC4700/cleanflight/src/main/fc\config.h ****     uint8_t cpu_overclock;
  43:D:/XMC/Projekte/Temp/CF_XMC4700/cleanflight/src/main/fc\config.h ****     uint8_t powerOnArmingGraceTime; // in seconds
  44:D:/XMC/Projekte/Temp/CF_XMC4700/cleanflight/src/main/fc\config.h ****     char boardIdentifier[sizeof(TARGET_BOARD_IDENTIFIER) + 1];
  45:D:/XMC/Projekte/Temp/CF_XMC4700/cleanflight/src/main/fc\config.h **** } systemConfig_t;
  46:D:/XMC/Projekte/Temp/CF_XMC4700/cleanflight/src/main/fc\config.h **** 
  47:D:/XMC/Projekte/Temp/CF_XMC4700/cleanflight/src/main/fc\config.h **** PG_DECLARE(systemConfig_t, systemConfig);
 291              	 .loc 6 47 0
 292              	 .cfi_startproc
 293              	 
 294              	 
 295              	 
 296 0000 80B4     	 push {r7}
 297              	.LCFI28:
 298              	 .cfi_def_cfa_offset 4
 299              	 .cfi_offset 7,-4
 300 0002 00AF     	 add r7,sp,#0
 301              	.LCFI29:
 302              	 .cfi_def_cfa_register 7
 303              	 .loc 6 47 0
 304 0004 024B     	 ldr r3,.L25
 305 0006 1846     	 mov r0,r3
 306 0008 BD46     	 mov sp,r7
 307              	.LCFI30:
 308              	 .cfi_def_cfa_register 13
 309              	 
 310 000a 5DF8047B 	 ldr r7,[sp],#4
 311              	.LCFI31:
 312              	 .cfi_restore 7
 313              	 .cfi_def_cfa_offset 0
 314 000e 7047     	 bx lr
 315              	.L26:
 316              	 .align 2
 317              	.L25:
 318 0010 00000000 	 .word systemConfig_System
 319              	 .cfi_endproc
 320              	.LFE560:
 322              	 .section .text.rcControlsConfig,"ax",%progbits
 323              	 .align 2
 324              	 .thumb
 325              	 .thumb_func
 327              	rcControlsConfig:
 328              	.LFB573:
 329              	 .file 7 "D:/XMC/Projekte/Temp/CF_XMC4700/cleanflight/src/main/fc/rc_controls.h"
   1:D:/XMC/Projekte/Temp/CF_XMC4700/cleanflight/src/main/fc\rc_controls.h **** /*
   2:D:/XMC/Projekte/Temp/CF_XMC4700/cleanflight/src/main/fc\rc_controls.h ****  * This file is part of Cleanflight and Betaflight.
   3:D:/XMC/Projekte/Temp/CF_XMC4700/cleanflight/src/main/fc\rc_controls.h ****  *
   4:D:/XMC/Projekte/Temp/CF_XMC4700/cleanflight/src/main/fc\rc_controls.h ****  * Cleanflight and Betaflight are free software. You can redistribute
   5:D:/XMC/Projekte/Temp/CF_XMC4700/cleanflight/src/main/fc\rc_controls.h ****  * this software and/or modify this software under the terms of the
   6:D:/XMC/Projekte/Temp/CF_XMC4700/cleanflight/src/main/fc\rc_controls.h ****  * GNU General Public License as published by the Free Software
   7:D:/XMC/Projekte/Temp/CF_XMC4700/cleanflight/src/main/fc\rc_controls.h ****  * Foundation, either version 3 of the License, or (at your option)
   8:D:/XMC/Projekte/Temp/CF_XMC4700/cleanflight/src/main/fc\rc_controls.h ****  * any later version.
   9:D:/XMC/Projekte/Temp/CF_XMC4700/cleanflight/src/main/fc\rc_controls.h ****  *
  10:D:/XMC/Projekte/Temp/CF_XMC4700/cleanflight/src/main/fc\rc_controls.h ****  * Cleanflight and Betaflight are distributed in the hope that they
  11:D:/XMC/Projekte/Temp/CF_XMC4700/cleanflight/src/main/fc\rc_controls.h ****  * will be useful, but WITHOUT ANY WARRANTY; without even the implied
  12:D:/XMC/Projekte/Temp/CF_XMC4700/cleanflight/src/main/fc\rc_controls.h ****  * warranty of MERCHANTABILITY or FITNESS FOR A PARTICULAR PURPOSE.
  13:D:/XMC/Projekte/Temp/CF_XMC4700/cleanflight/src/main/fc\rc_controls.h ****  * See the GNU General Public License for more details.
  14:D:/XMC/Projekte/Temp/CF_XMC4700/cleanflight/src/main/fc\rc_controls.h ****  *
  15:D:/XMC/Projekte/Temp/CF_XMC4700/cleanflight/src/main/fc\rc_controls.h ****  * You should have received a copy of the GNU General Public License
  16:D:/XMC/Projekte/Temp/CF_XMC4700/cleanflight/src/main/fc\rc_controls.h ****  * along with this software.
  17:D:/XMC/Projekte/Temp/CF_XMC4700/cleanflight/src/main/fc\rc_controls.h ****  *
  18:D:/XMC/Projekte/Temp/CF_XMC4700/cleanflight/src/main/fc\rc_controls.h ****  * If not, see <http://www.gnu.org/licenses/>.
  19:D:/XMC/Projekte/Temp/CF_XMC4700/cleanflight/src/main/fc\rc_controls.h ****  */
  20:D:/XMC/Projekte/Temp/CF_XMC4700/cleanflight/src/main/fc\rc_controls.h **** 
  21:D:/XMC/Projekte/Temp/CF_XMC4700/cleanflight/src/main/fc\rc_controls.h **** #pragma once
  22:D:/XMC/Projekte/Temp/CF_XMC4700/cleanflight/src/main/fc\rc_controls.h **** 
  23:D:/XMC/Projekte/Temp/CF_XMC4700/cleanflight/src/main/fc\rc_controls.h **** #include <stdbool.h>
  24:D:/XMC/Projekte/Temp/CF_XMC4700/cleanflight/src/main/fc\rc_controls.h **** 
  25:D:/XMC/Projekte/Temp/CF_XMC4700/cleanflight/src/main/fc\rc_controls.h **** #include "common/filter.h"
  26:D:/XMC/Projekte/Temp/CF_XMC4700/cleanflight/src/main/fc\rc_controls.h **** #include "pg/pg.h"
  27:D:/XMC/Projekte/Temp/CF_XMC4700/cleanflight/src/main/fc\rc_controls.h **** 
  28:D:/XMC/Projekte/Temp/CF_XMC4700/cleanflight/src/main/fc\rc_controls.h **** typedef enum rc_alias {
  29:D:/XMC/Projekte/Temp/CF_XMC4700/cleanflight/src/main/fc\rc_controls.h ****     ROLL = 0,
  30:D:/XMC/Projekte/Temp/CF_XMC4700/cleanflight/src/main/fc\rc_controls.h ****     PITCH,
  31:D:/XMC/Projekte/Temp/CF_XMC4700/cleanflight/src/main/fc\rc_controls.h ****     YAW,
  32:D:/XMC/Projekte/Temp/CF_XMC4700/cleanflight/src/main/fc\rc_controls.h ****     THROTTLE,
  33:D:/XMC/Projekte/Temp/CF_XMC4700/cleanflight/src/main/fc\rc_controls.h ****     AUX1,
  34:D:/XMC/Projekte/Temp/CF_XMC4700/cleanflight/src/main/fc\rc_controls.h ****     AUX2,
  35:D:/XMC/Projekte/Temp/CF_XMC4700/cleanflight/src/main/fc\rc_controls.h ****     AUX3,
  36:D:/XMC/Projekte/Temp/CF_XMC4700/cleanflight/src/main/fc\rc_controls.h ****     AUX4,
  37:D:/XMC/Projekte/Temp/CF_XMC4700/cleanflight/src/main/fc\rc_controls.h ****     AUX5,
  38:D:/XMC/Projekte/Temp/CF_XMC4700/cleanflight/src/main/fc\rc_controls.h ****     AUX6,
  39:D:/XMC/Projekte/Temp/CF_XMC4700/cleanflight/src/main/fc\rc_controls.h ****     AUX7,
  40:D:/XMC/Projekte/Temp/CF_XMC4700/cleanflight/src/main/fc\rc_controls.h ****     AUX8
  41:D:/XMC/Projekte/Temp/CF_XMC4700/cleanflight/src/main/fc\rc_controls.h **** } rc_alias_e;
  42:D:/XMC/Projekte/Temp/CF_XMC4700/cleanflight/src/main/fc\rc_controls.h **** 
  43:D:/XMC/Projekte/Temp/CF_XMC4700/cleanflight/src/main/fc\rc_controls.h **** #define PRIMARY_CHANNEL_COUNT (THROTTLE + 1)
  44:D:/XMC/Projekte/Temp/CF_XMC4700/cleanflight/src/main/fc\rc_controls.h **** 
  45:D:/XMC/Projekte/Temp/CF_XMC4700/cleanflight/src/main/fc\rc_controls.h **** typedef enum {
  46:D:/XMC/Projekte/Temp/CF_XMC4700/cleanflight/src/main/fc\rc_controls.h ****     THROTTLE_LOW = 0,
  47:D:/XMC/Projekte/Temp/CF_XMC4700/cleanflight/src/main/fc\rc_controls.h ****     THROTTLE_HIGH
  48:D:/XMC/Projekte/Temp/CF_XMC4700/cleanflight/src/main/fc\rc_controls.h **** } throttleStatus_e;
  49:D:/XMC/Projekte/Temp/CF_XMC4700/cleanflight/src/main/fc\rc_controls.h **** 
  50:D:/XMC/Projekte/Temp/CF_XMC4700/cleanflight/src/main/fc\rc_controls.h **** #define AIRMODEDEADBAND 12
  51:D:/XMC/Projekte/Temp/CF_XMC4700/cleanflight/src/main/fc\rc_controls.h **** 
  52:D:/XMC/Projekte/Temp/CF_XMC4700/cleanflight/src/main/fc\rc_controls.h **** typedef enum {
  53:D:/XMC/Projekte/Temp/CF_XMC4700/cleanflight/src/main/fc\rc_controls.h ****     NOT_CENTERED = 0,
  54:D:/XMC/Projekte/Temp/CF_XMC4700/cleanflight/src/main/fc\rc_controls.h ****     CENTERED
  55:D:/XMC/Projekte/Temp/CF_XMC4700/cleanflight/src/main/fc\rc_controls.h **** } rollPitchStatus_e;
  56:D:/XMC/Projekte/Temp/CF_XMC4700/cleanflight/src/main/fc\rc_controls.h **** 
  57:D:/XMC/Projekte/Temp/CF_XMC4700/cleanflight/src/main/fc\rc_controls.h **** typedef enum {
  58:D:/XMC/Projekte/Temp/CF_XMC4700/cleanflight/src/main/fc\rc_controls.h ****     RC_SMOOTHING_OFF = 0,
  59:D:/XMC/Projekte/Temp/CF_XMC4700/cleanflight/src/main/fc\rc_controls.h ****     RC_SMOOTHING_DEFAULT,
  60:D:/XMC/Projekte/Temp/CF_XMC4700/cleanflight/src/main/fc\rc_controls.h ****     RC_SMOOTHING_AUTO,
  61:D:/XMC/Projekte/Temp/CF_XMC4700/cleanflight/src/main/fc\rc_controls.h ****     RC_SMOOTHING_MANUAL
  62:D:/XMC/Projekte/Temp/CF_XMC4700/cleanflight/src/main/fc\rc_controls.h **** } rcSmoothing_t;
  63:D:/XMC/Projekte/Temp/CF_XMC4700/cleanflight/src/main/fc\rc_controls.h **** 
  64:D:/XMC/Projekte/Temp/CF_XMC4700/cleanflight/src/main/fc\rc_controls.h **** typedef enum {
  65:D:/XMC/Projekte/Temp/CF_XMC4700/cleanflight/src/main/fc\rc_controls.h ****     RC_SMOOTHING_TYPE_INTERPOLATION,
  66:D:/XMC/Projekte/Temp/CF_XMC4700/cleanflight/src/main/fc\rc_controls.h ****     RC_SMOOTHING_TYPE_FILTER
  67:D:/XMC/Projekte/Temp/CF_XMC4700/cleanflight/src/main/fc\rc_controls.h **** } rcSmoothingType_e;
  68:D:/XMC/Projekte/Temp/CF_XMC4700/cleanflight/src/main/fc\rc_controls.h **** 
  69:D:/XMC/Projekte/Temp/CF_XMC4700/cleanflight/src/main/fc\rc_controls.h **** typedef enum {
  70:D:/XMC/Projekte/Temp/CF_XMC4700/cleanflight/src/main/fc\rc_controls.h ****     RC_SMOOTHING_INPUT_PT1,
  71:D:/XMC/Projekte/Temp/CF_XMC4700/cleanflight/src/main/fc\rc_controls.h ****     RC_SMOOTHING_INPUT_BIQUAD
  72:D:/XMC/Projekte/Temp/CF_XMC4700/cleanflight/src/main/fc\rc_controls.h **** } rcSmoothingInputFilter_e;
  73:D:/XMC/Projekte/Temp/CF_XMC4700/cleanflight/src/main/fc\rc_controls.h **** 
  74:D:/XMC/Projekte/Temp/CF_XMC4700/cleanflight/src/main/fc\rc_controls.h **** typedef enum {
  75:D:/XMC/Projekte/Temp/CF_XMC4700/cleanflight/src/main/fc\rc_controls.h ****     RC_SMOOTHING_DERIVATIVE_OFF,
  76:D:/XMC/Projekte/Temp/CF_XMC4700/cleanflight/src/main/fc\rc_controls.h ****     RC_SMOOTHING_DERIVATIVE_PT1,
  77:D:/XMC/Projekte/Temp/CF_XMC4700/cleanflight/src/main/fc\rc_controls.h ****     RC_SMOOTHING_DERIVATIVE_BIQUAD
  78:D:/XMC/Projekte/Temp/CF_XMC4700/cleanflight/src/main/fc\rc_controls.h **** } rcSmoothingDerivativeFilter_e;
  79:D:/XMC/Projekte/Temp/CF_XMC4700/cleanflight/src/main/fc\rc_controls.h **** 
  80:D:/XMC/Projekte/Temp/CF_XMC4700/cleanflight/src/main/fc\rc_controls.h **** typedef enum {
  81:D:/XMC/Projekte/Temp/CF_XMC4700/cleanflight/src/main/fc\rc_controls.h ****     RC_SMOOTHING_VALUE_INPUT_ACTIVE,
  82:D:/XMC/Projekte/Temp/CF_XMC4700/cleanflight/src/main/fc\rc_controls.h ****     RC_SMOOTHING_VALUE_DERIVATIVE_ACTIVE,
  83:D:/XMC/Projekte/Temp/CF_XMC4700/cleanflight/src/main/fc\rc_controls.h ****     RC_SMOOTHING_VALUE_AVERAGE_FRAME
  84:D:/XMC/Projekte/Temp/CF_XMC4700/cleanflight/src/main/fc\rc_controls.h **** } rcSmoothingInfoType_e;
  85:D:/XMC/Projekte/Temp/CF_XMC4700/cleanflight/src/main/fc\rc_controls.h **** 
  86:D:/XMC/Projekte/Temp/CF_XMC4700/cleanflight/src/main/fc\rc_controls.h **** #define ROL_LO (1 << (2 * ROLL))
  87:D:/XMC/Projekte/Temp/CF_XMC4700/cleanflight/src/main/fc\rc_controls.h **** #define ROL_CE (3 << (2 * ROLL))
  88:D:/XMC/Projekte/Temp/CF_XMC4700/cleanflight/src/main/fc\rc_controls.h **** #define ROL_HI (2 << (2 * ROLL))
  89:D:/XMC/Projekte/Temp/CF_XMC4700/cleanflight/src/main/fc\rc_controls.h **** #define PIT_LO (1 << (2 * PITCH))
  90:D:/XMC/Projekte/Temp/CF_XMC4700/cleanflight/src/main/fc\rc_controls.h **** #define PIT_CE (3 << (2 * PITCH))
  91:D:/XMC/Projekte/Temp/CF_XMC4700/cleanflight/src/main/fc\rc_controls.h **** #define PIT_HI (2 << (2 * PITCH))
  92:D:/XMC/Projekte/Temp/CF_XMC4700/cleanflight/src/main/fc\rc_controls.h **** #define YAW_LO (1 << (2 * YAW))
  93:D:/XMC/Projekte/Temp/CF_XMC4700/cleanflight/src/main/fc\rc_controls.h **** #define YAW_CE (3 << (2 * YAW))
  94:D:/XMC/Projekte/Temp/CF_XMC4700/cleanflight/src/main/fc\rc_controls.h **** #define YAW_HI (2 << (2 * YAW))
  95:D:/XMC/Projekte/Temp/CF_XMC4700/cleanflight/src/main/fc\rc_controls.h **** #define THR_LO (1 << (2 * THROTTLE))
  96:D:/XMC/Projekte/Temp/CF_XMC4700/cleanflight/src/main/fc\rc_controls.h **** #define THR_CE (3 << (2 * THROTTLE))
  97:D:/XMC/Projekte/Temp/CF_XMC4700/cleanflight/src/main/fc\rc_controls.h **** #define THR_HI (2 << (2 * THROTTLE))
  98:D:/XMC/Projekte/Temp/CF_XMC4700/cleanflight/src/main/fc\rc_controls.h **** 
  99:D:/XMC/Projekte/Temp/CF_XMC4700/cleanflight/src/main/fc\rc_controls.h **** #define CONTROL_RATE_CONFIG_RC_EXPO_MAX  100
 100:D:/XMC/Projekte/Temp/CF_XMC4700/cleanflight/src/main/fc\rc_controls.h **** 
 101:D:/XMC/Projekte/Temp/CF_XMC4700/cleanflight/src/main/fc\rc_controls.h **** #define CONTROL_RATE_CONFIG_RC_RATES_MAX  255
 102:D:/XMC/Projekte/Temp/CF_XMC4700/cleanflight/src/main/fc\rc_controls.h **** 
 103:D:/XMC/Projekte/Temp/CF_XMC4700/cleanflight/src/main/fc\rc_controls.h **** // (Super) rates are constrained to [0, 100] for Betaflight rates, so values higher than 100 won't 
 104:D:/XMC/Projekte/Temp/CF_XMC4700/cleanflight/src/main/fc\rc_controls.h **** #define CONTROL_RATE_CONFIG_RATE_MAX  255
 105:D:/XMC/Projekte/Temp/CF_XMC4700/cleanflight/src/main/fc\rc_controls.h **** 
 106:D:/XMC/Projekte/Temp/CF_XMC4700/cleanflight/src/main/fc\rc_controls.h **** #define CONTROL_RATE_CONFIG_TPA_MAX              100
 107:D:/XMC/Projekte/Temp/CF_XMC4700/cleanflight/src/main/fc\rc_controls.h **** 
 108:D:/XMC/Projekte/Temp/CF_XMC4700/cleanflight/src/main/fc\rc_controls.h **** extern float rcCommand[4];
 109:D:/XMC/Projekte/Temp/CF_XMC4700/cleanflight/src/main/fc\rc_controls.h **** 
 110:D:/XMC/Projekte/Temp/CF_XMC4700/cleanflight/src/main/fc\rc_controls.h **** typedef struct rcSmoothingFilterTraining_s {
 111:D:/XMC/Projekte/Temp/CF_XMC4700/cleanflight/src/main/fc\rc_controls.h ****     float sum;
 112:D:/XMC/Projekte/Temp/CF_XMC4700/cleanflight/src/main/fc\rc_controls.h ****     int count;
 113:D:/XMC/Projekte/Temp/CF_XMC4700/cleanflight/src/main/fc\rc_controls.h ****     uint16_t min;
 114:D:/XMC/Projekte/Temp/CF_XMC4700/cleanflight/src/main/fc\rc_controls.h ****     uint16_t max;
 115:D:/XMC/Projekte/Temp/CF_XMC4700/cleanflight/src/main/fc\rc_controls.h **** } rcSmoothingFilterTraining_t;
 116:D:/XMC/Projekte/Temp/CF_XMC4700/cleanflight/src/main/fc\rc_controls.h **** 
 117:D:/XMC/Projekte/Temp/CF_XMC4700/cleanflight/src/main/fc\rc_controls.h **** typedef union rcSmoothingFilterTypes_u {
 118:D:/XMC/Projekte/Temp/CF_XMC4700/cleanflight/src/main/fc\rc_controls.h ****     pt1Filter_t pt1Filter;
 119:D:/XMC/Projekte/Temp/CF_XMC4700/cleanflight/src/main/fc\rc_controls.h ****     biquadFilter_t biquadFilter;
 120:D:/XMC/Projekte/Temp/CF_XMC4700/cleanflight/src/main/fc\rc_controls.h **** } rcSmoothingFilterTypes_t;
 121:D:/XMC/Projekte/Temp/CF_XMC4700/cleanflight/src/main/fc\rc_controls.h **** 
 122:D:/XMC/Projekte/Temp/CF_XMC4700/cleanflight/src/main/fc\rc_controls.h **** typedef struct rcSmoothingFilter_s {
 123:D:/XMC/Projekte/Temp/CF_XMC4700/cleanflight/src/main/fc\rc_controls.h ****     bool filterInitialized;
 124:D:/XMC/Projekte/Temp/CF_XMC4700/cleanflight/src/main/fc\rc_controls.h ****     rcSmoothingFilterTypes_t filter[4];
 125:D:/XMC/Projekte/Temp/CF_XMC4700/cleanflight/src/main/fc\rc_controls.h ****     uint16_t inputCutoffFrequency;
 126:D:/XMC/Projekte/Temp/CF_XMC4700/cleanflight/src/main/fc\rc_controls.h ****     uint16_t derivativeCutoffFrequency;
 127:D:/XMC/Projekte/Temp/CF_XMC4700/cleanflight/src/main/fc\rc_controls.h ****     int averageFrameTimeUs;
 128:D:/XMC/Projekte/Temp/CF_XMC4700/cleanflight/src/main/fc\rc_controls.h ****     rcSmoothingFilterTraining_t training;
 129:D:/XMC/Projekte/Temp/CF_XMC4700/cleanflight/src/main/fc\rc_controls.h **** } rcSmoothingFilter_t;
 130:D:/XMC/Projekte/Temp/CF_XMC4700/cleanflight/src/main/fc\rc_controls.h **** 
 131:D:/XMC/Projekte/Temp/CF_XMC4700/cleanflight/src/main/fc\rc_controls.h **** typedef struct rcControlsConfig_s {
 132:D:/XMC/Projekte/Temp/CF_XMC4700/cleanflight/src/main/fc\rc_controls.h ****     uint8_t deadband;                       // introduce a deadband around the stick center for pit
 133:D:/XMC/Projekte/Temp/CF_XMC4700/cleanflight/src/main/fc\rc_controls.h ****     uint8_t yaw_deadband;                   // introduce a deadband around the stick center for yaw
 134:D:/XMC/Projekte/Temp/CF_XMC4700/cleanflight/src/main/fc\rc_controls.h ****     uint8_t alt_hold_deadband;              // defines the neutral zone of throttle stick during al
 135:D:/XMC/Projekte/Temp/CF_XMC4700/cleanflight/src/main/fc\rc_controls.h ****     uint8_t alt_hold_fast_change;           // when disabled, turn off the althold when throttle st
 136:D:/XMC/Projekte/Temp/CF_XMC4700/cleanflight/src/main/fc\rc_controls.h ****     bool yaw_control_reversed;            // invert control direction of yaw
 137:D:/XMC/Projekte/Temp/CF_XMC4700/cleanflight/src/main/fc\rc_controls.h **** } rcControlsConfig_t;
 138:D:/XMC/Projekte/Temp/CF_XMC4700/cleanflight/src/main/fc\rc_controls.h **** 
 139:D:/XMC/Projekte/Temp/CF_XMC4700/cleanflight/src/main/fc\rc_controls.h **** PG_DECLARE(rcControlsConfig_t, rcControlsConfig);
 330              	 .loc 7 139 0
 331              	 .cfi_startproc
 332              	 
 333              	 
 334              	 
 335 0000 80B4     	 push {r7}
 336              	.LCFI32:
 337              	 .cfi_def_cfa_offset 4
 338              	 .cfi_offset 7,-4
 339 0002 00AF     	 add r7,sp,#0
 340              	.LCFI33:
 341              	 .cfi_def_cfa_register 7
 342              	 .loc 7 139 0
 343 0004 024B     	 ldr r3,.L29
 344 0006 1846     	 mov r0,r3
 345 0008 BD46     	 mov sp,r7
 346              	.LCFI34:
 347              	 .cfi_def_cfa_register 13
 348              	 
 349 000a 5DF8047B 	 ldr r7,[sp],#4
 350              	.LCFI35:
 351              	 .cfi_restore 7
 352              	 .cfi_def_cfa_offset 0
 353 000e 7047     	 bx lr
 354              	.L30:
 355              	 .align 2
 356              	.L29:
 357 0010 00000000 	 .word rcControlsConfig_System
 358              	 .cfi_endproc
 359              	.LFE573:
 361              	 .section .text.flight3DConfig,"ax",%progbits
 362              	 .align 2
 363              	 .thumb
 364              	 .thumb_func
 366              	flight3DConfig:
 367              	.LFB575:
 140:D:/XMC/Projekte/Temp/CF_XMC4700/cleanflight/src/main/fc\rc_controls.h **** 
 141:D:/XMC/Projekte/Temp/CF_XMC4700/cleanflight/src/main/fc\rc_controls.h **** typedef struct flight3DConfig_s {
 142:D:/XMC/Projekte/Temp/CF_XMC4700/cleanflight/src/main/fc\rc_controls.h ****     uint16_t deadband3d_low;                // min 3d value
 143:D:/XMC/Projekte/Temp/CF_XMC4700/cleanflight/src/main/fc\rc_controls.h ****     uint16_t deadband3d_high;               // max 3d value
 144:D:/XMC/Projekte/Temp/CF_XMC4700/cleanflight/src/main/fc\rc_controls.h ****     uint16_t neutral3d;                     // center 3d value
 145:D:/XMC/Projekte/Temp/CF_XMC4700/cleanflight/src/main/fc\rc_controls.h ****     uint16_t deadband3d_throttle;           // default throttle deadband from MIDRC
 146:D:/XMC/Projekte/Temp/CF_XMC4700/cleanflight/src/main/fc\rc_controls.h ****     uint16_t limit3d_low;                   // pwm output value for max negative thrust
 147:D:/XMC/Projekte/Temp/CF_XMC4700/cleanflight/src/main/fc\rc_controls.h ****     uint16_t limit3d_high;                  // pwm output value for max positive thrust
 148:D:/XMC/Projekte/Temp/CF_XMC4700/cleanflight/src/main/fc\rc_controls.h ****     uint8_t switched_mode3d;                // enable '3D Switched Mode'
 149:D:/XMC/Projekte/Temp/CF_XMC4700/cleanflight/src/main/fc\rc_controls.h **** } flight3DConfig_t;
 150:D:/XMC/Projekte/Temp/CF_XMC4700/cleanflight/src/main/fc\rc_controls.h **** 
 151:D:/XMC/Projekte/Temp/CF_XMC4700/cleanflight/src/main/fc\rc_controls.h **** PG_DECLARE(flight3DConfig_t, flight3DConfig);
 368              	 .loc 7 151 0
 369              	 .cfi_startproc
 370              	 
 371              	 
 372              	 
 373 0000 80B4     	 push {r7}
 374              	.LCFI36:
 375              	 .cfi_def_cfa_offset 4
 376              	 .cfi_offset 7,-4
 377 0002 00AF     	 add r7,sp,#0
 378              	.LCFI37:
 379              	 .cfi_def_cfa_register 7
 380              	 .loc 7 151 0
 381 0004 024B     	 ldr r3,.L33
 382 0006 1846     	 mov r0,r3
 383 0008 BD46     	 mov sp,r7
 384              	.LCFI38:
 385              	 .cfi_def_cfa_register 13
 386              	 
 387 000a 5DF8047B 	 ldr r7,[sp],#4
 388              	.LCFI39:
 389              	 .cfi_restore 7
 390              	 .cfi_def_cfa_offset 0
 391 000e 7047     	 bx lr
 392              	.L34:
 393              	 .align 2
 394              	.L33:
 395 0010 00000000 	 .word flight3DConfig_System
 396              	 .cfi_endproc
 397              	.LFE575:
 399              	 .section .text.armingConfig,"ax",%progbits
 400              	 .align 2
 401              	 .thumb
 402              	 .thumb_func
 404              	armingConfig:
 405              	.LFB577:
 152:D:/XMC/Projekte/Temp/CF_XMC4700/cleanflight/src/main/fc\rc_controls.h **** 
 153:D:/XMC/Projekte/Temp/CF_XMC4700/cleanflight/src/main/fc\rc_controls.h **** typedef struct armingConfig_s {
 154:D:/XMC/Projekte/Temp/CF_XMC4700/cleanflight/src/main/fc\rc_controls.h ****     uint8_t gyro_cal_on_first_arm;          // allow disarm/arm on throttle down + roll left/right
 155:D:/XMC/Projekte/Temp/CF_XMC4700/cleanflight/src/main/fc\rc_controls.h ****     uint8_t auto_disarm_delay;              // allow automatically disarming multicopters after aut
 156:D:/XMC/Projekte/Temp/CF_XMC4700/cleanflight/src/main/fc\rc_controls.h **** } armingConfig_t;
 157:D:/XMC/Projekte/Temp/CF_XMC4700/cleanflight/src/main/fc\rc_controls.h **** 
 158:D:/XMC/Projekte/Temp/CF_XMC4700/cleanflight/src/main/fc\rc_controls.h **** PG_DECLARE(armingConfig_t, armingConfig);
 406              	 .loc 7 158 0
 407              	 .cfi_startproc
 408              	 
 409              	 
 410              	 
 411 0000 80B4     	 push {r7}
 412              	.LCFI40:
 413              	 .cfi_def_cfa_offset 4
 414              	 .cfi_offset 7,-4
 415 0002 00AF     	 add r7,sp,#0
 416              	.LCFI41:
 417              	 .cfi_def_cfa_register 7
 418              	 .loc 7 158 0
 419 0004 024B     	 ldr r3,.L37
 420 0006 1846     	 mov r0,r3
 421 0008 BD46     	 mov sp,r7
 422              	.LCFI42:
 423              	 .cfi_def_cfa_register 13
 424              	 
 425 000a 5DF8047B 	 ldr r7,[sp],#4
 426              	.LCFI43:
 427              	 .cfi_restore 7
 428              	 .cfi_def_cfa_offset 0
 429 000e 7047     	 bx lr
 430              	.L38:
 431              	 .align 2
 432              	.L37:
 433 0010 00000000 	 .word armingConfig_System
 434              	 .cfi_endproc
 435              	.LFE577:
 437              	 .section .text.failsafeConfig,"ax",%progbits
 438              	 .align 2
 439              	 .thumb
 440              	 .thumb_func
 442              	failsafeConfig:
 443              	.LFB597:
 444              	 .file 8 "D:/XMC/Projekte/Temp/CF_XMC4700/cleanflight/src/main/flight/failsafe.h"
   1:D:/XMC/Projekte/Temp/CF_XMC4700/cleanflight/src/main/flight\failsafe.h **** /*
   2:D:/XMC/Projekte/Temp/CF_XMC4700/cleanflight/src/main/flight\failsafe.h ****  * This file is part of Cleanflight and Betaflight.
   3:D:/XMC/Projekte/Temp/CF_XMC4700/cleanflight/src/main/flight\failsafe.h ****  *
   4:D:/XMC/Projekte/Temp/CF_XMC4700/cleanflight/src/main/flight\failsafe.h ****  * Cleanflight and Betaflight are free software. You can redistribute
   5:D:/XMC/Projekte/Temp/CF_XMC4700/cleanflight/src/main/flight\failsafe.h ****  * this software and/or modify this software under the terms of the
   6:D:/XMC/Projekte/Temp/CF_XMC4700/cleanflight/src/main/flight\failsafe.h ****  * GNU General Public License as published by the Free Software
   7:D:/XMC/Projekte/Temp/CF_XMC4700/cleanflight/src/main/flight\failsafe.h ****  * Foundation, either version 3 of the License, or (at your option)
   8:D:/XMC/Projekte/Temp/CF_XMC4700/cleanflight/src/main/flight\failsafe.h ****  * any later version.
   9:D:/XMC/Projekte/Temp/CF_XMC4700/cleanflight/src/main/flight\failsafe.h ****  *
  10:D:/XMC/Projekte/Temp/CF_XMC4700/cleanflight/src/main/flight\failsafe.h ****  * Cleanflight and Betaflight are distributed in the hope that they
  11:D:/XMC/Projekte/Temp/CF_XMC4700/cleanflight/src/main/flight\failsafe.h ****  * will be useful, but WITHOUT ANY WARRANTY; without even the implied
  12:D:/XMC/Projekte/Temp/CF_XMC4700/cleanflight/src/main/flight\failsafe.h ****  * warranty of MERCHANTABILITY or FITNESS FOR A PARTICULAR PURPOSE.
  13:D:/XMC/Projekte/Temp/CF_XMC4700/cleanflight/src/main/flight\failsafe.h ****  * See the GNU General Public License for more details.
  14:D:/XMC/Projekte/Temp/CF_XMC4700/cleanflight/src/main/flight\failsafe.h ****  *
  15:D:/XMC/Projekte/Temp/CF_XMC4700/cleanflight/src/main/flight\failsafe.h ****  * You should have received a copy of the GNU General Public License
  16:D:/XMC/Projekte/Temp/CF_XMC4700/cleanflight/src/main/flight\failsafe.h ****  * along with this software.
  17:D:/XMC/Projekte/Temp/CF_XMC4700/cleanflight/src/main/flight\failsafe.h ****  *
  18:D:/XMC/Projekte/Temp/CF_XMC4700/cleanflight/src/main/flight\failsafe.h ****  * If not, see <http://www.gnu.org/licenses/>.
  19:D:/XMC/Projekte/Temp/CF_XMC4700/cleanflight/src/main/flight\failsafe.h ****  */
  20:D:/XMC/Projekte/Temp/CF_XMC4700/cleanflight/src/main/flight\failsafe.h **** 
  21:D:/XMC/Projekte/Temp/CF_XMC4700/cleanflight/src/main/flight\failsafe.h **** #pragma once
  22:D:/XMC/Projekte/Temp/CF_XMC4700/cleanflight/src/main/flight\failsafe.h **** 
  23:D:/XMC/Projekte/Temp/CF_XMC4700/cleanflight/src/main/flight\failsafe.h **** #include "pg/pg.h"
  24:D:/XMC/Projekte/Temp/CF_XMC4700/cleanflight/src/main/flight\failsafe.h **** 
  25:D:/XMC/Projekte/Temp/CF_XMC4700/cleanflight/src/main/flight\failsafe.h **** #define FAILSAFE_POWER_ON_DELAY_US (1000 * 1000 * 5)
  26:D:/XMC/Projekte/Temp/CF_XMC4700/cleanflight/src/main/flight\failsafe.h **** #define MILLIS_PER_TENTH_SECOND      100
  27:D:/XMC/Projekte/Temp/CF_XMC4700/cleanflight/src/main/flight\failsafe.h **** #define MILLIS_PER_SECOND           1000
  28:D:/XMC/Projekte/Temp/CF_XMC4700/cleanflight/src/main/flight\failsafe.h **** #define PERIOD_OF_1_SECONDS            1 * MILLIS_PER_SECOND
  29:D:/XMC/Projekte/Temp/CF_XMC4700/cleanflight/src/main/flight\failsafe.h **** #define PERIOD_OF_3_SECONDS            3 * MILLIS_PER_SECOND
  30:D:/XMC/Projekte/Temp/CF_XMC4700/cleanflight/src/main/flight\failsafe.h **** #define PERIOD_OF_30_SECONDS          30 * MILLIS_PER_SECOND
  31:D:/XMC/Projekte/Temp/CF_XMC4700/cleanflight/src/main/flight\failsafe.h **** #define PERIOD_RXDATA_FAILURE        200    // millis
  32:D:/XMC/Projekte/Temp/CF_XMC4700/cleanflight/src/main/flight\failsafe.h **** #define PERIOD_RXDATA_RECOVERY       200    // millis
  33:D:/XMC/Projekte/Temp/CF_XMC4700/cleanflight/src/main/flight\failsafe.h **** 
  34:D:/XMC/Projekte/Temp/CF_XMC4700/cleanflight/src/main/flight\failsafe.h **** 
  35:D:/XMC/Projekte/Temp/CF_XMC4700/cleanflight/src/main/flight\failsafe.h **** typedef struct failsafeConfig_s {
  36:D:/XMC/Projekte/Temp/CF_XMC4700/cleanflight/src/main/flight\failsafe.h ****     uint16_t failsafe_throttle;             // Throttle level used for landing - specify value betw
  37:D:/XMC/Projekte/Temp/CF_XMC4700/cleanflight/src/main/flight\failsafe.h ****     uint16_t failsafe_throttle_low_delay;   // Time throttle stick must have been below 'min_check'
  38:D:/XMC/Projekte/Temp/CF_XMC4700/cleanflight/src/main/flight\failsafe.h ****     uint8_t failsafe_delay;                 // Guard time for failsafe activation after signal lost
  39:D:/XMC/Projekte/Temp/CF_XMC4700/cleanflight/src/main/flight\failsafe.h ****     uint8_t failsafe_off_delay;             // Time for Landing before motors stop in 0.1sec. 1 ste
  40:D:/XMC/Projekte/Temp/CF_XMC4700/cleanflight/src/main/flight\failsafe.h ****     uint8_t failsafe_switch_mode;           // failsafe switch action is 0: stage1 (identical to rc
  41:D:/XMC/Projekte/Temp/CF_XMC4700/cleanflight/src/main/flight\failsafe.h ****     uint8_t failsafe_procedure;             // selected full failsafe procedure is 0: auto-landing,
  42:D:/XMC/Projekte/Temp/CF_XMC4700/cleanflight/src/main/flight\failsafe.h **** } failsafeConfig_t;
  43:D:/XMC/Projekte/Temp/CF_XMC4700/cleanflight/src/main/flight\failsafe.h **** 
  44:D:/XMC/Projekte/Temp/CF_XMC4700/cleanflight/src/main/flight\failsafe.h **** PG_DECLARE(failsafeConfig_t, failsafeConfig);
 445              	 .loc 8 44 0
 446              	 .cfi_startproc
 447              	 
 448              	 
 449              	 
 450 0000 80B4     	 push {r7}
 451              	.LCFI44:
 452              	 .cfi_def_cfa_offset 4
 453              	 .cfi_offset 7,-4
 454 0002 00AF     	 add r7,sp,#0
 455              	.LCFI45:
 456              	 .cfi_def_cfa_register 7
 457              	 .loc 8 44 0
 458 0004 024B     	 ldr r3,.L41
 459 0006 1846     	 mov r0,r3
 460 0008 BD46     	 mov sp,r7
 461              	.LCFI46:
 462              	 .cfi_def_cfa_register 13
 463              	 
 464 000a 5DF8047B 	 ldr r7,[sp],#4
 465              	.LCFI47:
 466              	 .cfi_restore 7
 467              	 .cfi_def_cfa_offset 0
 468 000e 7047     	 bx lr
 469              	.L42:
 470              	 .align 2
 471              	.L41:
 472 0010 00000000 	 .word failsafeConfig_System
 473              	 .cfi_endproc
 474              	.LFE597:
 476              	 .section .text.mixerConfig,"ax",%progbits
 477              	 .align 2
 478              	 .thumb
 479              	 .thumb_func
 481              	mixerConfig:
 482              	.LFB604:
 483              	 .file 9 "D:/XMC/Projekte/Temp/CF_XMC4700/cleanflight/src/main/flight/mixer.h"
   1:D:/XMC/Projekte/Temp/CF_XMC4700/cleanflight/src/main/flight\mixer.h **** /*
   2:D:/XMC/Projekte/Temp/CF_XMC4700/cleanflight/src/main/flight\mixer.h ****  * This file is part of Cleanflight and Betaflight.
   3:D:/XMC/Projekte/Temp/CF_XMC4700/cleanflight/src/main/flight\mixer.h ****  *
   4:D:/XMC/Projekte/Temp/CF_XMC4700/cleanflight/src/main/flight\mixer.h ****  * Cleanflight and Betaflight are free software. You can redistribute
   5:D:/XMC/Projekte/Temp/CF_XMC4700/cleanflight/src/main/flight\mixer.h ****  * this software and/or modify this software under the terms of the
   6:D:/XMC/Projekte/Temp/CF_XMC4700/cleanflight/src/main/flight\mixer.h ****  * GNU General Public License as published by the Free Software
   7:D:/XMC/Projekte/Temp/CF_XMC4700/cleanflight/src/main/flight\mixer.h ****  * Foundation, either version 3 of the License, or (at your option)
   8:D:/XMC/Projekte/Temp/CF_XMC4700/cleanflight/src/main/flight\mixer.h ****  * any later version.
   9:D:/XMC/Projekte/Temp/CF_XMC4700/cleanflight/src/main/flight\mixer.h ****  *
  10:D:/XMC/Projekte/Temp/CF_XMC4700/cleanflight/src/main/flight\mixer.h ****  * Cleanflight and Betaflight are distributed in the hope that they
  11:D:/XMC/Projekte/Temp/CF_XMC4700/cleanflight/src/main/flight\mixer.h ****  * will be useful, but WITHOUT ANY WARRANTY; without even the implied
  12:D:/XMC/Projekte/Temp/CF_XMC4700/cleanflight/src/main/flight\mixer.h ****  * warranty of MERCHANTABILITY or FITNESS FOR A PARTICULAR PURPOSE.
  13:D:/XMC/Projekte/Temp/CF_XMC4700/cleanflight/src/main/flight\mixer.h ****  * See the GNU General Public License for more details.
  14:D:/XMC/Projekte/Temp/CF_XMC4700/cleanflight/src/main/flight\mixer.h ****  *
  15:D:/XMC/Projekte/Temp/CF_XMC4700/cleanflight/src/main/flight\mixer.h ****  * You should have received a copy of the GNU General Public License
  16:D:/XMC/Projekte/Temp/CF_XMC4700/cleanflight/src/main/flight\mixer.h ****  * along with this software.
  17:D:/XMC/Projekte/Temp/CF_XMC4700/cleanflight/src/main/flight\mixer.h ****  *
  18:D:/XMC/Projekte/Temp/CF_XMC4700/cleanflight/src/main/flight\mixer.h ****  * If not, see <http://www.gnu.org/licenses/>.
  19:D:/XMC/Projekte/Temp/CF_XMC4700/cleanflight/src/main/flight\mixer.h ****  */
  20:D:/XMC/Projekte/Temp/CF_XMC4700/cleanflight/src/main/flight\mixer.h **** 
  21:D:/XMC/Projekte/Temp/CF_XMC4700/cleanflight/src/main/flight\mixer.h **** #pragma once
  22:D:/XMC/Projekte/Temp/CF_XMC4700/cleanflight/src/main/flight\mixer.h **** 
  23:D:/XMC/Projekte/Temp/CF_XMC4700/cleanflight/src/main/flight\mixer.h **** #include "platform.h"
  24:D:/XMC/Projekte/Temp/CF_XMC4700/cleanflight/src/main/flight\mixer.h **** 
  25:D:/XMC/Projekte/Temp/CF_XMC4700/cleanflight/src/main/flight\mixer.h **** #include "common/time.h"
  26:D:/XMC/Projekte/Temp/CF_XMC4700/cleanflight/src/main/flight\mixer.h **** #include "pg/pg.h"
  27:D:/XMC/Projekte/Temp/CF_XMC4700/cleanflight/src/main/flight\mixer.h **** #include "drivers/pwm_output_counts.h"
  28:D:/XMC/Projekte/Temp/CF_XMC4700/cleanflight/src/main/flight\mixer.h **** #include "drivers/io_types.h"
  29:D:/XMC/Projekte/Temp/CF_XMC4700/cleanflight/src/main/flight\mixer.h **** #include "drivers/pwm_output.h"
  30:D:/XMC/Projekte/Temp/CF_XMC4700/cleanflight/src/main/flight\mixer.h **** 
  31:D:/XMC/Projekte/Temp/CF_XMC4700/cleanflight/src/main/flight\mixer.h **** #define QUAD_MOTOR_COUNT 4
  32:D:/XMC/Projekte/Temp/CF_XMC4700/cleanflight/src/main/flight\mixer.h **** #define BRUSHED_MOTORS_PWM_RATE 16000
  33:D:/XMC/Projekte/Temp/CF_XMC4700/cleanflight/src/main/flight\mixer.h **** #define BRUSHLESS_MOTORS_PWM_RATE 480
  34:D:/XMC/Projekte/Temp/CF_XMC4700/cleanflight/src/main/flight\mixer.h **** 
  35:D:/XMC/Projekte/Temp/CF_XMC4700/cleanflight/src/main/flight\mixer.h **** // Digital protocol has fixed values
  36:D:/XMC/Projekte/Temp/CF_XMC4700/cleanflight/src/main/flight\mixer.h **** #define DSHOT_DISARM_COMMAND      0
  37:D:/XMC/Projekte/Temp/CF_XMC4700/cleanflight/src/main/flight\mixer.h **** #define DSHOT_MIN_THROTTLE       48
  38:D:/XMC/Projekte/Temp/CF_XMC4700/cleanflight/src/main/flight\mixer.h **** #define DSHOT_MAX_THROTTLE     2047
  39:D:/XMC/Projekte/Temp/CF_XMC4700/cleanflight/src/main/flight\mixer.h **** #define DSHOT_3D_DEADBAND_LOW  1047
  40:D:/XMC/Projekte/Temp/CF_XMC4700/cleanflight/src/main/flight\mixer.h **** #define DSHOT_3D_DEADBAND_HIGH 1048
  41:D:/XMC/Projekte/Temp/CF_XMC4700/cleanflight/src/main/flight\mixer.h **** 
  42:D:/XMC/Projekte/Temp/CF_XMC4700/cleanflight/src/main/flight\mixer.h **** // Note: this is called MultiType/MULTITYPE_* in baseflight.
  43:D:/XMC/Projekte/Temp/CF_XMC4700/cleanflight/src/main/flight\mixer.h **** typedef enum mixerMode
  44:D:/XMC/Projekte/Temp/CF_XMC4700/cleanflight/src/main/flight\mixer.h **** {
  45:D:/XMC/Projekte/Temp/CF_XMC4700/cleanflight/src/main/flight\mixer.h ****     MIXER_TRI = 1,
  46:D:/XMC/Projekte/Temp/CF_XMC4700/cleanflight/src/main/flight\mixer.h ****     MIXER_QUADP = 2,
  47:D:/XMC/Projekte/Temp/CF_XMC4700/cleanflight/src/main/flight\mixer.h ****     MIXER_QUADX = 3,
  48:D:/XMC/Projekte/Temp/CF_XMC4700/cleanflight/src/main/flight\mixer.h ****     MIXER_BICOPTER = 4,
  49:D:/XMC/Projekte/Temp/CF_XMC4700/cleanflight/src/main/flight\mixer.h ****     MIXER_GIMBAL = 5,
  50:D:/XMC/Projekte/Temp/CF_XMC4700/cleanflight/src/main/flight\mixer.h ****     MIXER_Y6 = 6,
  51:D:/XMC/Projekte/Temp/CF_XMC4700/cleanflight/src/main/flight\mixer.h ****     MIXER_HEX6 = 7,
  52:D:/XMC/Projekte/Temp/CF_XMC4700/cleanflight/src/main/flight\mixer.h ****     MIXER_FLYING_WING = 8,
  53:D:/XMC/Projekte/Temp/CF_XMC4700/cleanflight/src/main/flight\mixer.h ****     MIXER_Y4 = 9,
  54:D:/XMC/Projekte/Temp/CF_XMC4700/cleanflight/src/main/flight\mixer.h ****     MIXER_HEX6X = 10,
  55:D:/XMC/Projekte/Temp/CF_XMC4700/cleanflight/src/main/flight\mixer.h ****     MIXER_OCTOX8 = 11,
  56:D:/XMC/Projekte/Temp/CF_XMC4700/cleanflight/src/main/flight\mixer.h ****     MIXER_OCTOFLATP = 12,
  57:D:/XMC/Projekte/Temp/CF_XMC4700/cleanflight/src/main/flight\mixer.h ****     MIXER_OCTOFLATX = 13,
  58:D:/XMC/Projekte/Temp/CF_XMC4700/cleanflight/src/main/flight\mixer.h ****     MIXER_AIRPLANE = 14,        // airplane / singlecopter / dualcopter (not yet properly supported
  59:D:/XMC/Projekte/Temp/CF_XMC4700/cleanflight/src/main/flight\mixer.h ****     MIXER_HELI_120_CCPM = 15,
  60:D:/XMC/Projekte/Temp/CF_XMC4700/cleanflight/src/main/flight\mixer.h ****     MIXER_HELI_90_DEG = 16,
  61:D:/XMC/Projekte/Temp/CF_XMC4700/cleanflight/src/main/flight\mixer.h ****     MIXER_VTAIL4 = 17,
  62:D:/XMC/Projekte/Temp/CF_XMC4700/cleanflight/src/main/flight\mixer.h ****     MIXER_HEX6H = 18,
  63:D:/XMC/Projekte/Temp/CF_XMC4700/cleanflight/src/main/flight\mixer.h ****     MIXER_RX_TO_SERVO = 19,    // PPM -> servo relay
  64:D:/XMC/Projekte/Temp/CF_XMC4700/cleanflight/src/main/flight\mixer.h ****     MIXER_DUALCOPTER = 20,
  65:D:/XMC/Projekte/Temp/CF_XMC4700/cleanflight/src/main/flight\mixer.h ****     MIXER_SINGLECOPTER = 21,
  66:D:/XMC/Projekte/Temp/CF_XMC4700/cleanflight/src/main/flight\mixer.h ****     MIXER_ATAIL4 = 22,
  67:D:/XMC/Projekte/Temp/CF_XMC4700/cleanflight/src/main/flight\mixer.h ****     MIXER_CUSTOM = 23,
  68:D:/XMC/Projekte/Temp/CF_XMC4700/cleanflight/src/main/flight\mixer.h ****     MIXER_CUSTOM_AIRPLANE = 24,
  69:D:/XMC/Projekte/Temp/CF_XMC4700/cleanflight/src/main/flight\mixer.h ****     MIXER_CUSTOM_TRI = 25,
  70:D:/XMC/Projekte/Temp/CF_XMC4700/cleanflight/src/main/flight\mixer.h ****     MIXER_QUADX_1234 = 26
  71:D:/XMC/Projekte/Temp/CF_XMC4700/cleanflight/src/main/flight\mixer.h **** } mixerMode_e;
  72:D:/XMC/Projekte/Temp/CF_XMC4700/cleanflight/src/main/flight\mixer.h **** 
  73:D:/XMC/Projekte/Temp/CF_XMC4700/cleanflight/src/main/flight\mixer.h **** // Custom mixer data per motor
  74:D:/XMC/Projekte/Temp/CF_XMC4700/cleanflight/src/main/flight\mixer.h **** typedef struct motorMixer_s {
  75:D:/XMC/Projekte/Temp/CF_XMC4700/cleanflight/src/main/flight\mixer.h ****     float throttle;
  76:D:/XMC/Projekte/Temp/CF_XMC4700/cleanflight/src/main/flight\mixer.h ****     float roll;
  77:D:/XMC/Projekte/Temp/CF_XMC4700/cleanflight/src/main/flight\mixer.h ****     float pitch;
  78:D:/XMC/Projekte/Temp/CF_XMC4700/cleanflight/src/main/flight\mixer.h ****     float yaw;
  79:D:/XMC/Projekte/Temp/CF_XMC4700/cleanflight/src/main/flight\mixer.h **** } motorMixer_t;
  80:D:/XMC/Projekte/Temp/CF_XMC4700/cleanflight/src/main/flight\mixer.h **** 
  81:D:/XMC/Projekte/Temp/CF_XMC4700/cleanflight/src/main/flight\mixer.h **** PG_DECLARE_ARRAY(motorMixer_t, MAX_SUPPORTED_MOTORS, customMotorMixer);
  82:D:/XMC/Projekte/Temp/CF_XMC4700/cleanflight/src/main/flight\mixer.h **** 
  83:D:/XMC/Projekte/Temp/CF_XMC4700/cleanflight/src/main/flight\mixer.h **** // Custom mixer configuration
  84:D:/XMC/Projekte/Temp/CF_XMC4700/cleanflight/src/main/flight\mixer.h **** typedef struct mixer_s {
  85:D:/XMC/Projekte/Temp/CF_XMC4700/cleanflight/src/main/flight\mixer.h ****     uint8_t motorCount;
  86:D:/XMC/Projekte/Temp/CF_XMC4700/cleanflight/src/main/flight\mixer.h ****     uint8_t useServo;
  87:D:/XMC/Projekte/Temp/CF_XMC4700/cleanflight/src/main/flight\mixer.h ****     const motorMixer_t *motor;
  88:D:/XMC/Projekte/Temp/CF_XMC4700/cleanflight/src/main/flight\mixer.h **** } mixer_t;
  89:D:/XMC/Projekte/Temp/CF_XMC4700/cleanflight/src/main/flight\mixer.h **** 
  90:D:/XMC/Projekte/Temp/CF_XMC4700/cleanflight/src/main/flight\mixer.h **** typedef struct mixerConfig_s {
  91:D:/XMC/Projekte/Temp/CF_XMC4700/cleanflight/src/main/flight\mixer.h ****     uint8_t mixerMode;
  92:D:/XMC/Projekte/Temp/CF_XMC4700/cleanflight/src/main/flight\mixer.h ****     bool yaw_motors_reversed;
  93:D:/XMC/Projekte/Temp/CF_XMC4700/cleanflight/src/main/flight\mixer.h ****     uint8_t crashflip_motor_percent;
  94:D:/XMC/Projekte/Temp/CF_XMC4700/cleanflight/src/main/flight\mixer.h **** } mixerConfig_t;
  95:D:/XMC/Projekte/Temp/CF_XMC4700/cleanflight/src/main/flight\mixer.h **** 
  96:D:/XMC/Projekte/Temp/CF_XMC4700/cleanflight/src/main/flight\mixer.h **** PG_DECLARE(mixerConfig_t, mixerConfig);
 484              	 .loc 9 96 0
 485              	 .cfi_startproc
 486              	 
 487              	 
 488              	 
 489 0000 80B4     	 push {r7}
 490              	.LCFI48:
 491              	 .cfi_def_cfa_offset 4
 492              	 .cfi_offset 7,-4
 493 0002 00AF     	 add r7,sp,#0
 494              	.LCFI49:
 495              	 .cfi_def_cfa_register 7
 496              	 .loc 9 96 0
 497 0004 024B     	 ldr r3,.L45
 498 0006 1846     	 mov r0,r3
 499 0008 BD46     	 mov sp,r7
 500              	.LCFI50:
 501              	 .cfi_def_cfa_register 13
 502              	 
 503 000a 5DF8047B 	 ldr r7,[sp],#4
 504              	.LCFI51:
 505              	 .cfi_restore 7
 506              	 .cfi_def_cfa_offset 0
 507 000e 7047     	 bx lr
 508              	.L46:
 509              	 .align 2
 510              	.L45:
 511 0010 00000000 	 .word mixerConfig_System
 512              	 .cfi_endproc
 513              	.LFE604:
 515              	 .section .text.pidConfig,"ax",%progbits
 516              	 .align 2
 517              	 .thumb
 518              	 .thumb_func
 520              	pidConfig:
 521              	.LFB611:
 522              	 .file 10 "D:/XMC/Projekte/Temp/CF_XMC4700/cleanflight/src/main/flight/pid.h"
   1:D:/XMC/Projekte/Temp/CF_XMC4700/cleanflight/src/main/flight\pid.h **** /*
   2:D:/XMC/Projekte/Temp/CF_XMC4700/cleanflight/src/main/flight\pid.h ****  * This file is part of Cleanflight and Betaflight.
   3:D:/XMC/Projekte/Temp/CF_XMC4700/cleanflight/src/main/flight\pid.h ****  *
   4:D:/XMC/Projekte/Temp/CF_XMC4700/cleanflight/src/main/flight\pid.h ****  * Cleanflight and Betaflight are free software. You can redistribute
   5:D:/XMC/Projekte/Temp/CF_XMC4700/cleanflight/src/main/flight\pid.h ****  * this software and/or modify this software under the terms of the
   6:D:/XMC/Projekte/Temp/CF_XMC4700/cleanflight/src/main/flight\pid.h ****  * GNU General Public License as published by the Free Software
   7:D:/XMC/Projekte/Temp/CF_XMC4700/cleanflight/src/main/flight\pid.h ****  * Foundation, either version 3 of the License, or (at your option)
   8:D:/XMC/Projekte/Temp/CF_XMC4700/cleanflight/src/main/flight\pid.h ****  * any later version.
   9:D:/XMC/Projekte/Temp/CF_XMC4700/cleanflight/src/main/flight\pid.h ****  *
  10:D:/XMC/Projekte/Temp/CF_XMC4700/cleanflight/src/main/flight\pid.h ****  * Cleanflight and Betaflight are distributed in the hope that they
  11:D:/XMC/Projekte/Temp/CF_XMC4700/cleanflight/src/main/flight\pid.h ****  * will be useful, but WITHOUT ANY WARRANTY; without even the implied
  12:D:/XMC/Projekte/Temp/CF_XMC4700/cleanflight/src/main/flight\pid.h ****  * warranty of MERCHANTABILITY or FITNESS FOR A PARTICULAR PURPOSE.
  13:D:/XMC/Projekte/Temp/CF_XMC4700/cleanflight/src/main/flight\pid.h ****  * See the GNU General Public License for more details.
  14:D:/XMC/Projekte/Temp/CF_XMC4700/cleanflight/src/main/flight\pid.h ****  *
  15:D:/XMC/Projekte/Temp/CF_XMC4700/cleanflight/src/main/flight\pid.h ****  * You should have received a copy of the GNU General Public License
  16:D:/XMC/Projekte/Temp/CF_XMC4700/cleanflight/src/main/flight\pid.h ****  * along with this software.
  17:D:/XMC/Projekte/Temp/CF_XMC4700/cleanflight/src/main/flight\pid.h ****  *
  18:D:/XMC/Projekte/Temp/CF_XMC4700/cleanflight/src/main/flight\pid.h ****  * If not, see <http://www.gnu.org/licenses/>.
  19:D:/XMC/Projekte/Temp/CF_XMC4700/cleanflight/src/main/flight\pid.h ****  */
  20:D:/XMC/Projekte/Temp/CF_XMC4700/cleanflight/src/main/flight\pid.h **** 
  21:D:/XMC/Projekte/Temp/CF_XMC4700/cleanflight/src/main/flight\pid.h **** #pragma once
  22:D:/XMC/Projekte/Temp/CF_XMC4700/cleanflight/src/main/flight\pid.h **** 
  23:D:/XMC/Projekte/Temp/CF_XMC4700/cleanflight/src/main/flight\pid.h **** #include <stdbool.h>
  24:D:/XMC/Projekte/Temp/CF_XMC4700/cleanflight/src/main/flight\pid.h **** #include "common/time.h"
  25:D:/XMC/Projekte/Temp/CF_XMC4700/cleanflight/src/main/flight\pid.h **** #include "common/filter.h"
  26:D:/XMC/Projekte/Temp/CF_XMC4700/cleanflight/src/main/flight\pid.h **** #include "pg/pg.h"
  27:D:/XMC/Projekte/Temp/CF_XMC4700/cleanflight/src/main/flight\pid.h **** 
  28:D:/XMC/Projekte/Temp/CF_XMC4700/cleanflight/src/main/flight\pid.h **** #define MAX_PID_PROCESS_DENOM       16
  29:D:/XMC/Projekte/Temp/CF_XMC4700/cleanflight/src/main/flight\pid.h **** #define PID_CONTROLLER_BETAFLIGHT   1
  30:D:/XMC/Projekte/Temp/CF_XMC4700/cleanflight/src/main/flight\pid.h **** #define PID_MIXER_SCALING           1000.0f
  31:D:/XMC/Projekte/Temp/CF_XMC4700/cleanflight/src/main/flight\pid.h **** #define PID_SERVO_MIXER_SCALING     0.7f
  32:D:/XMC/Projekte/Temp/CF_XMC4700/cleanflight/src/main/flight\pid.h **** #define PIDSUM_LIMIT                500
  33:D:/XMC/Projekte/Temp/CF_XMC4700/cleanflight/src/main/flight\pid.h **** #define PIDSUM_LIMIT_YAW            400
  34:D:/XMC/Projekte/Temp/CF_XMC4700/cleanflight/src/main/flight\pid.h **** #define PIDSUM_LIMIT_MIN            100
  35:D:/XMC/Projekte/Temp/CF_XMC4700/cleanflight/src/main/flight\pid.h **** #define PIDSUM_LIMIT_MAX            1000
  36:D:/XMC/Projekte/Temp/CF_XMC4700/cleanflight/src/main/flight\pid.h **** 
  37:D:/XMC/Projekte/Temp/CF_XMC4700/cleanflight/src/main/flight\pid.h **** // Scaling factors for Pids for better tunable range in configurator for betaflight pid controller.
  38:D:/XMC/Projekte/Temp/CF_XMC4700/cleanflight/src/main/flight\pid.h **** #define PTERM_SCALE 0.032029f
  39:D:/XMC/Projekte/Temp/CF_XMC4700/cleanflight/src/main/flight\pid.h **** #define ITERM_SCALE 0.244381f
  40:D:/XMC/Projekte/Temp/CF_XMC4700/cleanflight/src/main/flight\pid.h **** #define DTERM_SCALE 0.000529f
  41:D:/XMC/Projekte/Temp/CF_XMC4700/cleanflight/src/main/flight\pid.h **** 
  42:D:/XMC/Projekte/Temp/CF_XMC4700/cleanflight/src/main/flight\pid.h **** // The constant scale factor to replace the Kd component of the feedforward calculation.
  43:D:/XMC/Projekte/Temp/CF_XMC4700/cleanflight/src/main/flight\pid.h **** // This value gives the same "feel" as the previous Kd default of 26 (26 * DTERM_SCALE)
  44:D:/XMC/Projekte/Temp/CF_XMC4700/cleanflight/src/main/flight\pid.h **** #define FEEDFORWARD_SCALE 0.013754f
  45:D:/XMC/Projekte/Temp/CF_XMC4700/cleanflight/src/main/flight\pid.h **** 
  46:D:/XMC/Projekte/Temp/CF_XMC4700/cleanflight/src/main/flight\pid.h **** typedef enum {
  47:D:/XMC/Projekte/Temp/CF_XMC4700/cleanflight/src/main/flight\pid.h ****     PID_ROLL,
  48:D:/XMC/Projekte/Temp/CF_XMC4700/cleanflight/src/main/flight\pid.h ****     PID_PITCH,
  49:D:/XMC/Projekte/Temp/CF_XMC4700/cleanflight/src/main/flight\pid.h ****     PID_YAW,
  50:D:/XMC/Projekte/Temp/CF_XMC4700/cleanflight/src/main/flight\pid.h ****     PID_LEVEL,
  51:D:/XMC/Projekte/Temp/CF_XMC4700/cleanflight/src/main/flight\pid.h ****     PID_MAG,
  52:D:/XMC/Projekte/Temp/CF_XMC4700/cleanflight/src/main/flight\pid.h ****     PID_ITEM_COUNT
  53:D:/XMC/Projekte/Temp/CF_XMC4700/cleanflight/src/main/flight\pid.h **** } pidIndex_e;
  54:D:/XMC/Projekte/Temp/CF_XMC4700/cleanflight/src/main/flight\pid.h **** 
  55:D:/XMC/Projekte/Temp/CF_XMC4700/cleanflight/src/main/flight\pid.h **** typedef enum {
  56:D:/XMC/Projekte/Temp/CF_XMC4700/cleanflight/src/main/flight\pid.h ****     SUPEREXPO_YAW_OFF = 0,
  57:D:/XMC/Projekte/Temp/CF_XMC4700/cleanflight/src/main/flight\pid.h ****     SUPEREXPO_YAW_ON,
  58:D:/XMC/Projekte/Temp/CF_XMC4700/cleanflight/src/main/flight\pid.h ****     SUPEREXPO_YAW_ALWAYS
  59:D:/XMC/Projekte/Temp/CF_XMC4700/cleanflight/src/main/flight\pid.h **** } pidSuperExpoYaw_e;
  60:D:/XMC/Projekte/Temp/CF_XMC4700/cleanflight/src/main/flight\pid.h **** 
  61:D:/XMC/Projekte/Temp/CF_XMC4700/cleanflight/src/main/flight\pid.h **** typedef enum {
  62:D:/XMC/Projekte/Temp/CF_XMC4700/cleanflight/src/main/flight\pid.h ****     PID_STABILISATION_OFF = 0,
  63:D:/XMC/Projekte/Temp/CF_XMC4700/cleanflight/src/main/flight\pid.h ****     PID_STABILISATION_ON
  64:D:/XMC/Projekte/Temp/CF_XMC4700/cleanflight/src/main/flight\pid.h **** } pidStabilisationState_e;
  65:D:/XMC/Projekte/Temp/CF_XMC4700/cleanflight/src/main/flight\pid.h **** 
  66:D:/XMC/Projekte/Temp/CF_XMC4700/cleanflight/src/main/flight\pid.h **** typedef enum {
  67:D:/XMC/Projekte/Temp/CF_XMC4700/cleanflight/src/main/flight\pid.h ****     PID_CRASH_RECOVERY_OFF = 0,
  68:D:/XMC/Projekte/Temp/CF_XMC4700/cleanflight/src/main/flight\pid.h ****     PID_CRASH_RECOVERY_ON,
  69:D:/XMC/Projekte/Temp/CF_XMC4700/cleanflight/src/main/flight\pid.h ****     PID_CRASH_RECOVERY_BEEP
  70:D:/XMC/Projekte/Temp/CF_XMC4700/cleanflight/src/main/flight\pid.h **** } pidCrashRecovery_e;
  71:D:/XMC/Projekte/Temp/CF_XMC4700/cleanflight/src/main/flight\pid.h **** 
  72:D:/XMC/Projekte/Temp/CF_XMC4700/cleanflight/src/main/flight\pid.h **** typedef struct pidf_s {
  73:D:/XMC/Projekte/Temp/CF_XMC4700/cleanflight/src/main/flight\pid.h ****     uint8_t P;
  74:D:/XMC/Projekte/Temp/CF_XMC4700/cleanflight/src/main/flight\pid.h ****     uint8_t I;
  75:D:/XMC/Projekte/Temp/CF_XMC4700/cleanflight/src/main/flight\pid.h ****     uint8_t D;
  76:D:/XMC/Projekte/Temp/CF_XMC4700/cleanflight/src/main/flight\pid.h ****     uint16_t F;
  77:D:/XMC/Projekte/Temp/CF_XMC4700/cleanflight/src/main/flight\pid.h **** } pidf_t;
  78:D:/XMC/Projekte/Temp/CF_XMC4700/cleanflight/src/main/flight\pid.h **** 
  79:D:/XMC/Projekte/Temp/CF_XMC4700/cleanflight/src/main/flight\pid.h **** typedef enum {
  80:D:/XMC/Projekte/Temp/CF_XMC4700/cleanflight/src/main/flight\pid.h ****     ANTI_GRAVITY_SMOOTH,
  81:D:/XMC/Projekte/Temp/CF_XMC4700/cleanflight/src/main/flight\pid.h ****     ANTI_GRAVITY_STEP
  82:D:/XMC/Projekte/Temp/CF_XMC4700/cleanflight/src/main/flight\pid.h **** } antiGravityMode_e;
  83:D:/XMC/Projekte/Temp/CF_XMC4700/cleanflight/src/main/flight\pid.h **** 
  84:D:/XMC/Projekte/Temp/CF_XMC4700/cleanflight/src/main/flight\pid.h **** typedef enum {
  85:D:/XMC/Projekte/Temp/CF_XMC4700/cleanflight/src/main/flight\pid.h ****     ITERM_RELAX_OFF,
  86:D:/XMC/Projekte/Temp/CF_XMC4700/cleanflight/src/main/flight\pid.h ****     ITERM_RELAX_RP,
  87:D:/XMC/Projekte/Temp/CF_XMC4700/cleanflight/src/main/flight\pid.h ****     ITERM_RELAX_RPY,
  88:D:/XMC/Projekte/Temp/CF_XMC4700/cleanflight/src/main/flight\pid.h ****     ITERM_RELAX_RP_INC,
  89:D:/XMC/Projekte/Temp/CF_XMC4700/cleanflight/src/main/flight\pid.h ****     ITERM_RELAX_RPY_INC
  90:D:/XMC/Projekte/Temp/CF_XMC4700/cleanflight/src/main/flight\pid.h **** } itermRelax_e;
  91:D:/XMC/Projekte/Temp/CF_XMC4700/cleanflight/src/main/flight\pid.h **** 
  92:D:/XMC/Projekte/Temp/CF_XMC4700/cleanflight/src/main/flight\pid.h **** typedef enum {
  93:D:/XMC/Projekte/Temp/CF_XMC4700/cleanflight/src/main/flight\pid.h ****     ITERM_RELAX_GYRO,
  94:D:/XMC/Projekte/Temp/CF_XMC4700/cleanflight/src/main/flight\pid.h ****     ITERM_RELAX_SETPOINT
  95:D:/XMC/Projekte/Temp/CF_XMC4700/cleanflight/src/main/flight\pid.h **** } itermRelaxType_e;
  96:D:/XMC/Projekte/Temp/CF_XMC4700/cleanflight/src/main/flight\pid.h **** 
  97:D:/XMC/Projekte/Temp/CF_XMC4700/cleanflight/src/main/flight\pid.h **** typedef struct pidProfile_s {
  98:D:/XMC/Projekte/Temp/CF_XMC4700/cleanflight/src/main/flight\pid.h ****     uint16_t yaw_lowpass_hz;                // Additional yaw filter when yaw axis too noisy
  99:D:/XMC/Projekte/Temp/CF_XMC4700/cleanflight/src/main/flight\pid.h ****     uint16_t dterm_lowpass_hz;              // Delta Filter in hz
 100:D:/XMC/Projekte/Temp/CF_XMC4700/cleanflight/src/main/flight\pid.h ****     uint16_t dterm_notch_hz;                // Biquad dterm notch hz
 101:D:/XMC/Projekte/Temp/CF_XMC4700/cleanflight/src/main/flight\pid.h ****     uint16_t dterm_notch_cutoff;            // Biquad dterm notch low cutoff
 102:D:/XMC/Projekte/Temp/CF_XMC4700/cleanflight/src/main/flight\pid.h **** 
 103:D:/XMC/Projekte/Temp/CF_XMC4700/cleanflight/src/main/flight\pid.h ****     pidf_t  pid[PID_ITEM_COUNT];
 104:D:/XMC/Projekte/Temp/CF_XMC4700/cleanflight/src/main/flight\pid.h **** 
 105:D:/XMC/Projekte/Temp/CF_XMC4700/cleanflight/src/main/flight\pid.h ****     uint8_t dterm_filter_type;              // Filter selection for dterm
 106:D:/XMC/Projekte/Temp/CF_XMC4700/cleanflight/src/main/flight\pid.h ****     uint8_t itermWindupPointPercent;        // Experimental ITerm windup threshold, percent motor s
 107:D:/XMC/Projekte/Temp/CF_XMC4700/cleanflight/src/main/flight\pid.h ****     uint16_t pidSumLimit;
 108:D:/XMC/Projekte/Temp/CF_XMC4700/cleanflight/src/main/flight\pid.h ****     uint16_t pidSumLimitYaw;
 109:D:/XMC/Projekte/Temp/CF_XMC4700/cleanflight/src/main/flight\pid.h ****     uint8_t pidAtMinThrottle;               // Disable/Enable pids on zero throttle. Normally even 
 110:D:/XMC/Projekte/Temp/CF_XMC4700/cleanflight/src/main/flight\pid.h ****     uint8_t levelAngleLimit;                // Max angle in degrees in level mode
 111:D:/XMC/Projekte/Temp/CF_XMC4700/cleanflight/src/main/flight\pid.h **** 
 112:D:/XMC/Projekte/Temp/CF_XMC4700/cleanflight/src/main/flight\pid.h ****     uint8_t horizon_tilt_effect;            // inclination factor for Horizon mode
 113:D:/XMC/Projekte/Temp/CF_XMC4700/cleanflight/src/main/flight\pid.h ****     uint8_t horizon_tilt_expert_mode;       // OFF or ON
 114:D:/XMC/Projekte/Temp/CF_XMC4700/cleanflight/src/main/flight\pid.h **** 
 115:D:/XMC/Projekte/Temp/CF_XMC4700/cleanflight/src/main/flight\pid.h ****     // Betaflight PID controller parameters
 116:D:/XMC/Projekte/Temp/CF_XMC4700/cleanflight/src/main/flight\pid.h ****     uint8_t  antiGravityMode;             // type of anti gravity method
 117:D:/XMC/Projekte/Temp/CF_XMC4700/cleanflight/src/main/flight\pid.h ****     uint16_t itermThrottleThreshold;        // max allowed throttle delta before iterm accelerated 
 118:D:/XMC/Projekte/Temp/CF_XMC4700/cleanflight/src/main/flight\pid.h ****     uint16_t itermAcceleratorGain;          // Iterm Accelerator Gain when itermThrottlethreshold i
 119:D:/XMC/Projekte/Temp/CF_XMC4700/cleanflight/src/main/flight\pid.h ****     uint16_t yawRateAccelLimit;             // yaw accel limiter for deg/sec/ms
 120:D:/XMC/Projekte/Temp/CF_XMC4700/cleanflight/src/main/flight\pid.h ****     uint16_t rateAccelLimit;                // accel limiter roll/pitch deg/sec/ms
 121:D:/XMC/Projekte/Temp/CF_XMC4700/cleanflight/src/main/flight\pid.h ****     uint16_t crash_dthreshold;              // dterm crash value
 122:D:/XMC/Projekte/Temp/CF_XMC4700/cleanflight/src/main/flight\pid.h ****     uint16_t crash_gthreshold;              // gyro crash value
 123:D:/XMC/Projekte/Temp/CF_XMC4700/cleanflight/src/main/flight\pid.h ****     uint16_t crash_setpoint_threshold;      // setpoint must be below this value to detect crash, s
 124:D:/XMC/Projekte/Temp/CF_XMC4700/cleanflight/src/main/flight\pid.h ****     uint16_t crash_time;                    // ms
 125:D:/XMC/Projekte/Temp/CF_XMC4700/cleanflight/src/main/flight\pid.h ****     uint16_t crash_delay;                   // ms
 126:D:/XMC/Projekte/Temp/CF_XMC4700/cleanflight/src/main/flight\pid.h ****     uint8_t crash_recovery_angle;           // degrees
 127:D:/XMC/Projekte/Temp/CF_XMC4700/cleanflight/src/main/flight\pid.h ****     uint8_t crash_recovery_rate;            // degree/second
 128:D:/XMC/Projekte/Temp/CF_XMC4700/cleanflight/src/main/flight\pid.h ****     uint8_t vbatPidCompensation;            // Scale PIDsum to battery voltage
 129:D:/XMC/Projekte/Temp/CF_XMC4700/cleanflight/src/main/flight\pid.h ****     uint8_t feedForwardTransition;          // Feed forward weight transition
 130:D:/XMC/Projekte/Temp/CF_XMC4700/cleanflight/src/main/flight\pid.h ****     uint16_t crash_limit_yaw;               // limits yaw errorRate, so crashes don't cause huge th
 131:D:/XMC/Projekte/Temp/CF_XMC4700/cleanflight/src/main/flight\pid.h ****     uint16_t itermLimit;
 132:D:/XMC/Projekte/Temp/CF_XMC4700/cleanflight/src/main/flight\pid.h ****     uint16_t dterm_lowpass2_hz;             // Extra PT1 Filter on D in hz
 133:D:/XMC/Projekte/Temp/CF_XMC4700/cleanflight/src/main/flight\pid.h ****     uint8_t crash_recovery;                 // off, on, on and beeps when it is in crash recovery m
 134:D:/XMC/Projekte/Temp/CF_XMC4700/cleanflight/src/main/flight\pid.h ****     uint8_t throttle_boost;                 // how much should throttle be boosted during transient
 135:D:/XMC/Projekte/Temp/CF_XMC4700/cleanflight/src/main/flight\pid.h ****     uint8_t throttle_boost_cutoff;          // Which cutoff frequency to use for throttle boost. hi
 136:D:/XMC/Projekte/Temp/CF_XMC4700/cleanflight/src/main/flight\pid.h ****     uint8_t iterm_rotation;                 // rotates iterm to translate world errors to local coo
 137:D:/XMC/Projekte/Temp/CF_XMC4700/cleanflight/src/main/flight\pid.h ****     uint8_t smart_feedforward;              // takes only the larger of P and the D weight feed for
 138:D:/XMC/Projekte/Temp/CF_XMC4700/cleanflight/src/main/flight\pid.h ****     uint8_t iterm_relax_type;               // Specifies type of relax algorithm
 139:D:/XMC/Projekte/Temp/CF_XMC4700/cleanflight/src/main/flight\pid.h ****     uint8_t iterm_relax_cutoff;             // This cutoff frequency specifies a low pass filter wh
 140:D:/XMC/Projekte/Temp/CF_XMC4700/cleanflight/src/main/flight\pid.h ****     uint8_t iterm_relax;                    // Enable iterm suppression during stick input
 141:D:/XMC/Projekte/Temp/CF_XMC4700/cleanflight/src/main/flight\pid.h ****     uint8_t acro_trainer_angle_limit;       // Acro trainer roll/pitch angle limit in degrees
 142:D:/XMC/Projekte/Temp/CF_XMC4700/cleanflight/src/main/flight\pid.h ****     uint8_t acro_trainer_debug_axis;        // The axis for which record debugging values are captu
 143:D:/XMC/Projekte/Temp/CF_XMC4700/cleanflight/src/main/flight\pid.h ****     uint8_t acro_trainer_gain;              // The strength of the limiting. Raising may reduce ove
 144:D:/XMC/Projekte/Temp/CF_XMC4700/cleanflight/src/main/flight\pid.h ****     uint16_t acro_trainer_lookahead_ms;     // The lookahead window in milliseconds used to reduce 
 145:D:/XMC/Projekte/Temp/CF_XMC4700/cleanflight/src/main/flight\pid.h ****     uint8_t abs_control_gain;               // How strongly should the absolute accumulated error b
 146:D:/XMC/Projekte/Temp/CF_XMC4700/cleanflight/src/main/flight\pid.h ****     uint8_t abs_control_limit;              // Limit to the correction
 147:D:/XMC/Projekte/Temp/CF_XMC4700/cleanflight/src/main/flight\pid.h ****     uint8_t abs_control_error_limit;        // Limit to the accumulated error
 148:D:/XMC/Projekte/Temp/CF_XMC4700/cleanflight/src/main/flight\pid.h **** } pidProfile_t;
 149:D:/XMC/Projekte/Temp/CF_XMC4700/cleanflight/src/main/flight\pid.h **** 
 150:D:/XMC/Projekte/Temp/CF_XMC4700/cleanflight/src/main/flight\pid.h **** #ifndef USE_OSD_SLAVE
 151:D:/XMC/Projekte/Temp/CF_XMC4700/cleanflight/src/main/flight\pid.h **** PG_DECLARE_ARRAY(pidProfile_t, MAX_PROFILE_COUNT, pidProfiles);
 152:D:/XMC/Projekte/Temp/CF_XMC4700/cleanflight/src/main/flight\pid.h **** #endif
 153:D:/XMC/Projekte/Temp/CF_XMC4700/cleanflight/src/main/flight\pid.h **** 
 154:D:/XMC/Projekte/Temp/CF_XMC4700/cleanflight/src/main/flight\pid.h **** typedef struct pidConfig_s {
 155:D:/XMC/Projekte/Temp/CF_XMC4700/cleanflight/src/main/flight\pid.h ****     uint8_t pid_process_denom;              // Processing denominator for PID controller vs gyro sa
 156:D:/XMC/Projekte/Temp/CF_XMC4700/cleanflight/src/main/flight\pid.h ****     uint8_t runaway_takeoff_prevention;          // off, on - enables pidsum runaway disarm logic
 157:D:/XMC/Projekte/Temp/CF_XMC4700/cleanflight/src/main/flight\pid.h ****     uint16_t runaway_takeoff_deactivate_delay;   // delay in ms for "in-flight" conditions before d
 158:D:/XMC/Projekte/Temp/CF_XMC4700/cleanflight/src/main/flight\pid.h ****     uint8_t runaway_takeoff_deactivate_throttle; // minimum throttle percent required during deacti
 159:D:/XMC/Projekte/Temp/CF_XMC4700/cleanflight/src/main/flight\pid.h **** } pidConfig_t;
 160:D:/XMC/Projekte/Temp/CF_XMC4700/cleanflight/src/main/flight\pid.h **** 
 161:D:/XMC/Projekte/Temp/CF_XMC4700/cleanflight/src/main/flight\pid.h **** PG_DECLARE(pidConfig_t, pidConfig);
 523              	 .loc 10 161 0
 524              	 .cfi_startproc
 525              	 
 526              	 
 527              	 
 528 0000 80B4     	 push {r7}
 529              	.LCFI52:
 530              	 .cfi_def_cfa_offset 4
 531              	 .cfi_offset 7,-4
 532 0002 00AF     	 add r7,sp,#0
 533              	.LCFI53:
 534              	 .cfi_def_cfa_register 7
 535              	 .loc 10 161 0
 536 0004 024B     	 ldr r3,.L49
 537 0006 1846     	 mov r0,r3
 538 0008 BD46     	 mov sp,r7
 539              	.LCFI54:
 540              	 .cfi_def_cfa_register 13
 541              	 
 542 000a 5DF8047B 	 ldr r7,[sp],#4
 543              	.LCFI55:
 544              	 .cfi_restore 7
 545              	 .cfi_def_cfa_offset 0
 546 000e 7047     	 bx lr
 547              	.L50:
 548              	 .align 2
 549              	.L49:
 550 0010 00000000 	 .word pidConfig_System
 551              	 .cfi_endproc
 552              	.LFE611:
 554              	 .comm inputSource_e,1,1
 555              	 .section .text.servoConfig,"ax",%progbits
 556              	 .align 2
 557              	 .thumb
 558              	 .thumb_func
 560              	servoConfig:
 561              	.LFB619:
 562              	 .file 11 "D:/XMC/Projekte/Temp/CF_XMC4700/cleanflight/src/main/flight/servos.h"
   1:D:/XMC/Projekte/Temp/CF_XMC4700/cleanflight/src/main/flight\servos.h **** /*
   2:D:/XMC/Projekte/Temp/CF_XMC4700/cleanflight/src/main/flight\servos.h ****  * This file is part of Cleanflight and Betaflight.
   3:D:/XMC/Projekte/Temp/CF_XMC4700/cleanflight/src/main/flight\servos.h ****  *
   4:D:/XMC/Projekte/Temp/CF_XMC4700/cleanflight/src/main/flight\servos.h ****  * Cleanflight and Betaflight are free software. You can redistribute
   5:D:/XMC/Projekte/Temp/CF_XMC4700/cleanflight/src/main/flight\servos.h ****  * this software and/or modify this software under the terms of the
   6:D:/XMC/Projekte/Temp/CF_XMC4700/cleanflight/src/main/flight\servos.h ****  * GNU General Public License as published by the Free Software
   7:D:/XMC/Projekte/Temp/CF_XMC4700/cleanflight/src/main/flight\servos.h ****  * Foundation, either version 3 of the License, or (at your option)
   8:D:/XMC/Projekte/Temp/CF_XMC4700/cleanflight/src/main/flight\servos.h ****  * any later version.
   9:D:/XMC/Projekte/Temp/CF_XMC4700/cleanflight/src/main/flight\servos.h ****  *
  10:D:/XMC/Projekte/Temp/CF_XMC4700/cleanflight/src/main/flight\servos.h ****  * Cleanflight and Betaflight are distributed in the hope that they
  11:D:/XMC/Projekte/Temp/CF_XMC4700/cleanflight/src/main/flight\servos.h ****  * will be useful, but WITHOUT ANY WARRANTY; without even the implied
  12:D:/XMC/Projekte/Temp/CF_XMC4700/cleanflight/src/main/flight\servos.h ****  * warranty of MERCHANTABILITY or FITNESS FOR A PARTICULAR PURPOSE.
  13:D:/XMC/Projekte/Temp/CF_XMC4700/cleanflight/src/main/flight\servos.h ****  * See the GNU General Public License for more details.
  14:D:/XMC/Projekte/Temp/CF_XMC4700/cleanflight/src/main/flight\servos.h ****  *
  15:D:/XMC/Projekte/Temp/CF_XMC4700/cleanflight/src/main/flight\servos.h ****  * You should have received a copy of the GNU General Public License
  16:D:/XMC/Projekte/Temp/CF_XMC4700/cleanflight/src/main/flight\servos.h ****  * along with this software.
  17:D:/XMC/Projekte/Temp/CF_XMC4700/cleanflight/src/main/flight\servos.h ****  *
  18:D:/XMC/Projekte/Temp/CF_XMC4700/cleanflight/src/main/flight\servos.h ****  * If not, see <http://www.gnu.org/licenses/>.
  19:D:/XMC/Projekte/Temp/CF_XMC4700/cleanflight/src/main/flight\servos.h ****  */
  20:D:/XMC/Projekte/Temp/CF_XMC4700/cleanflight/src/main/flight\servos.h **** 
  21:D:/XMC/Projekte/Temp/CF_XMC4700/cleanflight/src/main/flight\servos.h **** #pragma once
  22:D:/XMC/Projekte/Temp/CF_XMC4700/cleanflight/src/main/flight\servos.h **** 
  23:D:/XMC/Projekte/Temp/CF_XMC4700/cleanflight/src/main/flight\servos.h **** #include "pg/pg.h"
  24:D:/XMC/Projekte/Temp/CF_XMC4700/cleanflight/src/main/flight\servos.h **** #include "drivers/io_types.h"
  25:D:/XMC/Projekte/Temp/CF_XMC4700/cleanflight/src/main/flight\servos.h **** #include "drivers/pwm_output.h"
  26:D:/XMC/Projekte/Temp/CF_XMC4700/cleanflight/src/main/flight\servos.h **** 
  27:D:/XMC/Projekte/Temp/CF_XMC4700/cleanflight/src/main/flight\servos.h **** // These must be consecutive, see 'reversedSources'
  28:D:/XMC/Projekte/Temp/CF_XMC4700/cleanflight/src/main/flight\servos.h **** enum {
  29:D:/XMC/Projekte/Temp/CF_XMC4700/cleanflight/src/main/flight\servos.h ****     INPUT_STABILIZED_ROLL = 0,
  30:D:/XMC/Projekte/Temp/CF_XMC4700/cleanflight/src/main/flight\servos.h ****     INPUT_STABILIZED_PITCH,
  31:D:/XMC/Projekte/Temp/CF_XMC4700/cleanflight/src/main/flight\servos.h ****     INPUT_STABILIZED_YAW,
  32:D:/XMC/Projekte/Temp/CF_XMC4700/cleanflight/src/main/flight\servos.h ****     INPUT_STABILIZED_THROTTLE,
  33:D:/XMC/Projekte/Temp/CF_XMC4700/cleanflight/src/main/flight\servos.h ****     INPUT_RC_ROLL,
  34:D:/XMC/Projekte/Temp/CF_XMC4700/cleanflight/src/main/flight\servos.h ****     INPUT_RC_PITCH,
  35:D:/XMC/Projekte/Temp/CF_XMC4700/cleanflight/src/main/flight\servos.h ****     INPUT_RC_YAW,
  36:D:/XMC/Projekte/Temp/CF_XMC4700/cleanflight/src/main/flight\servos.h ****     INPUT_RC_THROTTLE,
  37:D:/XMC/Projekte/Temp/CF_XMC4700/cleanflight/src/main/flight\servos.h ****     INPUT_RC_AUX1,
  38:D:/XMC/Projekte/Temp/CF_XMC4700/cleanflight/src/main/flight\servos.h ****     INPUT_RC_AUX2,
  39:D:/XMC/Projekte/Temp/CF_XMC4700/cleanflight/src/main/flight\servos.h ****     INPUT_RC_AUX3,
  40:D:/XMC/Projekte/Temp/CF_XMC4700/cleanflight/src/main/flight\servos.h ****     INPUT_RC_AUX4,
  41:D:/XMC/Projekte/Temp/CF_XMC4700/cleanflight/src/main/flight\servos.h ****     INPUT_GIMBAL_PITCH,
  42:D:/XMC/Projekte/Temp/CF_XMC4700/cleanflight/src/main/flight\servos.h ****     INPUT_GIMBAL_ROLL,
  43:D:/XMC/Projekte/Temp/CF_XMC4700/cleanflight/src/main/flight\servos.h ****     INPUT_SOURCE_COUNT
  44:D:/XMC/Projekte/Temp/CF_XMC4700/cleanflight/src/main/flight\servos.h **** } inputSource_e;
  45:D:/XMC/Projekte/Temp/CF_XMC4700/cleanflight/src/main/flight\servos.h **** 
  46:D:/XMC/Projekte/Temp/CF_XMC4700/cleanflight/src/main/flight\servos.h **** // target servo channels
  47:D:/XMC/Projekte/Temp/CF_XMC4700/cleanflight/src/main/flight\servos.h **** typedef enum {
  48:D:/XMC/Projekte/Temp/CF_XMC4700/cleanflight/src/main/flight\servos.h ****     SERVO_GIMBAL_PITCH = 0,
  49:D:/XMC/Projekte/Temp/CF_XMC4700/cleanflight/src/main/flight\servos.h ****     SERVO_GIMBAL_ROLL = 1,
  50:D:/XMC/Projekte/Temp/CF_XMC4700/cleanflight/src/main/flight\servos.h ****     SERVO_FLAPS = 2,
  51:D:/XMC/Projekte/Temp/CF_XMC4700/cleanflight/src/main/flight\servos.h ****     SERVO_FLAPPERON_1 = 3,
  52:D:/XMC/Projekte/Temp/CF_XMC4700/cleanflight/src/main/flight\servos.h ****     SERVO_FLAPPERON_2 = 4,
  53:D:/XMC/Projekte/Temp/CF_XMC4700/cleanflight/src/main/flight\servos.h ****     SERVO_RUDDER = 5,
  54:D:/XMC/Projekte/Temp/CF_XMC4700/cleanflight/src/main/flight\servos.h ****     SERVO_ELEVATOR = 6,
  55:D:/XMC/Projekte/Temp/CF_XMC4700/cleanflight/src/main/flight\servos.h ****     SERVO_THROTTLE = 7, // for internal combustion (IC) planes
  56:D:/XMC/Projekte/Temp/CF_XMC4700/cleanflight/src/main/flight\servos.h **** 
  57:D:/XMC/Projekte/Temp/CF_XMC4700/cleanflight/src/main/flight\servos.h ****     SERVO_BICOPTER_LEFT = 4,
  58:D:/XMC/Projekte/Temp/CF_XMC4700/cleanflight/src/main/flight\servos.h ****     SERVO_BICOPTER_RIGHT = 5,
  59:D:/XMC/Projekte/Temp/CF_XMC4700/cleanflight/src/main/flight\servos.h **** 
  60:D:/XMC/Projekte/Temp/CF_XMC4700/cleanflight/src/main/flight\servos.h ****     SERVO_DUALCOPTER_LEFT = 4,
  61:D:/XMC/Projekte/Temp/CF_XMC4700/cleanflight/src/main/flight\servos.h ****     SERVO_DUALCOPTER_RIGHT = 5,
  62:D:/XMC/Projekte/Temp/CF_XMC4700/cleanflight/src/main/flight\servos.h **** 
  63:D:/XMC/Projekte/Temp/CF_XMC4700/cleanflight/src/main/flight\servos.h ****     SERVO_SINGLECOPTER_1 = 3,
  64:D:/XMC/Projekte/Temp/CF_XMC4700/cleanflight/src/main/flight\servos.h ****     SERVO_SINGLECOPTER_2 = 4,
  65:D:/XMC/Projekte/Temp/CF_XMC4700/cleanflight/src/main/flight\servos.h ****     SERVO_SINGLECOPTER_3 = 5,
  66:D:/XMC/Projekte/Temp/CF_XMC4700/cleanflight/src/main/flight\servos.h ****     SERVO_SINGLECOPTER_4 = 6,
  67:D:/XMC/Projekte/Temp/CF_XMC4700/cleanflight/src/main/flight\servos.h **** 
  68:D:/XMC/Projekte/Temp/CF_XMC4700/cleanflight/src/main/flight\servos.h ****     SERVO_HELI_LEFT = 0,
  69:D:/XMC/Projekte/Temp/CF_XMC4700/cleanflight/src/main/flight\servos.h ****     SERVO_HELI_RIGHT = 1,
  70:D:/XMC/Projekte/Temp/CF_XMC4700/cleanflight/src/main/flight\servos.h ****     SERVO_HELI_TOP = 2,
  71:D:/XMC/Projekte/Temp/CF_XMC4700/cleanflight/src/main/flight\servos.h ****     SERVO_HELI_RUD = 3
  72:D:/XMC/Projekte/Temp/CF_XMC4700/cleanflight/src/main/flight\servos.h **** 
  73:D:/XMC/Projekte/Temp/CF_XMC4700/cleanflight/src/main/flight\servos.h **** } servoIndex_e; // FIXME rename to servoChannel_e
  74:D:/XMC/Projekte/Temp/CF_XMC4700/cleanflight/src/main/flight\servos.h **** 
  75:D:/XMC/Projekte/Temp/CF_XMC4700/cleanflight/src/main/flight\servos.h **** #define SERVO_PLANE_INDEX_MIN SERVO_FLAPS
  76:D:/XMC/Projekte/Temp/CF_XMC4700/cleanflight/src/main/flight\servos.h **** #define SERVO_PLANE_INDEX_MAX SERVO_THROTTLE
  77:D:/XMC/Projekte/Temp/CF_XMC4700/cleanflight/src/main/flight\servos.h **** 
  78:D:/XMC/Projekte/Temp/CF_XMC4700/cleanflight/src/main/flight\servos.h **** #define SERVO_DUALCOPTER_INDEX_MIN SERVO_DUALCOPTER_LEFT
  79:D:/XMC/Projekte/Temp/CF_XMC4700/cleanflight/src/main/flight\servos.h **** #define SERVO_DUALCOPTER_INDEX_MAX SERVO_DUALCOPTER_RIGHT
  80:D:/XMC/Projekte/Temp/CF_XMC4700/cleanflight/src/main/flight\servos.h **** 
  81:D:/XMC/Projekte/Temp/CF_XMC4700/cleanflight/src/main/flight\servos.h **** #define SERVO_SINGLECOPTER_INDEX_MIN SERVO_SINGLECOPTER_1
  82:D:/XMC/Projekte/Temp/CF_XMC4700/cleanflight/src/main/flight\servos.h **** #define SERVO_SINGLECOPTER_INDEX_MAX SERVO_SINGLECOPTER_4
  83:D:/XMC/Projekte/Temp/CF_XMC4700/cleanflight/src/main/flight\servos.h **** 
  84:D:/XMC/Projekte/Temp/CF_XMC4700/cleanflight/src/main/flight\servos.h **** #define SERVO_FLAPPERONS_MIN SERVO_FLAPPERON_1
  85:D:/XMC/Projekte/Temp/CF_XMC4700/cleanflight/src/main/flight\servos.h **** #define SERVO_FLAPPERONS_MAX SERVO_FLAPPERON_2
  86:D:/XMC/Projekte/Temp/CF_XMC4700/cleanflight/src/main/flight\servos.h **** 
  87:D:/XMC/Projekte/Temp/CF_XMC4700/cleanflight/src/main/flight\servos.h **** #define MAX_SERVO_RULES (2 * MAX_SUPPORTED_SERVOS)
  88:D:/XMC/Projekte/Temp/CF_XMC4700/cleanflight/src/main/flight\servos.h **** 
  89:D:/XMC/Projekte/Temp/CF_XMC4700/cleanflight/src/main/flight\servos.h **** typedef struct servoMixer_s {
  90:D:/XMC/Projekte/Temp/CF_XMC4700/cleanflight/src/main/flight\servos.h ****     uint8_t targetChannel;                  // servo that receives the output of the rule
  91:D:/XMC/Projekte/Temp/CF_XMC4700/cleanflight/src/main/flight\servos.h ****     uint8_t inputSource;                    // input channel for this rule
  92:D:/XMC/Projekte/Temp/CF_XMC4700/cleanflight/src/main/flight\servos.h ****     int8_t rate;                            // range [-125;+125] ; can be used to adjust a rate 0-1
  93:D:/XMC/Projekte/Temp/CF_XMC4700/cleanflight/src/main/flight\servos.h ****     uint8_t speed;                          // reduces the speed of the rule, 0=unlimited speed
  94:D:/XMC/Projekte/Temp/CF_XMC4700/cleanflight/src/main/flight\servos.h ****     int8_t min;                             // lower bound of rule range [0;100]% of servo max-min
  95:D:/XMC/Projekte/Temp/CF_XMC4700/cleanflight/src/main/flight\servos.h ****     int8_t max;                             // lower bound of rule range [0;100]% of servo max-min
  96:D:/XMC/Projekte/Temp/CF_XMC4700/cleanflight/src/main/flight\servos.h ****     uint8_t box;                            // active rule if box is enabled, range [0;3], 0=no box
  97:D:/XMC/Projekte/Temp/CF_XMC4700/cleanflight/src/main/flight\servos.h **** } servoMixer_t;
  98:D:/XMC/Projekte/Temp/CF_XMC4700/cleanflight/src/main/flight\servos.h **** 
  99:D:/XMC/Projekte/Temp/CF_XMC4700/cleanflight/src/main/flight\servos.h **** PG_DECLARE_ARRAY(servoMixer_t, MAX_SERVO_RULES, customServoMixers);
 100:D:/XMC/Projekte/Temp/CF_XMC4700/cleanflight/src/main/flight\servos.h **** 
 101:D:/XMC/Projekte/Temp/CF_XMC4700/cleanflight/src/main/flight\servos.h **** #define MAX_SERVO_SPEED UINT8_MAX
 102:D:/XMC/Projekte/Temp/CF_XMC4700/cleanflight/src/main/flight\servos.h **** #define MAX_SERVO_BOXES 3
 103:D:/XMC/Projekte/Temp/CF_XMC4700/cleanflight/src/main/flight\servos.h **** 
 104:D:/XMC/Projekte/Temp/CF_XMC4700/cleanflight/src/main/flight\servos.h **** // Custom mixer configuration
 105:D:/XMC/Projekte/Temp/CF_XMC4700/cleanflight/src/main/flight\servos.h **** typedef struct mixerRules_s {
 106:D:/XMC/Projekte/Temp/CF_XMC4700/cleanflight/src/main/flight\servos.h ****     uint8_t servoRuleCount;
 107:D:/XMC/Projekte/Temp/CF_XMC4700/cleanflight/src/main/flight\servos.h ****     const servoMixer_t *rule;
 108:D:/XMC/Projekte/Temp/CF_XMC4700/cleanflight/src/main/flight\servos.h **** } mixerRules_t;
 109:D:/XMC/Projekte/Temp/CF_XMC4700/cleanflight/src/main/flight\servos.h **** 
 110:D:/XMC/Projekte/Temp/CF_XMC4700/cleanflight/src/main/flight\servos.h **** extern const mixerRules_t servoMixers[];
 111:D:/XMC/Projekte/Temp/CF_XMC4700/cleanflight/src/main/flight\servos.h **** 
 112:D:/XMC/Projekte/Temp/CF_XMC4700/cleanflight/src/main/flight\servos.h **** typedef struct servoParam_s {
 113:D:/XMC/Projekte/Temp/CF_XMC4700/cleanflight/src/main/flight\servos.h ****     uint32_t reversedSources;               // the direction of servo movement for each input sourc
 114:D:/XMC/Projekte/Temp/CF_XMC4700/cleanflight/src/main/flight\servos.h ****     int16_t min;                            // servo min
 115:D:/XMC/Projekte/Temp/CF_XMC4700/cleanflight/src/main/flight\servos.h ****     int16_t max;                            // servo max
 116:D:/XMC/Projekte/Temp/CF_XMC4700/cleanflight/src/main/flight\servos.h ****     int16_t middle;                         // servo middle
 117:D:/XMC/Projekte/Temp/CF_XMC4700/cleanflight/src/main/flight\servos.h ****     int8_t rate;                            // range [-125;+125] ; can be used to adjust a rate 0-1
 118:D:/XMC/Projekte/Temp/CF_XMC4700/cleanflight/src/main/flight\servos.h ****     int8_t forwardFromChannel;              // RX channel index, 0 based.  See CHANNEL_FORWARDING_D
 119:D:/XMC/Projekte/Temp/CF_XMC4700/cleanflight/src/main/flight\servos.h **** } servoParam_t;
 120:D:/XMC/Projekte/Temp/CF_XMC4700/cleanflight/src/main/flight\servos.h **** 
 121:D:/XMC/Projekte/Temp/CF_XMC4700/cleanflight/src/main/flight\servos.h **** PG_DECLARE_ARRAY(servoParam_t, MAX_SUPPORTED_SERVOS, servoParams);
 122:D:/XMC/Projekte/Temp/CF_XMC4700/cleanflight/src/main/flight\servos.h **** 
 123:D:/XMC/Projekte/Temp/CF_XMC4700/cleanflight/src/main/flight\servos.h **** typedef struct servoConfig_s {
 124:D:/XMC/Projekte/Temp/CF_XMC4700/cleanflight/src/main/flight\servos.h ****     servoDevConfig_t dev;
 125:D:/XMC/Projekte/Temp/CF_XMC4700/cleanflight/src/main/flight\servos.h ****     uint16_t servo_lowpass_freq;            // lowpass servo filter frequency selection; 1/1000ths 
 126:D:/XMC/Projekte/Temp/CF_XMC4700/cleanflight/src/main/flight\servos.h ****     uint8_t tri_unarmed_servo;              // send tail servo correction pulses even when unarmed
 127:D:/XMC/Projekte/Temp/CF_XMC4700/cleanflight/src/main/flight\servos.h ****     uint8_t channelForwardingStartChannel;
 128:D:/XMC/Projekte/Temp/CF_XMC4700/cleanflight/src/main/flight\servos.h **** } servoConfig_t;
 129:D:/XMC/Projekte/Temp/CF_XMC4700/cleanflight/src/main/flight\servos.h **** 
 130:D:/XMC/Projekte/Temp/CF_XMC4700/cleanflight/src/main/flight\servos.h **** PG_DECLARE(servoConfig_t, servoConfig);
 563              	 .loc 11 130 0
 564              	 .cfi_startproc
 565              	 
 566              	 
 567              	 
 568 0000 80B4     	 push {r7}
 569              	.LCFI56:
 570              	 .cfi_def_cfa_offset 4
 571              	 .cfi_offset 7,-4
 572 0002 00AF     	 add r7,sp,#0
 573              	.LCFI57:
 574              	 .cfi_def_cfa_register 7
 575              	 .loc 11 130 0
 576 0004 024B     	 ldr r3,.L53
 577 0006 1846     	 mov r0,r3
 578 0008 BD46     	 mov sp,r7
 579              	.LCFI58:
 580              	 .cfi_def_cfa_register 13
 581              	 
 582 000a 5DF8047B 	 ldr r7,[sp],#4
 583              	.LCFI59:
 584              	 .cfi_restore 7
 585              	 .cfi_def_cfa_offset 0
 586 000e 7047     	 bx lr
 587              	.L54:
 588              	 .align 2
 589              	.L53:
 590 0010 00000000 	 .word servoConfig_System
 591              	 .cfi_endproc
 592              	.LFE619:
 594              	 .section .text.gpsRescueConfig,"ax",%progbits
 595              	 .align 2
 596              	 .thumb
 597              	 .thumb_func
 599              	gpsRescueConfig:
 600              	.LFB621:
 601              	 .file 12 "D:/XMC/Projekte/Temp/CF_XMC4700/cleanflight/src/main/flight/gps_rescue.h"
   1:D:/XMC/Projekte/Temp/CF_XMC4700/cleanflight/src/main/flight\gps_rescue.h **** /*
   2:D:/XMC/Projekte/Temp/CF_XMC4700/cleanflight/src/main/flight\gps_rescue.h ****  * This file is part of Betaflight.
   3:D:/XMC/Projekte/Temp/CF_XMC4700/cleanflight/src/main/flight\gps_rescue.h ****  *
   4:D:/XMC/Projekte/Temp/CF_XMC4700/cleanflight/src/main/flight\gps_rescue.h ****  * Betaflight is free software: you can redistribute it and/or modify
   5:D:/XMC/Projekte/Temp/CF_XMC4700/cleanflight/src/main/flight\gps_rescue.h ****  * it under the terms of the GNU General Public License as published by
   6:D:/XMC/Projekte/Temp/CF_XMC4700/cleanflight/src/main/flight\gps_rescue.h ****  * the Free Software Foundation, either version 3 of the License, or
   7:D:/XMC/Projekte/Temp/CF_XMC4700/cleanflight/src/main/flight\gps_rescue.h ****  * (at your option) any later version.
   8:D:/XMC/Projekte/Temp/CF_XMC4700/cleanflight/src/main/flight\gps_rescue.h ****  *
   9:D:/XMC/Projekte/Temp/CF_XMC4700/cleanflight/src/main/flight\gps_rescue.h ****  * Betaflight is distributed in the hope that it will be useful,
  10:D:/XMC/Projekte/Temp/CF_XMC4700/cleanflight/src/main/flight\gps_rescue.h ****  * but WITHOUT ANY WARRANTY; without even the implied warranty of
  11:D:/XMC/Projekte/Temp/CF_XMC4700/cleanflight/src/main/flight\gps_rescue.h ****  * MERCHANTABILITY or FITNESS FOR A PARTICULAR PURPOSE. See the
  12:D:/XMC/Projekte/Temp/CF_XMC4700/cleanflight/src/main/flight\gps_rescue.h ****  * GNU General Public License for more details.
  13:D:/XMC/Projekte/Temp/CF_XMC4700/cleanflight/src/main/flight\gps_rescue.h ****  *
  14:D:/XMC/Projekte/Temp/CF_XMC4700/cleanflight/src/main/flight\gps_rescue.h ****  * You should have received a copy of the GNU General Public License
  15:D:/XMC/Projekte/Temp/CF_XMC4700/cleanflight/src/main/flight\gps_rescue.h ****  * along with Betaflight. If not, see <http://www.gnu.org/licenses/>.
  16:D:/XMC/Projekte/Temp/CF_XMC4700/cleanflight/src/main/flight\gps_rescue.h ****  */
  17:D:/XMC/Projekte/Temp/CF_XMC4700/cleanflight/src/main/flight\gps_rescue.h ****  
  18:D:/XMC/Projekte/Temp/CF_XMC4700/cleanflight/src/main/flight\gps_rescue.h **** #include "common/axis.h"
  19:D:/XMC/Projekte/Temp/CF_XMC4700/cleanflight/src/main/flight\gps_rescue.h **** 
  20:D:/XMC/Projekte/Temp/CF_XMC4700/cleanflight/src/main/flight\gps_rescue.h **** #include "pg/pg.h"
  21:D:/XMC/Projekte/Temp/CF_XMC4700/cleanflight/src/main/flight\gps_rescue.h **** 
  22:D:/XMC/Projekte/Temp/CF_XMC4700/cleanflight/src/main/flight\gps_rescue.h **** typedef enum {
  23:D:/XMC/Projekte/Temp/CF_XMC4700/cleanflight/src/main/flight\gps_rescue.h ****     RESCUE_SANITY_OFF = 0,
  24:D:/XMC/Projekte/Temp/CF_XMC4700/cleanflight/src/main/flight\gps_rescue.h ****     RESCUE_SANITY_ON,
  25:D:/XMC/Projekte/Temp/CF_XMC4700/cleanflight/src/main/flight\gps_rescue.h ****     RESCUE_SANITY_FS_ONLY
  26:D:/XMC/Projekte/Temp/CF_XMC4700/cleanflight/src/main/flight\gps_rescue.h **** } gpsRescueSanity_e;
  27:D:/XMC/Projekte/Temp/CF_XMC4700/cleanflight/src/main/flight\gps_rescue.h **** 
  28:D:/XMC/Projekte/Temp/CF_XMC4700/cleanflight/src/main/flight\gps_rescue.h **** typedef struct gpsRescue_s {
  29:D:/XMC/Projekte/Temp/CF_XMC4700/cleanflight/src/main/flight\gps_rescue.h ****     uint16_t angle; //degrees
  30:D:/XMC/Projekte/Temp/CF_XMC4700/cleanflight/src/main/flight\gps_rescue.h ****     uint16_t initialAltitude; //meters
  31:D:/XMC/Projekte/Temp/CF_XMC4700/cleanflight/src/main/flight\gps_rescue.h ****     uint16_t descentDistance; //meters
  32:D:/XMC/Projekte/Temp/CF_XMC4700/cleanflight/src/main/flight\gps_rescue.h ****     uint16_t rescueGroundspeed; // centimeters per second
  33:D:/XMC/Projekte/Temp/CF_XMC4700/cleanflight/src/main/flight\gps_rescue.h ****     uint16_t throttleP, throttleI, throttleD;
  34:D:/XMC/Projekte/Temp/CF_XMC4700/cleanflight/src/main/flight\gps_rescue.h ****     uint16_t yawP;
  35:D:/XMC/Projekte/Temp/CF_XMC4700/cleanflight/src/main/flight\gps_rescue.h ****     uint16_t throttleMin;
  36:D:/XMC/Projekte/Temp/CF_XMC4700/cleanflight/src/main/flight\gps_rescue.h ****     uint16_t throttleMax;
  37:D:/XMC/Projekte/Temp/CF_XMC4700/cleanflight/src/main/flight\gps_rescue.h ****     uint16_t throttleHover;
  38:D:/XMC/Projekte/Temp/CF_XMC4700/cleanflight/src/main/flight\gps_rescue.h ****     uint16_t velP, velI, velD;
  39:D:/XMC/Projekte/Temp/CF_XMC4700/cleanflight/src/main/flight\gps_rescue.h ****     uint8_t minSats;
  40:D:/XMC/Projekte/Temp/CF_XMC4700/cleanflight/src/main/flight\gps_rescue.h ****     gpsRescueSanity_e sanityChecks;
  41:D:/XMC/Projekte/Temp/CF_XMC4700/cleanflight/src/main/flight\gps_rescue.h **** } gpsRescueConfig_t;
  42:D:/XMC/Projekte/Temp/CF_XMC4700/cleanflight/src/main/flight\gps_rescue.h **** 
  43:D:/XMC/Projekte/Temp/CF_XMC4700/cleanflight/src/main/flight\gps_rescue.h **** PG_DECLARE(gpsRescueConfig_t, gpsRescueConfig);
 602              	 .loc 12 43 0
 603              	 .cfi_startproc
 604              	 
 605              	 
 606              	 
 607 0000 80B4     	 push {r7}
 608              	.LCFI60:
 609              	 .cfi_def_cfa_offset 4
 610              	 .cfi_offset 7,-4
 611 0002 00AF     	 add r7,sp,#0
 612              	.LCFI61:
 613              	 .cfi_def_cfa_register 7
 614              	 .loc 12 43 0
 615 0004 024B     	 ldr r3,.L57
 616 0006 1846     	 mov r0,r3
 617 0008 BD46     	 mov sp,r7
 618              	.LCFI62:
 619              	 .cfi_def_cfa_register 13
 620              	 
 621 000a 5DF8047B 	 ldr r7,[sp],#4
 622              	.LCFI63:
 623              	 .cfi_restore 7
 624              	 .cfi_def_cfa_offset 0
 625 000e 7047     	 bx lr
 626              	.L58:
 627              	 .align 2
 628              	.L57:
 629 0010 00000000 	 .word gpsRescueConfig_System
 630              	 .cfi_endproc
 631              	.LFE621:
 633              	 .comm magHold,2,2
 634              	 .section .bss.flipOverAfterCrashMode,"aw",%nobits
 637              	flipOverAfterCrashMode:
 638 0000 00       	 .space 1
 639              	 .section .bss.disarmAt,"aw",%nobits
 640              	 .align 2
 643              	disarmAt:
 644 0000 00000000 	 .space 4
 645              	 .comm isRXDataNew,1,1
 646              	 .section .bss.lastArmingDisabledReason,"aw",%nobits
 647              	 .align 2
 650              	lastArmingDisabledReason:
 651 0000 00000000 	 .space 4
 652              	 .section .bss.lastDisarmTimeUs,"aw",%nobits
 653              	 .align 2
 656              	lastDisarmTimeUs:
 657 0000 00000000 	 .space 4
 658              	 .section .bss.tryingToArm,"aw",%nobits
 659              	 .align 2
 662              	tryingToArm:
 663 0000 00000000 	 .space 4
 664              	 .section .bss.runawayTakeoffDeactivateUs,"aw",%nobits
 665              	 .align 2
 668              	runawayTakeoffDeactivateUs:
 669 0000 00000000 	 .space 4
 670              	 .section .bss.runawayTakeoffAccumulatedUs,"aw",%nobits
 671              	 .align 2
 674              	runawayTakeoffAccumulatedUs:
 675 0000 00000000 	 .space 4
 676              	 .section .bss.runawayTakeoffCheckDisabled,"aw",%nobits
 679              	runawayTakeoffCheckDisabled:
 680 0000 00       	 .space 1
 681              	 .section .bss.runawayTakeoffTriggerUs,"aw",%nobits
 682              	 .align 2
 685              	runawayTakeoffTriggerUs:
 686 0000 00000000 	 .space 4
 687              	 .section .bss.runawayTakeoffTemporarilyDisabled,"aw",%nobits
 690              	runawayTakeoffTemporarilyDisabled:
 691 0000 00       	 .space 1
 692              	 .comm throttleCorrectionConfig_System,3,4
 693              	 .comm throttleCorrectionConfig_Copy,3,4
 694              	 .global throttleCorrectionConfig_Registry
 695              	 .section .pg_registry,"a",%progbits
 696              	 .align 2
 699              	throttleCorrectionConfig_Registry:
 700 0000 2700     	 .short 39
 701 0002 0300     	 .short 3
 702 0004 00000000 	 .word throttleCorrectionConfig_System
 703 0008 00000000 	 .word throttleCorrectionConfig_Copy
 704 000c 00000000 	 .word 0
 705 0010 00000000 	 .word pgResetTemplate_throttleCorrectionConfig
 706              	 .global pgResetTemplate_throttleCorrectionConfig
 707              	 .section .pg_resetdata,"a",%progbits
 708              	 .align 1
 711              	pgResetTemplate_throttleCorrectionConfig:
 712 0000 2003     	 .short 800
 713 0002 00       	 .byte 0
 714 0003 00       	 .section .text.applyAndSaveAccelerometerTrimsDelta,"ax",%progbits
 715              	 .align 2
 716              	 .global applyAndSaveAccelerometerTrimsDelta
 717              	 .thumb
 718              	 .thumb_func
 720              	applyAndSaveAccelerometerTrimsDelta:
 721              	.LFB623:
 722              	 .file 13 "../cleanflight/src/main/fc/fc_core.c"
   1:../cleanflight/src/main/fc/fc_core.c **** /*
   2:../cleanflight/src/main/fc/fc_core.c ****  * This file is part of Cleanflight and Betaflight.
   3:../cleanflight/src/main/fc/fc_core.c ****  *
   4:../cleanflight/src/main/fc/fc_core.c ****  * Cleanflight and Betaflight are free software. You can redistribute
   5:../cleanflight/src/main/fc/fc_core.c ****  * this software and/or modify this software under the terms of the
   6:../cleanflight/src/main/fc/fc_core.c ****  * GNU General Public License as published by the Free Software
   7:../cleanflight/src/main/fc/fc_core.c ****  * Foundation, either version 3 of the License, or (at your option)
   8:../cleanflight/src/main/fc/fc_core.c ****  * any later version.
   9:../cleanflight/src/main/fc/fc_core.c ****  *
  10:../cleanflight/src/main/fc/fc_core.c ****  * Cleanflight and Betaflight are distributed in the hope that they
  11:../cleanflight/src/main/fc/fc_core.c ****  * will be useful, but WITHOUT ANY WARRANTY; without even the implied
  12:../cleanflight/src/main/fc/fc_core.c ****  * warranty of MERCHANTABILITY or FITNESS FOR A PARTICULAR PURPOSE.
  13:../cleanflight/src/main/fc/fc_core.c ****  * See the GNU General Public License for more details.
  14:../cleanflight/src/main/fc/fc_core.c ****  *
  15:../cleanflight/src/main/fc/fc_core.c ****  * You should have received a copy of the GNU General Public License
  16:../cleanflight/src/main/fc/fc_core.c ****  * along with this software.
  17:../cleanflight/src/main/fc/fc_core.c ****  *
  18:../cleanflight/src/main/fc/fc_core.c ****  * If not, see <http://www.gnu.org/licenses/>.
  19:../cleanflight/src/main/fc/fc_core.c ****  */
  20:../cleanflight/src/main/fc/fc_core.c **** 
  21:../cleanflight/src/main/fc/fc_core.c **** #include <stdbool.h>
  22:../cleanflight/src/main/fc/fc_core.c **** #include <stdint.h>
  23:../cleanflight/src/main/fc/fc_core.c **** #include <string.h>
  24:../cleanflight/src/main/fc/fc_core.c **** #include <math.h>
  25:../cleanflight/src/main/fc/fc_core.c **** 
  26:../cleanflight/src/main/fc/fc_core.c **** #include "platform.h"
  27:../cleanflight/src/main/fc/fc_core.c **** 
  28:../cleanflight/src/main/fc/fc_core.c **** #include "build/debug.h"
  29:../cleanflight/src/main/fc/fc_core.c **** 
  30:../cleanflight/src/main/fc/fc_core.c **** #include "blackbox/blackbox.h"
  31:../cleanflight/src/main/fc/fc_core.c **** 
  32:../cleanflight/src/main/fc/fc_core.c **** #include "common/axis.h"
  33:../cleanflight/src/main/fc/fc_core.c **** #include "common/filter.h"
  34:../cleanflight/src/main/fc/fc_core.c **** #include "common/maths.h"
  35:../cleanflight/src/main/fc/fc_core.c **** #include "common/utils.h"
  36:../cleanflight/src/main/fc/fc_core.c **** 
  37:../cleanflight/src/main/fc/fc_core.c **** #include "config/feature.h"
  38:../cleanflight/src/main/fc/fc_core.c **** #include "pg/pg.h"
  39:../cleanflight/src/main/fc/fc_core.c **** #include "pg/pg_ids.h"
  40:../cleanflight/src/main/fc/fc_core.c **** #include "pg/rx.h"
  41:../cleanflight/src/main/fc/fc_core.c **** 
  42:../cleanflight/src/main/fc/fc_core.c **** #include "drivers/light_led.h"
  43:../cleanflight/src/main/fc/fc_core.c **** #include "drivers/sound_beeper.h"
  44:../cleanflight/src/main/fc/fc_core.c **** #include "drivers/system.h"
  45:../cleanflight/src/main/fc/fc_core.c **** #include "drivers/time.h"
  46:../cleanflight/src/main/fc/fc_core.c **** #include "drivers/transponder_ir.h"
  47:../cleanflight/src/main/fc/fc_core.c **** 
  48:../cleanflight/src/main/fc/fc_core.c **** #include "sensors/acceleration.h"
  49:../cleanflight/src/main/fc/fc_core.c **** #include "sensors/barometer.h"
  50:../cleanflight/src/main/fc/fc_core.c **** #include "sensors/battery.h"
  51:../cleanflight/src/main/fc/fc_core.c **** #include "sensors/boardalignment.h"
  52:../cleanflight/src/main/fc/fc_core.c **** #include "sensors/gyro.h"
  53:../cleanflight/src/main/fc/fc_core.c **** #include "sensors/sensors.h"
  54:../cleanflight/src/main/fc/fc_core.c **** 
  55:../cleanflight/src/main/fc/fc_core.c **** #include "fc/config.h"
  56:../cleanflight/src/main/fc/fc_core.c **** #include "fc/controlrate_profile.h"
  57:../cleanflight/src/main/fc/fc_core.c **** #include "fc/fc_core.h"
  58:../cleanflight/src/main/fc/fc_core.c **** #include "fc/fc_rc.h"
  59:../cleanflight/src/main/fc/fc_core.c **** #include "fc/rc_adjustments.h"
  60:../cleanflight/src/main/fc/fc_core.c **** #include "fc/rc_controls.h"
  61:../cleanflight/src/main/fc/fc_core.c **** #include "fc/runtime_config.h"
  62:../cleanflight/src/main/fc/fc_core.c **** 
  63:../cleanflight/src/main/fc/fc_core.c **** #include "msp/msp_serial.h"
  64:../cleanflight/src/main/fc/fc_core.c **** 
  65:../cleanflight/src/main/fc/fc_core.c **** #include "interface/cli.h"
  66:../cleanflight/src/main/fc/fc_core.c **** 
  67:../cleanflight/src/main/fc/fc_core.c **** #include "io/beeper.h"
  68:../cleanflight/src/main/fc/fc_core.c **** #include "io/gps.h"
  69:../cleanflight/src/main/fc/fc_core.c **** #include "io/motors.h"
  70:../cleanflight/src/main/fc/fc_core.c **** #include "io/pidaudio.h"
  71:../cleanflight/src/main/fc/fc_core.c **** #include "io/servos.h"
  72:../cleanflight/src/main/fc/fc_core.c **** #include "io/serial.h"
  73:../cleanflight/src/main/fc/fc_core.c **** #include "io/statusindicator.h"
  74:../cleanflight/src/main/fc/fc_core.c **** #include "io/transponder_ir.h"
  75:../cleanflight/src/main/fc/fc_core.c **** #include "io/vtx_control.h"
  76:../cleanflight/src/main/fc/fc_core.c **** #include "io/vtx_rtc6705.h"
  77:../cleanflight/src/main/fc/fc_core.c **** 
  78:../cleanflight/src/main/fc/fc_core.c **** #include "rx/rx.h"
  79:../cleanflight/src/main/fc/fc_core.c **** 
  80:../cleanflight/src/main/fc/fc_core.c **** #include "scheduler/scheduler.h"
  81:../cleanflight/src/main/fc/fc_core.c **** 
  82:../cleanflight/src/main/fc/fc_core.c **** #include "telemetry/telemetry.h"
  83:../cleanflight/src/main/fc/fc_core.c **** 
  84:../cleanflight/src/main/fc/fc_core.c **** #include "flight/position.h"
  85:../cleanflight/src/main/fc/fc_core.c **** #include "flight/failsafe.h"
  86:../cleanflight/src/main/fc/fc_core.c **** #include "flight/imu.h"
  87:../cleanflight/src/main/fc/fc_core.c **** #include "flight/mixer.h"
  88:../cleanflight/src/main/fc/fc_core.c **** #include "flight/pid.h"
  89:../cleanflight/src/main/fc/fc_core.c **** #include "flight/servos.h"
  90:../cleanflight/src/main/fc/fc_core.c **** #include "flight/gps_rescue.h"
  91:../cleanflight/src/main/fc/fc_core.c **** 
  92:../cleanflight/src/main/fc/fc_core.c **** 
  93:../cleanflight/src/main/fc/fc_core.c **** // June 2013     V2.2-dev
  94:../cleanflight/src/main/fc/fc_core.c **** 
  95:../cleanflight/src/main/fc/fc_core.c **** enum {
  96:../cleanflight/src/main/fc/fc_core.c ****     ALIGN_GYRO = 0,
  97:../cleanflight/src/main/fc/fc_core.c ****     ALIGN_ACCEL = 1,
  98:../cleanflight/src/main/fc/fc_core.c ****     ALIGN_MAG = 2
  99:../cleanflight/src/main/fc/fc_core.c **** };
 100:../cleanflight/src/main/fc/fc_core.c **** 
 101:../cleanflight/src/main/fc/fc_core.c **** enum {
 102:../cleanflight/src/main/fc/fc_core.c ****     ARMING_DELAYED_DISARMED = 0,
 103:../cleanflight/src/main/fc/fc_core.c ****     ARMING_DELAYED_NORMAL = 1,
 104:../cleanflight/src/main/fc/fc_core.c ****     ARMING_DELAYED_CRASHFLIP = 2
 105:../cleanflight/src/main/fc/fc_core.c **** };
 106:../cleanflight/src/main/fc/fc_core.c **** 
 107:../cleanflight/src/main/fc/fc_core.c **** #define GYRO_WATCHDOG_DELAY 80 //  delay for gyro sync
 108:../cleanflight/src/main/fc/fc_core.c **** 
 109:../cleanflight/src/main/fc/fc_core.c **** #ifdef USE_RUNAWAY_TAKEOFF
 110:../cleanflight/src/main/fc/fc_core.c **** #define RUNAWAY_TAKEOFF_PIDSUM_THRESHOLD         600   // The pidSum threshold required to trigger 
 111:../cleanflight/src/main/fc/fc_core.c **** #define RUNAWAY_TAKEOFF_ACTIVATE_DELAY           75000 // (75ms) Time in microseconds where pidSum 
 112:../cleanflight/src/main/fc/fc_core.c **** #define RUNAWAY_TAKEOFF_DEACTIVATE_STICK_PERCENT 15    // 15% - minimum stick deflection during dea
 113:../cleanflight/src/main/fc/fc_core.c **** #define RUNAWAY_TAKEOFF_DEACTIVATE_PIDSUM_LIMIT  100   // 10.0% - pidSum limit during deactivation 
 114:../cleanflight/src/main/fc/fc_core.c **** #define RUNAWAY_TAKEOFF_GYRO_LIMIT_RP            15    // Roll/pitch 15 deg/sec threshold to preven
 115:../cleanflight/src/main/fc/fc_core.c **** #define RUNAWAY_TAKEOFF_GYRO_LIMIT_YAW           50    // Yaw 50 deg/sec threshold to prevent trigg
 116:../cleanflight/src/main/fc/fc_core.c **** #define RUNAWAY_TAKEOFF_HIGH_THROTTLE_PERCENT    75    // High throttle limit to accelerate deactiv
 117:../cleanflight/src/main/fc/fc_core.c **** 
 118:../cleanflight/src/main/fc/fc_core.c **** #define DEBUG_RUNAWAY_TAKEOFF_ENABLED_STATE      0
 119:../cleanflight/src/main/fc/fc_core.c **** #define DEBUG_RUNAWAY_TAKEOFF_ACTIVATING_DELAY   1
 120:../cleanflight/src/main/fc/fc_core.c **** #define DEBUG_RUNAWAY_TAKEOFF_DEACTIVATING_DELAY 2
 121:../cleanflight/src/main/fc/fc_core.c **** #define DEBUG_RUNAWAY_TAKEOFF_DEACTIVATING_TIME  3
 122:../cleanflight/src/main/fc/fc_core.c **** 
 123:../cleanflight/src/main/fc/fc_core.c **** #define DEBUG_RUNAWAY_TAKEOFF_TRUE  1
 124:../cleanflight/src/main/fc/fc_core.c **** #define DEBUG_RUNAWAY_TAKEOFF_FALSE 0
 125:../cleanflight/src/main/fc/fc_core.c **** #endif
 126:../cleanflight/src/main/fc/fc_core.c **** 
 127:../cleanflight/src/main/fc/fc_core.c **** #if defined(USE_GPS) || defined(USE_MAG)
 128:../cleanflight/src/main/fc/fc_core.c **** int16_t magHold;
 129:../cleanflight/src/main/fc/fc_core.c **** #endif
 130:../cleanflight/src/main/fc/fc_core.c **** 
 131:../cleanflight/src/main/fc/fc_core.c **** static bool flipOverAfterCrashMode = false;
 132:../cleanflight/src/main/fc/fc_core.c **** 
 133:../cleanflight/src/main/fc/fc_core.c **** static uint32_t disarmAt;     // Time of automatic disarm when "Don't spin the motors when armed" i
 134:../cleanflight/src/main/fc/fc_core.c **** 
 135:../cleanflight/src/main/fc/fc_core.c **** bool isRXDataNew;
 136:../cleanflight/src/main/fc/fc_core.c **** static int lastArmingDisabledReason = 0;
 137:../cleanflight/src/main/fc/fc_core.c **** static timeUs_t lastDisarmTimeUs;
 138:../cleanflight/src/main/fc/fc_core.c **** static int tryingToArm = ARMING_DELAYED_DISARMED;
 139:../cleanflight/src/main/fc/fc_core.c **** 
 140:../cleanflight/src/main/fc/fc_core.c **** #ifdef USE_RUNAWAY_TAKEOFF
 141:../cleanflight/src/main/fc/fc_core.c **** static timeUs_t runawayTakeoffDeactivateUs = 0;
 142:../cleanflight/src/main/fc/fc_core.c **** static timeUs_t runawayTakeoffAccumulatedUs = 0;
 143:../cleanflight/src/main/fc/fc_core.c **** static bool runawayTakeoffCheckDisabled = false;
 144:../cleanflight/src/main/fc/fc_core.c **** static timeUs_t runawayTakeoffTriggerUs = 0;
 145:../cleanflight/src/main/fc/fc_core.c **** static bool runawayTakeoffTemporarilyDisabled = false;
 146:../cleanflight/src/main/fc/fc_core.c **** #endif
 147:../cleanflight/src/main/fc/fc_core.c **** 
 148:../cleanflight/src/main/fc/fc_core.c **** PG_REGISTER_WITH_RESET_TEMPLATE(throttleCorrectionConfig_t, throttleCorrectionConfig, PG_THROTTLE_C
 149:../cleanflight/src/main/fc/fc_core.c **** 
 150:../cleanflight/src/main/fc/fc_core.c **** PG_RESET_TEMPLATE(throttleCorrectionConfig_t, throttleCorrectionConfig,
 151:../cleanflight/src/main/fc/fc_core.c ****     .throttle_correction_value = 0,      // could 10 with althold or 40 for fpv
 152:../cleanflight/src/main/fc/fc_core.c ****     .throttle_correction_angle = 800     // could be 80.0 deg with atlhold or 45.0 for fpv
 153:../cleanflight/src/main/fc/fc_core.c **** );
 154:../cleanflight/src/main/fc/fc_core.c **** 
 155:../cleanflight/src/main/fc/fc_core.c **** void applyAndSaveAccelerometerTrimsDelta(rollAndPitchTrims_t *rollAndPitchTrimsDelta)
 156:../cleanflight/src/main/fc/fc_core.c **** {
 723              	 .loc 13 156 0
 724              	 .cfi_startproc
 725              	 
 726              	 
 727 0000 80B5     	 push {r7,lr}
 728              	.LCFI64:
 729              	 .cfi_def_cfa_offset 8
 730              	 .cfi_offset 7,-8
 731              	 .cfi_offset 14,-4
 732 0002 82B0     	 sub sp,sp,#8
 733              	.LCFI65:
 734              	 .cfi_def_cfa_offset 16
 735 0004 00AF     	 add r7,sp,#0
 736              	.LCFI66:
 737              	 .cfi_def_cfa_register 7
 738 0006 7860     	 str r0,[r7,#4]
 157:../cleanflight/src/main/fc/fc_core.c ****     accelerometerConfigMutable()->accelerometerTrims.values.roll += rollAndPitchTrimsDelta->values.
 739              	 .loc 13 157 0
 740 0008 FFF7FEFF 	 bl accelerometerConfigMutable
 741 000c 0346     	 mov r3,r0
 742 000e B3F90B20 	 ldrsh r2,[r3,#11]
 743 0012 92B2     	 uxth r2,r2
 744 0014 91B2     	 uxth r1,r2
 745 0016 7A68     	 ldr r2,[r7,#4]
 746 0018 B2F90020 	 ldrsh r2,[r2]
 747 001c 92B2     	 uxth r2,r2
 748 001e 92B2     	 uxth r2,r2
 749 0020 0A44     	 add r2,r2,r1
 750 0022 92B2     	 uxth r2,r2
 751 0024 92B2     	 uxth r2,r2
 752 0026 A3F80B20 	 strh r2,[r3,#11]
 158:../cleanflight/src/main/fc/fc_core.c ****     accelerometerConfigMutable()->accelerometerTrims.values.pitch += rollAndPitchTrimsDelta->values
 753              	 .loc 13 158 0
 754 002a FFF7FEFF 	 bl accelerometerConfigMutable
 755 002e 0346     	 mov r3,r0
 756 0030 B3F90D20 	 ldrsh r2,[r3,#13]
 757 0034 92B2     	 uxth r2,r2
 758 0036 91B2     	 uxth r1,r2
 759 0038 7A68     	 ldr r2,[r7,#4]
 760 003a B2F90220 	 ldrsh r2,[r2,#2]
 761 003e 92B2     	 uxth r2,r2
 762 0040 92B2     	 uxth r2,r2
 763 0042 0A44     	 add r2,r2,r1
 764 0044 92B2     	 uxth r2,r2
 765 0046 92B2     	 uxth r2,r2
 766 0048 A3F80D20 	 strh r2,[r3,#13]
 159:../cleanflight/src/main/fc/fc_core.c **** 
 160:../cleanflight/src/main/fc/fc_core.c ****     saveConfigAndNotify();
 767              	 .loc 13 160 0
 768 004c FFF7FEFF 	 bl saveConfigAndNotify
 161:../cleanflight/src/main/fc/fc_core.c **** }
 769              	 .loc 13 161 0
 770 0050 0837     	 adds r7,r7,#8
 771              	.LCFI67:
 772              	 .cfi_def_cfa_offset 8
 773 0052 BD46     	 mov sp,r7
 774              	.LCFI68:
 775              	 .cfi_def_cfa_register 13
 776              	 
 777 0054 80BD     	 pop {r7,pc}
 778              	 .cfi_endproc
 779              	.LFE623:
 781 0056 00BF     	 .section .text.isCalibrating,"ax",%progbits
 782              	 .align 2
 783              	 .thumb
 784              	 .thumb_func
 786              	isCalibrating:
 787              	.LFB624:
 162:../cleanflight/src/main/fc/fc_core.c **** 
 163:../cleanflight/src/main/fc/fc_core.c **** static bool isCalibrating(void)
 164:../cleanflight/src/main/fc/fc_core.c **** {
 788              	 .loc 13 164 0
 789              	 .cfi_startproc
 790              	 
 791              	 
 792 0000 80B5     	 push {r7,lr}
 793              	.LCFI69:
 794              	 .cfi_def_cfa_offset 8
 795              	 .cfi_offset 7,-8
 796              	 .cfi_offset 14,-4
 797 0002 00AF     	 add r7,sp,#0
 798              	.LCFI70:
 799              	 .cfi_def_cfa_register 7
 165:../cleanflight/src/main/fc/fc_core.c **** #ifdef USE_BARO
 166:../cleanflight/src/main/fc/fc_core.c ****     if (sensors(SENSOR_BARO) && !isBaroCalibrationComplete()) {
 800              	 .loc 13 166 0
 801 0004 0420     	 movs r0,#4
 802 0006 FFF7FEFF 	 bl sensors
 803 000a 0346     	 mov r3,r0
 804 000c 002B     	 cmp r3,#0
 805 000e 09D0     	 beq .L61
 806              	 .loc 13 166 0 is_stmt 0 discriminator 1
 807 0010 FFF7FEFF 	 bl isBaroCalibrationComplete
 808 0014 0346     	 mov r3,r0
 809 0016 83F00103 	 eor r3,r3,#1
 810 001a DBB2     	 uxtb r3,r3
 811 001c 002B     	 cmp r3,#0
 812 001e 01D0     	 beq .L61
 167:../cleanflight/src/main/fc/fc_core.c ****         return true;
 813              	 .loc 13 167 0 is_stmt 1
 814 0020 0123     	 movs r3,#1
 815 0022 1BE0     	 b .L62
 816              	.L61:
 168:../cleanflight/src/main/fc/fc_core.c ****     }
 169:../cleanflight/src/main/fc/fc_core.c **** #endif
 170:../cleanflight/src/main/fc/fc_core.c **** 
 171:../cleanflight/src/main/fc/fc_core.c ****     // Note: compass calibration is handled completely differently, outside of the main loop, see f
 172:../cleanflight/src/main/fc/fc_core.c **** 
 173:../cleanflight/src/main/fc/fc_core.c ****     return (!accIsCalibrationComplete() && sensors(SENSOR_ACC)) || (!isGyroCalibrationComplete());
 817              	 .loc 13 173 0
 818 0024 FFF7FEFF 	 bl accIsCalibrationComplete
 819 0028 0346     	 mov r3,r0
 820 002a 83F00103 	 eor r3,r3,#1
 821 002e DBB2     	 uxtb r3,r3
 822 0030 002B     	 cmp r3,#0
 823 0032 05D0     	 beq .L63
 824              	 .loc 13 173 0 is_stmt 0 discriminator 1
 825 0034 0220     	 movs r0,#2
 826 0036 FFF7FEFF 	 bl sensors
 827 003a 0346     	 mov r3,r0
 828 003c 002B     	 cmp r3,#0
 829 003e 07D1     	 bne .L64
 830              	.L63:
 831              	 .loc 13 173 0 discriminator 4
 832 0040 FFF7FEFF 	 bl isGyroCalibrationComplete
 833 0044 0346     	 mov r3,r0
 834 0046 83F00103 	 eor r3,r3,#1
 835 004a DBB2     	 uxtb r3,r3
 836 004c 002B     	 cmp r3,#0
 837 004e 01D0     	 beq .L65
 838              	.L64:
 839              	 .loc 13 173 0 discriminator 5
 840 0050 0123     	 movs r3,#1
 841 0052 00E0     	 b .L66
 842              	.L65:
 843              	 .loc 13 173 0 discriminator 6
 844 0054 0023     	 movs r3,#0
 845              	.L66:
 846              	 .loc 13 173 0 discriminator 8
 847 0056 03F00103 	 and r3,r3,#1
 848 005a DBB2     	 uxtb r3,r3
 849              	.L62:
 174:../cleanflight/src/main/fc/fc_core.c **** }
 850              	 .loc 13 174 0 is_stmt 1
 851 005c 1846     	 mov r0,r3
 852 005e 80BD     	 pop {r7,pc}
 853              	 .cfi_endproc
 854              	.LFE624:
 856              	 .section .text.resetArmingDisabled,"ax",%progbits
 857              	 .align 2
 858              	 .global resetArmingDisabled
 859              	 .thumb
 860              	 .thumb_func
 862              	resetArmingDisabled:
 863              	.LFB625:
 175:../cleanflight/src/main/fc/fc_core.c **** 
 176:../cleanflight/src/main/fc/fc_core.c **** void resetArmingDisabled(void)
 177:../cleanflight/src/main/fc/fc_core.c **** {
 864              	 .loc 13 177 0
 865              	 .cfi_startproc
 866              	 
 867              	 
 868              	 
 869 0000 80B4     	 push {r7}
 870              	.LCFI71:
 871              	 .cfi_def_cfa_offset 4
 872              	 .cfi_offset 7,-4
 873 0002 00AF     	 add r7,sp,#0
 874              	.LCFI72:
 875              	 .cfi_def_cfa_register 7
 178:../cleanflight/src/main/fc/fc_core.c ****     lastArmingDisabledReason = 0;
 876              	 .loc 13 178 0
 877 0004 034B     	 ldr r3,.L68
 878 0006 0022     	 movs r2,#0
 879 0008 1A60     	 str r2,[r3]
 179:../cleanflight/src/main/fc/fc_core.c **** }
 880              	 .loc 13 179 0
 881 000a BD46     	 mov sp,r7
 882              	.LCFI73:
 883              	 .cfi_def_cfa_register 13
 884              	 
 885 000c 5DF8047B 	 ldr r7,[sp],#4
 886              	.LCFI74:
 887              	 .cfi_restore 7
 888              	 .cfi_def_cfa_offset 0
 889 0010 7047     	 bx lr
 890              	.L69:
 891 0012 00BF     	 .align 2
 892              	.L68:
 893 0014 00000000 	 .word lastArmingDisabledReason
 894              	 .cfi_endproc
 895              	.LFE625:
 897              	 .section .text.updateArmingStatus,"ax",%progbits
 898              	 .align 2
 899              	 .global updateArmingStatus
 900              	 .thumb
 901              	 .thumb_func
 903              	updateArmingStatus:
 904              	.LFB626:
 180:../cleanflight/src/main/fc/fc_core.c **** 
 181:../cleanflight/src/main/fc/fc_core.c **** void updateArmingStatus(void)
 182:../cleanflight/src/main/fc/fc_core.c **** {
 905              	 .loc 13 182 0
 906              	 .cfi_startproc
 907              	 
 908              	 
 909 0000 90B5     	 push {r4,r7,lr}
 910              	.LCFI75:
 911              	 .cfi_def_cfa_offset 12
 912              	 .cfi_offset 4,-12
 913              	 .cfi_offset 7,-8
 914              	 .cfi_offset 14,-4
 915 0002 83B0     	 sub sp,sp,#12
 916              	.LCFI76:
 917              	 .cfi_def_cfa_offset 24
 918 0004 00AF     	 add r7,sp,#0
 919              	.LCFI77:
 920              	 .cfi_def_cfa_register 7
 183:../cleanflight/src/main/fc/fc_core.c ****     if (ARMING_FLAG(ARMED)) {
 921              	 .loc 13 183 0
 922 0006 BF4B     	 ldr r3,.L104
 923 0008 1B78     	 ldrb r3,[r3]
 924 000a 03F00103 	 and r3,r3,#1
 925 000e 002B     	 cmp r3,#0
 926 0010 04D0     	 beq .L71
 184:../cleanflight/src/main/fc/fc_core.c ****         LED0_ON;
 927              	 .loc 13 184 0
 928 0012 0020     	 movs r0,#0
 929 0014 0121     	 movs r1,#1
 930 0016 FFF7FEFF 	 bl ledSet
 931 001a 6FE1     	 b .L70
 932              	.L71:
 185:../cleanflight/src/main/fc/fc_core.c ****     } else {
 186:../cleanflight/src/main/fc/fc_core.c ****         // Check if the power on arming grace time has elapsed
 187:../cleanflight/src/main/fc/fc_core.c ****         if ((getArmingDisableFlags() & ARMING_DISABLED_BOOT_GRACE_TIME) && (millis() >= systemConfi
 933              	 .loc 13 187 0
 934 001c FFF7FEFF 	 bl getArmingDisableFlags
 935 0020 0346     	 mov r3,r0
 936 0022 03F48073 	 and r3,r3,#256
 937 0026 002B     	 cmp r3,#0
 938 0028 11D0     	 beq .L73
 939              	 .loc 13 187 0 is_stmt 0 discriminator 1
 940 002a FFF7FEFF 	 bl millis
 941 002e 0446     	 mov r4,r0
 942 0030 FFF7FEFF 	 bl systemConfig
 943 0034 0346     	 mov r3,r0
 944 0036 9B79     	 ldrb r3,[r3,#6]
 945 0038 1A46     	 mov r2,r3
 946 003a 4FF47A73 	 mov r3,#1000
 947 003e 03FB02F3 	 mul r3,r3,r2
 948 0042 9C42     	 cmp r4,r3
 949 0044 03D3     	 bcc .L73
 188:../cleanflight/src/main/fc/fc_core.c ****             // If so, unset the grace time arming disable flag
 189:../cleanflight/src/main/fc/fc_core.c ****             unsetArmingDisabled(ARMING_DISABLED_BOOT_GRACE_TIME);
 950              	 .loc 13 189 0 is_stmt 1
 951 0046 4FF48070 	 mov r0,#256
 952 004a FFF7FEFF 	 bl unsetArmingDisabled
 953              	.L73:
 190:../cleanflight/src/main/fc/fc_core.c ****         }
 191:../cleanflight/src/main/fc/fc_core.c **** 
 192:../cleanflight/src/main/fc/fc_core.c ****         // Clear the crash flip active status
 193:../cleanflight/src/main/fc/fc_core.c ****         flipOverAfterCrashMode = false;
 954              	 .loc 13 193 0
 955 004e AE4B     	 ldr r3,.L104+4
 956 0050 0022     	 movs r2,#0
 957 0052 1A70     	 strb r2,[r3]
 194:../cleanflight/src/main/fc/fc_core.c **** 
 195:../cleanflight/src/main/fc/fc_core.c ****         // If switch is used for arming then check it is not defaulting to on when the RX link reco
 196:../cleanflight/src/main/fc/fc_core.c ****         if (!isUsingSticksForArming()) {
 958              	 .loc 13 196 0
 959 0054 FFF7FEFF 	 bl isUsingSticksForArming
 960 0058 0346     	 mov r3,r0
 961 005a 83F00103 	 eor r3,r3,#1
 962 005e DBB2     	 uxtb r3,r3
 963 0060 002B     	 cmp r3,#0
 964 0062 34D0     	 beq .L74
 965              	.LBB2:
 197:../cleanflight/src/main/fc/fc_core.c ****             static bool hadRx = false;
 198:../cleanflight/src/main/fc/fc_core.c ****             const bool haveRx = rxIsReceivingSignal();
 966              	 .loc 13 198 0
 967 0064 FFF7FEFF 	 bl rxIsReceivingSignal
 968 0068 0346     	 mov r3,r0
 969 006a FB71     	 strb r3,[r7,#7]
 199:../cleanflight/src/main/fc/fc_core.c **** 
 200:../cleanflight/src/main/fc/fc_core.c ****             const bool justGotRxBack = !hadRx && haveRx;
 970              	 .loc 13 200 0
 971 006c A74B     	 ldr r3,.L104+8
 972 006e 1B78     	 ldrb r3,[r3]
 973 0070 83F00103 	 eor r3,r3,#1
 974 0074 DBB2     	 uxtb r3,r3
 975 0076 002B     	 cmp r3,#0
 976 0078 04D0     	 beq .L75
 977              	 .loc 13 200 0 is_stmt 0 discriminator 1
 978 007a FB79     	 ldrb r3,[r7,#7]
 979 007c 002B     	 cmp r3,#0
 980 007e 01D0     	 beq .L75
 981              	 .loc 13 200 0 discriminator 3
 982 0080 0123     	 movs r3,#1
 983 0082 00E0     	 b .L76
 984              	.L75:
 985              	 .loc 13 200 0 discriminator 4
 986 0084 0023     	 movs r3,#0
 987              	.L76:
 988              	 .loc 13 200 0 discriminator 6
 989 0086 BB71     	 strb r3,[r7,#6]
 990 0088 BB79     	 ldrb r3,[r7,#6]
 991 008a 03F00103 	 and r3,r3,#1
 992 008e BB71     	 strb r3,[r7,#6]
 201:../cleanflight/src/main/fc/fc_core.c **** 
 202:../cleanflight/src/main/fc/fc_core.c ****             if (justGotRxBack && IS_RC_MODE_ACTIVE(BOXARM)) {
 993              	 .loc 13 202 0 is_stmt 1 discriminator 6
 994 0090 BB79     	 ldrb r3,[r7,#6]
 995 0092 002B     	 cmp r3,#0
 996 0094 09D0     	 beq .L77
 997              	 .loc 13 202 0 is_stmt 0 discriminator 1
 998 0096 0020     	 movs r0,#0
 999 0098 FFF7FEFF 	 bl IS_RC_MODE_ACTIVE
 1000 009c 0346     	 mov r3,r0
 1001 009e 002B     	 cmp r3,#0
 1002 00a0 03D0     	 beq .L77
 203:../cleanflight/src/main/fc/fc_core.c ****                 // If the RX has just started to receive a signal again and the arm switch is on, a
 204:../cleanflight/src/main/fc/fc_core.c ****                 setArmingDisabled(ARMING_DISABLED_BAD_RX_RECOVERY);
 1003              	 .loc 13 204 0 is_stmt 1
 1004 00a2 0820     	 movs r0,#8
 1005 00a4 FFF7FEFF 	 bl setArmingDisabled
 1006 00a8 0EE0     	 b .L78
 1007              	.L77:
 205:../cleanflight/src/main/fc/fc_core.c ****             } else if (haveRx && !IS_RC_MODE_ACTIVE(BOXARM)) {
 1008              	 .loc 13 205 0
 1009 00aa FB79     	 ldrb r3,[r7,#7]
 1010 00ac 002B     	 cmp r3,#0
 1011 00ae 0BD0     	 beq .L78
 1012              	 .loc 13 205 0 is_stmt 0 discriminator 1
 1013 00b0 0020     	 movs r0,#0
 1014 00b2 FFF7FEFF 	 bl IS_RC_MODE_ACTIVE
 1015 00b6 0346     	 mov r3,r0
 1016 00b8 83F00103 	 eor r3,r3,#1
 1017 00bc DBB2     	 uxtb r3,r3
 1018 00be 002B     	 cmp r3,#0
 1019 00c0 02D0     	 beq .L78
 206:../cleanflight/src/main/fc/fc_core.c ****                 // If RX signal is OK and the arm switch is off, remove arming restriction
 207:../cleanflight/src/main/fc/fc_core.c ****                 unsetArmingDisabled(ARMING_DISABLED_BAD_RX_RECOVERY);
 1020              	 .loc 13 207 0 is_stmt 1
 1021 00c2 0820     	 movs r0,#8
 1022 00c4 FFF7FEFF 	 bl unsetArmingDisabled
 1023              	.L78:
 208:../cleanflight/src/main/fc/fc_core.c ****             }
 209:../cleanflight/src/main/fc/fc_core.c **** 
 210:../cleanflight/src/main/fc/fc_core.c ****             hadRx = haveRx;
 1024              	 .loc 13 210 0
 1025 00c8 904A     	 ldr r2,.L104+8
 1026 00ca FB79     	 ldrb r3,[r7,#7]
 1027 00cc 1370     	 strb r3,[r2]
 1028              	.L74:
 1029              	.LBE2:
 211:../cleanflight/src/main/fc/fc_core.c ****         }
 212:../cleanflight/src/main/fc/fc_core.c **** 
 213:../cleanflight/src/main/fc/fc_core.c ****         if (IS_RC_MODE_ACTIVE(BOXFAILSAFE)) {
 1030              	 .loc 13 213 0
 1031 00ce 0920     	 movs r0,#9
 1032 00d0 FFF7FEFF 	 bl IS_RC_MODE_ACTIVE
 1033 00d4 0346     	 mov r3,r0
 1034 00d6 002B     	 cmp r3,#0
 1035 00d8 03D0     	 beq .L79
 214:../cleanflight/src/main/fc/fc_core.c ****             setArmingDisabled(ARMING_DISABLED_BOXFAILSAFE);
 1036              	 .loc 13 214 0
 1037 00da 1020     	 movs r0,#16
 1038 00dc FFF7FEFF 	 bl setArmingDisabled
 1039 00e0 02E0     	 b .L80
 1040              	.L79:
 215:../cleanflight/src/main/fc/fc_core.c ****         } else {
 216:../cleanflight/src/main/fc/fc_core.c ****             unsetArmingDisabled(ARMING_DISABLED_BOXFAILSAFE);
 1041              	 .loc 13 216 0
 1042 00e2 1020     	 movs r0,#16
 1043 00e4 FFF7FEFF 	 bl unsetArmingDisabled
 1044              	.L80:
 217:../cleanflight/src/main/fc/fc_core.c ****         }
 218:../cleanflight/src/main/fc/fc_core.c **** 
 219:../cleanflight/src/main/fc/fc_core.c ****         if (calculateThrottleStatus() != THROTTLE_LOW) {
 1045              	 .loc 13 219 0
 1046 00e8 FFF7FEFF 	 bl calculateThrottleStatus
 1047 00ec 0346     	 mov r3,r0
 1048 00ee 002B     	 cmp r3,#0
 1049 00f0 03D0     	 beq .L81
 220:../cleanflight/src/main/fc/fc_core.c ****             setArmingDisabled(ARMING_DISABLED_THROTTLE);
 1050              	 .loc 13 220 0
 1051 00f2 4020     	 movs r0,#64
 1052 00f4 FFF7FEFF 	 bl setArmingDisabled
 1053 00f8 02E0     	 b .L82
 1054              	.L81:
 221:../cleanflight/src/main/fc/fc_core.c ****         } else {
 222:../cleanflight/src/main/fc/fc_core.c ****             unsetArmingDisabled(ARMING_DISABLED_THROTTLE);
 1055              	 .loc 13 222 0
 1056 00fa 4020     	 movs r0,#64
 1057 00fc FFF7FEFF 	 bl unsetArmingDisabled
 1058              	.L82:
 223:../cleanflight/src/main/fc/fc_core.c ****         }
 224:../cleanflight/src/main/fc/fc_core.c **** 
 225:../cleanflight/src/main/fc/fc_core.c ****         if (!STATE(SMALL_ANGLE) && !IS_RC_MODE_ACTIVE(BOXFLIPOVERAFTERCRASH)) {
 1059              	 .loc 13 225 0
 1060 0100 834B     	 ldr r3,.L104+12
 1061 0102 1B78     	 ldrb r3,[r3]
 1062 0104 03F00803 	 and r3,r3,#8
 1063 0108 002B     	 cmp r3,#0
 1064 010a 0CD1     	 bne .L83
 1065              	 .loc 13 225 0 is_stmt 0 discriminator 1
 1066 010c 1E20     	 movs r0,#30
 1067 010e FFF7FEFF 	 bl IS_RC_MODE_ACTIVE
 1068 0112 0346     	 mov r3,r0
 1069 0114 83F00103 	 eor r3,r3,#1
 1070 0118 DBB2     	 uxtb r3,r3
 1071 011a 002B     	 cmp r3,#0
 1072 011c 03D0     	 beq .L83
 226:../cleanflight/src/main/fc/fc_core.c ****             setArmingDisabled(ARMING_DISABLED_ANGLE);
 1073              	 .loc 13 226 0 is_stmt 1
 1074 011e 8020     	 movs r0,#128
 1075 0120 FFF7FEFF 	 bl setArmingDisabled
 1076 0124 02E0     	 b .L84
 1077              	.L83:
 227:../cleanflight/src/main/fc/fc_core.c ****         } else {
 228:../cleanflight/src/main/fc/fc_core.c ****             unsetArmingDisabled(ARMING_DISABLED_ANGLE);
 1078              	 .loc 13 228 0
 1079 0126 8020     	 movs r0,#128
 1080 0128 FFF7FEFF 	 bl unsetArmingDisabled
 1081              	.L84:
 229:../cleanflight/src/main/fc/fc_core.c ****         }
 230:../cleanflight/src/main/fc/fc_core.c **** 
 231:../cleanflight/src/main/fc/fc_core.c ****         if (averageSystemLoadPercent > 100) {
 1082              	 .loc 13 231 0
 1083 012c 794B     	 ldr r3,.L104+16
 1084 012e 1B88     	 ldrh r3,[r3]
 1085 0130 642B     	 cmp r3,#100
 1086 0132 04D9     	 bls .L85
 232:../cleanflight/src/main/fc/fc_core.c ****             setArmingDisabled(ARMING_DISABLED_LOAD);
 1087              	 .loc 13 232 0
 1088 0134 4FF48060 	 mov r0,#1024
 1089 0138 FFF7FEFF 	 bl setArmingDisabled
 1090 013c 03E0     	 b .L86
 1091              	.L85:
 233:../cleanflight/src/main/fc/fc_core.c ****         } else {
 234:../cleanflight/src/main/fc/fc_core.c ****             unsetArmingDisabled(ARMING_DISABLED_LOAD);
 1092              	 .loc 13 234 0
 1093 013e 4FF48060 	 mov r0,#1024
 1094 0142 FFF7FEFF 	 bl unsetArmingDisabled
 1095              	.L86:
 235:../cleanflight/src/main/fc/fc_core.c ****         }
 236:../cleanflight/src/main/fc/fc_core.c **** 
 237:../cleanflight/src/main/fc/fc_core.c ****         if (isCalibrating()) {
 1096              	 .loc 13 237 0
 1097 0146 FFF7FEFF 	 bl isCalibrating
 1098 014a 0346     	 mov r3,r0
 1099 014c 002B     	 cmp r3,#0
 1100 014e 04D0     	 beq .L87
 238:../cleanflight/src/main/fc/fc_core.c ****             setArmingDisabled(ARMING_DISABLED_CALIBRATING);
 1101              	 .loc 13 238 0
 1102 0150 4FF40060 	 mov r0,#2048
 1103 0154 FFF7FEFF 	 bl setArmingDisabled
 1104 0158 03E0     	 b .L88
 1105              	.L87:
 239:../cleanflight/src/main/fc/fc_core.c ****         } else {
 240:../cleanflight/src/main/fc/fc_core.c ****             unsetArmingDisabled(ARMING_DISABLED_CALIBRATING);
 1106              	 .loc 13 240 0
 1107 015a 4FF40060 	 mov r0,#2048
 1108 015e FFF7FEFF 	 bl unsetArmingDisabled
 1109              	.L88:
 241:../cleanflight/src/main/fc/fc_core.c ****         }
 242:../cleanflight/src/main/fc/fc_core.c **** 
 243:../cleanflight/src/main/fc/fc_core.c ****         if (isModeActivationConditionPresent(BOXPREARM)) {
 1110              	 .loc 13 243 0
 1111 0162 1F20     	 movs r0,#31
 1112 0164 FFF7FEFF 	 bl isModeActivationConditionPresent
 1113 0168 0346     	 mov r3,r0
 1114 016a 002B     	 cmp r3,#0
 1115 016c 14D0     	 beq .L89
 244:../cleanflight/src/main/fc/fc_core.c ****             if (IS_RC_MODE_ACTIVE(BOXPREARM) && !ARMING_FLAG(WAS_ARMED_WITH_PREARM)) {
 1116              	 .loc 13 244 0
 1117 016e 1F20     	 movs r0,#31
 1118 0170 FFF7FEFF 	 bl IS_RC_MODE_ACTIVE
 1119 0174 0346     	 mov r3,r0
 1120 0176 002B     	 cmp r3,#0
 1121 0178 0AD0     	 beq .L90
 1122              	 .loc 13 244 0 is_stmt 0 discriminator 1
 1123 017a 624B     	 ldr r3,.L104
 1124 017c 1B78     	 ldrb r3,[r3]
 1125 017e 03F00403 	 and r3,r3,#4
 1126 0182 002B     	 cmp r3,#0
 1127 0184 04D1     	 bne .L90
 245:../cleanflight/src/main/fc/fc_core.c ****                 unsetArmingDisabled(ARMING_DISABLED_NOPREARM);
 1128              	 .loc 13 245 0 is_stmt 1
 1129 0186 4FF40070 	 mov r0,#512
 1130 018a FFF7FEFF 	 bl unsetArmingDisabled
 1131 018e 03E0     	 b .L89
 1132              	.L90:
 246:../cleanflight/src/main/fc/fc_core.c ****             } else {
 247:../cleanflight/src/main/fc/fc_core.c ****                 setArmingDisabled(ARMING_DISABLED_NOPREARM);
 1133              	 .loc 13 247 0
 1134 0190 4FF40070 	 mov r0,#512
 1135 0194 FFF7FEFF 	 bl setArmingDisabled
 1136              	.L89:
 248:../cleanflight/src/main/fc/fc_core.c ****             }
 249:../cleanflight/src/main/fc/fc_core.c ****         }
 250:../cleanflight/src/main/fc/fc_core.c **** 
 251:../cleanflight/src/main/fc/fc_core.c **** #ifdef USE_GPS_RESCUE
 252:../cleanflight/src/main/fc/fc_core.c ****         if (isModeActivationConditionPresent(BOXGPSRESCUE)) {
 1137              	 .loc 13 252 0
 1138 0198 0A20     	 movs r0,#10
 1139 019a FFF7FEFF 	 bl isModeActivationConditionPresent
 1140 019e 0346     	 mov r3,r0
 1141 01a0 002B     	 cmp r3,#0
 1142 01a2 1AD0     	 beq .L91
 253:../cleanflight/src/main/fc/fc_core.c ****             if (!gpsRescueConfig()->minSats || STATE(GPS_FIX_HOME) || ARMING_FLAG(WAS_EVER_ARMED)) 
 1143              	 .loc 13 253 0
 1144 01a4 FFF7FEFF 	 bl gpsRescueConfig
 1145 01a8 0346     	 mov r3,r0
 1146 01aa 1B7F     	 ldrb r3,[r3,#28]
 1147 01ac 002B     	 cmp r3,#0
 1148 01ae 0BD0     	 beq .L92
 1149              	 .loc 13 253 0 is_stmt 0 discriminator 1
 1150 01b0 574B     	 ldr r3,.L104+12
 1151 01b2 1B78     	 ldrb r3,[r3]
 1152 01b4 03F00103 	 and r3,r3,#1
 1153 01b8 002B     	 cmp r3,#0
 1154 01ba 05D1     	 bne .L92
 1155              	 .loc 13 253 0 discriminator 2
 1156 01bc 514B     	 ldr r3,.L104
 1157 01be 1B78     	 ldrb r3,[r3]
 1158 01c0 03F00203 	 and r3,r3,#2
 1159 01c4 002B     	 cmp r3,#0
 1160 01c6 04D0     	 beq .L93
 1161              	.L92:
 254:../cleanflight/src/main/fc/fc_core.c ****                 unsetArmingDisabled(ARMING_DISABLED_GPS);
 1162              	 .loc 13 254 0 is_stmt 1
 1163 01c8 4FF48020 	 mov r0,#262144
 1164 01cc FFF7FEFF 	 bl unsetArmingDisabled
 1165 01d0 03E0     	 b .L91
 1166              	.L93:
 255:../cleanflight/src/main/fc/fc_core.c ****             } else {
 256:../cleanflight/src/main/fc/fc_core.c ****                 setArmingDisabled(ARMING_DISABLED_GPS);
 1167              	 .loc 13 256 0
 1168 01d2 4FF48020 	 mov r0,#262144
 1169 01d6 FFF7FEFF 	 bl setArmingDisabled
 1170              	.L91:
 257:../cleanflight/src/main/fc/fc_core.c ****             }
 258:../cleanflight/src/main/fc/fc_core.c ****         }
 259:../cleanflight/src/main/fc/fc_core.c **** #endif
 260:../cleanflight/src/main/fc/fc_core.c **** 
 261:../cleanflight/src/main/fc/fc_core.c ****         if (IS_RC_MODE_ACTIVE(BOXPARALYZE)) {
 1171              	 .loc 13 261 0
 1172 01da 2220     	 movs r0,#34
 1173 01dc FFF7FEFF 	 bl IS_RC_MODE_ACTIVE
 1174 01e0 0346     	 mov r3,r0
 1175 01e2 002B     	 cmp r3,#0
 1176 01e4 03D0     	 beq .L94
 262:../cleanflight/src/main/fc/fc_core.c ****             setArmingDisabled(ARMING_DISABLED_PARALYZE);
 1177              	 .loc 13 262 0
 1178 01e6 4FF40030 	 mov r0,#131072
 1179 01ea FFF7FEFF 	 bl setArmingDisabled
 1180              	.L94:
 263:../cleanflight/src/main/fc/fc_core.c ****         }
 264:../cleanflight/src/main/fc/fc_core.c **** 
 265:../cleanflight/src/main/fc/fc_core.c ****         if (!isUsingSticksForArming()) {
 1181              	 .loc 13 265 0
 1182 01ee FFF7FEFF 	 bl isUsingSticksForArming
 1183 01f2 0346     	 mov r3,r0
 1184 01f4 83F00103 	 eor r3,r3,#1
 1185 01f8 DBB2     	 uxtb r3,r3
 1186 01fa 002B     	 cmp r3,#0
 1187 01fc 72D0     	 beq .L95
 1188              	.LBB3:
 266:../cleanflight/src/main/fc/fc_core.c ****           /* Ignore ARMING_DISABLED_CALIBRATING if we are going to calibrate gyro on first arm */
 267:../cleanflight/src/main/fc/fc_core.c ****           bool ignoreGyro = armingConfig()->gyro_cal_on_first_arm
 1189              	 .loc 13 267 0
 1190 01fe FFF7FEFF 	 bl armingConfig
 1191 0202 0346     	 mov r3,r0
 1192 0204 1B78     	 ldrb r3,[r3]
 268:../cleanflight/src/main/fc/fc_core.c ****                          && !(getArmingDisableFlags() & ~(ARMING_DISABLED_ARM_SWITCH | ARMING_DISAB
 1193              	 .loc 13 268 0
 1194 0206 002B     	 cmp r3,#0
 1195 0208 0AD0     	 beq .L96
 1196              	 .loc 13 268 0 is_stmt 0 discriminator 1
 1197 020a FFF7FEFF 	 bl getArmingDisableFlags
 1198 020e 0346     	 mov r3,r0
 1199 0210 23F40023 	 bic r3,r3,#524288
 1200 0214 23F40063 	 bic r3,r3,#2048
 1201 0218 002B     	 cmp r3,#0
 1202 021a 01D1     	 bne .L96
 1203              	 .loc 13 268 0 discriminator 3
 1204 021c 0123     	 movs r3,#1
 1205 021e 00E0     	 b .L97
 1206              	.L96:
 1207              	 .loc 13 268 0 discriminator 4
 1208 0220 0023     	 movs r3,#0
 1209              	.L97:
 267:../cleanflight/src/main/fc/fc_core.c ****                          && !(getArmingDisableFlags() & ~(ARMING_DISABLED_ARM_SWITCH | ARMING_DISAB
 1210              	 .loc 13 267 0 is_stmt 1
 1211 0222 7B71     	 strb r3,[r7,#5]
 1212 0224 7B79     	 ldrb r3,[r7,#5]
 1213 0226 03F00103 	 and r3,r3,#1
 1214 022a 7B71     	 strb r3,[r7,#5]
 269:../cleanflight/src/main/fc/fc_core.c **** 
 270:../cleanflight/src/main/fc/fc_core.c ****           /* Ignore ARMING_DISABLED_THROTTLE (once arm switch is on) if we are in 3D mode */
 271:../cleanflight/src/main/fc/fc_core.c ****           bool ignoreThrottle = feature(FEATURE_3D)
 1215              	 .loc 13 271 0
 1216 022c 4FF48050 	 mov r0,#4096
 1217 0230 FFF7FEFF 	 bl feature
 1218 0234 0346     	 mov r3,r0
 272:../cleanflight/src/main/fc/fc_core.c ****                              && !IS_RC_MODE_ACTIVE(BOX3D)
 273:../cleanflight/src/main/fc/fc_core.c ****                              && !flight3DConfig()->switched_mode3d
 274:../cleanflight/src/main/fc/fc_core.c ****                              && !(getArmingDisableFlags() & ~(ARMING_DISABLED_ARM_SWITCH | ARMING_D
 1219              	 .loc 13 274 0
 1220 0236 002B     	 cmp r3,#0
 1221 0238 19D0     	 beq .L98
 272:../cleanflight/src/main/fc/fc_core.c ****                              && !IS_RC_MODE_ACTIVE(BOX3D)
 1222              	 .loc 13 272 0
 1223 023a 1820     	 movs r0,#24
 1224 023c FFF7FEFF 	 bl IS_RC_MODE_ACTIVE
 1225 0240 0346     	 mov r3,r0
 1226 0242 83F00103 	 eor r3,r3,#1
 1227 0246 DBB2     	 uxtb r3,r3
 1228 0248 002B     	 cmp r3,#0
 1229 024a 10D0     	 beq .L98
 273:../cleanflight/src/main/fc/fc_core.c ****                              && !(getArmingDisableFlags() & ~(ARMING_DISABLED_ARM_SWITCH | ARMING_D
 1230              	 .loc 13 273 0
 1231 024c FFF7FEFF 	 bl flight3DConfig
 1232 0250 0346     	 mov r3,r0
 1233 0252 1B7B     	 ldrb r3,[r3,#12]
 1234 0254 002B     	 cmp r3,#0
 1235 0256 0AD1     	 bne .L98
 1236              	 .loc 13 274 0 discriminator 3
 1237 0258 FFF7FEFF 	 bl getArmingDisableFlags
 1238 025c 0346     	 mov r3,r0
 1239 025e 23F40023 	 bic r3,r3,#524288
 1240 0262 23F04003 	 bic r3,r3,#64
 1241 0266 002B     	 cmp r3,#0
 1242 0268 01D1     	 bne .L98
 1243              	 .loc 13 274 0 is_stmt 0 discriminator 2
 1244 026a 0123     	 movs r3,#1
 1245 026c 00E0     	 b .L99
 1246              	.L98:
 1247              	 .loc 13 274 0 discriminator 1
 1248 026e 0023     	 movs r3,#0
 1249              	.L99:
 271:../cleanflight/src/main/fc/fc_core.c ****                              && !IS_RC_MODE_ACTIVE(BOX3D)
 1250              	 .loc 13 271 0 is_stmt 1
 1251 0270 3B71     	 strb r3,[r7,#4]
 1252 0272 3B79     	 ldrb r3,[r7,#4]
 1253 0274 03F00103 	 and r3,r3,#1
 1254 0278 3B71     	 strb r3,[r7,#4]
 275:../cleanflight/src/main/fc/fc_core.c **** 
 276:../cleanflight/src/main/fc/fc_core.c **** #ifdef USE_RUNAWAY_TAKEOFF
 277:../cleanflight/src/main/fc/fc_core.c ****            if (!IS_RC_MODE_ACTIVE(BOXARM)) {
 1255              	 .loc 13 277 0
 1256 027a 0020     	 movs r0,#0
 1257 027c FFF7FEFF 	 bl IS_RC_MODE_ACTIVE
 1258 0280 0346     	 mov r3,r0
 1259 0282 83F00103 	 eor r3,r3,#1
 1260 0286 DBB2     	 uxtb r3,r3
 1261 0288 002B     	 cmp r3,#0
 1262 028a 02D0     	 beq .L100
 278:../cleanflight/src/main/fc/fc_core.c ****                unsetArmingDisabled(ARMING_DISABLED_RUNAWAY_TAKEOFF);
 1263              	 .loc 13 278 0
 1264 028c 2020     	 movs r0,#32
 1265 028e FFF7FEFF 	 bl unsetArmingDisabled
 1266              	.L100:
 279:../cleanflight/src/main/fc/fc_core.c ****            }
 280:../cleanflight/src/main/fc/fc_core.c **** #endif
 281:../cleanflight/src/main/fc/fc_core.c **** 
 282:../cleanflight/src/main/fc/fc_core.c ****           // If arming is disabled and the ARM switch is on
 283:../cleanflight/src/main/fc/fc_core.c ****           if (isArmingDisabled()
 1267              	 .loc 13 283 0
 1268 0292 FFF7FEFF 	 bl isArmingDisabled
 1269 0296 0346     	 mov r3,r0
 1270 0298 002B     	 cmp r3,#0
 1271 029a 16D0     	 beq .L101
 284:../cleanflight/src/main/fc/fc_core.c ****               && !ignoreGyro
 1272              	 .loc 13 284 0
 1273 029c 7B79     	 ldrb r3,[r7,#5]
 1274 029e 83F00103 	 eor r3,r3,#1
 1275 02a2 DBB2     	 uxtb r3,r3
 1276 02a4 002B     	 cmp r3,#0
 1277 02a6 10D0     	 beq .L101
 285:../cleanflight/src/main/fc/fc_core.c ****               && !ignoreThrottle
 1278              	 .loc 13 285 0
 1279 02a8 3B79     	 ldrb r3,[r7,#4]
 1280 02aa 83F00103 	 eor r3,r3,#1
 1281 02ae DBB2     	 uxtb r3,r3
 1282 02b0 002B     	 cmp r3,#0
 1283 02b2 0AD0     	 beq .L101
 286:../cleanflight/src/main/fc/fc_core.c ****               && IS_RC_MODE_ACTIVE(BOXARM)) {
 1284              	 .loc 13 286 0
 1285 02b4 0020     	 movs r0,#0
 1286 02b6 FFF7FEFF 	 bl IS_RC_MODE_ACTIVE
 1287 02ba 0346     	 mov r3,r0
 1288 02bc 002B     	 cmp r3,#0
 1289 02be 04D0     	 beq .L101
 287:../cleanflight/src/main/fc/fc_core.c ****               setArmingDisabled(ARMING_DISABLED_ARM_SWITCH);
 1290              	 .loc 13 287 0
 1291 02c0 4FF40020 	 mov r0,#524288
 1292 02c4 FFF7FEFF 	 bl setArmingDisabled
 1293 02c8 0CE0     	 b .L95
 1294              	.L101:
 288:../cleanflight/src/main/fc/fc_core.c ****           } else if (!IS_RC_MODE_ACTIVE(BOXARM)) {
 1295              	 .loc 13 288 0
 1296 02ca 0020     	 movs r0,#0
 1297 02cc FFF7FEFF 	 bl IS_RC_MODE_ACTIVE
 1298 02d0 0346     	 mov r3,r0
 1299 02d2 83F00103 	 eor r3,r3,#1
 1300 02d6 DBB2     	 uxtb r3,r3
 1301 02d8 002B     	 cmp r3,#0
 1302 02da 03D0     	 beq .L95
 289:../cleanflight/src/main/fc/fc_core.c ****               unsetArmingDisabled(ARMING_DISABLED_ARM_SWITCH);
 1303              	 .loc 13 289 0
 1304 02dc 4FF40020 	 mov r0,#524288
 1305 02e0 FFF7FEFF 	 bl unsetArmingDisabled
 1306              	.L95:
 1307              	.LBE3:
 290:../cleanflight/src/main/fc/fc_core.c ****           }
 291:../cleanflight/src/main/fc/fc_core.c ****         }
 292:../cleanflight/src/main/fc/fc_core.c **** 
 293:../cleanflight/src/main/fc/fc_core.c ****         if (isArmingDisabled()) {
 1308              	 .loc 13 293 0
 1309 02e4 FFF7FEFF 	 bl isArmingDisabled
 1310 02e8 0346     	 mov r3,r0
 1311 02ea 002B     	 cmp r3,#0
 1312 02ec 02D0     	 beq .L102
 294:../cleanflight/src/main/fc/fc_core.c ****             warningLedFlash();
 1313              	 .loc 13 294 0
 1314 02ee FFF7FEFF 	 bl warningLedFlash
 1315 02f2 01E0     	 b .L103
 1316              	.L102:
 295:../cleanflight/src/main/fc/fc_core.c ****         } else {
 296:../cleanflight/src/main/fc/fc_core.c ****             warningLedDisable();
 1317              	 .loc 13 296 0
 1318 02f4 FFF7FEFF 	 bl warningLedDisable
 1319              	.L103:
 297:../cleanflight/src/main/fc/fc_core.c ****         }
 298:../cleanflight/src/main/fc/fc_core.c **** 
 299:../cleanflight/src/main/fc/fc_core.c ****         warningLedUpdate();
 1320              	 .loc 13 299 0
 1321 02f8 FFF7FEFF 	 bl warningLedUpdate
 1322              	.L70:
 300:../cleanflight/src/main/fc/fc_core.c ****     }
 301:../cleanflight/src/main/fc/fc_core.c **** }
 1323              	 .loc 13 301 0
 1324 02fc 0C37     	 adds r7,r7,#12
 1325              	.LCFI78:
 1326              	 .cfi_def_cfa_offset 12
 1327 02fe BD46     	 mov sp,r7
 1328              	.LCFI79:
 1329              	 .cfi_def_cfa_register 13
 1330              	 
 1331 0300 90BD     	 pop {r4,r7,pc}
 1332              	.L105:
 1333 0302 00BF     	 .align 2
 1334              	.L104:
 1335 0304 00000000 	 .word armingFlags
 1336 0308 00000000 	 .word flipOverAfterCrashMode
 1337 030c 00000000 	 .word hadRx.16163
 1338 0310 00000000 	 .word stateFlags
 1339 0314 00000000 	 .word averageSystemLoadPercent
 1340              	 .cfi_endproc
 1341              	.LFE626:
 1343              	 .section .text.disarm,"ax",%progbits
 1344              	 .align 2
 1345              	 .global disarm
 1346              	 .thumb
 1347              	 .thumb_func
 1349              	disarm:
 1350              	.LFB627:
 302:../cleanflight/src/main/fc/fc_core.c **** 
 303:../cleanflight/src/main/fc/fc_core.c **** void disarm(void)
 304:../cleanflight/src/main/fc/fc_core.c **** {
 1351              	 .loc 13 304 0
 1352              	 .cfi_startproc
 1353              	 
 1354              	 
 1355 0000 80B5     	 push {r7,lr}
 1356              	.LCFI80:
 1357              	 .cfi_def_cfa_offset 8
 1358              	 .cfi_offset 7,-8
 1359              	 .cfi_offset 14,-4
 1360 0002 00AF     	 add r7,sp,#0
 1361              	.LCFI81:
 1362              	 .cfi_def_cfa_register 7
 305:../cleanflight/src/main/fc/fc_core.c ****     if (ARMING_FLAG(ARMED)) {
 1363              	 .loc 13 305 0
 1364 0004 164B     	 ldr r3,.L109
 1365 0006 1B78     	 ldrb r3,[r3]
 1366 0008 03F00103 	 and r3,r3,#1
 1367 000c 002B     	 cmp r3,#0
 1368 000e 26D0     	 beq .L106
 306:../cleanflight/src/main/fc/fc_core.c ****         DISABLE_ARMING_FLAG(ARMED);
 1369              	 .loc 13 306 0
 1370 0010 134B     	 ldr r3,.L109
 1371 0012 1B78     	 ldrb r3,[r3]
 1372 0014 23F00103 	 bic r3,r3,#1
 1373 0018 DAB2     	 uxtb r2,r3
 1374 001a 114B     	 ldr r3,.L109
 1375 001c 1A70     	 strb r2,[r3]
 307:../cleanflight/src/main/fc/fc_core.c ****         lastDisarmTimeUs = micros();
 1376              	 .loc 13 307 0
 1377 001e FFF7FEFF 	 bl micros
 1378 0022 0246     	 mov r2,r0
 1379 0024 0F4B     	 ldr r3,.L109+4
 1380 0026 1A60     	 str r2,[r3]
 308:../cleanflight/src/main/fc/fc_core.c **** 
 309:../cleanflight/src/main/fc/fc_core.c **** #ifdef USE_BLACKBOX
 310:../cleanflight/src/main/fc/fc_core.c ****         if (blackboxConfig()->device && blackboxConfig()->mode != BLACKBOX_MODE_ALWAYS_ON) { // Clo
 1381              	 .loc 13 310 0
 1382 0028 FFF7FEFF 	 bl blackboxConfig
 1383 002c 0346     	 mov r3,r0
 1384 002e 9B78     	 ldrb r3,[r3,#2]
 1385 0030 002B     	 cmp r3,#0
 1386 0032 07D0     	 beq .L108
 1387              	 .loc 13 310 0 is_stmt 0 discriminator 1
 1388 0034 FFF7FEFF 	 bl blackboxConfig
 1389 0038 0346     	 mov r3,r0
 1390 003a 1B79     	 ldrb r3,[r3,#4]
 1391 003c 022B     	 cmp r3,#2
 1392 003e 01D0     	 beq .L108
 311:../cleanflight/src/main/fc/fc_core.c ****             blackboxFinish();
 1393              	 .loc 13 311 0 is_stmt 1
 1394 0040 FFF7FEFF 	 bl blackboxFinish
 1395              	.L108:
 312:../cleanflight/src/main/fc/fc_core.c ****         }
 313:../cleanflight/src/main/fc/fc_core.c **** #endif
 314:../cleanflight/src/main/fc/fc_core.c ****         BEEP_OFF;
 315:../cleanflight/src/main/fc/fc_core.c **** #ifdef USE_DSHOT
 316:../cleanflight/src/main/fc/fc_core.c ****         if (isMotorProtocolDshot() && flipOverAfterCrashMode && !feature(FEATURE_3D)) {
 317:../cleanflight/src/main/fc/fc_core.c ****             pwmWriteDshotCommand(ALL_MOTORS, getMotorCount(), DSHOT_CMD_SPIN_DIRECTION_NORMAL, fals
 318:../cleanflight/src/main/fc/fc_core.c ****         }
 319:../cleanflight/src/main/fc/fc_core.c **** #endif
 320:../cleanflight/src/main/fc/fc_core.c ****         flipOverAfterCrashMode = false;
 1396              	 .loc 13 320 0
 1397 0044 084B     	 ldr r3,.L109+8
 1398 0046 0022     	 movs r2,#0
 1399 0048 1A70     	 strb r2,[r3]
 321:../cleanflight/src/main/fc/fc_core.c **** 
 322:../cleanflight/src/main/fc/fc_core.c ****         // if ARMING_DISABLED_RUNAWAY_TAKEOFF is set then we want to play it's beep pattern instead
 323:../cleanflight/src/main/fc/fc_core.c ****         if (!(getArmingDisableFlags() & ARMING_DISABLED_RUNAWAY_TAKEOFF)) {
 1400              	 .loc 13 323 0
 1401 004a FFF7FEFF 	 bl getArmingDisableFlags
 1402 004e 0346     	 mov r3,r0
 1403 0050 03F02003 	 and r3,r3,#32
 1404 0054 002B     	 cmp r3,#0
 1405 0056 02D1     	 bne .L106
 324:../cleanflight/src/main/fc/fc_core.c ****             beeper(BEEPER_DISARMING);      // emit disarm tone
 1406              	 .loc 13 324 0
 1407 0058 0420     	 movs r0,#4
 1408 005a FFF7FEFF 	 bl beeper
 1409              	.L106:
 325:../cleanflight/src/main/fc/fc_core.c ****         }
 326:../cleanflight/src/main/fc/fc_core.c ****     }
 327:../cleanflight/src/main/fc/fc_core.c **** }
 1410              	 .loc 13 327 0
 1411 005e 80BD     	 pop {r7,pc}
 1412              	.L110:
 1413              	 .align 2
 1414              	.L109:
 1415 0060 00000000 	 .word armingFlags
 1416 0064 00000000 	 .word lastDisarmTimeUs
 1417 0068 00000000 	 .word flipOverAfterCrashMode
 1418              	 .cfi_endproc
 1419              	.LFE627:
 1421              	 .section .text.tryArm,"ax",%progbits
 1422              	 .align 2
 1423              	 .global tryArm
 1424              	 .thumb
 1425              	 .thumb_func
 1427              	tryArm:
 1428              	.LFB628:
 328:../cleanflight/src/main/fc/fc_core.c **** 
 329:../cleanflight/src/main/fc/fc_core.c **** void tryArm(void)
 330:../cleanflight/src/main/fc/fc_core.c **** {
 1429              	 .loc 13 330 0
 1430              	 .cfi_startproc
 1431              	 
 1432              	 
 1433 0000 90B5     	 push {r4,r7,lr}
 1434              	.LCFI82:
 1435              	 .cfi_def_cfa_offset 12
 1436              	 .cfi_offset 4,-12
 1437              	 .cfi_offset 7,-8
 1438              	 .cfi_offset 14,-4
 1439 0002 83B0     	 sub sp,sp,#12
 1440              	.LCFI83:
 1441              	 .cfi_def_cfa_offset 24
 1442 0004 00AF     	 add r7,sp,#0
 1443              	.LCFI84:
 1444              	 .cfi_def_cfa_register 7
 331:../cleanflight/src/main/fc/fc_core.c ****     if (armingConfig()->gyro_cal_on_first_arm) {
 1445              	 .loc 13 331 0
 1446 0006 FFF7FEFF 	 bl armingConfig
 1447 000a 0346     	 mov r3,r0
 1448 000c 1B78     	 ldrb r3,[r3]
 1449 000e 002B     	 cmp r3,#0
 1450 0010 02D0     	 beq .L112
 332:../cleanflight/src/main/fc/fc_core.c ****         gyroStartCalibration(true);
 1451              	 .loc 13 332 0
 1452 0012 0120     	 movs r0,#1
 1453 0014 FFF7FEFF 	 bl gyroStartCalibration
 1454              	.L112:
 333:../cleanflight/src/main/fc/fc_core.c ****     }
 334:../cleanflight/src/main/fc/fc_core.c **** 
 335:../cleanflight/src/main/fc/fc_core.c ****     updateArmingStatus();
 1455              	 .loc 13 335 0
 1456 0018 FFF7FEFF 	 bl updateArmingStatus
 336:../cleanflight/src/main/fc/fc_core.c **** 
 337:../cleanflight/src/main/fc/fc_core.c ****     if (!isArmingDisabled()) {
 1457              	 .loc 13 337 0
 1458 001c FFF7FEFF 	 bl isArmingDisabled
 1459 0020 0346     	 mov r3,r0
 1460 0022 83F00103 	 eor r3,r3,#1
 1461 0026 DBB2     	 uxtb r3,r3
 1462 0028 002B     	 cmp r3,#0
 1463 002a 5AD0     	 beq .L113
 338:../cleanflight/src/main/fc/fc_core.c ****         if (ARMING_FLAG(ARMED)) {
 1464              	 .loc 13 338 0
 1465 002c 3D4B     	 ldr r3,.L119
 1466 002e 1B78     	 ldrb r3,[r3]
 1467 0030 03F00103 	 and r3,r3,#1
 1468 0034 002B     	 cmp r3,#0
 1469 0036 00D0     	 beq .L114
 339:../cleanflight/src/main/fc/fc_core.c ****             return;
 1470              	 .loc 13 339 0
 1471 0038 71E0     	 b .L111
 1472              	.L114:
 340:../cleanflight/src/main/fc/fc_core.c ****         }
 341:../cleanflight/src/main/fc/fc_core.c **** #ifdef USE_DSHOT
 342:../cleanflight/src/main/fc/fc_core.c ****         if (micros() - getLastDshotBeaconCommandTimeUs() < DSHOT_BEACON_GUARD_DELAY_US) {
 343:../cleanflight/src/main/fc/fc_core.c ****             if (tryingToArm == ARMING_DELAYED_DISARMED) {
 344:../cleanflight/src/main/fc/fc_core.c ****                 if (isModeActivationConditionPresent(BOXFLIPOVERAFTERCRASH) && IS_RC_MODE_ACTIVE(BO
 345:../cleanflight/src/main/fc/fc_core.c ****                     tryingToArm = ARMING_DELAYED_CRASHFLIP;
 346:../cleanflight/src/main/fc/fc_core.c ****                 } else {
 347:../cleanflight/src/main/fc/fc_core.c ****                     tryingToArm = ARMING_DELAYED_NORMAL;
 348:../cleanflight/src/main/fc/fc_core.c ****                 }
 349:../cleanflight/src/main/fc/fc_core.c ****             }
 350:../cleanflight/src/main/fc/fc_core.c ****             return;
 351:../cleanflight/src/main/fc/fc_core.c ****         }
 352:../cleanflight/src/main/fc/fc_core.c ****         if (isMotorProtocolDshot() && isModeActivationConditionPresent(BOXFLIPOVERAFTERCRASH)) {
 353:../cleanflight/src/main/fc/fc_core.c ****             if (!(IS_RC_MODE_ACTIVE(BOXFLIPOVERAFTERCRASH) || (tryingToArm == ARMING_DELAYED_CRASHF
 354:../cleanflight/src/main/fc/fc_core.c ****                 flipOverAfterCrashMode = false;
 355:../cleanflight/src/main/fc/fc_core.c ****                 if (!feature(FEATURE_3D)) {
 356:../cleanflight/src/main/fc/fc_core.c ****                     pwmWriteDshotCommand(ALL_MOTORS, getMotorCount(), DSHOT_CMD_SPIN_DIRECTION_NORM
 357:../cleanflight/src/main/fc/fc_core.c ****                 }
 358:../cleanflight/src/main/fc/fc_core.c ****             } else {
 359:../cleanflight/src/main/fc/fc_core.c ****                 flipOverAfterCrashMode = true;
 360:../cleanflight/src/main/fc/fc_core.c **** #ifdef USE_RUNAWAY_TAKEOFF
 361:../cleanflight/src/main/fc/fc_core.c ****                 runawayTakeoffCheckDisabled = false;
 362:../cleanflight/src/main/fc/fc_core.c **** #endif
 363:../cleanflight/src/main/fc/fc_core.c ****                 if (!feature(FEATURE_3D)) {
 364:../cleanflight/src/main/fc/fc_core.c ****                     pwmWriteDshotCommand(ALL_MOTORS, getMotorCount(), DSHOT_CMD_SPIN_DIRECTION_REVE
 365:../cleanflight/src/main/fc/fc_core.c ****                 }
 366:../cleanflight/src/main/fc/fc_core.c ****             }
 367:../cleanflight/src/main/fc/fc_core.c ****         }
 368:../cleanflight/src/main/fc/fc_core.c **** #endif
 369:../cleanflight/src/main/fc/fc_core.c **** 
 370:../cleanflight/src/main/fc/fc_core.c ****         ENABLE_ARMING_FLAG(ARMED);
 1473              	 .loc 13 370 0
 1474 003a 3A4B     	 ldr r3,.L119
 1475 003c 1B78     	 ldrb r3,[r3]
 1476 003e 43F00103 	 orr r3,r3,#1
 1477 0042 DAB2     	 uxtb r2,r3
 1478 0044 374B     	 ldr r3,.L119
 1479 0046 1A70     	 strb r2,[r3]
 371:../cleanflight/src/main/fc/fc_core.c ****         ENABLE_ARMING_FLAG(WAS_EVER_ARMED);
 1480              	 .loc 13 371 0
 1481 0048 364B     	 ldr r3,.L119
 1482 004a 1B78     	 ldrb r3,[r3]
 1483 004c 43F00203 	 orr r3,r3,#2
 1484 0050 DAB2     	 uxtb r2,r3
 1485 0052 344B     	 ldr r3,.L119
 1486 0054 1A70     	 strb r2,[r3]
 372:../cleanflight/src/main/fc/fc_core.c **** 
 373:../cleanflight/src/main/fc/fc_core.c ****         resetTryingToArm();
 1487              	 .loc 13 373 0
 1488 0056 FFF7FEFF 	 bl resetTryingToArm
 374:../cleanflight/src/main/fc/fc_core.c **** 
 375:../cleanflight/src/main/fc/fc_core.c **** #ifdef USE_ACRO_TRAINER
 376:../cleanflight/src/main/fc/fc_core.c ****         pidAcroTrainerInit();
 1489              	 .loc 13 376 0
 1490 005a FFF7FEFF 	 bl pidAcroTrainerInit
 377:../cleanflight/src/main/fc/fc_core.c **** #endif // USE_ACRO_TRAINER
 378:../cleanflight/src/main/fc/fc_core.c **** 
 379:../cleanflight/src/main/fc/fc_core.c ****         if (isModeActivationConditionPresent(BOXPREARM)) {
 1491              	 .loc 13 379 0
 1492 005e 1F20     	 movs r0,#31
 1493 0060 FFF7FEFF 	 bl isModeActivationConditionPresent
 1494 0064 0346     	 mov r3,r0
 1495 0066 002B     	 cmp r3,#0
 1496 0068 06D0     	 beq .L116
 380:../cleanflight/src/main/fc/fc_core.c ****             ENABLE_ARMING_FLAG(WAS_ARMED_WITH_PREARM);
 1497              	 .loc 13 380 0
 1498 006a 2E4B     	 ldr r3,.L119
 1499 006c 1B78     	 ldrb r3,[r3]
 1500 006e 43F00403 	 orr r3,r3,#4
 1501 0072 DAB2     	 uxtb r2,r3
 1502 0074 2B4B     	 ldr r3,.L119
 1503 0076 1A70     	 strb r2,[r3]
 1504              	.L116:
 381:../cleanflight/src/main/fc/fc_core.c ****         }
 382:../cleanflight/src/main/fc/fc_core.c ****         imuQuaternionHeadfreeOffsetSet();
 1505              	 .loc 13 382 0
 1506 0078 FFF7FEFF 	 bl imuQuaternionHeadfreeOffsetSet
 383:../cleanflight/src/main/fc/fc_core.c **** 
 384:../cleanflight/src/main/fc/fc_core.c ****         disarmAt = millis() + armingConfig()->auto_disarm_delay * 1000;   // start disarm timeout, 
 1507              	 .loc 13 384 0
 1508 007c FFF7FEFF 	 bl millis
 1509 0080 0446     	 mov r4,r0
 1510 0082 FFF7FEFF 	 bl armingConfig
 1511 0086 0346     	 mov r3,r0
 1512 0088 5B78     	 ldrb r3,[r3,#1]
 1513 008a 1A46     	 mov r2,r3
 1514 008c 4FF47A73 	 mov r3,#1000
 1515 0090 03FB02F3 	 mul r3,r3,r2
 1516 0094 2344     	 add r3,r3,r4
 1517 0096 244A     	 ldr r2,.L119+4
 1518 0098 1360     	 str r3,[r2]
 385:../cleanflight/src/main/fc/fc_core.c **** 
 386:../cleanflight/src/main/fc/fc_core.c ****         lastArmingDisabledReason = 0;
 1519              	 .loc 13 386 0
 1520 009a 244B     	 ldr r3,.L119+8
 1521 009c 0022     	 movs r2,#0
 1522 009e 1A60     	 str r2,[r3]
 387:../cleanflight/src/main/fc/fc_core.c **** 
 388:../cleanflight/src/main/fc/fc_core.c ****         //beep to indicate arming
 389:../cleanflight/src/main/fc/fc_core.c **** #ifdef USE_GPS
 390:../cleanflight/src/main/fc/fc_core.c ****         if (feature(FEATURE_GPS) && STATE(GPS_FIX) && gpsSol.numSat >= 5) {
 1523              	 .loc 13 390 0
 1524 00a0 8020     	 movs r0,#128
 1525 00a2 FFF7FEFF 	 bl feature
 1526 00a6 0346     	 mov r3,r0
 1527 00a8 002B     	 cmp r3,#0
 1528 00aa 0DD0     	 beq .L117
 1529              	 .loc 13 390 0 is_stmt 0 discriminator 1
 1530 00ac 204B     	 ldr r3,.L119+12
 1531 00ae 1B78     	 ldrb r3,[r3]
 1532 00b0 03F00203 	 and r3,r3,#2
 1533 00b4 002B     	 cmp r3,#0
 1534 00b6 07D0     	 beq .L117
 1535              	 .loc 13 390 0 discriminator 2
 1536 00b8 1E4B     	 ldr r3,.L119+16
 1537 00ba 9B7C     	 ldrb r3,[r3,#18]
 1538 00bc 042B     	 cmp r3,#4
 1539 00be 03D9     	 bls .L117
 391:../cleanflight/src/main/fc/fc_core.c ****             beeper(BEEPER_ARMING_GPS_FIX);
 1540              	 .loc 13 391 0 is_stmt 1
 1541 00c0 0620     	 movs r0,#6
 1542 00c2 FFF7FEFF 	 bl beeper
 1543 00c6 02E0     	 b .L118
 1544              	.L117:
 392:../cleanflight/src/main/fc/fc_core.c ****         } else {
 393:../cleanflight/src/main/fc/fc_core.c ****             beeper(BEEPER_ARMING);
 1545              	 .loc 13 393 0
 1546 00c8 0520     	 movs r0,#5
 1547 00ca FFF7FEFF 	 bl beeper
 1548              	.L118:
 394:../cleanflight/src/main/fc/fc_core.c ****         }
 395:../cleanflight/src/main/fc/fc_core.c **** #else
 396:../cleanflight/src/main/fc/fc_core.c ****         beeper(BEEPER_ARMING);
 397:../cleanflight/src/main/fc/fc_core.c **** #endif
 398:../cleanflight/src/main/fc/fc_core.c **** 
 399:../cleanflight/src/main/fc/fc_core.c **** #ifdef USE_RUNAWAY_TAKEOFF
 400:../cleanflight/src/main/fc/fc_core.c ****         runawayTakeoffDeactivateUs = 0;
 1549              	 .loc 13 400 0
 1550 00ce 1A4B     	 ldr r3,.L119+20
 1551 00d0 0022     	 movs r2,#0
 1552 00d2 1A60     	 str r2,[r3]
 401:../cleanflight/src/main/fc/fc_core.c ****         runawayTakeoffAccumulatedUs = 0;
 1553              	 .loc 13 401 0
 1554 00d4 194B     	 ldr r3,.L119+24
 1555 00d6 0022     	 movs r2,#0
 1556 00d8 1A60     	 str r2,[r3]
 402:../cleanflight/src/main/fc/fc_core.c ****         runawayTakeoffTriggerUs = 0;
 1557              	 .loc 13 402 0
 1558 00da 194B     	 ldr r3,.L119+28
 1559 00dc 0022     	 movs r2,#0
 1560 00de 1A60     	 str r2,[r3]
 1561 00e0 1DE0     	 b .L111
 1562              	.L113:
 403:../cleanflight/src/main/fc/fc_core.c **** #endif
 404:../cleanflight/src/main/fc/fc_core.c ****     } else {
 405:../cleanflight/src/main/fc/fc_core.c ****        resetTryingToArm();
 1563              	 .loc 13 405 0
 1564 00e2 FFF7FEFF 	 bl resetTryingToArm
 406:../cleanflight/src/main/fc/fc_core.c ****         if (!isFirstArmingGyroCalibrationRunning()) {
 1565              	 .loc 13 406 0
 1566 00e6 FFF7FEFF 	 bl isFirstArmingGyroCalibrationRunning
 1567 00ea 0346     	 mov r3,r0
 1568 00ec 83F00103 	 eor r3,r3,#1
 1569 00f0 DBB2     	 uxtb r3,r3
 1570 00f2 002B     	 cmp r3,#0
 1571 00f4 13D0     	 beq .L111
 1572              	.LBB4:
 407:../cleanflight/src/main/fc/fc_core.c ****             int armingDisabledReason = ffs(getArmingDisableFlags());
 1573              	 .loc 13 407 0
 1574 00f6 FFF7FEFF 	 bl getArmingDisableFlags
 1575 00fa 0346     	 mov r3,r0
 1576 00fc 1846     	 mov r0,r3
 1577 00fe FFF7FEFF 	 bl ffs
 1578 0102 7860     	 str r0,[r7,#4]
 408:../cleanflight/src/main/fc/fc_core.c ****             if (lastArmingDisabledReason != armingDisabledReason) {
 1579              	 .loc 13 408 0
 1580 0104 094B     	 ldr r3,.L119+8
 1581 0106 1A68     	 ldr r2,[r3]
 1582 0108 7B68     	 ldr r3,[r7,#4]
 1583 010a 9A42     	 cmp r2,r3
 1584 010c 07D0     	 beq .L111
 409:../cleanflight/src/main/fc/fc_core.c ****                 lastArmingDisabledReason = armingDisabledReason;
 1585              	 .loc 13 409 0
 1586 010e 074A     	 ldr r2,.L119+8
 1587 0110 7B68     	 ldr r3,[r7,#4]
 1588 0112 1360     	 str r3,[r2]
 410:../cleanflight/src/main/fc/fc_core.c **** 
 411:../cleanflight/src/main/fc/fc_core.c ****                 beeperWarningBeeps(armingDisabledReason);
 1589              	 .loc 13 411 0
 1590 0114 7B68     	 ldr r3,[r7,#4]
 1591 0116 DBB2     	 uxtb r3,r3
 1592 0118 1846     	 mov r0,r3
 1593 011a FFF7FEFF 	 bl beeperWarningBeeps
 1594              	.L111:
 1595              	.LBE4:
 412:../cleanflight/src/main/fc/fc_core.c ****             }
 413:../cleanflight/src/main/fc/fc_core.c ****         }
 414:../cleanflight/src/main/fc/fc_core.c ****     }
 415:../cleanflight/src/main/fc/fc_core.c **** }
 1596              	 .loc 13 415 0
 1597 011e 0C37     	 adds r7,r7,#12
 1598              	.LCFI85:
 1599              	 .cfi_def_cfa_offset 12
 1600 0120 BD46     	 mov sp,r7
 1601              	.LCFI86:
 1602              	 .cfi_def_cfa_register 13
 1603              	 
 1604 0122 90BD     	 pop {r4,r7,pc}
 1605              	.L120:
 1606              	 .align 2
 1607              	.L119:
 1608 0124 00000000 	 .word armingFlags
 1609 0128 00000000 	 .word disarmAt
 1610 012c 00000000 	 .word lastArmingDisabledReason
 1611 0130 00000000 	 .word stateFlags
 1612 0134 00000000 	 .word gpsSol
 1613 0138 00000000 	 .word runawayTakeoffDeactivateUs
 1614 013c 00000000 	 .word runawayTakeoffAccumulatedUs
 1615 0140 00000000 	 .word runawayTakeoffTriggerUs
 1616              	 .cfi_endproc
 1617              	.LFE628:
 1619              	 .global AccInflightCalibrationArmed
 1620              	 .section .bss.AccInflightCalibrationArmed,"aw",%nobits
 1623              	AccInflightCalibrationArmed:
 1624 0000 00       	 .space 1
 1625              	 .global AccInflightCalibrationMeasurementDone
 1626              	 .section .bss.AccInflightCalibrationMeasurementDone,"aw",%nobits
 1629              	AccInflightCalibrationMeasurementDone:
 1630 0000 00       	 .space 1
 1631              	 .global AccInflightCalibrationSavetoEEProm
 1632              	 .section .bss.AccInflightCalibrationSavetoEEProm,"aw",%nobits
 1635              	AccInflightCalibrationSavetoEEProm:
 1636 0000 00       	 .space 1
 1637              	 .global AccInflightCalibrationActive
 1638              	 .section .bss.AccInflightCalibrationActive,"aw",%nobits
 1641              	AccInflightCalibrationActive:
 1642 0000 00       	 .space 1
 1643              	 .global InflightcalibratingA
 1644              	 .section .bss.InflightcalibratingA,"aw",%nobits
 1645              	 .align 1
 1648              	InflightcalibratingA:
 1649 0000 0000     	 .space 2
 1650              	 .section .text.handleInflightCalibrationStickPosition,"ax",%progbits
 1651              	 .align 2
 1652              	 .global handleInflightCalibrationStickPosition
 1653              	 .thumb
 1654              	 .thumb_func
 1656              	handleInflightCalibrationStickPosition:
 1657              	.LFB629:
 416:../cleanflight/src/main/fc/fc_core.c **** 
 417:../cleanflight/src/main/fc/fc_core.c **** // Automatic ACC Offset Calibration
 418:../cleanflight/src/main/fc/fc_core.c **** bool AccInflightCalibrationArmed = false;
 419:../cleanflight/src/main/fc/fc_core.c **** bool AccInflightCalibrationMeasurementDone = false;
 420:../cleanflight/src/main/fc/fc_core.c **** bool AccInflightCalibrationSavetoEEProm = false;
 421:../cleanflight/src/main/fc/fc_core.c **** bool AccInflightCalibrationActive = false;
 422:../cleanflight/src/main/fc/fc_core.c **** uint16_t InflightcalibratingA = 0;
 423:../cleanflight/src/main/fc/fc_core.c **** 
 424:../cleanflight/src/main/fc/fc_core.c **** void handleInflightCalibrationStickPosition(void)
 425:../cleanflight/src/main/fc/fc_core.c **** {
 1658              	 .loc 13 425 0
 1659              	 .cfi_startproc
 1660              	 
 1661              	 
 1662 0000 80B5     	 push {r7,lr}
 1663              	.LCFI87:
 1664              	 .cfi_def_cfa_offset 8
 1665              	 .cfi_offset 7,-8
 1666              	 .cfi_offset 14,-4
 1667 0002 00AF     	 add r7,sp,#0
 1668              	.LCFI88:
 1669              	 .cfi_def_cfa_register 7
 426:../cleanflight/src/main/fc/fc_core.c ****     if (AccInflightCalibrationMeasurementDone) {
 1670              	 .loc 13 426 0
 1671 0004 124B     	 ldr r3,.L125
 1672 0006 1B78     	 ldrb r3,[r3]
 1673 0008 002B     	 cmp r3,#0
 1674 000a 06D0     	 beq .L122
 427:../cleanflight/src/main/fc/fc_core.c ****         // trigger saving into eeprom after landing
 428:../cleanflight/src/main/fc/fc_core.c ****         AccInflightCalibrationMeasurementDone = false;
 1675              	 .loc 13 428 0
 1676 000c 104B     	 ldr r3,.L125
 1677 000e 0022     	 movs r2,#0
 1678 0010 1A70     	 strb r2,[r3]
 429:../cleanflight/src/main/fc/fc_core.c ****         AccInflightCalibrationSavetoEEProm = true;
 1679              	 .loc 13 429 0
 1680 0012 104B     	 ldr r3,.L125+4
 1681 0014 0122     	 movs r2,#1
 1682 0016 1A70     	 strb r2,[r3]
 1683 0018 19E0     	 b .L121
 1684              	.L122:
 430:../cleanflight/src/main/fc/fc_core.c ****     } else {
 431:../cleanflight/src/main/fc/fc_core.c ****         AccInflightCalibrationArmed = !AccInflightCalibrationArmed;
 1685              	 .loc 13 431 0
 1686 001a 0F4B     	 ldr r3,.L125+8
 1687 001c 1B78     	 ldrb r3,[r3]
 1688 001e 002B     	 cmp r3,#0
 1689 0020 14BF     	 ite ne
 1690 0022 0123     	 movne r3,#1
 1691 0024 0023     	 moveq r3,#0
 1692 0026 DBB2     	 uxtb r3,r3
 1693 0028 83F00103 	 eor r3,r3,#1
 1694 002c DBB2     	 uxtb r3,r3
 1695 002e 03F00103 	 and r3,r3,#1
 1696 0032 DAB2     	 uxtb r2,r3
 1697 0034 084B     	 ldr r3,.L125+8
 1698 0036 1A70     	 strb r2,[r3]
 432:../cleanflight/src/main/fc/fc_core.c ****         if (AccInflightCalibrationArmed) {
 1699              	 .loc 13 432 0
 1700 0038 074B     	 ldr r3,.L125+8
 1701 003a 1B78     	 ldrb r3,[r3]
 1702 003c 002B     	 cmp r3,#0
 1703 003e 03D0     	 beq .L124
 433:../cleanflight/src/main/fc/fc_core.c ****             beeper(BEEPER_ACC_CALIBRATION);
 1704              	 .loc 13 433 0
 1705 0040 0B20     	 movs r0,#11
 1706 0042 FFF7FEFF 	 bl beeper
 1707 0046 02E0     	 b .L121
 1708              	.L124:
 434:../cleanflight/src/main/fc/fc_core.c ****         } else {
 435:../cleanflight/src/main/fc/fc_core.c ****             beeper(BEEPER_ACC_CALIBRATION_FAIL);
 1709              	 .loc 13 435 0
 1710 0048 0C20     	 movs r0,#12
 1711 004a FFF7FEFF 	 bl beeper
 1712              	.L121:
 436:../cleanflight/src/main/fc/fc_core.c ****         }
 437:../cleanflight/src/main/fc/fc_core.c ****     }
 438:../cleanflight/src/main/fc/fc_core.c **** }
 1713              	 .loc 13 438 0
 1714 004e 80BD     	 pop {r7,pc}
 1715              	.L126:
 1716              	 .align 2
 1717              	.L125:
 1718 0050 00000000 	 .word AccInflightCalibrationMeasurementDone
 1719 0054 00000000 	 .word AccInflightCalibrationSavetoEEProm
 1720 0058 00000000 	 .word AccInflightCalibrationArmed
 1721              	 .cfi_endproc
 1722              	.LFE629:
 1724              	 .section .text.updateInflightCalibrationState,"ax",%progbits
 1725              	 .align 2
 1726              	 .thumb
 1727              	 .thumb_func
 1729              	updateInflightCalibrationState:
 1730              	.LFB630:
 439:../cleanflight/src/main/fc/fc_core.c **** 
 440:../cleanflight/src/main/fc/fc_core.c **** static void updateInflightCalibrationState(void)
 441:../cleanflight/src/main/fc/fc_core.c **** {
 1731              	 .loc 13 441 0
 1732              	 .cfi_startproc
 1733              	 
 1734              	 
 1735 0000 98B5     	 push {r3,r4,r7,lr}
 1736              	.LCFI89:
 1737              	 .cfi_def_cfa_offset 16
 1738              	 .cfi_offset 3,-16
 1739              	 .cfi_offset 4,-12
 1740              	 .cfi_offset 7,-8
 1741              	 .cfi_offset 14,-4
 1742 0002 00AF     	 add r7,sp,#0
 1743              	.LCFI90:
 1744              	 .cfi_def_cfa_register 7
 442:../cleanflight/src/main/fc/fc_core.c ****     if (AccInflightCalibrationArmed && ARMING_FLAG(ARMED) && rcData[THROTTLE] > rxConfig()->minchec
 1745              	 .loc 13 442 0
 1746 0004 274B     	 ldr r3,.L132
 1747 0006 1B78     	 ldrb r3,[r3]
 1748 0008 002B     	 cmp r3,#0
 1749 000a 1ED0     	 beq .L128
 1750              	 .loc 13 442 0 is_stmt 0 discriminator 1
 1751 000c 264B     	 ldr r3,.L132+4
 1752 000e 1B78     	 ldrb r3,[r3]
 1753 0010 03F00103 	 and r3,r3,#1
 1754 0014 002B     	 cmp r3,#0
 1755 0016 18D0     	 beq .L128
 1756              	 .loc 13 442 0 discriminator 2
 1757 0018 244B     	 ldr r3,.L132+8
 1758 001a DB88     	 ldrh r3,[r3,#6]
 1759 001c 1CB2     	 sxth r4,r3
 1760 001e FFF7FEFF 	 bl rxConfig
 1761 0022 0346     	 mov r3,r0
 1762 0024 9B8A     	 ldrh r3,[r3,#20]
 1763 0026 9BB2     	 uxth r3,r3
 1764 0028 9C42     	 cmp r4,r3
 1765 002a 0EDD     	 ble .L128
 1766              	 .loc 13 442 0 discriminator 3
 1767 002c 0020     	 movs r0,#0
 1768 002e FFF7FEFF 	 bl IS_RC_MODE_ACTIVE
 1769 0032 0346     	 mov r3,r0
 1770 0034 83F00103 	 eor r3,r3,#1
 1771 0038 DBB2     	 uxtb r3,r3
 1772 003a 002B     	 cmp r3,#0
 1773 003c 05D0     	 beq .L128
 443:../cleanflight/src/main/fc/fc_core.c ****         InflightcalibratingA = 50;
 1774              	 .loc 13 443 0 is_stmt 1
 1775 003e 1C4B     	 ldr r3,.L132+12
 1776 0040 3222     	 movs r2,#50
 1777 0042 1A80     	 strh r2,[r3]
 444:../cleanflight/src/main/fc/fc_core.c ****         AccInflightCalibrationArmed = false;
 1778              	 .loc 13 444 0
 1779 0044 174B     	 ldr r3,.L132
 1780 0046 0022     	 movs r2,#0
 1781 0048 1A70     	 strb r2,[r3]
 1782              	.L128:
 445:../cleanflight/src/main/fc/fc_core.c ****     }
 446:../cleanflight/src/main/fc/fc_core.c ****     if (IS_RC_MODE_ACTIVE(BOXCALIB)) {      // Use the Calib Option to activate : Calib = TRUE meas
 1783              	 .loc 13 446 0
 1784 004a 1020     	 movs r0,#16
 1785 004c FFF7FEFF 	 bl IS_RC_MODE_ACTIVE
 1786 0050 0346     	 mov r3,r0
 1787 0052 002B     	 cmp r3,#0
 1788 0054 14D0     	 beq .L129
 447:../cleanflight/src/main/fc/fc_core.c ****         if (!AccInflightCalibrationActive && !AccInflightCalibrationMeasurementDone)
 1789              	 .loc 13 447 0
 1790 0056 174B     	 ldr r3,.L132+16
 1791 0058 1B78     	 ldrb r3,[r3]
 1792 005a 83F00103 	 eor r3,r3,#1
 1793 005e DBB2     	 uxtb r3,r3
 1794 0060 002B     	 cmp r3,#0
 1795 0062 09D0     	 beq .L130
 1796              	 .loc 13 447 0 is_stmt 0 discriminator 1
 1797 0064 144B     	 ldr r3,.L132+20
 1798 0066 1B78     	 ldrb r3,[r3]
 1799 0068 83F00103 	 eor r3,r3,#1
 1800 006c DBB2     	 uxtb r3,r3
 1801 006e 002B     	 cmp r3,#0
 1802 0070 02D0     	 beq .L130
 448:../cleanflight/src/main/fc/fc_core.c ****             InflightcalibratingA = 50;
 1803              	 .loc 13 448 0 is_stmt 1
 1804 0072 0F4B     	 ldr r3,.L132+12
 1805 0074 3222     	 movs r2,#50
 1806 0076 1A80     	 strh r2,[r3]
 1807              	.L130:
 449:../cleanflight/src/main/fc/fc_core.c ****         AccInflightCalibrationActive = true;
 1808              	 .loc 13 449 0
 1809 0078 0E4B     	 ldr r3,.L132+16
 1810 007a 0122     	 movs r2,#1
 1811 007c 1A70     	 strb r2,[r3]
 1812 007e 0FE0     	 b .L127
 1813              	.L129:
 450:../cleanflight/src/main/fc/fc_core.c ****     } else if (AccInflightCalibrationMeasurementDone && !ARMING_FLAG(ARMED)) {
 1814              	 .loc 13 450 0
 1815 0080 0D4B     	 ldr r3,.L132+20
 1816 0082 1B78     	 ldrb r3,[r3]
 1817 0084 002B     	 cmp r3,#0
 1818 0086 0BD0     	 beq .L127
 1819              	 .loc 13 450 0 is_stmt 0 discriminator 1
 1820 0088 074B     	 ldr r3,.L132+4
 1821 008a 1B78     	 ldrb r3,[r3]
 1822 008c 03F00103 	 and r3,r3,#1
 1823 0090 002B     	 cmp r3,#0
 1824 0092 05D1     	 bne .L127
 451:../cleanflight/src/main/fc/fc_core.c ****         AccInflightCalibrationMeasurementDone = false;
 1825              	 .loc 13 451 0 is_stmt 1
 1826 0094 084B     	 ldr r3,.L132+20
 1827 0096 0022     	 movs r2,#0
 1828 0098 1A70     	 strb r2,[r3]
 452:../cleanflight/src/main/fc/fc_core.c ****         AccInflightCalibrationSavetoEEProm = true;
 1829              	 .loc 13 452 0
 1830 009a 084B     	 ldr r3,.L132+24
 1831 009c 0122     	 movs r2,#1
 1832 009e 1A70     	 strb r2,[r3]
 1833              	.L127:
 453:../cleanflight/src/main/fc/fc_core.c ****     }
 454:../cleanflight/src/main/fc/fc_core.c **** }
 1834              	 .loc 13 454 0
 1835 00a0 98BD     	 pop {r3,r4,r7,pc}
 1836              	.L133:
 1837 00a2 00BF     	 .align 2
 1838              	.L132:
 1839 00a4 00000000 	 .word AccInflightCalibrationArmed
 1840 00a8 00000000 	 .word armingFlags
 1841 00ac 00000000 	 .word rcData
 1842 00b0 00000000 	 .word InflightcalibratingA
 1843 00b4 00000000 	 .word AccInflightCalibrationActive
 1844 00b8 00000000 	 .word AccInflightCalibrationMeasurementDone
 1845 00bc 00000000 	 .word AccInflightCalibrationSavetoEEProm
 1846              	 .cfi_endproc
 1847              	.LFE630:
 1849              	 .section .text.updateMagHold,"ax",%progbits
 1850              	 .align 2
 1851              	 .global updateMagHold
 1852              	 .thumb
 1853              	 .thumb_func
 1855              	updateMagHold:
 1856              	.LFB631:
 455:../cleanflight/src/main/fc/fc_core.c **** 
 456:../cleanflight/src/main/fc/fc_core.c **** #if defined(USE_GPS) || defined(USE_MAG)
 457:../cleanflight/src/main/fc/fc_core.c **** void updateMagHold(void)
 458:../cleanflight/src/main/fc/fc_core.c **** {
 1857              	 .loc 13 458 0
 1858              	 .cfi_startproc
 1859              	 
 1860              	 
 1861 0000 80B5     	 push {r7,lr}
 1862              	.LCFI91:
 1863              	 .cfi_def_cfa_offset 8
 1864              	 .cfi_offset 7,-8
 1865              	 .cfi_offset 14,-4
 1866 0002 82B0     	 sub sp,sp,#8
 1867              	.LCFI92:
 1868              	 .cfi_def_cfa_offset 16
 1869 0004 00AF     	 add r7,sp,#0
 1870              	.LCFI93:
 1871              	 .cfi_def_cfa_register 7
 1872              	.LBB5:
 459:../cleanflight/src/main/fc/fc_core.c ****     if (ABS(rcCommand[YAW]) < 15 && FLIGHT_MODE(MAG_MODE)) {
 1873              	 .loc 13 459 0
 1874 0006 434B     	 ldr r3,.L149
 1875 0008 9B68     	 ldr r3,[r3,#8]
 1876 000a 3B60     	 str r3,[r7]
 1877 000c D7ED007A 	 flds s15,[r7]
 1878 0010 F5EEC07A 	 fcmpezs s15
 1879 0014 F1EE10FA 	 fmstat
 1880 0018 02DD     	 ble .L148
 1881              	 .loc 13 459 0 is_stmt 0 discriminator 1
 1882 001a D7ED007A 	 flds s15,[r7]
 1883 001e 03E0     	 b .L137
 1884              	.L148:
 1885              	 .loc 13 459 0 discriminator 2
 1886 0020 D7ED007A 	 flds s15,[r7]
 1887 0024 F1EE677A 	 fnegs s15,s15
 1888              	.L137:
 1889              	.LBE5:
 1890              	 .loc 13 459 0 discriminator 4
 1891 0028 B2EE0E7A 	 fconsts s14,#46
 1892 002c F4EEC77A 	 fcmpes s15,s14
 1893 0030 F1EE10FA 	 fmstat
 1894 0034 5DD5     	 bpl .L138
 1895              	 .loc 13 459 0 discriminator 5
 1896 0036 384B     	 ldr r3,.L149+4
 1897 0038 1B88     	 ldrh r3,[r3]
 1898 003a 03F00403 	 and r3,r3,#4
 1899 003e 002B     	 cmp r3,#0
 1900 0040 57D0     	 beq .L138
 1901              	.LBB6:
 460:../cleanflight/src/main/fc/fc_core.c ****         int16_t dif = DECIDEGREES_TO_DEGREES(attitude.values.yaw) - magHold;
 1902              	 .loc 13 460 0 is_stmt 1
 1903 0042 364B     	 ldr r3,.L149+8
 1904 0044 B3F90430 	 ldrsh r3,[r3,#4]
 1905 0048 9BB2     	 uxth r3,r3
 1906 004a 1BB2     	 sxth r3,r3
 1907 004c 344A     	 ldr r2,.L149+12
 1908 004e 82FB0312 	 smull r1,r2,r2,r3
 1909 0052 9210     	 asrs r2,r2,#2
 1910 0054 DB17     	 asrs r3,r3,#31
 1911 0056 D31A     	 subs r3,r2,r3
 1912 0058 9BB2     	 uxth r3,r3
 1913 005a 9AB2     	 uxth r2,r3
 1914 005c 314B     	 ldr r3,.L149+16
 1915 005e 1B88     	 ldrh r3,[r3]
 1916 0060 9BB2     	 uxth r3,r3
 1917 0062 D31A     	 subs r3,r2,r3
 1918 0064 9BB2     	 uxth r3,r3
 1919 0066 FB80     	 strh r3,[r7,#6]
 461:../cleanflight/src/main/fc/fc_core.c ****         if (dif <= -180)
 1920              	 .loc 13 461 0
 1921 0068 B7F90630 	 ldrsh r3,[r7,#6]
 1922 006c 13F1B30F 	 cmn r3,#179
 1923 0070 04DA     	 bge .L140
 462:../cleanflight/src/main/fc/fc_core.c ****             dif += 360;
 1924              	 .loc 13 462 0
 1925 0072 FB88     	 ldrh r3,[r7,#6]
 1926 0074 03F5B473 	 add r3,r3,#360
 1927 0078 9BB2     	 uxth r3,r3
 1928 007a FB80     	 strh r3,[r7,#6]
 1929              	.L140:
 463:../cleanflight/src/main/fc/fc_core.c ****         if (dif >= +180)
 1930              	 .loc 13 463 0
 1931 007c B7F90630 	 ldrsh r3,[r7,#6]
 1932 0080 B32B     	 cmp r3,#179
 1933 0082 04DD     	 ble .L141
 464:../cleanflight/src/main/fc/fc_core.c ****             dif -= 360;
 1934              	 .loc 13 464 0
 1935 0084 FB88     	 ldrh r3,[r7,#6]
 1936 0086 A3F5B473 	 sub r3,r3,#360
 1937 008a 9BB2     	 uxth r3,r3
 1938 008c FB80     	 strh r3,[r7,#6]
 1939              	.L141:
 465:../cleanflight/src/main/fc/fc_core.c ****         dif *= -GET_DIRECTION(rcControlsConfig()->yaw_control_reversed);
 1940              	 .loc 13 465 0
 1941 008e FFF7FEFF 	 bl rcControlsConfig
 1942 0092 0346     	 mov r3,r0
 1943 0094 1B79     	 ldrb r3,[r3,#4]
 1944 0096 002B     	 cmp r3,#0
 1945 0098 01D0     	 beq .L142
 1946              	 .loc 13 465 0 is_stmt 0 discriminator 1
 1947 009a 0123     	 movs r3,#1
 1948 009c 01E0     	 b .L143
 1949              	.L142:
 1950              	 .loc 13 465 0 discriminator 2
 1951 009e 4FF0FF33 	 mov r3,#-1
 1952              	.L143:
 1953              	 .loc 13 465 0 discriminator 4
 1954 00a2 9AB2     	 uxth r2,r3
 1955 00a4 FB88     	 ldrh r3,[r7,#6]
 1956 00a6 12FB03F3 	 smulbb r3,r2,r3
 1957 00aa 9BB2     	 uxth r3,r3
 1958 00ac FB80     	 strh r3,[r7,#6]
 466:../cleanflight/src/main/fc/fc_core.c ****         if (STATE(SMALL_ANGLE))
 1959              	 .loc 13 466 0 is_stmt 1 discriminator 4
 1960 00ae 1E4B     	 ldr r3,.L149+20
 1961 00b0 1B78     	 ldrb r3,[r3]
 1962 00b2 03F00803 	 and r3,r3,#8
 1963 00b6 002B     	 cmp r3,#0
 1964 00b8 1AD0     	 beq .L144
 467:../cleanflight/src/main/fc/fc_core.c ****             rcCommand[YAW] -= dif * currentPidProfile->pid[PID_MAG].P / 30;    // 18 deg
 1965              	 .loc 13 467 0
 1966 00ba 164B     	 ldr r3,.L149
 1967 00bc 93ED027A 	 flds s14,[r3,#8]
 1968 00c0 B7F90630 	 ldrsh r3,[r7,#6]
 1969 00c4 194A     	 ldr r2,.L149+24
 1970 00c6 1268     	 ldr r2,[r2]
 1971 00c8 127F     	 ldrb r2,[r2,#28]
 1972 00ca 02FB03F3 	 mul r3,r2,r3
 1973 00ce 184A     	 ldr r2,.L149+28
 1974 00d0 82FB0312 	 smull r1,r2,r2,r3
 1975 00d4 1A44     	 add r2,r2,r3
 1976 00d6 1211     	 asrs r2,r2,#4
 1977 00d8 DB17     	 asrs r3,r3,#31
 1978 00da D31A     	 subs r3,r2,r3
 1979 00dc 07EE903A 	 fmsr s15,r3
 1980 00e0 F8EEE77A 	 fsitos s15,s15
 1981 00e4 77EE677A 	 fsubs s15,s14,s15
 1982 00e8 0A4B     	 ldr r3,.L149
 1983 00ea C3ED027A 	 fsts s15,[r3,#8]
 1984              	.LBE6:
 459:../cleanflight/src/main/fc/fc_core.c ****         int16_t dif = DECIDEGREES_TO_DEGREES(attitude.values.yaw) - magHold;
 1985              	 .loc 13 459 0
 1986 00ee 0EE0     	 b .L134
 1987              	.L144:
 1988 00f0 0DE0     	 b .L134
 1989              	.L138:
 468:../cleanflight/src/main/fc/fc_core.c ****     } else
 469:../cleanflight/src/main/fc/fc_core.c ****         magHold = DECIDEGREES_TO_DEGREES(attitude.values.yaw);
 1990              	 .loc 13 469 0
 1991 00f2 0A4B     	 ldr r3,.L149+8
 1992 00f4 B3F90430 	 ldrsh r3,[r3,#4]
 1993 00f8 9BB2     	 uxth r3,r3
 1994 00fa 1BB2     	 sxth r3,r3
 1995 00fc 084A     	 ldr r2,.L149+12
 1996 00fe 82FB0312 	 smull r1,r2,r2,r3
 1997 0102 9210     	 asrs r2,r2,#2
 1998 0104 DB17     	 asrs r3,r3,#31
 1999 0106 D31A     	 subs r3,r2,r3
 2000 0108 9AB2     	 uxth r2,r3
 2001 010a 064B     	 ldr r3,.L149+16
 2002 010c 1A80     	 strh r2,[r3]
 2003              	.L134:
 470:../cleanflight/src/main/fc/fc_core.c **** }
 2004              	 .loc 13 470 0
 2005 010e 0837     	 adds r7,r7,#8
 2006              	.LCFI94:
 2007              	 .cfi_def_cfa_offset 8
 2008 0110 BD46     	 mov sp,r7
 2009              	.LCFI95:
 2010              	 .cfi_def_cfa_register 13
 2011              	 
 2012 0112 80BD     	 pop {r7,pc}
 2013              	.L150:
 2014              	 .align 2
 2015              	.L149:
 2016 0114 00000000 	 .word rcCommand
 2017 0118 00000000 	 .word flightModeFlags
 2018 011c 00000000 	 .word attitude
 2019 0120 67666666 	 .word 1717986919
 2020 0124 00000000 	 .word magHold
 2021 0128 00000000 	 .word stateFlags
 2022 012c 00000000 	 .word currentPidProfile
 2023 0130 89888888 	 .word -2004318071
 2024              	 .cfi_endproc
 2025              	.LFE631:
 2027              	 .section .text.canUpdateVTX,"ax",%progbits
 2028              	 .align 2
 2029              	 .thumb
 2030              	 .thumb_func
 2032              	canUpdateVTX:
 2033              	.LFB632:
 471:../cleanflight/src/main/fc/fc_core.c **** #endif
 472:../cleanflight/src/main/fc/fc_core.c **** 
 473:../cleanflight/src/main/fc/fc_core.c **** #ifdef USE_VTX_CONTROL
 474:../cleanflight/src/main/fc/fc_core.c **** static bool canUpdateVTX(void)
 475:../cleanflight/src/main/fc/fc_core.c **** {
 2034              	 .loc 13 475 0
 2035              	 .cfi_startproc
 2036              	 
 2037              	 
 2038              	 
 2039 0000 80B4     	 push {r7}
 2040              	.LCFI96:
 2041              	 .cfi_def_cfa_offset 4
 2042              	 .cfi_offset 7,-4
 2043 0002 00AF     	 add r7,sp,#0
 2044              	.LCFI97:
 2045              	 .cfi_def_cfa_register 7
 476:../cleanflight/src/main/fc/fc_core.c **** #ifdef USE_VTX_RTC6705
 477:../cleanflight/src/main/fc/fc_core.c ****     return vtxRTC6705CanUpdate();
 478:../cleanflight/src/main/fc/fc_core.c **** #endif
 479:../cleanflight/src/main/fc/fc_core.c ****     return true;
 2046              	 .loc 13 479 0
 2047 0004 0123     	 movs r3,#1
 480:../cleanflight/src/main/fc/fc_core.c **** }
 2048              	 .loc 13 480 0
 2049 0006 1846     	 mov r0,r3
 2050 0008 BD46     	 mov sp,r7
 2051              	.LCFI98:
 2052              	 .cfi_def_cfa_register 13
 2053              	 
 2054 000a 5DF8047B 	 ldr r7,[sp],#4
 2055              	.LCFI99:
 2056              	 .cfi_restore 7
 2057              	 .cfi_def_cfa_offset 0
 2058 000e 7047     	 bx lr
 2059              	 .cfi_endproc
 2060              	.LFE632:
 2062              	 .section .text.areSticksActive,"ax",%progbits
 2063              	 .align 2
 2064              	 .global areSticksActive
 2065              	 .thumb
 2066              	 .thumb_func
 2068              	areSticksActive:
 2069              	.LFB633:
 481:../cleanflight/src/main/fc/fc_core.c **** #endif
 482:../cleanflight/src/main/fc/fc_core.c **** 
 483:../cleanflight/src/main/fc/fc_core.c **** #ifdef USE_RUNAWAY_TAKEOFF
 484:../cleanflight/src/main/fc/fc_core.c **** // determine if the R/P/Y stick deflection exceeds the specified limit - integer math is good enoug
 485:../cleanflight/src/main/fc/fc_core.c **** bool areSticksActive(uint8_t stickPercentLimit)
 486:../cleanflight/src/main/fc/fc_core.c **** {
 2070              	 .loc 13 486 0
 2071              	 .cfi_startproc
 2072              	 
 2073              	 
 2074 0000 90B5     	 push {r4,r7,lr}
 2075              	.LCFI100:
 2076              	 .cfi_def_cfa_offset 12
 2077              	 .cfi_offset 4,-12
 2078              	 .cfi_offset 7,-8
 2079              	 .cfi_offset 14,-4
 2080 0002 85B0     	 sub sp,sp,#20
 2081              	.LCFI101:
 2082              	 .cfi_def_cfa_offset 32
 2083 0004 00AF     	 add r7,sp,#0
 2084              	.LCFI102:
 2085              	 .cfi_def_cfa_register 7
 2086 0006 0346     	 mov r3,r0
 2087 0008 FB71     	 strb r3,[r7,#7]
 2088              	.LBB7:
 487:../cleanflight/src/main/fc/fc_core.c ****     for (int axis = FD_ROLL; axis <= FD_YAW; axis ++) {
 2089              	 .loc 13 487 0
 2090 000a 0023     	 movs r3,#0
 2091 000c FB60     	 str r3,[r7,#12]
 2092 000e 83E0     	 b .L154
 2093              	.L163:
 2094              	.LBB8:
 488:../cleanflight/src/main/fc/fc_core.c ****         const uint8_t deadband = axis == FD_YAW ? rcControlsConfig()->yaw_deadband : rcControlsConf
 2095              	 .loc 13 488 0
 2096 0010 FB68     	 ldr r3,[r7,#12]
 2097 0012 022B     	 cmp r3,#2
 2098 0014 04D1     	 bne .L155
 2099              	 .loc 13 488 0 is_stmt 0 discriminator 1
 2100 0016 FFF7FEFF 	 bl rcControlsConfig
 2101 001a 0346     	 mov r3,r0
 2102 001c 5B78     	 ldrb r3,[r3,#1]
 2103 001e 03E0     	 b .L156
 2104              	.L155:
 2105              	 .loc 13 488 0 discriminator 2
 2106 0020 FFF7FEFF 	 bl rcControlsConfig
 2107 0024 0346     	 mov r3,r0
 2108 0026 1B78     	 ldrb r3,[r3]
 2109              	.L156:
 2110              	 .loc 13 488 0 discriminator 4
 2111 0028 BB72     	 strb r3,[r7,#10]
 489:../cleanflight/src/main/fc/fc_core.c ****         uint8_t stickPercent = 0;
 2112              	 .loc 13 489 0 is_stmt 1 discriminator 4
 2113 002a 0023     	 movs r3,#0
 2114 002c FB72     	 strb r3,[r7,#11]
 490:../cleanflight/src/main/fc/fc_core.c ****         if ((rcData[axis] >= PWM_RANGE_MAX) || (rcData[axis] <= PWM_RANGE_MIN)) {
 2115              	 .loc 13 490 0 discriminator 4
 2116 002e 3F4A     	 ldr r2,.L164
 2117 0030 FB68     	 ldr r3,[r7,#12]
 2118 0032 32F81330 	 ldrh r3,[r2,r3,lsl#1]
 2119 0036 1BB2     	 sxth r3,r3
 2120 0038 B3F5FA6F 	 cmp r3,#2000
 2121 003c 07DA     	 bge .L157
 2122              	 .loc 13 490 0 is_stmt 0 discriminator 1
 2123 003e 3B4A     	 ldr r2,.L164
 2124 0040 FB68     	 ldr r3,[r7,#12]
 2125 0042 32F81330 	 ldrh r3,[r2,r3,lsl#1]
 2126 0046 1BB2     	 sxth r3,r3
 2127 0048 B3F57A7F 	 cmp r3,#1000
 2128 004c 02DC     	 bgt .L158
 2129              	.L157:
 491:../cleanflight/src/main/fc/fc_core.c ****             stickPercent = 100;
 2130              	 .loc 13 491 0 is_stmt 1
 2131 004e 6423     	 movs r3,#100
 2132 0050 FB72     	 strb r3,[r7,#11]
 2133 0052 58E0     	 b .L159
 2134              	.L158:
 492:../cleanflight/src/main/fc/fc_core.c ****         } else {
 493:../cleanflight/src/main/fc/fc_core.c ****             if (rcData[axis] > (rxConfig()->midrc + deadband)) {
 2135              	 .loc 13 493 0
 2136 0054 354A     	 ldr r2,.L164
 2137 0056 FB68     	 ldr r3,[r7,#12]
 2138 0058 32F81330 	 ldrh r3,[r2,r3,lsl#1]
 2139 005c 1CB2     	 sxth r4,r3
 2140 005e FFF7FEFF 	 bl rxConfig
 2141 0062 0346     	 mov r3,r0
 2142 0064 5B8A     	 ldrh r3,[r3,#18]
 2143 0066 9BB2     	 uxth r3,r3
 2144 0068 1A46     	 mov r2,r3
 2145 006a BB7A     	 ldrb r3,[r7,#10]
 2146 006c 1344     	 add r3,r3,r2
 2147 006e 9C42     	 cmp r4,r3
 2148 0070 1CDD     	 ble .L160
 494:../cleanflight/src/main/fc/fc_core.c ****                 stickPercent = ((rcData[axis] - rxConfig()->midrc - deadband) * 100) / (PWM_RANGE_M
 2149              	 .loc 13 494 0
 2150 0072 2E4A     	 ldr r2,.L164
 2151 0074 FB68     	 ldr r3,[r7,#12]
 2152 0076 32F81330 	 ldrh r3,[r2,r3,lsl#1]
 2153 007a 1CB2     	 sxth r4,r3
 2154 007c FFF7FEFF 	 bl rxConfig
 2155 0080 0346     	 mov r3,r0
 2156 0082 5B8A     	 ldrh r3,[r3,#18]
 2157 0084 9BB2     	 uxth r3,r3
 2158 0086 E21A     	 subs r2,r4,r3
 2159 0088 BB7A     	 ldrb r3,[r7,#10]
 2160 008a D31A     	 subs r3,r2,r3
 2161 008c 6422     	 movs r2,#100
 2162 008e 02FB03F4 	 mul r4,r2,r3
 2163 0092 FFF7FEFF 	 bl rxConfig
 2164 0096 0346     	 mov r3,r0
 2165 0098 5B8A     	 ldrh r3,[r3,#18]
 2166 009a 9BB2     	 uxth r3,r3
 2167 009c C3F5FA62 	 rsb r2,r3,#2000
 2168 00a0 BB7A     	 ldrb r3,[r7,#10]
 2169 00a2 D31A     	 subs r3,r2,r3
 2170 00a4 94FBF3F3 	 sdiv r3,r4,r3
 2171 00a8 FB72     	 strb r3,[r7,#11]
 2172 00aa 2CE0     	 b .L159
 2173              	.L160:
 495:../cleanflight/src/main/fc/fc_core.c ****             } else if (rcData[axis] < (rxConfig()->midrc - deadband)) {
 2174              	 .loc 13 495 0
 2175 00ac 1F4A     	 ldr r2,.L164
 2176 00ae FB68     	 ldr r3,[r7,#12]
 2177 00b0 32F81330 	 ldrh r3,[r2,r3,lsl#1]
 2178 00b4 1CB2     	 sxth r4,r3
 2179 00b6 FFF7FEFF 	 bl rxConfig
 2180 00ba 0346     	 mov r3,r0
 2181 00bc 5B8A     	 ldrh r3,[r3,#18]
 2182 00be 9BB2     	 uxth r3,r3
 2183 00c0 1A46     	 mov r2,r3
 2184 00c2 BB7A     	 ldrb r3,[r7,#10]
 2185 00c4 D31A     	 subs r3,r2,r3
 2186 00c6 9C42     	 cmp r4,r3
 2187 00c8 1DDA     	 bge .L159
 496:../cleanflight/src/main/fc/fc_core.c ****                 stickPercent = ((rxConfig()->midrc - deadband - rcData[axis]) * 100) / (rxConfig()-
 2188              	 .loc 13 496 0
 2189 00ca FFF7FEFF 	 bl rxConfig
 2190 00ce 0346     	 mov r3,r0
 2191 00d0 5B8A     	 ldrh r3,[r3,#18]
 2192 00d2 9BB2     	 uxth r3,r3
 2193 00d4 1A46     	 mov r2,r3
 2194 00d6 BB7A     	 ldrb r3,[r7,#10]
 2195 00d8 D21A     	 subs r2,r2,r3
 2196 00da 1449     	 ldr r1,.L164
 2197 00dc FB68     	 ldr r3,[r7,#12]
 2198 00de 31F81330 	 ldrh r3,[r1,r3,lsl#1]
 2199 00e2 1BB2     	 sxth r3,r3
 2200 00e4 D31A     	 subs r3,r2,r3
 2201 00e6 6422     	 movs r2,#100
 2202 00e8 02FB03F4 	 mul r4,r2,r3
 2203 00ec FFF7FEFF 	 bl rxConfig
 2204 00f0 0346     	 mov r3,r0
 2205 00f2 5B8A     	 ldrh r3,[r3,#18]
 2206 00f4 9BB2     	 uxth r3,r3
 2207 00f6 1A46     	 mov r2,r3
 2208 00f8 BB7A     	 ldrb r3,[r7,#10]
 2209 00fa D31A     	 subs r3,r2,r3
 2210 00fc A3F57A73 	 sub r3,r3,#1000
 2211 0100 94FBF3F3 	 sdiv r3,r4,r3
 2212 0104 FB72     	 strb r3,[r7,#11]
 2213              	.L159:
 497:../cleanflight/src/main/fc/fc_core.c ****             }
 498:../cleanflight/src/main/fc/fc_core.c ****         }
 499:../cleanflight/src/main/fc/fc_core.c ****         if (stickPercent >= stickPercentLimit) {
 2214              	 .loc 13 499 0
 2215 0106 FA7A     	 ldrb r2,[r7,#11]
 2216 0108 FB79     	 ldrb r3,[r7,#7]
 2217 010a 9A42     	 cmp r2,r3
 2218 010c 01D3     	 bcc .L161
 500:../cleanflight/src/main/fc/fc_core.c ****             return true;
 2219              	 .loc 13 500 0
 2220 010e 0123     	 movs r3,#1
 2221 0110 07E0     	 b .L162
 2222              	.L161:
 2223              	.LBE8:
 487:../cleanflight/src/main/fc/fc_core.c ****         const uint8_t deadband = axis == FD_YAW ? rcControlsConfig()->yaw_deadband : rcControlsConf
 2224              	 .loc 13 487 0 discriminator 2
 2225 0112 FB68     	 ldr r3,[r7,#12]
 2226 0114 0133     	 adds r3,r3,#1
 2227 0116 FB60     	 str r3,[r7,#12]
 2228              	.L154:
 487:../cleanflight/src/main/fc/fc_core.c ****         const uint8_t deadband = axis == FD_YAW ? rcControlsConfig()->yaw_deadband : rcControlsConf
 2229              	 .loc 13 487 0 is_stmt 0 discriminator 1
 2230 0118 FB68     	 ldr r3,[r7,#12]
 2231 011a 022B     	 cmp r3,#2
 2232 011c 7FF778AF 	 ble .L163
 2233              	.LBE7:
 501:../cleanflight/src/main/fc/fc_core.c ****         }
 502:../cleanflight/src/main/fc/fc_core.c ****     }
 503:../cleanflight/src/main/fc/fc_core.c ****     return false;
 2234              	 .loc 13 503 0 is_stmt 1
 2235 0120 0023     	 movs r3,#0
 2236              	.L162:
 504:../cleanflight/src/main/fc/fc_core.c **** }
 2237              	 .loc 13 504 0
 2238 0122 1846     	 mov r0,r3
 2239 0124 1437     	 adds r7,r7,#20
 2240              	.LCFI103:
 2241              	 .cfi_def_cfa_offset 12
 2242 0126 BD46     	 mov sp,r7
 2243              	.LCFI104:
 2244              	 .cfi_def_cfa_register 13
 2245              	 
 2246 0128 90BD     	 pop {r4,r7,pc}
 2247              	.L165:
 2248 012a 00BF     	 .align 2
 2249              	.L164:
 2250 012c 00000000 	 .word rcData
 2251              	 .cfi_endproc
 2252              	.LFE633:
 2254              	 .section .text.runawayTakeoffTemporaryDisable,"ax",%progbits
 2255              	 .align 2
 2256              	 .global runawayTakeoffTemporaryDisable
 2257              	 .thumb
 2258              	 .thumb_func
 2260              	runawayTakeoffTemporaryDisable:
 2261              	.LFB634:
 505:../cleanflight/src/main/fc/fc_core.c **** 
 506:../cleanflight/src/main/fc/fc_core.c **** 
 507:../cleanflight/src/main/fc/fc_core.c **** // allow temporarily disabling runaway takeoff prevention if we are connected
 508:../cleanflight/src/main/fc/fc_core.c **** // to the configurator and the ARMING_DISABLED_MSP flag is cleared.
 509:../cleanflight/src/main/fc/fc_core.c **** void runawayTakeoffTemporaryDisable(uint8_t disableFlag)
 510:../cleanflight/src/main/fc/fc_core.c **** {
 2262              	 .loc 13 510 0
 2263              	 .cfi_startproc
 2264              	 
 2265              	 
 2266              	 
 2267 0000 80B4     	 push {r7}
 2268              	.LCFI105:
 2269              	 .cfi_def_cfa_offset 4
 2270              	 .cfi_offset 7,-4
 2271 0002 83B0     	 sub sp,sp,#12
 2272              	.LCFI106:
 2273              	 .cfi_def_cfa_offset 16
 2274 0004 00AF     	 add r7,sp,#0
 2275              	.LCFI107:
 2276              	 .cfi_def_cfa_register 7
 2277 0006 0346     	 mov r3,r0
 2278 0008 FB71     	 strb r3,[r7,#7]
 511:../cleanflight/src/main/fc/fc_core.c ****     runawayTakeoffTemporarilyDisabled = disableFlag;
 2279              	 .loc 13 511 0
 2280 000a FB79     	 ldrb r3,[r7,#7]
 2281 000c 002B     	 cmp r3,#0
 2282 000e 14BF     	 ite ne
 2283 0010 0123     	 movne r3,#1
 2284 0012 0023     	 moveq r3,#0
 2285 0014 DAB2     	 uxtb r2,r3
 2286 0016 034B     	 ldr r3,.L167
 2287 0018 1A70     	 strb r2,[r3]
 512:../cleanflight/src/main/fc/fc_core.c **** }
 2288              	 .loc 13 512 0
 2289 001a 0C37     	 adds r7,r7,#12
 2290              	.LCFI108:
 2291              	 .cfi_def_cfa_offset 4
 2292 001c BD46     	 mov sp,r7
 2293              	.LCFI109:
 2294              	 .cfi_def_cfa_register 13
 2295              	 
 2296 001e 5DF8047B 	 ldr r7,[sp],#4
 2297              	.LCFI110:
 2298              	 .cfi_restore 7
 2299              	 .cfi_def_cfa_offset 0
 2300 0022 7047     	 bx lr
 2301              	.L168:
 2302              	 .align 2
 2303              	.L167:
 2304 0024 00000000 	 .word runawayTakeoffTemporarilyDisabled
 2305              	 .cfi_endproc
 2306              	.LFE634:
 2308              	 .section .text.calculateThrottlePercent,"ax",%progbits
 2309              	 .align 2
 2310              	 .global calculateThrottlePercent
 2311              	 .thumb
 2312              	 .thumb_func
 2314              	calculateThrottlePercent:
 2315              	.LFB635:
 513:../cleanflight/src/main/fc/fc_core.c **** #endif
 514:../cleanflight/src/main/fc/fc_core.c **** 
 515:../cleanflight/src/main/fc/fc_core.c **** 
 516:../cleanflight/src/main/fc/fc_core.c **** // calculate the throttle stick percent - integer math is good enough here.
 517:../cleanflight/src/main/fc/fc_core.c **** uint8_t calculateThrottlePercent(void)
 518:../cleanflight/src/main/fc/fc_core.c **** {
 2316              	 .loc 13 518 0
 2317              	 .cfi_startproc
 2318              	 
 2319              	 
 2320 0000 B0B5     	 push {r4,r5,r7,lr}
 2321              	.LCFI111:
 2322              	 .cfi_def_cfa_offset 16
 2323              	 .cfi_offset 4,-16
 2324              	 .cfi_offset 5,-12
 2325              	 .cfi_offset 7,-8
 2326              	 .cfi_offset 14,-4
 2327 0002 82B0     	 sub sp,sp,#8
 2328              	.LCFI112:
 2329              	 .cfi_def_cfa_offset 24
 2330 0004 00AF     	 add r7,sp,#0
 2331              	.LCFI113:
 2332              	 .cfi_def_cfa_register 7
 519:../cleanflight/src/main/fc/fc_core.c ****     uint8_t ret = 0;
 2333              	 .loc 13 519 0
 2334 0006 0023     	 movs r3,#0
 2335 0008 FB71     	 strb r3,[r7,#7]
 520:../cleanflight/src/main/fc/fc_core.c ****     if (feature(FEATURE_3D)
 2336              	 .loc 13 520 0
 2337 000a 4FF48050 	 mov r0,#4096
 2338 000e FFF7FEFF 	 bl feature
 2339 0012 0346     	 mov r3,r0
 2340 0014 002B     	 cmp r3,#0
 2341 0016 00F08980 	 beq .L170
 521:../cleanflight/src/main/fc/fc_core.c ****         && !IS_RC_MODE_ACTIVE(BOX3D)
 2342              	 .loc 13 521 0
 2343 001a 1820     	 movs r0,#24
 2344 001c FFF7FEFF 	 bl IS_RC_MODE_ACTIVE
 2345 0020 0346     	 mov r3,r0
 2346 0022 83F00103 	 eor r3,r3,#1
 2347 0026 DBB2     	 uxtb r3,r3
 2348 0028 002B     	 cmp r3,#0
 2349 002a 7FD0     	 beq .L170
 522:../cleanflight/src/main/fc/fc_core.c ****         && !flight3DConfig()->switched_mode3d) {
 2350              	 .loc 13 522 0
 2351 002c FFF7FEFF 	 bl flight3DConfig
 2352 0030 0346     	 mov r3,r0
 2353 0032 1B7B     	 ldrb r3,[r3,#12]
 2354 0034 002B     	 cmp r3,#0
 2355 0036 79D1     	 bne .L170
 523:../cleanflight/src/main/fc/fc_core.c **** 
 524:../cleanflight/src/main/fc/fc_core.c ****         if ((rcData[THROTTLE] >= PWM_RANGE_MAX) || (rcData[THROTTLE] <= PWM_RANGE_MIN)) {
 2356              	 .loc 13 524 0
 2357 0038 4D4B     	 ldr r3,.L177
 2358 003a DB88     	 ldrh r3,[r3,#6]
 2359 003c 1BB2     	 sxth r3,r3
 2360 003e B3F5FA6F 	 cmp r3,#2000
 2361 0042 05DA     	 bge .L171
 2362              	 .loc 13 524 0 is_stmt 0 discriminator 1
 2363 0044 4A4B     	 ldr r3,.L177
 2364 0046 DB88     	 ldrh r3,[r3,#6]
 2365 0048 1BB2     	 sxth r3,r3
 2366 004a B3F57A7F 	 cmp r3,#1000
 2367 004e 02DC     	 bgt .L172
 2368              	.L171:
 525:../cleanflight/src/main/fc/fc_core.c ****             ret = 100;
 2369              	 .loc 13 525 0 is_stmt 1
 2370 0050 6423     	 movs r3,#100
 2371 0052 FB71     	 strb r3,[r7,#7]
 2372 0054 69E0     	 b .L173
 2373              	.L172:
 526:../cleanflight/src/main/fc/fc_core.c ****         } else {
 527:../cleanflight/src/main/fc/fc_core.c ****             if (rcData[THROTTLE] > (rxConfig()->midrc + flight3DConfig()->deadband3d_throttle)) {
 2374              	 .loc 13 527 0
 2375 0056 464B     	 ldr r3,.L177
 2376 0058 DB88     	 ldrh r3,[r3,#6]
 2377 005a 1CB2     	 sxth r4,r3
 2378 005c FFF7FEFF 	 bl rxConfig
 2379 0060 0346     	 mov r3,r0
 2380 0062 5B8A     	 ldrh r3,[r3,#18]
 2381 0064 9BB2     	 uxth r3,r3
 2382 0066 1D46     	 mov r5,r3
 2383 0068 FFF7FEFF 	 bl flight3DConfig
 2384 006c 0346     	 mov r3,r0
 2385 006e DB88     	 ldrh r3,[r3,#6]
 2386 0070 9BB2     	 uxth r3,r3
 2387 0072 2B44     	 add r3,r3,r5
 2388 0074 9C42     	 cmp r4,r3
 2389 0076 22DD     	 ble .L174
 528:../cleanflight/src/main/fc/fc_core.c ****                 ret = ((rcData[THROTTLE] - rxConfig()->midrc - flight3DConfig()->deadband3d_throttl
 2390              	 .loc 13 528 0
 2391 0078 3D4B     	 ldr r3,.L177
 2392 007a DB88     	 ldrh r3,[r3,#6]
 2393 007c 1CB2     	 sxth r4,r3
 2394 007e FFF7FEFF 	 bl rxConfig
 2395 0082 0346     	 mov r3,r0
 2396 0084 5B8A     	 ldrh r3,[r3,#18]
 2397 0086 9BB2     	 uxth r3,r3
 2398 0088 E41A     	 subs r4,r4,r3
 2399 008a FFF7FEFF 	 bl flight3DConfig
 2400 008e 0346     	 mov r3,r0
 2401 0090 DB88     	 ldrh r3,[r3,#6]
 2402 0092 9BB2     	 uxth r3,r3
 2403 0094 E31A     	 subs r3,r4,r3
 2404 0096 6422     	 movs r2,#100
 2405 0098 02FB03F4 	 mul r4,r2,r3
 2406 009c FFF7FEFF 	 bl rxConfig
 2407 00a0 0346     	 mov r3,r0
 2408 00a2 5B8A     	 ldrh r3,[r3,#18]
 2409 00a4 9BB2     	 uxth r3,r3
 2410 00a6 C3F5FA65 	 rsb r5,r3,#2000
 2411 00aa FFF7FEFF 	 bl flight3DConfig
 2412 00ae 0346     	 mov r3,r0
 2413 00b0 DB88     	 ldrh r3,[r3,#6]
 2414 00b2 9BB2     	 uxth r3,r3
 2415 00b4 EB1A     	 subs r3,r5,r3
 2416 00b6 94FBF3F3 	 sdiv r3,r4,r3
 2417 00ba FB71     	 strb r3,[r7,#7]
 2418 00bc 35E0     	 b .L173
 2419              	.L174:
 529:../cleanflight/src/main/fc/fc_core.c ****             } else if (rcData[THROTTLE] < (rxConfig()->midrc - flight3DConfig()->deadband3d_throttl
 2420              	 .loc 13 529 0
 2421 00be 2C4B     	 ldr r3,.L177
 2422 00c0 DB88     	 ldrh r3,[r3,#6]
 2423 00c2 1CB2     	 sxth r4,r3
 2424 00c4 FFF7FEFF 	 bl rxConfig
 2425 00c8 0346     	 mov r3,r0
 2426 00ca 5B8A     	 ldrh r3,[r3,#18]
 2427 00cc 9BB2     	 uxth r3,r3
 2428 00ce 1D46     	 mov r5,r3
 2429 00d0 FFF7FEFF 	 bl flight3DConfig
 2430 00d4 0346     	 mov r3,r0
 2431 00d6 DB88     	 ldrh r3,[r3,#6]
 2432 00d8 9BB2     	 uxth r3,r3
 2433 00da EB1A     	 subs r3,r5,r3
 2434 00dc 9C42     	 cmp r4,r3
 2435 00de 24DA     	 bge .L173
 530:../cleanflight/src/main/fc/fc_core.c ****                 ret = ((rxConfig()->midrc - flight3DConfig()->deadband3d_throttle - rcData[THROTTLE
 2436              	 .loc 13 530 0
 2437 00e0 FFF7FEFF 	 bl rxConfig
 2438 00e4 0346     	 mov r3,r0
 2439 00e6 5B8A     	 ldrh r3,[r3,#18]
 2440 00e8 9BB2     	 uxth r3,r3
 2441 00ea 1C46     	 mov r4,r3
 2442 00ec FFF7FEFF 	 bl flight3DConfig
 2443 00f0 0346     	 mov r3,r0
 2444 00f2 DB88     	 ldrh r3,[r3,#6]
 2445 00f4 9BB2     	 uxth r3,r3
 2446 00f6 E21A     	 subs r2,r4,r3
 2447 00f8 1D4B     	 ldr r3,.L177
 2448 00fa DB88     	 ldrh r3,[r3,#6]
 2449 00fc 1BB2     	 sxth r3,r3
 2450 00fe D31A     	 subs r3,r2,r3
 2451 0100 6422     	 movs r2,#100
 2452 0102 02FB03F4 	 mul r4,r2,r3
 2453 0106 FFF7FEFF 	 bl rxConfig
 2454 010a 0346     	 mov r3,r0
 2455 010c 5B8A     	 ldrh r3,[r3,#18]
 2456 010e 9BB2     	 uxth r3,r3
 2457 0110 1D46     	 mov r5,r3
 2458 0112 FFF7FEFF 	 bl flight3DConfig
 2459 0116 0346     	 mov r3,r0
 2460 0118 DB88     	 ldrh r3,[r3,#6]
 2461 011a 9BB2     	 uxth r3,r3
 2462 011c EB1A     	 subs r3,r5,r3
 2463 011e A3F57A73 	 sub r3,r3,#1000
 2464 0122 94FBF3F3 	 sdiv r3,r4,r3
 2465 0126 FB71     	 strb r3,[r7,#7]
 524:../cleanflight/src/main/fc/fc_core.c ****             ret = 100;
 2466              	 .loc 13 524 0
 2467 0128 1CE0     	 b .L175
 2468              	.L173:
 2469 012a 1BE0     	 b .L175
 2470              	.L170:
 531:../cleanflight/src/main/fc/fc_core.c ****             }
 532:../cleanflight/src/main/fc/fc_core.c ****         }
 533:../cleanflight/src/main/fc/fc_core.c ****     } else {
 534:../cleanflight/src/main/fc/fc_core.c ****         ret = constrain(((rcData[THROTTLE] - rxConfig()->mincheck) * 100) / (PWM_RANGE_MAX - rxConf
 2471              	 .loc 13 534 0
 2472 012c 104B     	 ldr r3,.L177
 2473 012e DB88     	 ldrh r3,[r3,#6]
 2474 0130 1CB2     	 sxth r4,r3
 2475 0132 FFF7FEFF 	 bl rxConfig
 2476 0136 0346     	 mov r3,r0
 2477 0138 9B8A     	 ldrh r3,[r3,#20]
 2478 013a 9BB2     	 uxth r3,r3
 2479 013c E31A     	 subs r3,r4,r3
 2480 013e 6422     	 movs r2,#100
 2481 0140 02FB03F4 	 mul r4,r2,r3
 2482 0144 FFF7FEFF 	 bl rxConfig
 2483 0148 0346     	 mov r3,r0
 2484 014a 9B8A     	 ldrh r3,[r3,#20]
 2485 014c 9BB2     	 uxth r3,r3
 2486 014e C3F5FA63 	 rsb r3,r3,#2000
 2487 0152 94FBF3F3 	 sdiv r3,r4,r3
 2488 0156 1846     	 mov r0,r3
 2489 0158 0021     	 movs r1,#0
 2490 015a 6422     	 movs r2,#100
 2491 015c FFF7FEFF 	 bl constrain
 2492 0160 0346     	 mov r3,r0
 2493 0162 FB71     	 strb r3,[r7,#7]
 2494              	.L175:
 535:../cleanflight/src/main/fc/fc_core.c ****     }
 536:../cleanflight/src/main/fc/fc_core.c ****     return ret;
 2495              	 .loc 13 536 0
 2496 0164 FB79     	 ldrb r3,[r7,#7]
