   1              	 .syntax unified
   2              	 .cpu cortex-m4
   3              	 .eabi_attribute 27,3
   4              	 .fpu fpv4-sp-d16
   5              	 .eabi_attribute 20,1
   6              	 .eabi_attribute 21,1
   7              	 .eabi_attribute 23,3
   8              	 .eabi_attribute 24,1
   9              	 .eabi_attribute 25,1
  10              	 .eabi_attribute 26,1
  11              	 .eabi_attribute 30,6
  12              	 .eabi_attribute 34,1
  13              	 .eabi_attribute 18,4
  14              	 .thumb
  15              	 .file "bus_spi_config.c"
  16              	 .text
  17              	.Ltext0:
  18              	 .cfi_sections .debug_frame
  19              	 .section .text.spiPreinitIPUConfig,"ax",%progbits
  20              	 .align 2
  21              	 .thumb
  22              	 .thumb_func
  24              	spiPreinitIPUConfig:
  25              	.LFB527:
  26              	 .file 1 "D:/XMC/Projekte/Temp/CF_XMC4700/cleanflight/src/main/pg/bus_spi.h"
   1:D:/XMC/Projekte/Temp/CF_XMC4700/cleanflight/src/main/pg\bus_spi.h **** /*
   2:D:/XMC/Projekte/Temp/CF_XMC4700/cleanflight/src/main/pg\bus_spi.h ****  * This file is part of Cleanflight and Betaflight.
   3:D:/XMC/Projekte/Temp/CF_XMC4700/cleanflight/src/main/pg\bus_spi.h ****  *
   4:D:/XMC/Projekte/Temp/CF_XMC4700/cleanflight/src/main/pg\bus_spi.h ****  * Cleanflight and Betaflight are free software. You can redistribute
   5:D:/XMC/Projekte/Temp/CF_XMC4700/cleanflight/src/main/pg\bus_spi.h ****  * this software and/or modify this software under the terms of the
   6:D:/XMC/Projekte/Temp/CF_XMC4700/cleanflight/src/main/pg\bus_spi.h ****  * GNU General Public License as published by the Free Software
   7:D:/XMC/Projekte/Temp/CF_XMC4700/cleanflight/src/main/pg\bus_spi.h ****  * Foundation, either version 3 of the License, or (at your option)
   8:D:/XMC/Projekte/Temp/CF_XMC4700/cleanflight/src/main/pg\bus_spi.h ****  * any later version.
   9:D:/XMC/Projekte/Temp/CF_XMC4700/cleanflight/src/main/pg\bus_spi.h ****  *
  10:D:/XMC/Projekte/Temp/CF_XMC4700/cleanflight/src/main/pg\bus_spi.h ****  * Cleanflight and Betaflight are distributed in the hope that they
  11:D:/XMC/Projekte/Temp/CF_XMC4700/cleanflight/src/main/pg\bus_spi.h ****  * will be useful, but WITHOUT ANY WARRANTY; without even the implied
  12:D:/XMC/Projekte/Temp/CF_XMC4700/cleanflight/src/main/pg\bus_spi.h ****  * warranty of MERCHANTABILITY or FITNESS FOR A PARTICULAR PURPOSE.
  13:D:/XMC/Projekte/Temp/CF_XMC4700/cleanflight/src/main/pg\bus_spi.h ****  * See the GNU General Public License for more details.
  14:D:/XMC/Projekte/Temp/CF_XMC4700/cleanflight/src/main/pg\bus_spi.h ****  *
  15:D:/XMC/Projekte/Temp/CF_XMC4700/cleanflight/src/main/pg\bus_spi.h ****  * You should have received a copy of the GNU General Public License
  16:D:/XMC/Projekte/Temp/CF_XMC4700/cleanflight/src/main/pg\bus_spi.h ****  * along with this software.
  17:D:/XMC/Projekte/Temp/CF_XMC4700/cleanflight/src/main/pg\bus_spi.h ****  *
  18:D:/XMC/Projekte/Temp/CF_XMC4700/cleanflight/src/main/pg\bus_spi.h ****  * If not, see <http://www.gnu.org/licenses/>.
  19:D:/XMC/Projekte/Temp/CF_XMC4700/cleanflight/src/main/pg\bus_spi.h ****  */
  20:D:/XMC/Projekte/Temp/CF_XMC4700/cleanflight/src/main/pg\bus_spi.h **** 
  21:D:/XMC/Projekte/Temp/CF_XMC4700/cleanflight/src/main/pg\bus_spi.h **** #pragma once
  22:D:/XMC/Projekte/Temp/CF_XMC4700/cleanflight/src/main/pg\bus_spi.h **** 
  23:D:/XMC/Projekte/Temp/CF_XMC4700/cleanflight/src/main/pg\bus_spi.h **** #include "drivers/bus_spi.h"
  24:D:/XMC/Projekte/Temp/CF_XMC4700/cleanflight/src/main/pg\bus_spi.h **** #include "drivers/io_types.h"
  25:D:/XMC/Projekte/Temp/CF_XMC4700/cleanflight/src/main/pg\bus_spi.h **** 
  26:D:/XMC/Projekte/Temp/CF_XMC4700/cleanflight/src/main/pg\bus_spi.h **** #include "pg/pg.h"
  27:D:/XMC/Projekte/Temp/CF_XMC4700/cleanflight/src/main/pg\bus_spi.h **** 
  28:D:/XMC/Projekte/Temp/CF_XMC4700/cleanflight/src/main/pg\bus_spi.h **** typedef struct spiPinConfig_s {
  29:D:/XMC/Projekte/Temp/CF_XMC4700/cleanflight/src/main/pg\bus_spi.h ****     ioTag_t ioTagSck;
  30:D:/XMC/Projekte/Temp/CF_XMC4700/cleanflight/src/main/pg\bus_spi.h ****     ioTag_t ioTagMiso;
  31:D:/XMC/Projekte/Temp/CF_XMC4700/cleanflight/src/main/pg\bus_spi.h ****     ioTag_t ioTagMosi;
  32:D:/XMC/Projekte/Temp/CF_XMC4700/cleanflight/src/main/pg\bus_spi.h **** #ifdef XMC4700_F100x2048
  33:D:/XMC/Projekte/Temp/CF_XMC4700/cleanflight/src/main/pg\bus_spi.h ****     ioTag_t ioTagCs;
  34:D:/XMC/Projekte/Temp/CF_XMC4700/cleanflight/src/main/pg\bus_spi.h **** #endif
  35:D:/XMC/Projekte/Temp/CF_XMC4700/cleanflight/src/main/pg\bus_spi.h **** } spiPinConfig_t;
  36:D:/XMC/Projekte/Temp/CF_XMC4700/cleanflight/src/main/pg\bus_spi.h **** 
  37:D:/XMC/Projekte/Temp/CF_XMC4700/cleanflight/src/main/pg\bus_spi.h **** PG_DECLARE_ARRAY(spiPinConfig_t, SPIDEV_COUNT, spiPinConfig);
  38:D:/XMC/Projekte/Temp/CF_XMC4700/cleanflight/src/main/pg\bus_spi.h **** 
  39:D:/XMC/Projekte/Temp/CF_XMC4700/cleanflight/src/main/pg\bus_spi.h **** // Place holder for CS pins for pre-initialization
  40:D:/XMC/Projekte/Temp/CF_XMC4700/cleanflight/src/main/pg\bus_spi.h **** 
  41:D:/XMC/Projekte/Temp/CF_XMC4700/cleanflight/src/main/pg\bus_spi.h **** typedef struct spiCs_s {
  42:D:/XMC/Projekte/Temp/CF_XMC4700/cleanflight/src/main/pg\bus_spi.h ****     ioTag_t csnTag;
  43:D:/XMC/Projekte/Temp/CF_XMC4700/cleanflight/src/main/pg\bus_spi.h **** } spiCs_t;
  44:D:/XMC/Projekte/Temp/CF_XMC4700/cleanflight/src/main/pg\bus_spi.h **** 
  45:D:/XMC/Projekte/Temp/CF_XMC4700/cleanflight/src/main/pg\bus_spi.h **** PG_DECLARE_ARRAY(spiCs_t, SPI_PREINIT_IPU_COUNT, spiPreinitIPUConfig);
  27              	 .loc 1 45 0
  28              	 .cfi_startproc
  29              	 
  30              	 
  31              	 
  32 0000 80B4     	 push {r7}
  33              	.LCFI0:
  34              	 .cfi_def_cfa_offset 4
  35              	 .cfi_offset 7,-4
  36 0002 83B0     	 sub sp,sp,#12
  37              	.LCFI1:
  38              	 .cfi_def_cfa_offset 16
  39 0004 00AF     	 add r7,sp,#0
  40              	.LCFI2:
  41              	 .cfi_def_cfa_register 7
  42 0006 7860     	 str r0,[r7,#4]
  43              	 .loc 1 45 0
  44 0008 7B68     	 ldr r3,[r7,#4]
  45 000a 044A     	 ldr r2,.L3
  46 000c 1344     	 add r3,r3,r2
  47 000e 1846     	 mov r0,r3
  48 0010 0C37     	 adds r7,r7,#12
  49              	.LCFI3:
  50              	 .cfi_def_cfa_offset 4
  51 0012 BD46     	 mov sp,r7
  52              	.LCFI4:
  53              	 .cfi_def_cfa_register 13
  54              	 
  55 0014 5DF8047B 	 ldr r7,[sp],#4
  56              	.LCFI5:
  57              	 .cfi_restore 7
  58              	 .cfi_def_cfa_offset 0
  59 0018 7047     	 bx lr
  60              	.L4:
  61 001a 00BF     	 .align 2
  62              	.L3:
  63 001c 00000000 	 .word spiPreinitIPUConfig_SystemArray
  64              	 .cfi_endproc
  65              	.LFE527:
  67              	 .section .text.spiPreinitOPUConfig,"ax",%progbits
  68              	 .align 2
  69              	 .thumb
  70              	 .thumb_func
  72              	spiPreinitOPUConfig:
  73              	.LFB530:
  46:D:/XMC/Projekte/Temp/CF_XMC4700/cleanflight/src/main/pg\bus_spi.h **** PG_DECLARE_ARRAY(spiCs_t, SPI_PREINIT_OPU_COUNT, spiPreinitOPUConfig);
  74              	 .loc 1 46 0
  75              	 .cfi_startproc
  76              	 
  77              	 
  78              	 
  79 0000 80B4     	 push {r7}
  80              	.LCFI6:
  81              	 .cfi_def_cfa_offset 4
  82              	 .cfi_offset 7,-4
  83 0002 83B0     	 sub sp,sp,#12
  84              	.LCFI7:
  85              	 .cfi_def_cfa_offset 16
  86 0004 00AF     	 add r7,sp,#0
  87              	.LCFI8:
  88              	 .cfi_def_cfa_register 7
  89 0006 7860     	 str r0,[r7,#4]
  90              	 .loc 1 46 0
  91 0008 7B68     	 ldr r3,[r7,#4]
  92 000a 044A     	 ldr r2,.L7
  93 000c 1344     	 add r3,r3,r2
  94 000e 1846     	 mov r0,r3
  95 0010 0C37     	 adds r7,r7,#12
  96              	.LCFI9:
  97              	 .cfi_def_cfa_offset 4
  98 0012 BD46     	 mov sp,r7
  99              	.LCFI10:
 100              	 .cfi_def_cfa_register 13
 101              	 
 102 0014 5DF8047B 	 ldr r7,[sp],#4
 103              	.LCFI11:
 104              	 .cfi_restore 7
 105              	 .cfi_def_cfa_offset 0
 106 0018 7047     	 bx lr
 107              	.L8:
 108 001a 00BF     	 .align 2
 109              	.L7:
 110 001c 00000000 	 .word spiPreinitOPUConfig_SystemArray
 111              	 .cfi_endproc
 112              	.LFE530:
 114              	 .section .text.spiPreInitCsIPU,"ax",%progbits
 115              	 .align 2
 116              	 .thumb
 117              	 .thumb_func
 119              	spiPreInitCsIPU:
 120              	.LFB533:
 121              	 .file 2 "../cleanflight/src/main/drivers/bus_spi_config.c"
   1:../cleanflight/src/main/drivers/bus_spi_config.c **** /*
   2:../cleanflight/src/main/drivers/bus_spi_config.c ****  * This file is part of Cleanflight and Betaflight.
   3:../cleanflight/src/main/drivers/bus_spi_config.c ****  *
   4:../cleanflight/src/main/drivers/bus_spi_config.c ****  * Cleanflight and Betaflight are free software. You can redistribute
   5:../cleanflight/src/main/drivers/bus_spi_config.c ****  * this software and/or modify this software under the terms of the
   6:../cleanflight/src/main/drivers/bus_spi_config.c ****  * GNU General Public License as published by the Free Software
   7:../cleanflight/src/main/drivers/bus_spi_config.c ****  * Foundation, either version 3 of the License, or (at your option)
   8:../cleanflight/src/main/drivers/bus_spi_config.c ****  * any later version.
   9:../cleanflight/src/main/drivers/bus_spi_config.c ****  *
  10:../cleanflight/src/main/drivers/bus_spi_config.c ****  * Cleanflight and Betaflight are distributed in the hope that they
  11:../cleanflight/src/main/drivers/bus_spi_config.c ****  * will be useful, but WITHOUT ANY WARRANTY; without even the implied
  12:../cleanflight/src/main/drivers/bus_spi_config.c ****  * warranty of MERCHANTABILITY or FITNESS FOR A PARTICULAR PURPOSE.
  13:../cleanflight/src/main/drivers/bus_spi_config.c ****  * See the GNU General Public License for more details.
  14:../cleanflight/src/main/drivers/bus_spi_config.c ****  *
  15:../cleanflight/src/main/drivers/bus_spi_config.c ****  * You should have received a copy of the GNU General Public License
  16:../cleanflight/src/main/drivers/bus_spi_config.c ****  * along with this software.
  17:../cleanflight/src/main/drivers/bus_spi_config.c ****  *
  18:../cleanflight/src/main/drivers/bus_spi_config.c ****  * If not, see <http://www.gnu.org/licenses/>.
  19:../cleanflight/src/main/drivers/bus_spi_config.c ****  */
  20:../cleanflight/src/main/drivers/bus_spi_config.c **** 
  21:../cleanflight/src/main/drivers/bus_spi_config.c **** #include <stdbool.h>
  22:../cleanflight/src/main/drivers/bus_spi_config.c **** #include <stdint.h>
  23:../cleanflight/src/main/drivers/bus_spi_config.c **** 
  24:../cleanflight/src/main/drivers/bus_spi_config.c **** #include "platform.h"
  25:../cleanflight/src/main/drivers/bus_spi_config.c **** 
  26:../cleanflight/src/main/drivers/bus_spi_config.c **** #ifdef USE_SPI
  27:../cleanflight/src/main/drivers/bus_spi_config.c **** 
  28:../cleanflight/src/main/drivers/bus_spi_config.c **** #include "drivers/bus_spi.h"
  29:../cleanflight/src/main/drivers/bus_spi_config.c **** #include "drivers/io.h"
  30:../cleanflight/src/main/drivers/bus_spi_config.c **** 
  31:../cleanflight/src/main/drivers/bus_spi_config.c **** #include "pg/bus_spi.h"
  32:../cleanflight/src/main/drivers/bus_spi_config.c **** 
  33:../cleanflight/src/main/drivers/bus_spi_config.c **** // Bring a pin for possible CS line to pull-up state in preparation for
  34:../cleanflight/src/main/drivers/bus_spi_config.c **** // sequential initialization by relevant drivers.
  35:../cleanflight/src/main/drivers/bus_spi_config.c **** 
  36:../cleanflight/src/main/drivers/bus_spi_config.c **** // There are two versions locally:
  37:../cleanflight/src/main/drivers/bus_spi_config.c **** // spiPreInitCsIPU set the pin to input with pullup (IOCFG_IPU) for safety.
  38:../cleanflight/src/main/drivers/bus_spi_config.c **** // spiPreInitCsOPU actually drive the pin for digital hi.
  39:../cleanflight/src/main/drivers/bus_spi_config.c **** //
  40:../cleanflight/src/main/drivers/bus_spi_config.c **** // The later is required for SPI slave devices on some targets, interfaced through level shifters, 
  41:../cleanflight/src/main/drivers/bus_spi_config.c **** //
  42:../cleanflight/src/main/drivers/bus_spi_config.c **** // Two ioTag_t array PGs, spiPreinitIPUConfig and spiPreinitOPUConfig are used to
  43:../cleanflight/src/main/drivers/bus_spi_config.c **** // determine pin to be IPU or OPU.
  44:../cleanflight/src/main/drivers/bus_spi_config.c **** // The IPU array is initialized with a hard coded initialization array,
  45:../cleanflight/src/main/drivers/bus_spi_config.c **** // while the OPU array is initialized from target dependent config.c.
  46:../cleanflight/src/main/drivers/bus_spi_config.c **** // With generic targets, both arrays are setup with resource commands.
  47:../cleanflight/src/main/drivers/bus_spi_config.c **** 
  48:../cleanflight/src/main/drivers/bus_spi_config.c **** static void spiPreInitCsIPU(ioTag_t iotag, int index)
  49:../cleanflight/src/main/drivers/bus_spi_config.c **** {
 122              	 .loc 2 49 0
 123              	 .cfi_startproc
 124              	 
 125              	 
 126 0000 80B5     	 push {r7,lr}
 127              	.LCFI12:
 128              	 .cfi_def_cfa_offset 8
 129              	 .cfi_offset 7,-8
 130              	 .cfi_offset 14,-4
 131 0002 84B0     	 sub sp,sp,#16
 132              	.LCFI13:
 133              	 .cfi_def_cfa_offset 24
 134 0004 00AF     	 add r7,sp,#0
 135              	.LCFI14:
 136              	 .cfi_def_cfa_register 7
 137 0006 0346     	 mov r3,r0
 138 0008 3960     	 str r1,[r7]
 139 000a FB71     	 strb r3,[r7,#7]
  50:../cleanflight/src/main/drivers/bus_spi_config.c ****     IO_t io = IOGetByTag(iotag);
 140              	 .loc 2 50 0
 141 000c FB79     	 ldrb r3,[r7,#7]
 142 000e 1846     	 mov r0,r3
 143 0010 FFF7FEFF 	 bl IOGetByTag
 144 0014 F860     	 str r0,[r7,#12]
  51:../cleanflight/src/main/drivers/bus_spi_config.c ****     if (io) {
 145              	 .loc 2 51 0
 146 0016 FB68     	 ldr r3,[r7,#12]
 147 0018 002B     	 cmp r3,#0
 148 001a 0DD0     	 beq .L9
  52:../cleanflight/src/main/drivers/bus_spi_config.c ****         IOInit(io, OWNER_SPI_PREINIT_IPU, index);
 149              	 .loc 2 52 0
 150 001c 3B68     	 ldr r3,[r7]
 151 001e DBB2     	 uxtb r3,r3
 152 0020 F868     	 ldr r0,[r7,#12]
 153 0022 3521     	 movs r1,#53
 154 0024 1A46     	 mov r2,r3
 155 0026 FFF7FEFF 	 bl IOInit
  53:../cleanflight/src/main/drivers/bus_spi_config.c ****         IOConfigGPIO(io, IOCFG_IPU);
 156              	 .loc 2 53 0
 157 002a F868     	 ldr r0,[r7,#12]
 158 002c 1021     	 movs r1,#16
 159 002e FFF7FEFF 	 bl IOConfigGPIO
  54:../cleanflight/src/main/drivers/bus_spi_config.c ****         IOHi(io);
 160              	 .loc 2 54 0
 161 0032 F868     	 ldr r0,[r7,#12]
 162 0034 FFF7FEFF 	 bl IOHi
 163              	.L9:
  55:../cleanflight/src/main/drivers/bus_spi_config.c ****     }
  56:../cleanflight/src/main/drivers/bus_spi_config.c **** }
 164              	 .loc 2 56 0
 165 0038 1037     	 adds r7,r7,#16
 166              	.LCFI15:
 167              	 .cfi_def_cfa_offset 8
 168 003a BD46     	 mov sp,r7
 169              	.LCFI16:
 170              	 .cfi_def_cfa_register 13
 171              	 
 172 003c 80BD     	 pop {r7,pc}
 173              	 .cfi_endproc
 174              	.LFE533:
 176 003e 00BF     	 .section .text.spiPreInitCsOPU,"ax",%progbits
 177              	 .align 2
 178              	 .thumb
 179              	 .thumb_func
 181              	spiPreInitCsOPU:
 182              	.LFB534:
  57:../cleanflight/src/main/drivers/bus_spi_config.c **** 
  58:../cleanflight/src/main/drivers/bus_spi_config.c **** static void spiPreInitCsOPU(ioTag_t iotag, int index)
  59:../cleanflight/src/main/drivers/bus_spi_config.c **** {
 183              	 .loc 2 59 0
 184              	 .cfi_startproc
 185              	 
 186              	 
 187 0000 80B5     	 push {r7,lr}
 188              	.LCFI17:
 189              	 .cfi_def_cfa_offset 8
 190              	 .cfi_offset 7,-8
 191              	 .cfi_offset 14,-4
 192 0002 84B0     	 sub sp,sp,#16
 193              	.LCFI18:
 194              	 .cfi_def_cfa_offset 24
 195 0004 00AF     	 add r7,sp,#0
 196              	.LCFI19:
 197              	 .cfi_def_cfa_register 7
 198 0006 0346     	 mov r3,r0
 199 0008 3960     	 str r1,[r7]
 200 000a FB71     	 strb r3,[r7,#7]
  60:../cleanflight/src/main/drivers/bus_spi_config.c ****     IO_t io = IOGetByTag(iotag);
 201              	 .loc 2 60 0
 202 000c FB79     	 ldrb r3,[r7,#7]
 203 000e 1846     	 mov r0,r3
 204 0010 FFF7FEFF 	 bl IOGetByTag
 205 0014 F860     	 str r0,[r7,#12]
  61:../cleanflight/src/main/drivers/bus_spi_config.c ****     if (io) {
 206              	 .loc 2 61 0
 207 0016 FB68     	 ldr r3,[r7,#12]
 208 0018 002B     	 cmp r3,#0
 209 001a 0DD0     	 beq .L11
  62:../cleanflight/src/main/drivers/bus_spi_config.c ****         IOInit(io, OWNER_SPI_PREINIT_OPU, index);
 210              	 .loc 2 62 0
 211 001c 3B68     	 ldr r3,[r7]
 212 001e DBB2     	 uxtb r3,r3
 213 0020 F868     	 ldr r0,[r7,#12]
 214 0022 3621     	 movs r1,#54
 215 0024 1A46     	 mov r2,r3
 216 0026 FFF7FEFF 	 bl IOInit
  63:../cleanflight/src/main/drivers/bus_spi_config.c ****         IOConfigGPIO(io, IOCFG_OUT_PP);
 217              	 .loc 2 63 0
 218 002a F868     	 ldr r0,[r7,#12]
 219 002c 8021     	 movs r1,#128
 220 002e FFF7FEFF 	 bl IOConfigGPIO
  64:../cleanflight/src/main/drivers/bus_spi_config.c ****         IOHi(io);
 221              	 .loc 2 64 0
 222 0032 F868     	 ldr r0,[r7,#12]
 223 0034 FFF7FEFF 	 bl IOHi
 224              	.L11:
  65:../cleanflight/src/main/drivers/bus_spi_config.c ****     }
  66:../cleanflight/src/main/drivers/bus_spi_config.c **** }
 225              	 .loc 2 66 0
 226 0038 1037     	 adds r7,r7,#16
 227              	.LCFI20:
 228              	 .cfi_def_cfa_offset 8
 229 003a BD46     	 mov sp,r7
 230              	.LCFI21:
 231              	 .cfi_def_cfa_register 13
 232              	 
 233 003c 80BD     	 pop {r7,pc}
 234              	 .cfi_endproc
 235              	.LFE534:
 237 003e 00BF     	 .section .text.spiPreInit,"ax",%progbits
 238              	 .align 2
 239              	 .global spiPreInit
 240              	 .thumb
 241              	 .thumb_func
 243              	spiPreInit:
 244              	.LFB535:
  67:../cleanflight/src/main/drivers/bus_spi_config.c **** 
  68:../cleanflight/src/main/drivers/bus_spi_config.c **** void spiPreInit(void)
  69:../cleanflight/src/main/drivers/bus_spi_config.c **** {
 245              	 .loc 2 69 0
 246              	 .cfi_startproc
 247              	 
 248              	 
 249 0000 80B5     	 push {r7,lr}
 250              	.LCFI22:
 251              	 .cfi_def_cfa_offset 8
 252              	 .cfi_offset 7,-8
 253              	 .cfi_offset 14,-4
 254 0002 82B0     	 sub sp,sp,#8
 255              	.LCFI23:
 256              	 .cfi_def_cfa_offset 16
 257 0004 00AF     	 add r7,sp,#0
 258              	.LCFI24:
 259              	 .cfi_def_cfa_register 7
 260              	.LBB2:
  70:../cleanflight/src/main/drivers/bus_spi_config.c ****     for (int i = 0 ; i < SPI_PREINIT_IPU_COUNT ; i++) {
 261              	 .loc 2 70 0
 262 0006 0023     	 movs r3,#0
 263 0008 7B60     	 str r3,[r7,#4]
 264 000a 12E0     	 b .L14
 265              	.L16:
  71:../cleanflight/src/main/drivers/bus_spi_config.c ****         if (spiPreinitIPUConfig(i)->csnTag) {
 266              	 .loc 2 71 0
 267 000c 7868     	 ldr r0,[r7,#4]
 268 000e FFF7FEFF 	 bl spiPreinitIPUConfig
 269 0012 0346     	 mov r3,r0
 270 0014 1B78     	 ldrb r3,[r3]
 271 0016 002B     	 cmp r3,#0
 272 0018 08D0     	 beq .L15
  72:../cleanflight/src/main/drivers/bus_spi_config.c ****             spiPreInitCsIPU(spiPreinitIPUConfig(i)->csnTag, i);
 273              	 .loc 2 72 0
 274 001a 7868     	 ldr r0,[r7,#4]
 275 001c FFF7FEFF 	 bl spiPreinitIPUConfig
 276 0020 0346     	 mov r3,r0
 277 0022 1B78     	 ldrb r3,[r3]
 278 0024 1846     	 mov r0,r3
 279 0026 7968     	 ldr r1,[r7,#4]
 280 0028 FFF7FEFF 	 bl spiPreInitCsIPU
 281              	.L15:
  70:../cleanflight/src/main/drivers/bus_spi_config.c ****     for (int i = 0 ; i < SPI_PREINIT_IPU_COUNT ; i++) {
 282              	 .loc 2 70 0 discriminator 2
 283 002c 7B68     	 ldr r3,[r7,#4]
 284 002e 0133     	 adds r3,r3,#1
 285 0030 7B60     	 str r3,[r7,#4]
 286              	.L14:
  70:../cleanflight/src/main/drivers/bus_spi_config.c ****     for (int i = 0 ; i < SPI_PREINIT_IPU_COUNT ; i++) {
 287              	 .loc 2 70 0 is_stmt 0 discriminator 1
 288 0032 7B68     	 ldr r3,[r7,#4]
 289 0034 0A2B     	 cmp r3,#10
 290 0036 E9DD     	 ble .L16
 291              	.LBE2:
 292              	.LBB3:
  73:../cleanflight/src/main/drivers/bus_spi_config.c ****         }
  74:../cleanflight/src/main/drivers/bus_spi_config.c ****     }
  75:../cleanflight/src/main/drivers/bus_spi_config.c **** 
  76:../cleanflight/src/main/drivers/bus_spi_config.c ****     for (int i = 0 ; i < SPI_PREINIT_OPU_COUNT ; i++) {
 293              	 .loc 2 76 0 is_stmt 1
 294 0038 0023     	 movs r3,#0
 295 003a 3B60     	 str r3,[r7]
 296 003c 12E0     	 b .L17
 297              	.L19:
  77:../cleanflight/src/main/drivers/bus_spi_config.c ****         if (spiPreinitOPUConfig(i)->csnTag) {
 298              	 .loc 2 77 0
 299 003e 3868     	 ldr r0,[r7]
 300 0040 FFF7FEFF 	 bl spiPreinitOPUConfig
 301 0044 0346     	 mov r3,r0
 302 0046 1B78     	 ldrb r3,[r3]
 303 0048 002B     	 cmp r3,#0
 304 004a 08D0     	 beq .L18
  78:../cleanflight/src/main/drivers/bus_spi_config.c ****             spiPreInitCsOPU(spiPreinitOPUConfig(i)->csnTag, i);
 305              	 .loc 2 78 0
 306 004c 3868     	 ldr r0,[r7]
 307 004e FFF7FEFF 	 bl spiPreinitOPUConfig
 308 0052 0346     	 mov r3,r0
 309 0054 1B78     	 ldrb r3,[r3]
 310 0056 1846     	 mov r0,r3
 311 0058 3968     	 ldr r1,[r7]
 312 005a FFF7FEFF 	 bl spiPreInitCsOPU
 313              	.L18:
  76:../cleanflight/src/main/drivers/bus_spi_config.c ****         if (spiPreinitOPUConfig(i)->csnTag) {
 314              	 .loc 2 76 0 discriminator 2
 315 005e 3B68     	 ldr r3,[r7]
 316 0060 0133     	 adds r3,r3,#1
 317 0062 3B60     	 str r3,[r7]
 318              	.L17:
  76:../cleanflight/src/main/drivers/bus_spi_config.c ****         if (spiPreinitOPUConfig(i)->csnTag) {
 319              	 .loc 2 76 0 is_stmt 0 discriminator 1
 320 0064 3B68     	 ldr r3,[r7]
 321 0066 012B     	 cmp r3,#1
 322 0068 E9DD     	 ble .L19
 323              	.LBE3:
  79:../cleanflight/src/main/drivers/bus_spi_config.c ****         }
  80:../cleanflight/src/main/drivers/bus_spi_config.c ****     }
  81:../cleanflight/src/main/drivers/bus_spi_config.c **** }
 324              	 .loc 2 81 0 is_stmt 1
 325 006a 0837     	 adds r7,r7,#8
 326              	.LCFI25:
 327              	 .cfi_def_cfa_offset 8
 328 006c BD46     	 mov sp,r7
 329              	.LCFI26:
 330              	 .cfi_def_cfa_register 13
 331              	 
 332 006e 80BD     	 pop {r7,pc}
 333              	 .cfi_endproc
 334              	.LFE535:
 336              	 .section .text.spiPreinitCsByIO,"ax",%progbits
 337              	 .align 2
 338              	 .global spiPreinitCsByIO
 339              	 .thumb
 340              	 .thumb_func
 342              	spiPreinitCsByIO:
 343              	.LFB536:
  82:../cleanflight/src/main/drivers/bus_spi_config.c **** 
  83:../cleanflight/src/main/drivers/bus_spi_config.c **** // Back to pre-init state
  84:../cleanflight/src/main/drivers/bus_spi_config.c **** 
  85:../cleanflight/src/main/drivers/bus_spi_config.c **** void spiPreinitCsByIO(IO_t io)
  86:../cleanflight/src/main/drivers/bus_spi_config.c **** {
 344              	 .loc 2 86 0
 345              	 .cfi_startproc
 346              	 
 347              	 
 348 0000 80B5     	 push {r7,lr}
 349              	.LCFI27:
 350              	 .cfi_def_cfa_offset 8
 351              	 .cfi_offset 7,-8
 352              	 .cfi_offset 14,-4
 353 0002 84B0     	 sub sp,sp,#16
 354              	.LCFI28:
 355              	 .cfi_def_cfa_offset 24
 356 0004 00AF     	 add r7,sp,#0
 357              	.LCFI29:
 358              	 .cfi_def_cfa_register 7
 359 0006 7860     	 str r0,[r7,#4]
 360              	.LBB4:
  87:../cleanflight/src/main/drivers/bus_spi_config.c ****     for (int i = 0 ; i < SPI_PREINIT_IPU_COUNT ; i++) {
 361              	 .loc 2 87 0
 362 0008 0023     	 movs r3,#0
 363 000a FB60     	 str r3,[r7,#12]
 364 000c 18E0     	 b .L21
 365              	.L24:
  88:../cleanflight/src/main/drivers/bus_spi_config.c ****         if (IOGetByTag(spiPreinitIPUConfig(i)->csnTag) == io) {
 366              	 .loc 2 88 0
 367 000e F868     	 ldr r0,[r7,#12]
 368 0010 FFF7FEFF 	 bl spiPreinitIPUConfig
 369 0014 0346     	 mov r3,r0
 370 0016 1B78     	 ldrb r3,[r3]
 371 0018 1846     	 mov r0,r3
 372 001a FFF7FEFF 	 bl IOGetByTag
 373 001e 0246     	 mov r2,r0
 374 0020 7B68     	 ldr r3,[r7,#4]
 375 0022 9A42     	 cmp r2,r3
 376 0024 09D1     	 bne .L22
  89:../cleanflight/src/main/drivers/bus_spi_config.c ****             spiPreInitCsIPU(spiPreinitIPUConfig(i)->csnTag, i);
 377              	 .loc 2 89 0
 378 0026 F868     	 ldr r0,[r7,#12]
 379 0028 FFF7FEFF 	 bl spiPreinitIPUConfig
 380 002c 0346     	 mov r3,r0
 381 002e 1B78     	 ldrb r3,[r3]
 382 0030 1846     	 mov r0,r3
 383 0032 F968     	 ldr r1,[r7,#12]
 384 0034 FFF7FEFF 	 bl spiPreInitCsIPU
  90:../cleanflight/src/main/drivers/bus_spi_config.c ****             return;
 385              	 .loc 2 90 0
 386 0038 24E0     	 b .L20
 387              	.L22:
  87:../cleanflight/src/main/drivers/bus_spi_config.c ****         if (IOGetByTag(spiPreinitIPUConfig(i)->csnTag) == io) {
 388              	 .loc 2 87 0 discriminator 2
 389 003a FB68     	 ldr r3,[r7,#12]
 390 003c 0133     	 adds r3,r3,#1
 391 003e FB60     	 str r3,[r7,#12]
 392              	.L21:
  87:../cleanflight/src/main/drivers/bus_spi_config.c ****         if (IOGetByTag(spiPreinitIPUConfig(i)->csnTag) == io) {
 393              	 .loc 2 87 0 is_stmt 0 discriminator 1
 394 0040 FB68     	 ldr r3,[r7,#12]
 395 0042 0A2B     	 cmp r3,#10
 396 0044 E3DD     	 ble .L24
 397              	.LBE4:
 398              	.LBB5:
  91:../cleanflight/src/main/drivers/bus_spi_config.c ****         }
  92:../cleanflight/src/main/drivers/bus_spi_config.c ****     }
  93:../cleanflight/src/main/drivers/bus_spi_config.c **** 
  94:../cleanflight/src/main/drivers/bus_spi_config.c ****     for (int i = 0 ; i < SPI_PREINIT_OPU_COUNT ; i++) {
 399              	 .loc 2 94 0 is_stmt 1
 400 0046 0023     	 movs r3,#0
 401 0048 BB60     	 str r3,[r7,#8]
 402 004a 18E0     	 b .L25
 403              	.L27:
  95:../cleanflight/src/main/drivers/bus_spi_config.c ****         if (IOGetByTag(spiPreinitOPUConfig(i)->csnTag) == io) {
 404              	 .loc 2 95 0
 405 004c B868     	 ldr r0,[r7,#8]
 406 004e FFF7FEFF 	 bl spiPreinitOPUConfig
 407 0052 0346     	 mov r3,r0
 408 0054 1B78     	 ldrb r3,[r3]
 409 0056 1846     	 mov r0,r3
 410 0058 FFF7FEFF 	 bl IOGetByTag
 411 005c 0246     	 mov r2,r0
 412 005e 7B68     	 ldr r3,[r7,#4]
 413 0060 9A42     	 cmp r2,r3
 414 0062 09D1     	 bne .L26
  96:../cleanflight/src/main/drivers/bus_spi_config.c ****             spiPreInitCsOPU(spiPreinitOPUConfig(i)->csnTag, i);
 415              	 .loc 2 96 0
 416 0064 B868     	 ldr r0,[r7,#8]
 417 0066 FFF7FEFF 	 bl spiPreinitOPUConfig
 418 006a 0346     	 mov r3,r0
 419 006c 1B78     	 ldrb r3,[r3]
 420 006e 1846     	 mov r0,r3
 421 0070 B968     	 ldr r1,[r7,#8]
 422 0072 FFF7FEFF 	 bl spiPreInitCsOPU
  97:../cleanflight/src/main/drivers/bus_spi_config.c ****             return;
 423              	 .loc 2 97 0
 424 0076 05E0     	 b .L20
 425              	.L26:
  94:../cleanflight/src/main/drivers/bus_spi_config.c ****         if (IOGetByTag(spiPreinitOPUConfig(i)->csnTag) == io) {
 426              	 .loc 2 94 0 discriminator 2
 427 0078 BB68     	 ldr r3,[r7,#8]
 428 007a 0133     	 adds r3,r3,#1
 429 007c BB60     	 str r3,[r7,#8]
 430              	.L25:
  94:../cleanflight/src/main/drivers/bus_spi_config.c ****         if (IOGetByTag(spiPreinitOPUConfig(i)->csnTag) == io) {
 431              	 .loc 2 94 0 is_stmt 0 discriminator 1
 432 007e BB68     	 ldr r3,[r7,#8]
 433 0080 012B     	 cmp r3,#1
 434 0082 E3DD     	 ble .L27
 435              	.L20:
 436              	.LBE5:
  98:../cleanflight/src/main/drivers/bus_spi_config.c ****         }
  99:../cleanflight/src/main/drivers/bus_spi_config.c ****     }
 100:../cleanflight/src/main/drivers/bus_spi_config.c **** }
 437              	 .loc 2 100 0 is_stmt 1
 438 0084 1037     	 adds r7,r7,#16
 439              	.LCFI30:
 440              	 .cfi_def_cfa_offset 8
 441 0086 BD46     	 mov sp,r7
 442              	.LCFI31:
 443              	 .cfi_def_cfa_register 13
 444              	 
 445 0088 80BD     	 pop {r7,pc}
 446              	 .cfi_endproc
 447              	.LFE536:
 449 008a 00BF     	 .section .text.spiPreinitCsByTag,"ax",%progbits
 450              	 .align 2
 451              	 .global spiPreinitCsByTag
 452              	 .thumb
 453              	 .thumb_func
 455              	spiPreinitCsByTag:
 456              	.LFB537:
 101:../cleanflight/src/main/drivers/bus_spi_config.c **** 
 102:../cleanflight/src/main/drivers/bus_spi_config.c **** void spiPreinitCsByTag(ioTag_t iotag)
 103:../cleanflight/src/main/drivers/bus_spi_config.c **** {
 457              	 .loc 2 103 0
 458              	 .cfi_startproc
 459              	 
 460              	 
 461 0000 80B5     	 push {r7,lr}
 462              	.LCFI32:
 463              	 .cfi_def_cfa_offset 8
 464              	 .cfi_offset 7,-8
 465              	 .cfi_offset 14,-4
 466 0002 82B0     	 sub sp,sp,#8
 467              	.LCFI33:
 468              	 .cfi_def_cfa_offset 16
 469 0004 00AF     	 add r7,sp,#0
 470              	.LCFI34:
 471              	 .cfi_def_cfa_register 7
 472 0006 0346     	 mov r3,r0
 473 0008 FB71     	 strb r3,[r7,#7]
 104:../cleanflight/src/main/drivers/bus_spi_config.c ****     spiPreinitCsByIO(IOGetByTag(iotag));
 474              	 .loc 2 104 0
 475 000a FB79     	 ldrb r3,[r7,#7]
 476 000c 1846     	 mov r0,r3
 477 000e FFF7FEFF 	 bl IOGetByTag
 478 0012 0346     	 mov r3,r0
 479 0014 1846     	 mov r0,r3
 480 0016 FFF7FEFF 	 bl spiPreinitCsByIO
 105:../cleanflight/src/main/drivers/bus_spi_config.c **** }
 481              	 .loc 2 105 0
 482 001a 0837     	 adds r7,r7,#8
 483              	.LCFI35:
 484              	 .cfi_def_cfa_offset 8
 485 001c BD46     	 mov sp,r7
 486              	.LCFI36:
 487              	 .cfi_def_cfa_register 13
 488              	 
 489 001e 80BD     	 pop {r7,pc}
 490              	 .cfi_endproc
 491              	.LFE537:
 493              	 .text
 494              	.Letext0:
 495              	 .file 3 "d:\\xmc\\dave-ide-4.4.2-64bit\\eclipse\\arm-gcc-49\\arm-none-eabi\\include\\machine\\_default_types.h"
 496              	 .file 4 "d:\\xmc\\dave-ide-4.4.2-64bit\\eclipse\\arm-gcc-49\\arm-none-eabi\\include\\stdint.h"
 497              	 .file 5 "D:/XMC/Projekte/Temp/CF_XMC4700/cleanflight/src/main/drivers/io_types.h"
 498              	 .file 6 "D:/XMC/Projekte/Temp/CF_XMC4700/cleanflight/lib/main/CMSIS/Core/Include/core_cm4.h"
 499              	 .file 7 "D:/XMC/Projekte/Temp/CF_XMC4700/cleanflight/lib/main/XMC4000/system_XMC4700.h"
 500              	 .file 8 "D:/XMC/Projekte/Temp/CF_XMC4700/cleanflight/lib/main/XMC4000/XMCLib/inc/xmc4_gpio.h"
 501              	 .file 9 "D:/XMC/Projekte/Temp/CF_XMC4700/cleanflight/src/main/drivers/resource.h"