   1              	 .syntax unified
   2              	 .cpu cortex-m4
   3              	 .eabi_attribute 27,3
   4              	 .fpu fpv4-sp-d16
   5              	 .eabi_attribute 20,1
   6              	 .eabi_attribute 21,1
   7              	 .eabi_attribute 23,3
   8              	 .eabi_attribute 24,1
   9              	 .eabi_attribute 25,1
  10              	 .eabi_attribute 26,1
  11              	 .eabi_attribute 30,6
  12              	 .eabi_attribute 34,1
  13              	 .eabi_attribute 18,4
  14              	 .thumb
  15              	 .file "display_ug2864hsweg01.c"
  16              	 .text
  17              	.Ltext0:
  18              	 .cfi_sections .debug_frame
  19              	 .global CHAR_FORMAT
  20              	 .section .bss.CHAR_FORMAT,"aw",%nobits
  23              	CHAR_FORMAT:
  24 0000 00       	 .space 1
  25              	 .section .rodata.multiWiiFont,"a",%progbits
  26              	 .align 2
  29              	multiWiiFont:
  30 0000 00       	 .byte 0
  31 0001 00       	 .byte 0
  32 0002 00       	 .byte 0
  33 0003 00       	 .byte 0
  34 0004 00       	 .byte 0
  35 0005 00       	 .byte 0
  36 0006 00       	 .byte 0
  37 0007 4F       	 .byte 79
  38 0008 00       	 .byte 0
  39 0009 00       	 .byte 0
  40 000a 00       	 .byte 0
  41 000b 07       	 .byte 7
  42 000c 00       	 .byte 0
  43 000d 07       	 .byte 7
  44 000e 00       	 .byte 0
  45 000f 14       	 .byte 20
  46 0010 7F       	 .byte 127
  47 0011 14       	 .byte 20
  48 0012 7F       	 .byte 127
  49 0013 14       	 .byte 20
  50 0014 24       	 .byte 36
  51 0015 2A       	 .byte 42
  52 0016 7F       	 .byte 127
  53 0017 2A       	 .byte 42
  54 0018 12       	 .byte 18
  55 0019 23       	 .byte 35
  56 001a 13       	 .byte 19
  57 001b 08       	 .byte 8
  58 001c 64       	 .byte 100
  59 001d 62       	 .byte 98
  60 001e 36       	 .byte 54
  61 001f 49       	 .byte 73
  62 0020 55       	 .byte 85
  63 0021 22       	 .byte 34
  64 0022 50       	 .byte 80
  65 0023 00       	 .byte 0
  66 0024 05       	 .byte 5
  67 0025 03       	 .byte 3
  68 0026 00       	 .byte 0
  69 0027 00       	 .byte 0
  70 0028 00       	 .byte 0
  71 0029 1C       	 .byte 28
  72 002a 22       	 .byte 34
  73 002b 41       	 .byte 65
  74 002c 00       	 .byte 0
  75 002d 00       	 .byte 0
  76 002e 41       	 .byte 65
  77 002f 22       	 .byte 34
  78 0030 1C       	 .byte 28
  79 0031 00       	 .byte 0
  80 0032 14       	 .byte 20
  81 0033 08       	 .byte 8
  82 0034 3E       	 .byte 62
  83 0035 08       	 .byte 8
  84 0036 14       	 .byte 20
  85 0037 08       	 .byte 8
  86 0038 08       	 .byte 8
  87 0039 3E       	 .byte 62
  88 003a 08       	 .byte 8
  89 003b 08       	 .byte 8
  90 003c 00       	 .byte 0
  91 003d 50       	 .byte 80
  92 003e 30       	 .byte 48
  93 003f 00       	 .byte 0
  94 0040 00       	 .byte 0
  95 0041 08       	 .byte 8
  96 0042 08       	 .byte 8
  97 0043 08       	 .byte 8
  98 0044 08       	 .byte 8
  99 0045 08       	 .byte 8
 100 0046 00       	 .byte 0
 101 0047 60       	 .byte 96
 102 0048 60       	 .byte 96
 103 0049 00       	 .byte 0
 104 004a 00       	 .byte 0
 105 004b 20       	 .byte 32
 106 004c 10       	 .byte 16
 107 004d 08       	 .byte 8
 108 004e 04       	 .byte 4
 109 004f 02       	 .byte 2
 110 0050 3E       	 .byte 62
 111 0051 51       	 .byte 81
 112 0052 49       	 .byte 73
 113 0053 45       	 .byte 69
 114 0054 3E       	 .byte 62
 115 0055 00       	 .byte 0
 116 0056 42       	 .byte 66
 117 0057 7F       	 .byte 127
 118 0058 40       	 .byte 64
 119 0059 00       	 .byte 0
 120 005a 42       	 .byte 66
 121 005b 61       	 .byte 97
 122 005c 51       	 .byte 81
 123 005d 49       	 .byte 73
 124 005e 46       	 .byte 70
 125 005f 21       	 .byte 33
 126 0060 41       	 .byte 65
 127 0061 45       	 .byte 69
 128 0062 4B       	 .byte 75
 129 0063 31       	 .byte 49
 130 0064 18       	 .byte 24
 131 0065 14       	 .byte 20
 132 0066 12       	 .byte 18
 133 0067 7F       	 .byte 127
 134 0068 10       	 .byte 16
 135 0069 27       	 .byte 39
 136 006a 45       	 .byte 69
 137 006b 45       	 .byte 69
 138 006c 45       	 .byte 69
 139 006d 39       	 .byte 57
 140 006e 3C       	 .byte 60
 141 006f 4A       	 .byte 74
 142 0070 49       	 .byte 73
 143 0071 49       	 .byte 73
 144 0072 30       	 .byte 48
 145 0073 01       	 .byte 1
 146 0074 71       	 .byte 113
 147 0075 09       	 .byte 9
 148 0076 05       	 .byte 5
 149 0077 03       	 .byte 3
 150 0078 36       	 .byte 54
 151 0079 49       	 .byte 73
 152 007a 49       	 .byte 73
 153 007b 49       	 .byte 73
 154 007c 36       	 .byte 54
 155 007d 06       	 .byte 6
 156 007e 49       	 .byte 73
 157 007f 49       	 .byte 73
 158 0080 29       	 .byte 41
 159 0081 1E       	 .byte 30
 160 0082 00       	 .byte 0
 161 0083 36       	 .byte 54
 162 0084 36       	 .byte 54
 163 0085 00       	 .byte 0
 164 0086 00       	 .byte 0
 165 0087 00       	 .byte 0
 166 0088 56       	 .byte 86
 167 0089 36       	 .byte 54
 168 008a 00       	 .byte 0
 169 008b 00       	 .byte 0
 170 008c 08       	 .byte 8
 171 008d 14       	 .byte 20
 172 008e 22       	 .byte 34
 173 008f 41       	 .byte 65
 174 0090 00       	 .byte 0
 175 0091 14       	 .byte 20
 176 0092 14       	 .byte 20
 177 0093 14       	 .byte 20
 178 0094 14       	 .byte 20
 179 0095 14       	 .byte 20
 180 0096 00       	 .byte 0
 181 0097 41       	 .byte 65
 182 0098 22       	 .byte 34
 183 0099 14       	 .byte 20
 184 009a 08       	 .byte 8
 185 009b 02       	 .byte 2
 186 009c 01       	 .byte 1
 187 009d 51       	 .byte 81
 188 009e 09       	 .byte 9
 189 009f 06       	 .byte 6
 190 00a0 32       	 .byte 50
 191 00a1 49       	 .byte 73
 192 00a2 79       	 .byte 121
 193 00a3 41       	 .byte 65
 194 00a4 3E       	 .byte 62
 195 00a5 7E       	 .byte 126
 196 00a6 11       	 .byte 17
 197 00a7 11       	 .byte 17
 198 00a8 11       	 .byte 17
 199 00a9 7E       	 .byte 126
 200 00aa 7F       	 .byte 127
 201 00ab 49       	 .byte 73
 202 00ac 49       	 .byte 73
 203 00ad 49       	 .byte 73
 204 00ae 36       	 .byte 54
 205 00af 3E       	 .byte 62
 206 00b0 41       	 .byte 65
 207 00b1 41       	 .byte 65
 208 00b2 41       	 .byte 65
 209 00b3 22       	 .byte 34
 210 00b4 7F       	 .byte 127
 211 00b5 41       	 .byte 65
 212 00b6 41       	 .byte 65
 213 00b7 22       	 .byte 34
 214 00b8 1C       	 .byte 28
 215 00b9 7F       	 .byte 127
 216 00ba 49       	 .byte 73
 217 00bb 49       	 .byte 73
 218 00bc 49       	 .byte 73
 219 00bd 41       	 .byte 65
 220 00be 7F       	 .byte 127
 221 00bf 09       	 .byte 9
 222 00c0 09       	 .byte 9
 223 00c1 09       	 .byte 9
 224 00c2 01       	 .byte 1
 225 00c3 3E       	 .byte 62
 226 00c4 41       	 .byte 65
 227 00c5 49       	 .byte 73
 228 00c6 49       	 .byte 73
 229 00c7 7A       	 .byte 122
 230 00c8 7F       	 .byte 127
 231 00c9 08       	 .byte 8
 232 00ca 08       	 .byte 8
 233 00cb 08       	 .byte 8
 234 00cc 7F       	 .byte 127
 235 00cd 00       	 .byte 0
 236 00ce 41       	 .byte 65
 237 00cf 7F       	 .byte 127
 238 00d0 41       	 .byte 65
 239 00d1 00       	 .byte 0
 240 00d2 20       	 .byte 32
 241 00d3 40       	 .byte 64
 242 00d4 41       	 .byte 65
 243 00d5 3F       	 .byte 63
 244 00d6 01       	 .byte 1
 245 00d7 7F       	 .byte 127
 246 00d8 08       	 .byte 8
 247 00d9 14       	 .byte 20
 248 00da 22       	 .byte 34
 249 00db 41       	 .byte 65
 250 00dc 7F       	 .byte 127
 251 00dd 40       	 .byte 64
 252 00de 40       	 .byte 64
 253 00df 40       	 .byte 64
 254 00e0 40       	 .byte 64
 255 00e1 7F       	 .byte 127
 256 00e2 02       	 .byte 2
 257 00e3 0C       	 .byte 12
 258 00e4 02       	 .byte 2
 259 00e5 7F       	 .byte 127
 260 00e6 7F       	 .byte 127
 261 00e7 04       	 .byte 4
 262 00e8 08       	 .byte 8
 263 00e9 10       	 .byte 16
 264 00ea 7F       	 .byte 127
 265 00eb 3E       	 .byte 62
 266 00ec 41       	 .byte 65
 267 00ed 41       	 .byte 65
 268 00ee 41       	 .byte 65
 269 00ef 3E       	 .byte 62
 270 00f0 7F       	 .byte 127
 271 00f1 09       	 .byte 9
 272 00f2 09       	 .byte 9
 273 00f3 09       	 .byte 9
 274 00f4 06       	 .byte 6
 275 00f5 3E       	 .byte 62
 276 00f6 41       	 .byte 65
 277 00f7 51       	 .byte 81
 278 00f8 21       	 .byte 33
 279 00f9 5E       	 .byte 94
 280 00fa 7F       	 .byte 127
 281 00fb 09       	 .byte 9
 282 00fc 19       	 .byte 25
 283 00fd 29       	 .byte 41
 284 00fe 46       	 .byte 70
 285 00ff 46       	 .byte 70
 286 0100 49       	 .byte 73
 287 0101 49       	 .byte 73
 288 0102 49       	 .byte 73
 289 0103 31       	 .byte 49
 290 0104 01       	 .byte 1
 291 0105 01       	 .byte 1
 292 0106 7F       	 .byte 127
 293 0107 01       	 .byte 1
 294 0108 01       	 .byte 1
 295 0109 3F       	 .byte 63
 296 010a 40       	 .byte 64
 297 010b 40       	 .byte 64
 298 010c 40       	 .byte 64
 299 010d 3F       	 .byte 63
 300 010e 1F       	 .byte 31
 301 010f 20       	 .byte 32
 302 0110 40       	 .byte 64
 303 0111 20       	 .byte 32
 304 0112 1F       	 .byte 31
 305 0113 3F       	 .byte 63
 306 0114 40       	 .byte 64
 307 0115 38       	 .byte 56
 308 0116 40       	 .byte 64
 309 0117 3F       	 .byte 63
 310 0118 63       	 .byte 99
 311 0119 14       	 .byte 20
 312 011a 08       	 .byte 8
 313 011b 14       	 .byte 20
 314 011c 63       	 .byte 99
 315 011d 07       	 .byte 7
 316 011e 08       	 .byte 8
 317 011f 70       	 .byte 112
 318 0120 08       	 .byte 8
 319 0121 07       	 .byte 7
 320 0122 61       	 .byte 97
 321 0123 51       	 .byte 81
 322 0124 49       	 .byte 73
 323 0125 45       	 .byte 69
 324 0126 43       	 .byte 67
 325 0127 00       	 .byte 0
 326 0128 7F       	 .byte 127
 327 0129 41       	 .byte 65
 328 012a 41       	 .byte 65
 329 012b 00       	 .byte 0
 330 012c 02       	 .byte 2
 331 012d 04       	 .byte 4
 332 012e 08       	 .byte 8
 333 012f 10       	 .byte 16
 334 0130 20       	 .byte 32
 335 0131 00       	 .byte 0
 336 0132 41       	 .byte 65
 337 0133 41       	 .byte 65
 338 0134 7F       	 .byte 127
 339 0135 00       	 .byte 0
 340 0136 04       	 .byte 4
 341 0137 02       	 .byte 2
 342 0138 01       	 .byte 1
 343 0139 02       	 .byte 2
 344 013a 04       	 .byte 4
 345 013b 40       	 .byte 64
 346 013c 40       	 .byte 64
 347 013d 40       	 .byte 64
 348 013e 40       	 .byte 64
 349 013f 40       	 .byte 64
 350 0140 01       	 .byte 1
 351 0141 02       	 .byte 2
 352 0142 04       	 .byte 4
 353 0143 00       	 .byte 0
 354 0144 00       	 .byte 0
 355 0145 20       	 .byte 32
 356 0146 54       	 .byte 84
 357 0147 54       	 .byte 84
 358 0148 54       	 .byte 84
 359 0149 78       	 .byte 120
 360 014a 7F       	 .byte 127
 361 014b 48       	 .byte 72
 362 014c 44       	 .byte 68
 363 014d 44       	 .byte 68
 364 014e 38       	 .byte 56
 365 014f 38       	 .byte 56
 366 0150 44       	 .byte 68
 367 0151 44       	 .byte 68
 368 0152 44       	 .byte 68
 369 0153 20       	 .byte 32
 370 0154 38       	 .byte 56
 371 0155 44       	 .byte 68
 372 0156 44       	 .byte 68
 373 0157 48       	 .byte 72
 374 0158 7F       	 .byte 127
 375 0159 38       	 .byte 56
 376 015a 54       	 .byte 84
 377 015b 54       	 .byte 84
 378 015c 54       	 .byte 84
 379 015d 18       	 .byte 24
 380 015e 08       	 .byte 8
 381 015f 7E       	 .byte 126
 382 0160 09       	 .byte 9
 383 0161 01       	 .byte 1
 384 0162 02       	 .byte 2
 385 0163 06       	 .byte 6
 386 0164 49       	 .byte 73
 387 0165 49       	 .byte 73
 388 0166 49       	 .byte 73
 389 0167 3F       	 .byte 63
 390 0168 7F       	 .byte 127
 391 0169 08       	 .byte 8
 392 016a 04       	 .byte 4
 393 016b 04       	 .byte 4
 394 016c 78       	 .byte 120
 395 016d 00       	 .byte 0
 396 016e 44       	 .byte 68
 397 016f 7D       	 .byte 125
 398 0170 40       	 .byte 64
 399 0171 00       	 .byte 0
 400 0172 20       	 .byte 32
 401 0173 40       	 .byte 64
 402 0174 44       	 .byte 68
 403 0175 3D       	 .byte 61
 404 0176 00       	 .byte 0
 405 0177 7F       	 .byte 127
 406 0178 10       	 .byte 16
 407 0179 28       	 .byte 40
 408 017a 44       	 .byte 68
 409 017b 00       	 .byte 0
 410 017c 00       	 .byte 0
 411 017d 41       	 .byte 65
 412 017e 7F       	 .byte 127
 413 017f 40       	 .byte 64
 414 0180 00       	 .byte 0
 415 0181 7C       	 .byte 124
 416 0182 04       	 .byte 4
 417 0183 18       	 .byte 24
 418 0184 04       	 .byte 4
 419 0185 7C       	 .byte 124
 420 0186 7C       	 .byte 124
 421 0187 08       	 .byte 8
 422 0188 04       	 .byte 4
 423 0189 04       	 .byte 4
 424 018a 78       	 .byte 120
 425 018b 38       	 .byte 56
 426 018c 44       	 .byte 68
 427 018d 44       	 .byte 68
 428 018e 44       	 .byte 68
 429 018f 38       	 .byte 56
 430 0190 7C       	 .byte 124
 431 0191 14       	 .byte 20
 432 0192 14       	 .byte 20
 433 0193 14       	 .byte 20
 434 0194 08       	 .byte 8
 435 0195 08       	 .byte 8
 436 0196 14       	 .byte 20
 437 0197 14       	 .byte 20
 438 0198 18       	 .byte 24
 439 0199 7C       	 .byte 124
 440 019a 7C       	 .byte 124
 441 019b 08       	 .byte 8
 442 019c 04       	 .byte 4
 443 019d 04       	 .byte 4
 444 019e 08       	 .byte 8
 445 019f 48       	 .byte 72
 446 01a0 54       	 .byte 84
 447 01a1 54       	 .byte 84
 448 01a2 54       	 .byte 84
 449 01a3 20       	 .byte 32
 450 01a4 04       	 .byte 4
 451 01a5 3F       	 .byte 63
 452 01a6 44       	 .byte 68
 453 01a7 40       	 .byte 64
 454 01a8 20       	 .byte 32
 455 01a9 3C       	 .byte 60
 456 01aa 40       	 .byte 64
 457 01ab 40       	 .byte 64
 458 01ac 20       	 .byte 32
 459 01ad 7C       	 .byte 124
 460 01ae 1C       	 .byte 28
 461 01af 20       	 .byte 32
 462 01b0 40       	 .byte 64
 463 01b1 20       	 .byte 32
 464 01b2 1C       	 .byte 28
 465 01b3 3C       	 .byte 60
 466 01b4 40       	 .byte 64
 467 01b5 30       	 .byte 48
 468 01b6 40       	 .byte 64
 469 01b7 3C       	 .byte 60
 470 01b8 44       	 .byte 68
 471 01b9 28       	 .byte 40
 472 01ba 10       	 .byte 16
 473 01bb 28       	 .byte 40
 474 01bc 44       	 .byte 68
 475 01bd 0C       	 .byte 12
 476 01be 50       	 .byte 80
 477 01bf 50       	 .byte 80
 478 01c0 50       	 .byte 80
 479 01c1 3C       	 .byte 60
 480 01c2 44       	 .byte 68
 481 01c3 64       	 .byte 100
 482 01c4 54       	 .byte 84
 483 01c5 4C       	 .byte 76
 484 01c6 44       	 .byte 68
 485 01c7 00       	 .byte 0
 486 01c8 08       	 .byte 8
 487 01c9 36       	 .byte 54
 488 01ca 41       	 .byte 65
 489 01cb 00       	 .byte 0
 490 01cc 00       	 .byte 0
 491 01cd 00       	 .byte 0
 492 01ce 7F       	 .byte 127
 493 01cf 00       	 .byte 0
 494 01d0 00       	 .byte 0
 495 01d1 00       	 .byte 0
 496 01d2 41       	 .byte 65
 497 01d3 36       	 .byte 54
 498 01d4 08       	 .byte 8
 499 01d5 00       	 .byte 0
 500 01d6 02       	 .byte 2
 501 01d7 01       	 .byte 1
 502 01d8 02       	 .byte 2
 503 01d9 04       	 .byte 4
 504 01da 02       	 .byte 2
 505 01db 3E       	 .byte 62
 506 01dc 55       	 .byte 85
 507 01dd 55       	 .byte 85
 508 01de 41       	 .byte 65
 509 01df 22       	 .byte 34
 510 01e0 00       	 .byte 0
 511 01e1 00       	 .byte 0
 512 01e2 00       	 .byte 0
 513 01e3 00       	 .byte 0
 514 01e4 00       	 .byte 0
 515 01e5 00       	 .byte 0
 516 01e6 00       	 .byte 0
 517 01e7 79       	 .byte 121
 518 01e8 00       	 .byte 0
 519 01e9 00       	 .byte 0
 520 01ea 18       	 .byte 24
 521 01eb 24       	 .byte 36
 522 01ec 74       	 .byte 116
 523 01ed 2E       	 .byte 46
 524 01ee 24       	 .byte 36
 525 01ef 48       	 .byte 72
 526 01f0 7E       	 .byte 126
 527 01f1 49       	 .byte 73
 528 01f2 42       	 .byte 66
 529 01f3 40       	 .byte 64
 530 01f4 5D       	 .byte 93
 531 01f5 22       	 .byte 34
 532 01f6 22       	 .byte 34
 533 01f7 22       	 .byte 34
 534 01f8 5D       	 .byte 93
 535 01f9 15       	 .byte 21
 536 01fa 16       	 .byte 22
 537 01fb 7C       	 .byte 124
 538 01fc 16       	 .byte 22
 539 01fd 15       	 .byte 21
 540 01fe 00       	 .byte 0
 541 01ff 00       	 .byte 0
 542 0200 77       	 .byte 119
 543 0201 00       	 .byte 0
 544 0202 00       	 .byte 0
 545 0203 0A       	 .byte 10
 546 0204 55       	 .byte 85
 547 0205 55       	 .byte 85
 548 0206 55       	 .byte 85
 549 0207 28       	 .byte 40
 550 0208 00       	 .byte 0
 551 0209 01       	 .byte 1
 552 020a 00       	 .byte 0
 553 020b 01       	 .byte 1
 554 020c 00       	 .byte 0
 555 020d 00       	 .byte 0
 556 020e 0A       	 .byte 10
 557 020f 0D       	 .byte 13
 558 0210 0A       	 .byte 10
 559 0211 04       	 .byte 4
 560 0212 08       	 .byte 8
 561 0213 14       	 .byte 20
 562 0214 2A       	 .byte 42
 563 0215 14       	 .byte 20
 564 0216 22       	 .byte 34
 565 0217 04       	 .byte 4
 566 0218 04       	 .byte 4
 567 0219 04       	 .byte 4
 568 021a 04       	 .byte 4
 569 021b 1C       	 .byte 28
 570 021c 00       	 .byte 0
 571 021d 08       	 .byte 8
 572 021e 08       	 .byte 8
 573 021f 08       	 .byte 8
 574 0220 00       	 .byte 0
 575 0221 01       	 .byte 1
 576 0222 01       	 .byte 1
 577 0223 01       	 .byte 1
 578 0224 01       	 .byte 1
 579 0225 01       	 .byte 1
 580 0226 00       	 .byte 0
 581 0227 02       	 .byte 2
 582 0228 05       	 .byte 5
 583 0229 02       	 .byte 2
 584 022a 00       	 .byte 0
 585 022b 44       	 .byte 68
 586 022c 44       	 .byte 68
 587 022d 5F       	 .byte 95
 588 022e 44       	 .byte 68
 589 022f 44       	 .byte 68
 590 0230 00       	 .byte 0
 591 0231 00       	 .byte 0
 592 0232 04       	 .byte 4
 593 0233 02       	 .byte 2
 594 0234 01       	 .byte 1
 595 0235 7E       	 .byte 126
 596 0236 20       	 .byte 32
 597 0237 20       	 .byte 32
 598 0238 10       	 .byte 16
 599 0239 3E       	 .byte 62
 600 023a 06       	 .byte 6
 601 023b 0F       	 .byte 15
 602 023c 7F       	 .byte 127
 603 023d 00       	 .byte 0
 604 023e 7F       	 .byte 127
 605 023f 00       	 .byte 0
 606 0240 18       	 .byte 24
 607 0241 18       	 .byte 24
 608 0242 00       	 .byte 0
 609 0243 00       	 .byte 0
 610 0244 00       	 .byte 0
 611 0245 40       	 .byte 64
 612 0246 50       	 .byte 80
 613 0247 20       	 .byte 32
 614 0248 00       	 .byte 0
 615 0249 00       	 .byte 0
 616 024a 0A       	 .byte 10
 617 024b 0D       	 .byte 13
 618 024c 0A       	 .byte 10
 619 024d 00       	 .byte 0
 620 024e 22       	 .byte 34
 621 024f 14       	 .byte 20
 622 0250 2A       	 .byte 42
 623 0251 14       	 .byte 20
 624 0252 08       	 .byte 8
 625 0253 17       	 .byte 23
 626 0254 08       	 .byte 8
 627 0255 34       	 .byte 52
 628 0256 2A       	 .byte 42
 629 0257 7D       	 .byte 125
 630 0258 17       	 .byte 23
 631 0259 08       	 .byte 8
 632 025a 04       	 .byte 4
 633 025b 6A       	 .byte 106
 634 025c 59       	 .byte 89
 635 025d 30       	 .byte 48
 636 025e 48       	 .byte 72
 637 025f 45       	 .byte 69
 638 0260 40       	 .byte 64
 639 0261 20       	 .byte 32
 640 0262 42       	 .byte 66
 641 0263 00       	 .byte 0
 642 0264 42       	 .byte 66
 643 0265 00       	 .byte 0
 644 0266 42       	 .byte 66
 645 0267 7E       	 .byte 126
 646 0268 42       	 .byte 66
 647 0269 00       	 .byte 0
 648 026a 42       	 .byte 66
 649 026b 00       	 .byte 0
 650 026c 7E       	 .byte 126
 651 026d 7E       	 .byte 126
 652 026e 00       	 .byte 0
 653 026f 42       	 .byte 66
 654 0270 00       	 .byte 0
 655 0271 7E       	 .byte 126
 656 0272 7E       	 .byte 126
 657 0273 7E       	 .byte 126
 658 0274 42       	 .byte 66
 659 0275 00       	 .byte 0
 660 0276 7E       	 .byte 126
 661 0277 7E       	 .byte 126
 662 0278 7E       	 .byte 126
 663 0279 7E       	 .byte 126
 664 027a 00       	 .byte 0
 665 027b 7E       	 .byte 126
 666 027c 7E       	 .byte 126
 667 027d 7E       	 .byte 126
 668 027e 7E       	 .byte 126
 669 027f 7E       	 .byte 126
 670 0280 5A       	 .byte 90
 671 0281 00       	 .byte 0
 672 0282 00       	 .byte 0
 673 0283 00       	 .byte 0
 674 0284 5A       	 .byte 90
 675 0285 5A       	 .byte 90
 676 0286 40       	 .byte 64
 677 0287 40       	 .byte 64
 678 0288 40       	 .byte 64
 679 0289 5A       	 .byte 90
 680 028a 7A       	 .byte 122
 681 028b 60       	 .byte 96
 682 028c 60       	 .byte 96
 683 028d 60       	 .byte 96
 684 028e 7A       	 .byte 122
 685 028f 7A       	 .byte 122
 686 0290 70       	 .byte 112
 687 0291 70       	 .byte 112
 688 0292 70       	 .byte 112
 689 0293 7A       	 .byte 122
 690 0294 7A       	 .byte 122
 691 0295 78       	 .byte 120
 692 0296 78       	 .byte 120
 693 0297 78       	 .byte 120
 694 0298 7A       	 .byte 122
 695 0299 7A       	 .byte 122
 696 029a 7C       	 .byte 124
 697 029b 7C       	 .byte 124
 698 029c 7C       	 .byte 124
 699 029d 7A       	 .byte 122
 700 029e 7A       	 .byte 122
 701 029f 7E       	 .byte 126
 702 02a0 7E       	 .byte 126
 703 02a1 7E       	 .byte 126
 704 02a2 7A       	 .byte 122
 705 02a3 00       	 .section .text.i2c_OLED_send_cmd,"ax",%progbits
 706              	 .align 2
 707              	 .thumb
 708              	 .thumb_func
 710              	i2c_OLED_send_cmd:
 711              	.LFB521:
 712              	 .file 1 "../cleanflight/src/main/drivers/display_ug2864hsweg01.c"
   1:../cleanflight/src/main/drivers/display_ug2864hsweg01.c **** /*
   2:../cleanflight/src/main/drivers/display_ug2864hsweg01.c ****  * This file is part of Cleanflight and Betaflight.
   3:../cleanflight/src/main/drivers/display_ug2864hsweg01.c ****  *
   4:../cleanflight/src/main/drivers/display_ug2864hsweg01.c ****  * Cleanflight and Betaflight are free software. You can redistribute
   5:../cleanflight/src/main/drivers/display_ug2864hsweg01.c ****  * this software and/or modify this software under the terms of the
   6:../cleanflight/src/main/drivers/display_ug2864hsweg01.c ****  * GNU General Public License as published by the Free Software
   7:../cleanflight/src/main/drivers/display_ug2864hsweg01.c ****  * Foundation, either version 3 of the License, or (at your option)
   8:../cleanflight/src/main/drivers/display_ug2864hsweg01.c ****  * any later version.
   9:../cleanflight/src/main/drivers/display_ug2864hsweg01.c ****  *
  10:../cleanflight/src/main/drivers/display_ug2864hsweg01.c ****  * Cleanflight and Betaflight are distributed in the hope that they
  11:../cleanflight/src/main/drivers/display_ug2864hsweg01.c ****  * will be useful, but WITHOUT ANY WARRANTY; without even the implied
  12:../cleanflight/src/main/drivers/display_ug2864hsweg01.c ****  * warranty of MERCHANTABILITY or FITNESS FOR A PARTICULAR PURPOSE.
  13:../cleanflight/src/main/drivers/display_ug2864hsweg01.c ****  * See the GNU General Public License for more details.
  14:../cleanflight/src/main/drivers/display_ug2864hsweg01.c ****  *
  15:../cleanflight/src/main/drivers/display_ug2864hsweg01.c ****  * You should have received a copy of the GNU General Public License
  16:../cleanflight/src/main/drivers/display_ug2864hsweg01.c ****  * along with this software.
  17:../cleanflight/src/main/drivers/display_ug2864hsweg01.c ****  *
  18:../cleanflight/src/main/drivers/display_ug2864hsweg01.c ****  * If not, see <http://www.gnu.org/licenses/>.
  19:../cleanflight/src/main/drivers/display_ug2864hsweg01.c ****  */
  20:../cleanflight/src/main/drivers/display_ug2864hsweg01.c **** 
  21:../cleanflight/src/main/drivers/display_ug2864hsweg01.c **** #include <stdbool.h>
  22:../cleanflight/src/main/drivers/display_ug2864hsweg01.c **** #include <stdint.h>
  23:../cleanflight/src/main/drivers/display_ug2864hsweg01.c **** 
  24:../cleanflight/src/main/drivers/display_ug2864hsweg01.c **** #include "platform.h"
  25:../cleanflight/src/main/drivers/display_ug2864hsweg01.c **** 
  26:../cleanflight/src/main/drivers/display_ug2864hsweg01.c **** #include "common/utils.h"
  27:../cleanflight/src/main/drivers/display_ug2864hsweg01.c **** 
  28:../cleanflight/src/main/drivers/display_ug2864hsweg01.c **** #include "drivers/bus_i2c.h"
  29:../cleanflight/src/main/drivers/display_ug2864hsweg01.c **** 
  30:../cleanflight/src/main/drivers/display_ug2864hsweg01.c **** #include "display_ug2864hsweg01.h"
  31:../cleanflight/src/main/drivers/display_ug2864hsweg01.c **** 
  32:../cleanflight/src/main/drivers/display_ug2864hsweg01.c **** #ifdef USE_I2C_OLED_DISPLAY
  33:../cleanflight/src/main/drivers/display_ug2864hsweg01.c **** 
  34:../cleanflight/src/main/drivers/display_ug2864hsweg01.c **** #define INVERSE_CHAR_FORMAT 0x7f // 0b01111111
  35:../cleanflight/src/main/drivers/display_ug2864hsweg01.c **** #define NORMAL_CHAR_FORMAT  0x00 // 0b00000000
  36:../cleanflight/src/main/drivers/display_ug2864hsweg01.c **** 
  37:../cleanflight/src/main/drivers/display_ug2864hsweg01.c **** unsigned char CHAR_FORMAT = NORMAL_CHAR_FORMAT;
  38:../cleanflight/src/main/drivers/display_ug2864hsweg01.c **** 
  39:../cleanflight/src/main/drivers/display_ug2864hsweg01.c **** static const uint8_t multiWiiFont[][5] = { // Refer to "Times New Roman" Font Database... 5 x 7 fon
  40:../cleanflight/src/main/drivers/display_ug2864hsweg01.c ****         { 0x00, 0x00, 0x00, 0x00, 0x00 }, { 0x00, 0x00, 0x4F, 0x00, 0x00 }, //   (  1)  ! - 0x0021 
  41:../cleanflight/src/main/drivers/display_ug2864hsweg01.c ****                 { 0x00, 0x07, 0x00, 0x07, 0x00 }, //   (  2)  " - 0x0022 Quotation Mark
  42:../cleanflight/src/main/drivers/display_ug2864hsweg01.c ****                 { 0x14, 0x7F, 0x14, 0x7F, 0x14 }, //   (  3)  # - 0x0023 Number Sign
  43:../cleanflight/src/main/drivers/display_ug2864hsweg01.c ****                 { 0x24, 0x2A, 0x7F, 0x2A, 0x12 }, //   (  4)  $ - 0x0024 Dollar Sign
  44:../cleanflight/src/main/drivers/display_ug2864hsweg01.c ****                 { 0x23, 0x13, 0x08, 0x64, 0x62 }, //   (  5)  % - 0x0025 Percent Sign
  45:../cleanflight/src/main/drivers/display_ug2864hsweg01.c ****                 { 0x36, 0x49, 0x55, 0x22, 0x50 }, //   (  6)  & - 0x0026 Ampersand
  46:../cleanflight/src/main/drivers/display_ug2864hsweg01.c ****                 { 0x00, 0x05, 0x03, 0x00, 0x00 }, //   (  7)  ' - 0x0027 Apostrophe
  47:../cleanflight/src/main/drivers/display_ug2864hsweg01.c ****                 { 0x00, 0x1C, 0x22, 0x41, 0x00 }, //   (  8)  ( - 0x0028 Left Parenthesis
  48:../cleanflight/src/main/drivers/display_ug2864hsweg01.c ****                 { 0x00, 0x41, 0x22, 0x1C, 0x00 }, //   (  9)  ) - 0x0029 Right Parenthesis
  49:../cleanflight/src/main/drivers/display_ug2864hsweg01.c ****                 { 0x14, 0x08, 0x3E, 0x08, 0x14 }, //   ( 10)  * - 0x002A Asterisk
  50:../cleanflight/src/main/drivers/display_ug2864hsweg01.c ****                 { 0x08, 0x08, 0x3E, 0x08, 0x08 }, //   ( 11)  + - 0x002B Plus Sign
  51:../cleanflight/src/main/drivers/display_ug2864hsweg01.c ****                 { 0x00, 0x50, 0x30, 0x00, 0x00 }, //   ( 12)  , - 0x002C Comma
  52:../cleanflight/src/main/drivers/display_ug2864hsweg01.c ****                 { 0x08, 0x08, 0x08, 0x08, 0x08 }, //   ( 13)  - - 0x002D Hyphen-Minus
  53:../cleanflight/src/main/drivers/display_ug2864hsweg01.c ****                 { 0x00, 0x60, 0x60, 0x00, 0x00 }, //   ( 14)  . - 0x002E Full Stop
  54:../cleanflight/src/main/drivers/display_ug2864hsweg01.c ****                 { 0x20, 0x10, 0x08, 0x04, 0x02 }, //   ( 15)  / - 0x002F Solidus
  55:../cleanflight/src/main/drivers/display_ug2864hsweg01.c ****                 { 0x3E, 0x51, 0x49, 0x45, 0x3E }, //   ( 16)  0 - 0x0030 Digit Zero
  56:../cleanflight/src/main/drivers/display_ug2864hsweg01.c ****                 { 0x00, 0x42, 0x7F, 0x40, 0x00 }, //   ( 17)  1 - 0x0031 Digit One
  57:../cleanflight/src/main/drivers/display_ug2864hsweg01.c ****                 { 0x42, 0x61, 0x51, 0x49, 0x46 }, //   ( 18)  2 - 0x0032 Digit Two
  58:../cleanflight/src/main/drivers/display_ug2864hsweg01.c ****                 { 0x21, 0x41, 0x45, 0x4B, 0x31 }, //   ( 19)  3 - 0x0033 Digit Three
  59:../cleanflight/src/main/drivers/display_ug2864hsweg01.c ****                 { 0x18, 0x14, 0x12, 0x7F, 0x10 }, //   ( 20)  4 - 0x0034 Digit Four
  60:../cleanflight/src/main/drivers/display_ug2864hsweg01.c ****                 { 0x27, 0x45, 0x45, 0x45, 0x39 }, //   ( 21)  5 - 0x0035 Digit Five
  61:../cleanflight/src/main/drivers/display_ug2864hsweg01.c ****                 { 0x3C, 0x4A, 0x49, 0x49, 0x30 }, //   ( 22)  6 - 0x0036 Digit Six
  62:../cleanflight/src/main/drivers/display_ug2864hsweg01.c ****                 { 0x01, 0x71, 0x09, 0x05, 0x03 }, //   ( 23)  7 - 0x0037 Digit Seven
  63:../cleanflight/src/main/drivers/display_ug2864hsweg01.c ****                 { 0x36, 0x49, 0x49, 0x49, 0x36 }, //   ( 24)  8 - 0x0038 Digit Eight
  64:../cleanflight/src/main/drivers/display_ug2864hsweg01.c ****                 { 0x06, 0x49, 0x49, 0x29, 0x1E }, //   ( 25)  9 - 0x0039 Dight Nine
  65:../cleanflight/src/main/drivers/display_ug2864hsweg01.c ****                 { 0x00, 0x36, 0x36, 0x00, 0x00 }, //   ( 26)  : - 0x003A Colon
  66:../cleanflight/src/main/drivers/display_ug2864hsweg01.c ****                 { 0x00, 0x56, 0x36, 0x00, 0x00 }, //   ( 27)  ; - 0x003B Semicolon
  67:../cleanflight/src/main/drivers/display_ug2864hsweg01.c ****                 { 0x08, 0x14, 0x22, 0x41, 0x00 }, //   ( 28)  < - 0x003C Less-Than Sign
  68:../cleanflight/src/main/drivers/display_ug2864hsweg01.c ****                 { 0x14, 0x14, 0x14, 0x14, 0x14 }, //   ( 29)  = - 0x003D Equals Sign
  69:../cleanflight/src/main/drivers/display_ug2864hsweg01.c ****                 { 0x00, 0x41, 0x22, 0x14, 0x08 }, //   ( 30)  > - 0x003E Greater-Than Sign
  70:../cleanflight/src/main/drivers/display_ug2864hsweg01.c ****                 { 0x02, 0x01, 0x51, 0x09, 0x06 }, //   ( 31)  ? - 0x003F Question Mark
  71:../cleanflight/src/main/drivers/display_ug2864hsweg01.c ****                 { 0x32, 0x49, 0x79, 0x41, 0x3E }, //   ( 32)  @ - 0x0040 Commercial At
  72:../cleanflight/src/main/drivers/display_ug2864hsweg01.c ****                 { 0x7E, 0x11, 0x11, 0x11, 0x7E }, //   ( 33)  A - 0x0041 Latin Capital Letter A
  73:../cleanflight/src/main/drivers/display_ug2864hsweg01.c ****                 { 0x7F, 0x49, 0x49, 0x49, 0x36 }, //   ( 34)  B - 0x0042 Latin Capital Letter B
  74:../cleanflight/src/main/drivers/display_ug2864hsweg01.c ****                 { 0x3E, 0x41, 0x41, 0x41, 0x22 }, //   ( 35)  C - 0x0043 Latin Capital Letter C
  75:../cleanflight/src/main/drivers/display_ug2864hsweg01.c ****                 { 0x7F, 0x41, 0x41, 0x22, 0x1C }, //   ( 36)  D - 0x0044 Latin Capital Letter D
  76:../cleanflight/src/main/drivers/display_ug2864hsweg01.c ****                 { 0x7F, 0x49, 0x49, 0x49, 0x41 }, //   ( 37)  E - 0x0045 Latin Capital Letter E
  77:../cleanflight/src/main/drivers/display_ug2864hsweg01.c ****                 { 0x7F, 0x09, 0x09, 0x09, 0x01 }, //   ( 38)  F - 0x0046 Latin Capital Letter F
  78:../cleanflight/src/main/drivers/display_ug2864hsweg01.c ****                 { 0x3E, 0x41, 0x49, 0x49, 0x7A }, //   ( 39)  G - 0x0047 Latin Capital Letter G
  79:../cleanflight/src/main/drivers/display_ug2864hsweg01.c ****                 { 0x7F, 0x08, 0x08, 0x08, 0x7F }, //   ( 40)  H - 0x0048 Latin Capital Letter H
  80:../cleanflight/src/main/drivers/display_ug2864hsweg01.c ****                 { 0x00, 0x41, 0x7F, 0x41, 0x00 }, //   ( 41)  I - 0x0049 Latin Capital Letter I
  81:../cleanflight/src/main/drivers/display_ug2864hsweg01.c ****                 { 0x20, 0x40, 0x41, 0x3F, 0x01 }, //   ( 42)  J - 0x004A Latin Capital Letter J
  82:../cleanflight/src/main/drivers/display_ug2864hsweg01.c ****                 { 0x7F, 0x08, 0x14, 0x22, 0x41 }, //   ( 43)  K - 0x004B Latin Capital Letter K
  83:../cleanflight/src/main/drivers/display_ug2864hsweg01.c ****                 { 0x7F, 0x40, 0x40, 0x40, 0x40 }, //   ( 44)  L - 0x004C Latin Capital Letter L
  84:../cleanflight/src/main/drivers/display_ug2864hsweg01.c ****                 { 0x7F, 0x02, 0x0C, 0x02, 0x7F }, //   ( 45)  M - 0x004D Latin Capital Letter M
  85:../cleanflight/src/main/drivers/display_ug2864hsweg01.c ****                 { 0x7F, 0x04, 0x08, 0x10, 0x7F }, //   ( 46)  N - 0x004E Latin Capital Letter N
  86:../cleanflight/src/main/drivers/display_ug2864hsweg01.c ****                 { 0x3E, 0x41, 0x41, 0x41, 0x3E }, //   ( 47)  O - 0x004F Latin Capital Letter O
  87:../cleanflight/src/main/drivers/display_ug2864hsweg01.c ****                 { 0x7F, 0x09, 0x09, 0x09, 0x06 }, //   ( 48)  P - 0x0050 Latin Capital Letter P
  88:../cleanflight/src/main/drivers/display_ug2864hsweg01.c ****                 { 0x3E, 0x41, 0x51, 0x21, 0x5E }, //   ( 49)  Q - 0x0051 Latin Capital Letter Q
  89:../cleanflight/src/main/drivers/display_ug2864hsweg01.c ****                 { 0x7F, 0x09, 0x19, 0x29, 0x46 }, //   ( 50)  R - 0x0052 Latin Capital Letter R
  90:../cleanflight/src/main/drivers/display_ug2864hsweg01.c ****                 { 0x46, 0x49, 0x49, 0x49, 0x31 }, //   ( 51)  S - 0x0053 Latin Capital Letter S
  91:../cleanflight/src/main/drivers/display_ug2864hsweg01.c ****                 { 0x01, 0x01, 0x7F, 0x01, 0x01 }, //   ( 52)  T - 0x0054 Latin Capital Letter T
  92:../cleanflight/src/main/drivers/display_ug2864hsweg01.c ****                 { 0x3F, 0x40, 0x40, 0x40, 0x3F }, //   ( 53)  U - 0x0055 Latin Capital Letter U
  93:../cleanflight/src/main/drivers/display_ug2864hsweg01.c ****                 { 0x1F, 0x20, 0x40, 0x20, 0x1F }, //   ( 54)  V - 0x0056 Latin Capital Letter V
  94:../cleanflight/src/main/drivers/display_ug2864hsweg01.c ****                 { 0x3F, 0x40, 0x38, 0x40, 0x3F }, //   ( 55)  W - 0x0057 Latin Capital Letter W
  95:../cleanflight/src/main/drivers/display_ug2864hsweg01.c ****                 { 0x63, 0x14, 0x08, 0x14, 0x63 }, //   ( 56)  X - 0x0058 Latin Capital Letter X
  96:../cleanflight/src/main/drivers/display_ug2864hsweg01.c ****                 { 0x07, 0x08, 0x70, 0x08, 0x07 }, //   ( 57)  Y - 0x0059 Latin Capital Letter Y
  97:../cleanflight/src/main/drivers/display_ug2864hsweg01.c ****                 { 0x61, 0x51, 0x49, 0x45, 0x43 }, //   ( 58)  Z - 0x005A Latin Capital Letter Z
  98:../cleanflight/src/main/drivers/display_ug2864hsweg01.c ****                 { 0x00, 0x7F, 0x41, 0x41, 0x00 }, //   ( 59)  [ - 0x005B Left Square Bracket
  99:../cleanflight/src/main/drivers/display_ug2864hsweg01.c ****                 { 0x02, 0x04, 0x08, 0x10, 0x20 }, //   ( 60)  \ - 0x005C Reverse Solidus
 100:../cleanflight/src/main/drivers/display_ug2864hsweg01.c ****                 { 0x00, 0x41, 0x41, 0x7F, 0x00 }, //   ( 61)  ] - 0x005D Right Square Bracket
 101:../cleanflight/src/main/drivers/display_ug2864hsweg01.c ****                 { 0x04, 0x02, 0x01, 0x02, 0x04 }, //   ( 62)  ^ - 0x005E Circumflex Accent
 102:../cleanflight/src/main/drivers/display_ug2864hsweg01.c ****                 { 0x40, 0x40, 0x40, 0x40, 0x40 }, //   ( 63)  _ - 0x005F Low Line
 103:../cleanflight/src/main/drivers/display_ug2864hsweg01.c ****                 { 0x01, 0x02, 0x04, 0x00, 0x00 }, //   ( 64)  ` - 0x0060 Grave Accent
 104:../cleanflight/src/main/drivers/display_ug2864hsweg01.c ****                 { 0x20, 0x54, 0x54, 0x54, 0x78 }, //   ( 65)  a - 0x0061 Latin Small Letter A
 105:../cleanflight/src/main/drivers/display_ug2864hsweg01.c ****                 { 0x7F, 0x48, 0x44, 0x44, 0x38 }, //   ( 66)  b - 0x0062 Latin Small Letter B
 106:../cleanflight/src/main/drivers/display_ug2864hsweg01.c ****                 { 0x38, 0x44, 0x44, 0x44, 0x20 }, //   ( 67)  c - 0x0063 Latin Small Letter C
 107:../cleanflight/src/main/drivers/display_ug2864hsweg01.c ****                 { 0x38, 0x44, 0x44, 0x48, 0x7F }, //   ( 68)  d - 0x0064 Latin Small Letter D
 108:../cleanflight/src/main/drivers/display_ug2864hsweg01.c ****                 { 0x38, 0x54, 0x54, 0x54, 0x18 }, //   ( 69)  e - 0x0065 Latin Small Letter E
 109:../cleanflight/src/main/drivers/display_ug2864hsweg01.c ****                 { 0x08, 0x7E, 0x09, 0x01, 0x02 }, //   ( 70)  f - 0x0066 Latin Small Letter F
 110:../cleanflight/src/main/drivers/display_ug2864hsweg01.c ****                 { 0x06, 0x49, 0x49, 0x49, 0x3F }, //   ( 71)  g - 0x0067 Latin Small Letter G
 111:../cleanflight/src/main/drivers/display_ug2864hsweg01.c ****                 { 0x7F, 0x08, 0x04, 0x04, 0x78 }, //   ( 72)  h - 0x0068 Latin Small Letter H
 112:../cleanflight/src/main/drivers/display_ug2864hsweg01.c ****                 { 0x00, 0x44, 0x7D, 0x40, 0x00 }, //   ( 73)  i - 0x0069 Latin Small Letter I
 113:../cleanflight/src/main/drivers/display_ug2864hsweg01.c ****                 { 0x20, 0x40, 0x44, 0x3D, 0x00 }, //   ( 74)  j - 0x006A Latin Small Letter J
 114:../cleanflight/src/main/drivers/display_ug2864hsweg01.c ****                 { 0x7F, 0x10, 0x28, 0x44, 0x00 }, //   ( 75)  k - 0x006B Latin Small Letter K
 115:../cleanflight/src/main/drivers/display_ug2864hsweg01.c ****                 { 0x00, 0x41, 0x7F, 0x40, 0x00 }, //   ( 76)  l - 0x006C Latin Small Letter L
 116:../cleanflight/src/main/drivers/display_ug2864hsweg01.c ****                 { 0x7C, 0x04, 0x18, 0x04, 0x7C }, //   ( 77)  m - 0x006D Latin Small Letter M
 117:../cleanflight/src/main/drivers/display_ug2864hsweg01.c ****                 { 0x7C, 0x08, 0x04, 0x04, 0x78 }, //   ( 78)  n - 0x006E Latin Small Letter N
 118:../cleanflight/src/main/drivers/display_ug2864hsweg01.c ****                 { 0x38, 0x44, 0x44, 0x44, 0x38 }, //   ( 79)  o - 0x006F Latin Small Letter O
 119:../cleanflight/src/main/drivers/display_ug2864hsweg01.c ****                 { 0x7C, 0x14, 0x14, 0x14, 0x08 }, //   ( 80)  p - 0x0070 Latin Small Letter P
 120:../cleanflight/src/main/drivers/display_ug2864hsweg01.c ****                 { 0x08, 0x14, 0x14, 0x18, 0x7C }, //   ( 81)  q - 0x0071 Latin Small Letter Q
 121:../cleanflight/src/main/drivers/display_ug2864hsweg01.c ****                 { 0x7C, 0x08, 0x04, 0x04, 0x08 }, //   ( 82)  r - 0x0072 Latin Small Letter R
 122:../cleanflight/src/main/drivers/display_ug2864hsweg01.c ****                 { 0x48, 0x54, 0x54, 0x54, 0x20 }, //   ( 83)  s - 0x0073 Latin Small Letter S
 123:../cleanflight/src/main/drivers/display_ug2864hsweg01.c ****                 { 0x04, 0x3F, 0x44, 0x40, 0x20 }, //   ( 84)  t - 0x0074 Latin Small Letter T
 124:../cleanflight/src/main/drivers/display_ug2864hsweg01.c ****                 { 0x3C, 0x40, 0x40, 0x20, 0x7C }, //   ( 85)  u - 0x0075 Latin Small Letter U
 125:../cleanflight/src/main/drivers/display_ug2864hsweg01.c ****                 { 0x1C, 0x20, 0x40, 0x20, 0x1C }, //   ( 86)  v - 0x0076 Latin Small Letter V
 126:../cleanflight/src/main/drivers/display_ug2864hsweg01.c ****                 { 0x3C, 0x40, 0x30, 0x40, 0x3C }, //   ( 87)  w - 0x0077 Latin Small Letter W
 127:../cleanflight/src/main/drivers/display_ug2864hsweg01.c ****                 { 0x44, 0x28, 0x10, 0x28, 0x44 }, //   ( 88)  x - 0x0078 Latin Small Letter X
 128:../cleanflight/src/main/drivers/display_ug2864hsweg01.c ****                 { 0x0C, 0x50, 0x50, 0x50, 0x3C }, //   ( 89)  y - 0x0079 Latin Small Letter Y
 129:../cleanflight/src/main/drivers/display_ug2864hsweg01.c ****                 { 0x44, 0x64, 0x54, 0x4C, 0x44 }, //   ( 90)  z - 0x007A Latin Small Letter Z
 130:../cleanflight/src/main/drivers/display_ug2864hsweg01.c ****                 { 0x00, 0x08, 0x36, 0x41, 0x00 }, //   ( 91)  { - 0x007B Left Curly Bracket
 131:../cleanflight/src/main/drivers/display_ug2864hsweg01.c ****                 { 0x00, 0x00, 0x7F, 0x00, 0x00 }, //   ( 92)  | - 0x007C Vertical Line
 132:../cleanflight/src/main/drivers/display_ug2864hsweg01.c ****                 { 0x00, 0x41, 0x36, 0x08, 0x00 }, //   ( 93)  } - 0x007D Right Curly Bracket
 133:../cleanflight/src/main/drivers/display_ug2864hsweg01.c ****                 { 0x02, 0x01, 0x02, 0x04, 0x02 }, //   ( 94)  ~ - 0x007E Tilde
 134:../cleanflight/src/main/drivers/display_ug2864hsweg01.c ****                 { 0x3E, 0x55, 0x55, 0x41, 0x22 }, //   ( 95)  C - 0x0080 <Control>
 135:../cleanflight/src/main/drivers/display_ug2864hsweg01.c ****                 { 0x00, 0x00, 0x00, 0x00, 0x00 }, //   ( 96)    - 0x00A0 No-Break Space
 136:../cleanflight/src/main/drivers/display_ug2864hsweg01.c ****                 { 0x00, 0x00, 0x79, 0x00, 0x00 }, //   ( 97)  ! - 0x00A1 Inverted Exclamation Mark
 137:../cleanflight/src/main/drivers/display_ug2864hsweg01.c ****                 { 0x18, 0x24, 0x74, 0x2E, 0x24 }, //   ( 98)  c - 0x00A2 Cent Sign
 138:../cleanflight/src/main/drivers/display_ug2864hsweg01.c ****                 { 0x48, 0x7E, 0x49, 0x42, 0x40 }, //   ( 99)  L - 0x00A3 Pound Sign
 139:../cleanflight/src/main/drivers/display_ug2864hsweg01.c ****                 { 0x5D, 0x22, 0x22, 0x22, 0x5D }, //   (100)  o - 0x00A4 Currency Sign
 140:../cleanflight/src/main/drivers/display_ug2864hsweg01.c ****                 { 0x15, 0x16, 0x7C, 0x16, 0x15 }, //   (101)  Y - 0x00A5 Yen Sign
 141:../cleanflight/src/main/drivers/display_ug2864hsweg01.c ****                 { 0x00, 0x00, 0x77, 0x00, 0x00 }, //   (102)  | - 0x00A6 Broken Bar
 142:../cleanflight/src/main/drivers/display_ug2864hsweg01.c ****                 { 0x0A, 0x55, 0x55, 0x55, 0x28 }, //   (103)    - 0x00A7 Section Sign
 143:../cleanflight/src/main/drivers/display_ug2864hsweg01.c ****                 { 0x00, 0x01, 0x00, 0x01, 0x00 }, //   (104)  " - 0x00A8 Diaeresis
 144:../cleanflight/src/main/drivers/display_ug2864hsweg01.c ****                 { 0x00, 0x0A, 0x0D, 0x0A, 0x04 }, //   (105)    - 0x00AA Feminine Ordinal Indicator
 145:../cleanflight/src/main/drivers/display_ug2864hsweg01.c ****                 { 0x08, 0x14, 0x2A, 0x14, 0x22 }, //   (106) << - 0x00AB Left-Pointing Double Angle
 146:../cleanflight/src/main/drivers/display_ug2864hsweg01.c ****                 { 0x04, 0x04, 0x04, 0x04, 0x1C }, //   (107)    - 0x00AC Not Sign
 147:../cleanflight/src/main/drivers/display_ug2864hsweg01.c ****                 { 0x00, 0x08, 0x08, 0x08, 0x00 }, //   (108)  - - 0x00AD Soft Hyphen
 148:../cleanflight/src/main/drivers/display_ug2864hsweg01.c ****                 { 0x01, 0x01, 0x01, 0x01, 0x01 }, //   (109)    - 0x00AF Macron
 149:../cleanflight/src/main/drivers/display_ug2864hsweg01.c ****                 { 0x00, 0x02, 0x05, 0x02, 0x00 }, //   (110)    - 0x00B0 Degree Sign
 150:../cleanflight/src/main/drivers/display_ug2864hsweg01.c ****                 { 0x44, 0x44, 0x5F, 0x44, 0x44 }, //   (111) +- - 0x00B1 Plus-Minus Sign
 151:../cleanflight/src/main/drivers/display_ug2864hsweg01.c ****                 { 0x00, 0x00, 0x04, 0x02, 0x01 }, //   (112)  ` - 0x00B4 Acute Accent
 152:../cleanflight/src/main/drivers/display_ug2864hsweg01.c ****                 { 0x7E, 0x20, 0x20, 0x10, 0x3E }, //   (113)  u - 0x00B5 Micro Sign
 153:../cleanflight/src/main/drivers/display_ug2864hsweg01.c ****                 { 0x06, 0x0F, 0x7F, 0x00, 0x7F }, //   (114)    - 0x00B6 Pilcrow Sign
 154:../cleanflight/src/main/drivers/display_ug2864hsweg01.c ****                 { 0x00, 0x18, 0x18, 0x00, 0x00 }, //   (115)  . - 0x00B7 Middle Dot
 155:../cleanflight/src/main/drivers/display_ug2864hsweg01.c ****                 { 0x00, 0x40, 0x50, 0x20, 0x00 }, //   (116)    - 0x00B8 Cedilla
 156:../cleanflight/src/main/drivers/display_ug2864hsweg01.c ****                 { 0x00, 0x0A, 0x0D, 0x0A, 0x00 }, //   (117)    - 0x00BA Masculine Ordinal Indicato
 157:../cleanflight/src/main/drivers/display_ug2864hsweg01.c ****                 { 0x22, 0x14, 0x2A, 0x14, 0x08 }, //   (118) >> - 0x00BB Right-Pointing Double Angl
 158:../cleanflight/src/main/drivers/display_ug2864hsweg01.c ****                 { 0x17, 0x08, 0x34, 0x2A, 0x7D }, //   (119) /4 - 0x00BC Vulgar Fraction One Quarte
 159:../cleanflight/src/main/drivers/display_ug2864hsweg01.c ****                 { 0x17, 0x08, 0x04, 0x6A, 0x59 }, //   (120) /2 - 0x00BD Vulgar Fraction One Half
 160:../cleanflight/src/main/drivers/display_ug2864hsweg01.c ****                 { 0x30, 0x48, 0x45, 0x40, 0x20 }, //   (121)  ? - 0x00BE Inverted Question Mark
 161:../cleanflight/src/main/drivers/display_ug2864hsweg01.c ****                 { 0x42, 0x00, 0x42, 0x00, 0x42 }, //   (122)    - 0x00BF Horizontal Bargraph - 0 (e
 162:../cleanflight/src/main/drivers/display_ug2864hsweg01.c ****                 { 0x7E, 0x42, 0x00, 0x42, 0x00 }, //   (123)    - 0x00C0 Horizontal Bargraph - 1
 163:../cleanflight/src/main/drivers/display_ug2864hsweg01.c ****                 { 0x7E, 0x7E, 0x00, 0x42, 0x00 }, //   (124)    - 0x00C1 Horizontal Bargraph - 2
 164:../cleanflight/src/main/drivers/display_ug2864hsweg01.c ****                 { 0x7E, 0x7E, 0x7E, 0x42, 0x00 }, //   (125)    - 0x00C2 Horizontal Bargraph - 3
 165:../cleanflight/src/main/drivers/display_ug2864hsweg01.c ****                 { 0x7E, 0x7E, 0x7E, 0x7E, 0x00 }, //   (126)    - 0x00C3 Horizontal Bargraph - 4
 166:../cleanflight/src/main/drivers/display_ug2864hsweg01.c ****                 { 0x7E, 0x7E, 0x7E, 0x7E, 0x7E }, //   (127)    - 0x00C4 Horizontal Bargraph - 5 (f
 167:../cleanflight/src/main/drivers/display_ug2864hsweg01.c ****                 { 0x5A, 0x00, 0x00, 0x00, 0x5A }, //   (128)    - 0x00C5 Vertical Bargraph - 0 (emp
 168:../cleanflight/src/main/drivers/display_ug2864hsweg01.c ****                 { 0x5A, 0x40, 0x40, 0x40, 0x5A }, //   (129)    - 0x00C6 Vertical Bargraph - 1
 169:../cleanflight/src/main/drivers/display_ug2864hsweg01.c ****                 { 0x7A, 0x60, 0x60, 0x60, 0x7A }, //   (130)    - 0x00C7 Vertical Bargraph - 2
 170:../cleanflight/src/main/drivers/display_ug2864hsweg01.c ****                 { 0x7A, 0x70, 0x70, 0x70, 0x7A }, //   (131)    - 0x00C8 Vertical Bargraph - 3
 171:../cleanflight/src/main/drivers/display_ug2864hsweg01.c ****                 { 0x7A, 0x78, 0x78, 0x78, 0x7A }, //   (131)    - 0x00C8 Vertical Bargraph - 4
 172:../cleanflight/src/main/drivers/display_ug2864hsweg01.c ****                 { 0x7A, 0x7C, 0x7C, 0x7C, 0x7A }, //   (131)    - 0x00C8 Vertical Bargraph - 5
 173:../cleanflight/src/main/drivers/display_ug2864hsweg01.c ****                 { 0x7A, 0x7E, 0x7E, 0x7E, 0x7A }, //   (131)    - 0x00C8 Vertical Bargraph - 6 (ful
 174:../cleanflight/src/main/drivers/display_ug2864hsweg01.c ****         };
 175:../cleanflight/src/main/drivers/display_ug2864hsweg01.c **** 
 176:../cleanflight/src/main/drivers/display_ug2864hsweg01.c **** static bool i2c_OLED_send_cmd(busDevice_t *bus, uint8_t command)
 177:../cleanflight/src/main/drivers/display_ug2864hsweg01.c **** {
 713              	 .loc 1 177 0
 714              	 .cfi_startproc
 715              	 
 716              	 
 717 0000 80B5     	 push {r7,lr}
 718              	.LCFI0:
 719              	 .cfi_def_cfa_offset 8
 720              	 .cfi_offset 7,-8
 721              	 .cfi_offset 14,-4
 722 0002 82B0     	 sub sp,sp,#8
 723              	.LCFI1:
 724              	 .cfi_def_cfa_offset 16
 725 0004 00AF     	 add r7,sp,#0
 726              	.LCFI2:
 727              	 .cfi_def_cfa_register 7
 728 0006 7860     	 str r0,[r7,#4]
 729 0008 0B46     	 mov r3,r1
 730 000a FB70     	 strb r3,[r7,#3]
 178:../cleanflight/src/main/drivers/display_ug2864hsweg01.c ****     return i2cWrite(bus->busdev_u.i2c.device, bus->busdev_u.i2c.address, 0x80, command);
 731              	 .loc 1 178 0
 732 000c 7B68     	 ldr r3,[r7,#4]
 733 000e 5978     	 ldrb r1,[r3,#1]
 734 0010 7B68     	 ldr r3,[r7,#4]
 735 0012 9A78     	 ldrb r2,[r3,#2]
 736 0014 49B2     	 sxtb r1,r1
 737 0016 FB78     	 ldrb r3,[r7,#3]
 738 0018 0846     	 mov r0,r1
 739 001a 1146     	 mov r1,r2
 740 001c 8022     	 movs r2,#128
 741 001e FFF7FEFF 	 bl i2cWrite
 742 0022 0346     	 mov r3,r0
 179:../cleanflight/src/main/drivers/display_ug2864hsweg01.c **** }
 743              	 .loc 1 179 0
 744 0024 1846     	 mov r0,r3
 745 0026 0837     	 adds r7,r7,#8
 746              	.LCFI3:
 747              	 .cfi_def_cfa_offset 8
 748 0028 BD46     	 mov sp,r7
 749              	.LCFI4:
 750              	 .cfi_def_cfa_register 13
 751              	 
 752 002a 80BD     	 pop {r7,pc}
 753              	 .cfi_endproc
 754              	.LFE521:
 756              	 .section .text.i2c_OLED_send_cmdarray,"ax",%progbits
 757              	 .align 2
 758              	 .thumb
 759              	 .thumb_func
 761              	i2c_OLED_send_cmdarray:
 762              	.LFB522:
 180:../cleanflight/src/main/drivers/display_ug2864hsweg01.c **** 
 181:../cleanflight/src/main/drivers/display_ug2864hsweg01.c **** static bool i2c_OLED_send_cmdarray(busDevice_t *bus, const uint8_t *commands, size_t len)
 182:../cleanflight/src/main/drivers/display_ug2864hsweg01.c **** {
 763              	 .loc 1 182 0
 764              	 .cfi_startproc
 765              	 
 766              	 
 767 0000 80B5     	 push {r7,lr}
 768              	.LCFI5:
 769              	 .cfi_def_cfa_offset 8
 770              	 .cfi_offset 7,-8
 771              	 .cfi_offset 14,-4
 772 0002 86B0     	 sub sp,sp,#24
 773              	.LCFI6:
 774              	 .cfi_def_cfa_offset 32
 775 0004 00AF     	 add r7,sp,#0
 776              	.LCFI7:
 777              	 .cfi_def_cfa_register 7
 778 0006 F860     	 str r0,[r7,#12]
 779 0008 B960     	 str r1,[r7,#8]
 780 000a 7A60     	 str r2,[r7,#4]
 781              	.LBB2:
 183:../cleanflight/src/main/drivers/display_ug2864hsweg01.c ****     for (size_t i = 0 ; i < len ; i++) {
 782              	 .loc 1 183 0
 783 000c 0023     	 movs r3,#0
 784 000e 7B61     	 str r3,[r7,#20]
 785 0010 12E0     	 b .L4
 786              	.L7:
 184:../cleanflight/src/main/drivers/display_ug2864hsweg01.c ****         if (!i2c_OLED_send_cmd(bus, commands[i])) {
 787              	 .loc 1 184 0
 788 0012 BA68     	 ldr r2,[r7,#8]
 789 0014 7B69     	 ldr r3,[r7,#20]
 790 0016 1344     	 add r3,r3,r2
 791 0018 1B78     	 ldrb r3,[r3]
 792 001a F868     	 ldr r0,[r7,#12]
 793 001c 1946     	 mov r1,r3
 794 001e FFF7FEFF 	 bl i2c_OLED_send_cmd
 795 0022 0346     	 mov r3,r0
 796 0024 83F00103 	 eor r3,r3,#1
 797 0028 DBB2     	 uxtb r3,r3
 798 002a 002B     	 cmp r3,#0
 799 002c 01D0     	 beq .L5
 185:../cleanflight/src/main/drivers/display_ug2864hsweg01.c ****             return false;
 800              	 .loc 1 185 0
 801 002e 0023     	 movs r3,#0
 802 0030 07E0     	 b .L6
 803              	.L5:
 183:../cleanflight/src/main/drivers/display_ug2864hsweg01.c ****     for (size_t i = 0 ; i < len ; i++) {
 804              	 .loc 1 183 0 discriminator 2
 805 0032 7B69     	 ldr r3,[r7,#20]
 806 0034 0133     	 adds r3,r3,#1
 807 0036 7B61     	 str r3,[r7,#20]
 808              	.L4:
 183:../cleanflight/src/main/drivers/display_ug2864hsweg01.c ****     for (size_t i = 0 ; i < len ; i++) {
 809              	 .loc 1 183 0 is_stmt 0 discriminator 1
 810 0038 7A69     	 ldr r2,[r7,#20]
 811 003a 7B68     	 ldr r3,[r7,#4]
 812 003c 9A42     	 cmp r2,r3
 813 003e E8D3     	 bcc .L7
 814              	.LBE2:
 186:../cleanflight/src/main/drivers/display_ug2864hsweg01.c ****         }
 187:../cleanflight/src/main/drivers/display_ug2864hsweg01.c ****     }
 188:../cleanflight/src/main/drivers/display_ug2864hsweg01.c **** 
 189:../cleanflight/src/main/drivers/display_ug2864hsweg01.c ****     return true;
 815              	 .loc 1 189 0 is_stmt 1
 816 0040 0123     	 movs r3,#1
 817              	.L6:
 190:../cleanflight/src/main/drivers/display_ug2864hsweg01.c **** }
 818              	 .loc 1 190 0
 819 0042 1846     	 mov r0,r3
 820 0044 1837     	 adds r7,r7,#24
 821              	.LCFI8:
 822              	 .cfi_def_cfa_offset 8
 823 0046 BD46     	 mov sp,r7
 824              	.LCFI9:
 825              	 .cfi_def_cfa_register 13
 826              	 
 827 0048 80BD     	 pop {r7,pc}
 828              	 .cfi_endproc
 829              	.LFE522:
 831 004a 00BF     	 .section .text.i2c_OLED_send_byte,"ax",%progbits
 832              	 .align 2
 833              	 .thumb
 834              	 .thumb_func
 836              	i2c_OLED_send_byte:
 837              	.LFB523:
 191:../cleanflight/src/main/drivers/display_ug2864hsweg01.c **** 
 192:../cleanflight/src/main/drivers/display_ug2864hsweg01.c **** static bool i2c_OLED_send_byte(busDevice_t *bus, uint8_t val)
 193:../cleanflight/src/main/drivers/display_ug2864hsweg01.c **** {
 838              	 .loc 1 193 0
 839              	 .cfi_startproc
 840              	 
 841              	 
 842 0000 80B5     	 push {r7,lr}
 843              	.LCFI10:
 844              	 .cfi_def_cfa_offset 8
 845              	 .cfi_offset 7,-8
 846              	 .cfi_offset 14,-4
 847 0002 82B0     	 sub sp,sp,#8
 848              	.LCFI11:
 849              	 .cfi_def_cfa_offset 16
 850 0004 00AF     	 add r7,sp,#0
 851              	.LCFI12:
 852              	 .cfi_def_cfa_register 7
 853 0006 7860     	 str r0,[r7,#4]
 854 0008 0B46     	 mov r3,r1
 855 000a FB70     	 strb r3,[r7,#3]
 194:../cleanflight/src/main/drivers/display_ug2864hsweg01.c ****     return i2cWrite(bus->busdev_u.i2c.device, bus->busdev_u.i2c.address, 0x40, val);
 856              	 .loc 1 194 0
 857 000c 7B68     	 ldr r3,[r7,#4]
 858 000e 5978     	 ldrb r1,[r3,#1]
 859 0010 7B68     	 ldr r3,[r7,#4]
 860 0012 9A78     	 ldrb r2,[r3,#2]
 861 0014 49B2     	 sxtb r1,r1
 862 0016 FB78     	 ldrb r3,[r7,#3]
 863 0018 0846     	 mov r0,r1
 864 001a 1146     	 mov r1,r2
 865 001c 4022     	 movs r2,#64
 866 001e FFF7FEFF 	 bl i2cWrite
 867 0022 0346     	 mov r3,r0
 195:../cleanflight/src/main/drivers/display_ug2864hsweg01.c **** }
 868              	 .loc 1 195 0
 869 0024 1846     	 mov r0,r3
 870 0026 0837     	 adds r7,r7,#8
 871              	.LCFI13:
 872              	 .cfi_def_cfa_offset 8
 873 0028 BD46     	 mov sp,r7
 874              	.LCFI14:
 875              	 .cfi_def_cfa_register 13
 876              	 
 877 002a 80BD     	 pop {r7,pc}
 878              	 .cfi_endproc
 879              	.LFE523:
 881              	 .section .text.i2c_OLED_clear_display_quick,"ax",%progbits
 882              	 .align 2
 883              	 .global i2c_OLED_clear_display_quick
 884              	 .thumb
 885              	 .thumb_func
 887              	i2c_OLED_clear_display_quick:
 888              	.LFB524:
 196:../cleanflight/src/main/drivers/display_ug2864hsweg01.c **** 
 197:../cleanflight/src/main/drivers/display_ug2864hsweg01.c **** void i2c_OLED_clear_display_quick(busDevice_t *bus)
 198:../cleanflight/src/main/drivers/display_ug2864hsweg01.c **** {
 889              	 .loc 1 198 0
 890              	 .cfi_startproc
 891              	 
 892              	 
 893 0000 80B5     	 push {r7,lr}
 894              	.LCFI15:
 895              	 .cfi_def_cfa_offset 8
 896              	 .cfi_offset 7,-8
 897              	 .cfi_offset 14,-4
 898 0002 84B0     	 sub sp,sp,#16
 899              	.LCFI16:
 900              	 .cfi_def_cfa_offset 24
 901 0004 00AF     	 add r7,sp,#0
 902              	.LCFI17:
 903              	 .cfi_def_cfa_register 7
 904 0006 7860     	 str r0,[r7,#4]
 199:../cleanflight/src/main/drivers/display_ug2864hsweg01.c ****     static const uint8_t i2c_OLED_cmd_clear_display_quick[] = {
 200:../cleanflight/src/main/drivers/display_ug2864hsweg01.c ****         0xb0, // set page address to 0
 201:../cleanflight/src/main/drivers/display_ug2864hsweg01.c ****         0x40, // Display start line register to 0
 202:../cleanflight/src/main/drivers/display_ug2864hsweg01.c ****         0,    // Set low col address to 0
 203:../cleanflight/src/main/drivers/display_ug2864hsweg01.c ****         0x10, // Set high col address to 0
 204:../cleanflight/src/main/drivers/display_ug2864hsweg01.c ****     };
 205:../cleanflight/src/main/drivers/display_ug2864hsweg01.c **** 
 206:../cleanflight/src/main/drivers/display_ug2864hsweg01.c ****     i2c_OLED_send_cmdarray(bus, i2c_OLED_cmd_clear_display_quick, ARRAYLEN(i2c_OLED_cmd_clear_displ
 905              	 .loc 1 206 0
 906 0008 7868     	 ldr r0,[r7,#4]
 907 000a 0A49     	 ldr r1,.L13
 908 000c 0422     	 movs r2,#4
 909 000e FFF7FEFF 	 bl i2c_OLED_send_cmdarray
 910              	.LBB3:
 207:../cleanflight/src/main/drivers/display_ug2864hsweg01.c **** 
 208:../cleanflight/src/main/drivers/display_ug2864hsweg01.c ****     for (uint16_t i = 0; i < 1024; i++) {      // fill the display's RAM with graphic... 128*64 pix
 911              	 .loc 1 208 0
 912 0012 0023     	 movs r3,#0
 913 0014 FB81     	 strh r3,[r7,#14]
 914 0016 06E0     	 b .L11
 915              	.L12:
 209:../cleanflight/src/main/drivers/display_ug2864hsweg01.c ****         i2c_OLED_send_byte(bus, 0x00);  // clear
 916              	 .loc 1 209 0 discriminator 3
 917 0018 7868     	 ldr r0,[r7,#4]
 918 001a 0021     	 movs r1,#0
 919 001c FFF7FEFF 	 bl i2c_OLED_send_byte
 208:../cleanflight/src/main/drivers/display_ug2864hsweg01.c ****         i2c_OLED_send_byte(bus, 0x00);  // clear
 920              	 .loc 1 208 0 discriminator 3
 921 0020 FB89     	 ldrh r3,[r7,#14]
 922 0022 0133     	 adds r3,r3,#1
 923 0024 FB81     	 strh r3,[r7,#14]
 924              	.L11:
 208:../cleanflight/src/main/drivers/display_ug2864hsweg01.c ****         i2c_OLED_send_byte(bus, 0x00);  // clear
 925              	 .loc 1 208 0 is_stmt 0 discriminator 1
 926 0026 FB89     	 ldrh r3,[r7,#14]
 927 0028 B3F5806F 	 cmp r3,#1024
 928 002c F4D3     	 bcc .L12
 929              	.LBE3:
 210:../cleanflight/src/main/drivers/display_ug2864hsweg01.c ****     }
 211:../cleanflight/src/main/drivers/display_ug2864hsweg01.c **** }
 930              	 .loc 1 211 0 is_stmt 1
 931 002e 1037     	 adds r7,r7,#16
 932              	.LCFI18:
 933              	 .cfi_def_cfa_offset 8
 934 0030 BD46     	 mov sp,r7
 935              	.LCFI19:
 936              	 .cfi_def_cfa_register 13
 937              	 
 938 0032 80BD     	 pop {r7,pc}
 939              	.L14:
 940              	 .align 2
 941              	.L13:
 942 0034 00000000 	 .word i2c_OLED_cmd_clear_display_quick.11538
 943              	 .cfi_endproc
 944              	.LFE524:
 946              	 .section .text.i2c_OLED_clear_display,"ax",%progbits
 947              	 .align 2
 948              	 .global i2c_OLED_clear_display
 949              	 .thumb
 950              	 .thumb_func
 952              	i2c_OLED_clear_display:
 953              	.LFB525:
 212:../cleanflight/src/main/drivers/display_ug2864hsweg01.c **** 
 213:../cleanflight/src/main/drivers/display_ug2864hsweg01.c **** void i2c_OLED_clear_display(busDevice_t *bus)
 214:../cleanflight/src/main/drivers/display_ug2864hsweg01.c **** {
 954              	 .loc 1 214 0
 955              	 .cfi_startproc
 956              	 
 957              	 
 958 0000 80B5     	 push {r7,lr}
 959              	.LCFI20:
 960              	 .cfi_def_cfa_offset 8
 961              	 .cfi_offset 7,-8
 962              	 .cfi_offset 14,-4
 963 0002 82B0     	 sub sp,sp,#8
 964              	.LCFI21:
 965              	 .cfi_def_cfa_offset 16
 966 0004 00AF     	 add r7,sp,#0
 967              	.LCFI22:
 968              	 .cfi_def_cfa_register 7
 969 0006 7860     	 str r0,[r7,#4]
 215:../cleanflight/src/main/drivers/display_ug2864hsweg01.c ****     static const uint8_t i2c_OLED_cmd_clear_display_pre[] = {
 216:../cleanflight/src/main/drivers/display_ug2864hsweg01.c ****         0xa6, // Set Normal Display
 217:../cleanflight/src/main/drivers/display_ug2864hsweg01.c ****         0xae, // Display OFF
 218:../cleanflight/src/main/drivers/display_ug2864hsweg01.c ****         0x20, // Set Memory Addressing Mode
 219:../cleanflight/src/main/drivers/display_ug2864hsweg01.c ****         0x00, // Set Memory Addressing Mode to Horizontal addressing mode
 220:../cleanflight/src/main/drivers/display_ug2864hsweg01.c ****     };
 221:../cleanflight/src/main/drivers/display_ug2864hsweg01.c **** 
 222:../cleanflight/src/main/drivers/display_ug2864hsweg01.c ****     i2c_OLED_send_cmdarray(bus, i2c_OLED_cmd_clear_display_pre, ARRAYLEN(i2c_OLED_cmd_clear_display
 970              	 .loc 1 222 0
 971 0008 7868     	 ldr r0,[r7,#4]
 972 000a 0749     	 ldr r1,.L16
 973 000c 0422     	 movs r2,#4
 974 000e FFF7FEFF 	 bl i2c_OLED_send_cmdarray
 223:../cleanflight/src/main/drivers/display_ug2864hsweg01.c **** 
 224:../cleanflight/src/main/drivers/display_ug2864hsweg01.c ****     i2c_OLED_clear_display_quick(bus);
 975              	 .loc 1 224 0
 976 0012 7868     	 ldr r0,[r7,#4]
 977 0014 FFF7FEFF 	 bl i2c_OLED_clear_display_quick
 225:../cleanflight/src/main/drivers/display_ug2864hsweg01.c **** 
 226:../cleanflight/src/main/drivers/display_ug2864hsweg01.c ****     static const uint8_t i2c_OLED_cmd_clear_display_post[] = {
 227:../cleanflight/src/main/drivers/display_ug2864hsweg01.c ****         0x81, // Setup CONTRAST CONTROL, following byte is the contrast Value... always a 2 byte in
 228:../cleanflight/src/main/drivers/display_ug2864hsweg01.c ****         200,  // Here you can set the brightness 1 = dull, 255 is very bright
 229:../cleanflight/src/main/drivers/display_ug2864hsweg01.c ****         0xaf, // display on
 230:../cleanflight/src/main/drivers/display_ug2864hsweg01.c ****     };
 231:../cleanflight/src/main/drivers/display_ug2864hsweg01.c **** 
 232:../cleanflight/src/main/drivers/display_ug2864hsweg01.c ****     i2c_OLED_send_cmdarray(bus, i2c_OLED_cmd_clear_display_post, ARRAYLEN(i2c_OLED_cmd_clear_displa
 978              	 .loc 1 232 0
 979 0018 7868     	 ldr r0,[r7,#4]
 980 001a 0449     	 ldr r1,.L16+4
 981 001c 0322     	 movs r2,#3
 982 001e FFF7FEFF 	 bl i2c_OLED_send_cmdarray
 233:../cleanflight/src/main/drivers/display_ug2864hsweg01.c **** }
 983              	 .loc 1 233 0
 984 0022 0837     	 adds r7,r7,#8
 985              	.LCFI23:
 986              	 .cfi_def_cfa_offset 8
 987 0024 BD46     	 mov sp,r7
 988              	.LCFI24:
 989              	 .cfi_def_cfa_register 13
 990              	 
 991 0026 80BD     	 pop {r7,pc}
 992              	.L17:
 993              	 .align 2
 994              	.L16:
 995 0028 00000000 	 .word i2c_OLED_cmd_clear_display_pre.11546
 996 002c 00000000 	 .word i2c_OLED_cmd_clear_display_post.11547
 997              	 .cfi_endproc
 998              	.LFE525:
 1000              	 .section .text.i2c_OLED_set_xy,"ax",%progbits
 1001              	 .align 2
 1002              	 .global i2c_OLED_set_xy
 1003              	 .thumb
 1004              	 .thumb_func
 1006              	i2c_OLED_set_xy:
 1007              	.LFB526:
 234:../cleanflight/src/main/drivers/display_ug2864hsweg01.c **** 
 235:../cleanflight/src/main/drivers/display_ug2864hsweg01.c **** void i2c_OLED_set_xy(busDevice_t *bus, uint8_t col, uint8_t row)
 236:../cleanflight/src/main/drivers/display_ug2864hsweg01.c **** {
 1008              	 .loc 1 236 0
 1009              	 .cfi_startproc
 1010              	 
 1011              	 
 1012 0000 80B5     	 push {r7,lr}
 1013              	.LCFI25:
 1014              	 .cfi_def_cfa_offset 8
 1015              	 .cfi_offset 7,-8
 1016              	 .cfi_offset 14,-4
 1017 0002 84B0     	 sub sp,sp,#16
 1018              	.LCFI26:
 1019              	 .cfi_def_cfa_offset 24
 1020 0004 00AF     	 add r7,sp,#0
 1021              	.LCFI27:
 1022              	 .cfi_def_cfa_register 7
 1023 0006 7860     	 str r0,[r7,#4]
 1024 0008 0B46     	 mov r3,r1
 1025 000a FB70     	 strb r3,[r7,#3]
 1026 000c 1346     	 mov r3,r2
 1027 000e BB70     	 strb r3,[r7,#2]
 237:../cleanflight/src/main/drivers/display_ug2864hsweg01.c ****     uint8_t i2c_OLED_cmd_set_xy[] = {
 1028              	 .loc 1 237 0
 1029 0010 BB78     	 ldrb r3,[r7,#2]
 1030 0012 503B     	 subs r3,r3,#80
 1031 0014 DBB2     	 uxtb r3,r3
 1032 0016 3B73     	 strb r3,[r7,#12]
 1033 0018 FB78     	 ldrb r3,[r7,#3]
 1034 001a 1A46     	 mov r2,r3
 1035 001c 5200     	 lsls r2,r2,#1
 1036 001e 1344     	 add r3,r3,r2
 1037 0020 5B00     	 lsls r3,r3,#1
 1038 0022 DBB2     	 uxtb r3,r3
 1039 0024 03F00E03 	 and r3,r3,#14
 1040 0028 DBB2     	 uxtb r3,r3
 1041 002a 7B73     	 strb r3,[r7,#13]
 238:../cleanflight/src/main/drivers/display_ug2864hsweg01.c ****         0xb0 + row,                                            //set page address
 239:../cleanflight/src/main/drivers/display_ug2864hsweg01.c ****         0x00 + ((CHARACTER_WIDTH_TOTAL * col) & 0x0f),         //set low col address
 240:../cleanflight/src/main/drivers/display_ug2864hsweg01.c ****         0x10 + (((CHARACTER_WIDTH_TOTAL * col) >> 4) & 0x0f)   //set high col address
 1042              	 .loc 1 240 0
 1043 002c FA78     	 ldrb r2,[r7,#3]
 1044 002e 1346     	 mov r3,r2
 1045 0030 5B00     	 lsls r3,r3,#1
 1046 0032 1344     	 add r3,r3,r2
 1047 0034 5B00     	 lsls r3,r3,#1
 1048 0036 1B11     	 asrs r3,r3,#4
 237:../cleanflight/src/main/drivers/display_ug2864hsweg01.c ****     uint8_t i2c_OLED_cmd_set_xy[] = {
 1049              	 .loc 1 237 0
 1050 0038 DBB2     	 uxtb r3,r3
 1051 003a 03F00F03 	 and r3,r3,#15
 1052 003e DBB2     	 uxtb r3,r3
 1053 0040 1033     	 adds r3,r3,#16
 1054 0042 DBB2     	 uxtb r3,r3
 1055 0044 BB73     	 strb r3,[r7,#14]
 241:../cleanflight/src/main/drivers/display_ug2864hsweg01.c ****     };
 242:../cleanflight/src/main/drivers/display_ug2864hsweg01.c **** 
 243:../cleanflight/src/main/drivers/display_ug2864hsweg01.c ****     i2c_OLED_send_cmdarray(bus, i2c_OLED_cmd_set_xy, ARRAYLEN(i2c_OLED_cmd_set_xy));
 1056              	 .loc 1 243 0
 1057 0046 07F10C03 	 add r3,r7,#12
 1058 004a 7868     	 ldr r0,[r7,#4]
 1059 004c 1946     	 mov r1,r3
 1060 004e 0322     	 movs r2,#3
 1061 0050 FFF7FEFF 	 bl i2c_OLED_send_cmdarray
 244:../cleanflight/src/main/drivers/display_ug2864hsweg01.c **** }
 1062              	 .loc 1 244 0
 1063 0054 1037     	 adds r7,r7,#16
 1064              	.LCFI28:
 1065              	 .cfi_def_cfa_offset 8
 1066 0056 BD46     	 mov sp,r7
 1067              	.LCFI29:
 1068              	 .cfi_def_cfa_register 13
 1069              	 
 1070 0058 80BD     	 pop {r7,pc}
 1071              	 .cfi_endproc
 1072              	.LFE526:
 1074 005a 00BF     	 .section .text.i2c_OLED_set_line,"ax",%progbits
 1075              	 .align 2
 1076              	 .global i2c_OLED_set_line
 1077              	 .thumb
 1078              	 .thumb_func
 1080              	i2c_OLED_set_line:
 1081              	.LFB527:
 245:../cleanflight/src/main/drivers/display_ug2864hsweg01.c **** 
 246:../cleanflight/src/main/drivers/display_ug2864hsweg01.c **** void i2c_OLED_set_line(busDevice_t *bus, uint8_t row)
 247:../cleanflight/src/main/drivers/display_ug2864hsweg01.c **** {
 1082              	 .loc 1 247 0
 1083              	 .cfi_startproc
 1084              	 
 1085              	 
 1086 0000 80B5     	 push {r7,lr}
 1087              	.LCFI30:
 1088              	 .cfi_def_cfa_offset 8
 1089              	 .cfi_offset 7,-8
 1090              	 .cfi_offset 14,-4
 1091 0002 82B0     	 sub sp,sp,#8
 1092              	.LCFI31:
 1093              	 .cfi_def_cfa_offset 16
 1094 0004 00AF     	 add r7,sp,#0
 1095              	.LCFI32:
 1096              	 .cfi_def_cfa_register 7
 1097 0006 7860     	 str r0,[r7,#4]
 1098 0008 0B46     	 mov r3,r1
 1099 000a FB70     	 strb r3,[r7,#3]
 248:../cleanflight/src/main/drivers/display_ug2864hsweg01.c ****     i2c_OLED_set_xy(bus, 0, row);
 1100              	 .loc 1 248 0
 1101 000c FB78     	 ldrb r3,[r7,#3]
 1102 000e 7868     	 ldr r0,[r7,#4]
 1103 0010 0021     	 movs r1,#0
 1104 0012 1A46     	 mov r2,r3
 1105 0014 FFF7FEFF 	 bl i2c_OLED_set_xy
 249:../cleanflight/src/main/drivers/display_ug2864hsweg01.c **** }
 1106              	 .loc 1 249 0
 1107 0018 0837     	 adds r7,r7,#8
 1108              	.LCFI33:
 1109              	 .cfi_def_cfa_offset 8
 1110 001a BD46     	 mov sp,r7
 1111              	.LCFI34:
 1112              	 .cfi_def_cfa_register 13
 1113              	 
 1114 001c 80BD     	 pop {r7,pc}
 1115              	 .cfi_endproc
 1116              	.LFE527:
 1118 001e 00BF     	 .section .text.i2c_OLED_send_char,"ax",%progbits
 1119              	 .align 2
 1120              	 .global i2c_OLED_send_char
 1121              	 .thumb
 1122              	 .thumb_func
 1124              	i2c_OLED_send_char:
 1125              	.LFB528:
 250:../cleanflight/src/main/drivers/display_ug2864hsweg01.c **** 
 251:../cleanflight/src/main/drivers/display_ug2864hsweg01.c **** void i2c_OLED_send_char(busDevice_t *bus, unsigned char ascii)
 252:../cleanflight/src/main/drivers/display_ug2864hsweg01.c **** {
 1126              	 .loc 1 252 0
 1127              	 .cfi_startproc
 1128              	 
 1129              	 
 1130 0000 80B5     	 push {r7,lr}
 1131              	.LCFI35:
 1132              	 .cfi_def_cfa_offset 8
 1133              	 .cfi_offset 7,-8
 1134              	 .cfi_offset 14,-4
 1135 0002 84B0     	 sub sp,sp,#16
 1136              	.LCFI36:
 1137              	 .cfi_def_cfa_offset 24
 1138 0004 00AF     	 add r7,sp,#0
 1139              	.LCFI37:
 1140              	 .cfi_def_cfa_register 7
 1141 0006 7860     	 str r0,[r7,#4]
 1142 0008 0B46     	 mov r3,r1
 1143 000a FB70     	 strb r3,[r7,#3]
 253:../cleanflight/src/main/drivers/display_ug2864hsweg01.c ****     unsigned char i;
 254:../cleanflight/src/main/drivers/display_ug2864hsweg01.c ****     uint8_t buffer;
 255:../cleanflight/src/main/drivers/display_ug2864hsweg01.c ****     for (i = 0; i < 5; i++) {
 1144              	 .loc 1 255 0
 1145 000c 0023     	 movs r3,#0
 1146 000e FB73     	 strb r3,[r7,#15]
 1147 0010 18E0     	 b .L21
 1148              	.L22:
 256:../cleanflight/src/main/drivers/display_ug2864hsweg01.c ****         buffer = multiWiiFont[ascii - 32][i];
 1149              	 .loc 1 256 0 discriminator 3
 1150 0012 FB78     	 ldrb r3,[r7,#3]
 1151 0014 A3F12002 	 sub r2,r3,#32
 1152 0018 F97B     	 ldrb r1,[r7,#15]
 1153 001a 1048     	 ldr r0,.L23
 1154 001c 1346     	 mov r3,r2
 1155 001e 9B00     	 lsls r3,r3,#2
 1156 0020 1344     	 add r3,r3,r2
 1157 0022 0B44     	 add r3,r3,r1
 1158 0024 0344     	 add r3,r3,r0
 1159 0026 1B78     	 ldrb r3,[r3]
 1160 0028 BB73     	 strb r3,[r7,#14]
 257:../cleanflight/src/main/drivers/display_ug2864hsweg01.c ****         buffer ^= CHAR_FORMAT;  // apply
 1161              	 .loc 1 257 0 discriminator 3
 1162 002a 0D4B     	 ldr r3,.L23+4
 1163 002c 1A78     	 ldrb r2,[r3]
 1164 002e BB7B     	 ldrb r3,[r7,#14]
 1165 0030 5340     	 eors r3,r3,r2
 1166 0032 BB73     	 strb r3,[r7,#14]
 258:../cleanflight/src/main/drivers/display_ug2864hsweg01.c ****         i2c_OLED_send_byte(bus, buffer);
 1167              	 .loc 1 258 0 discriminator 3
 1168 0034 BB7B     	 ldrb r3,[r7,#14]
 1169 0036 7868     	 ldr r0,[r7,#4]
 1170 0038 1946     	 mov r1,r3
 1171 003a FFF7FEFF 	 bl i2c_OLED_send_byte
 255:../cleanflight/src/main/drivers/display_ug2864hsweg01.c ****         buffer = multiWiiFont[ascii - 32][i];
 1172              	 .loc 1 255 0 discriminator 3
 1173 003e FB7B     	 ldrb r3,[r7,#15]
 1174 0040 0133     	 adds r3,r3,#1
 1175 0042 FB73     	 strb r3,[r7,#15]
 1176              	.L21:
 255:../cleanflight/src/main/drivers/display_ug2864hsweg01.c ****         buffer = multiWiiFont[ascii - 32][i];
 1177              	 .loc 1 255 0 is_stmt 0 discriminator 1
 1178 0044 FB7B     	 ldrb r3,[r7,#15]
 1179 0046 042B     	 cmp r3,#4
 1180 0048 E3D9     	 bls .L22
 259:../cleanflight/src/main/drivers/display_ug2864hsweg01.c ****     }
 260:../cleanflight/src/main/drivers/display_ug2864hsweg01.c ****     i2c_OLED_send_byte(bus, CHAR_FORMAT);    // the gap
 1181              	 .loc 1 260 0 is_stmt 1
 1182 004a 054B     	 ldr r3,.L23+4
 1183 004c 1B78     	 ldrb r3,[r3]
 1184 004e 7868     	 ldr r0,[r7,#4]
 1185 0050 1946     	 mov r1,r3
 1186 0052 FFF7FEFF 	 bl i2c_OLED_send_byte
 261:../cleanflight/src/main/drivers/display_ug2864hsweg01.c **** }
 1187              	 .loc 1 261 0
 1188 0056 1037     	 adds r7,r7,#16
 1189              	.LCFI38:
 1190              	 .cfi_def_cfa_offset 8
 1191 0058 BD46     	 mov sp,r7
 1192              	.LCFI39:
 1193              	 .cfi_def_cfa_register 13
 1194              	 
 1195 005a 80BD     	 pop {r7,pc}
 1196              	.L24:
 1197              	 .align 2
 1198              	.L23:
 1199 005c 00000000 	 .word multiWiiFont
 1200 0060 00000000 	 .word CHAR_FORMAT
 1201              	 .cfi_endproc
 1202              	.LFE528:
 1204              	 .section .text.i2c_OLED_send_string,"ax",%progbits
 1205              	 .align 2
 1206              	 .global i2c_OLED_send_string
 1207              	 .thumb
 1208              	 .thumb_func
 1210              	i2c_OLED_send_string:
 1211              	.LFB529:
 262:../cleanflight/src/main/drivers/display_ug2864hsweg01.c **** 
 263:../cleanflight/src/main/drivers/display_ug2864hsweg01.c **** void i2c_OLED_send_string(busDevice_t *bus, const char *string)
 264:../cleanflight/src/main/drivers/display_ug2864hsweg01.c **** {
 1212              	 .loc 1 264 0
 1213              	 .cfi_startproc
 1214              	 
 1215              	 
 1216 0000 80B5     	 push {r7,lr}
 1217              	.LCFI40:
 1218              	 .cfi_def_cfa_offset 8
 1219              	 .cfi_offset 7,-8
 1220              	 .cfi_offset 14,-4
 1221 0002 82B0     	 sub sp,sp,#8
 1222              	.LCFI41:
 1223              	 .cfi_def_cfa_offset 16
 1224 0004 00AF     	 add r7,sp,#0
 1225              	.LCFI42:
 1226              	 .cfi_def_cfa_register 7
 1227 0006 7860     	 str r0,[r7,#4]
 1228 0008 3960     	 str r1,[r7]
 265:../cleanflight/src/main/drivers/display_ug2864hsweg01.c ****     // Sends a string of chars until null terminator
 266:../cleanflight/src/main/drivers/display_ug2864hsweg01.c ****     while (*string) {
 1229              	 .loc 1 266 0
 1230 000a 08E0     	 b .L26
 1231              	.L27:
 267:../cleanflight/src/main/drivers/display_ug2864hsweg01.c ****         i2c_OLED_send_char(bus, *string);
 1232              	 .loc 1 267 0
 1233 000c 3B68     	 ldr r3,[r7]
 1234 000e 1B78     	 ldrb r3,[r3]
 1235 0010 7868     	 ldr r0,[r7,#4]
 1236 0012 1946     	 mov r1,r3
 1237 0014 FFF7FEFF 	 bl i2c_OLED_send_char
 268:../cleanflight/src/main/drivers/display_ug2864hsweg01.c ****         string++;
 1238              	 .loc 1 268 0
 1239 0018 3B68     	 ldr r3,[r7]
 1240 001a 0133     	 adds r3,r3,#1
 1241 001c 3B60     	 str r3,[r7]
 1242              	.L26:
 266:../cleanflight/src/main/drivers/display_ug2864hsweg01.c ****         i2c_OLED_send_char(bus, *string);
 1243              	 .loc 1 266 0
 1244 001e 3B68     	 ldr r3,[r7]
 1245 0020 1B78     	 ldrb r3,[r3]
 1246 0022 002B     	 cmp r3,#0
 1247 0024 F2D1     	 bne .L27
 269:../cleanflight/src/main/drivers/display_ug2864hsweg01.c ****     }
 270:../cleanflight/src/main/drivers/display_ug2864hsweg01.c **** }
 1248              	 .loc 1 270 0
 1249 0026 0837     	 adds r7,r7,#8
 1250              	.LCFI43:
 1251              	 .cfi_def_cfa_offset 8
 1252 0028 BD46     	 mov sp,r7
 1253              	.LCFI44:
 1254              	 .cfi_def_cfa_register 13
 1255              	 
 1256 002a 80BD     	 pop {r7,pc}
 1257              	 .cfi_endproc
 1258              	.LFE529:
 1260              	 .section .text.ug2864hsweg01InitI2C,"ax",%progbits
 1261              	 .align 2
 1262              	 .global ug2864hsweg01InitI2C
 1263              	 .thumb
 1264              	 .thumb_func
 1266              	ug2864hsweg01InitI2C:
 1267              	.LFB530:
 271:../cleanflight/src/main/drivers/display_ug2864hsweg01.c **** 
 272:../cleanflight/src/main/drivers/display_ug2864hsweg01.c **** /**
 273:../cleanflight/src/main/drivers/display_ug2864hsweg01.c **** * according to http://www.adafruit.com/datasheets/UG-2864HSWEG01.pdf Chapter 4.4 Page 15
 274:../cleanflight/src/main/drivers/display_ug2864hsweg01.c **** */
 275:../cleanflight/src/main/drivers/display_ug2864hsweg01.c **** 
 276:../cleanflight/src/main/drivers/display_ug2864hsweg01.c **** bool ug2864hsweg01InitI2C(busDevice_t *bus)
 277:../cleanflight/src/main/drivers/display_ug2864hsweg01.c **** {
 1268              	 .loc 1 277 0
 1269              	 .cfi_startproc
 1270              	 
 1271              	 
 1272 0000 80B5     	 push {r7,lr}
 1273              	.LCFI45:
 1274              	 .cfi_def_cfa_offset 8
 1275              	 .cfi_offset 7,-8
 1276              	 .cfi_offset 14,-4
 1277 0002 82B0     	 sub sp,sp,#8
 1278              	.LCFI46:
 1279              	 .cfi_def_cfa_offset 16
 1280 0004 00AF     	 add r7,sp,#0
 1281              	.LCFI47:
 1282              	 .cfi_def_cfa_register 7
 1283 0006 7860     	 str r0,[r7,#4]
 278:../cleanflight/src/main/drivers/display_ug2864hsweg01.c **** 
 279:../cleanflight/src/main/drivers/display_ug2864hsweg01.c ****     // Set display OFF
 280:../cleanflight/src/main/drivers/display_ug2864hsweg01.c ****     if (!i2c_OLED_send_cmd(bus, 0xAE)) {
 1284              	 .loc 1 280 0
 1285 0008 7868     	 ldr r0,[r7,#4]
 1286 000a AE21     	 movs r1,#174
 1287 000c FFF7FEFF 	 bl i2c_OLED_send_cmd
 1288 0010 0346     	 mov r3,r0
 1289 0012 83F00103 	 eor r3,r3,#1
 1290 0016 DBB2     	 uxtb r3,r3
 1291 0018 002B     	 cmp r3,#0
 1292 001a 01D0     	 beq .L29
 281:../cleanflight/src/main/drivers/display_ug2864hsweg01.c ****         return false;
 1293              	 .loc 1 281 0
 1294 001c 0023     	 movs r3,#0
 1295 001e 08E0     	 b .L30
 1296              	.L29:
 282:../cleanflight/src/main/drivers/display_ug2864hsweg01.c ****     }
 283:../cleanflight/src/main/drivers/display_ug2864hsweg01.c **** 
 284:../cleanflight/src/main/drivers/display_ug2864hsweg01.c ****     static const uint8_t i2c_OLED_cmd_init[] = {
 285:../cleanflight/src/main/drivers/display_ug2864hsweg01.c ****         0xD4, // Set Display Clock Divide Ratio / OSC Frequency
 286:../cleanflight/src/main/drivers/display_ug2864hsweg01.c ****         0x80, // Display Clock Divide Ratio / OSC Frequency
 287:../cleanflight/src/main/drivers/display_ug2864hsweg01.c ****         0xA8, // Set Multiplex Ratio
 288:../cleanflight/src/main/drivers/display_ug2864hsweg01.c ****         0x3F, // Multiplex Ratio for 128x64 (64-1)
 289:../cleanflight/src/main/drivers/display_ug2864hsweg01.c ****         0xD3, // Set Display Offset
 290:../cleanflight/src/main/drivers/display_ug2864hsweg01.c ****         0x00, // Display Offset
 291:../cleanflight/src/main/drivers/display_ug2864hsweg01.c ****         0x40, // Set Display Start Line
 292:../cleanflight/src/main/drivers/display_ug2864hsweg01.c ****         0x8D, // Set Charge Pump
 293:../cleanflight/src/main/drivers/display_ug2864hsweg01.c ****         0x14, // Charge Pump (0x10 External, 0x14 Internal DC/DC)
 294:../cleanflight/src/main/drivers/display_ug2864hsweg01.c ****         0xA1, // Set Segment Re-Map
 295:../cleanflight/src/main/drivers/display_ug2864hsweg01.c ****         0xC8, // Set Com Output Scan Direction
 296:../cleanflight/src/main/drivers/display_ug2864hsweg01.c ****         0xDA, // Set COM Hardware Configuration
 297:../cleanflight/src/main/drivers/display_ug2864hsweg01.c ****         0x12, // COM Hardware Configuration
 298:../cleanflight/src/main/drivers/display_ug2864hsweg01.c ****         0x81, // Set Contrast
 299:../cleanflight/src/main/drivers/display_ug2864hsweg01.c ****         0xCF, // Contrast
 300:../cleanflight/src/main/drivers/display_ug2864hsweg01.c ****         0xD9, // Set Pre-Charge Period
 301:../cleanflight/src/main/drivers/display_ug2864hsweg01.c ****         0xF1, // Set Pre-Charge Period (0x22 External, 0xF1 Internal)
 302:../cleanflight/src/main/drivers/display_ug2864hsweg01.c ****         0xDB, // Set VCOMH Deselect Level
 303:../cleanflight/src/main/drivers/display_ug2864hsweg01.c ****         0x40, // VCOMH Deselect Level
 304:../cleanflight/src/main/drivers/display_ug2864hsweg01.c ****         0xA4, // Set all pixels OFF
 305:../cleanflight/src/main/drivers/display_ug2864hsweg01.c ****         0xA6, // Set display not inverted
 306:../cleanflight/src/main/drivers/display_ug2864hsweg01.c ****         0xAF, // Set display On
 307:../cleanflight/src/main/drivers/display_ug2864hsweg01.c ****     };
 308:../cleanflight/src/main/drivers/display_ug2864hsweg01.c **** 
 309:../cleanflight/src/main/drivers/display_ug2864hsweg01.c ****     i2c_OLED_send_cmdarray(bus, i2c_OLED_cmd_init, ARRAYLEN(i2c_OLED_cmd_init));
 1297              	 .loc 1 309 0
 1298 0020 7868     	 ldr r0,[r7,#4]
 1299 0022 0649     	 ldr r1,.L31
 1300 0024 1622     	 movs r2,#22
 1301 0026 FFF7FEFF 	 bl i2c_OLED_send_cmdarray
 310:../cleanflight/src/main/drivers/display_ug2864hsweg01.c **** 
 311:../cleanflight/src/main/drivers/display_ug2864hsweg01.c ****     i2c_OLED_clear_display(bus);
 1302              	 .loc 1 311 0
 1303 002a 7868     	 ldr r0,[r7,#4]
 1304 002c FFF7FEFF 	 bl i2c_OLED_clear_display
 312:../cleanflight/src/main/drivers/display_ug2864hsweg01.c **** 
 313:../cleanflight/src/main/drivers/display_ug2864hsweg01.c ****     return true;
 1305              	 .loc 1 313 0
 1306 0030 0123     	 movs r3,#1
 1307              	.L30:
 314:../cleanflight/src/main/drivers/display_ug2864hsweg01.c **** }
 1308              	 .loc 1 314 0
 1309 0032 1846     	 mov r0,r3
 1310 0034 0837     	 adds r7,r7,#8
 1311              	.LCFI48:
 1312              	 .cfi_def_cfa_offset 8
 1313 0036 BD46     	 mov sp,r7
 1314              	.LCFI49:
 1315              	 .cfi_def_cfa_register 13
 1316              	 
 1317 0038 80BD     	 pop {r7,pc}
 1318              	.L32:
 1319 003a 00BF     	 .align 2
 1320              	.L31:
 1321 003c 00000000 	 .word i2c_OLED_cmd_init.11577
 1322              	 .cfi_endproc
 1323              	.LFE530:
 1325              	 .section .rodata.i2c_OLED_cmd_clear_display_quick.11538,"a",%progbits
 1326              	 .align 2
 1329              	i2c_OLED_cmd_clear_display_quick.11538:
 1330 0000 B0       	 .byte -80
 1331 0001 40       	 .byte 64
 1332 0002 00       	 .byte 0
 1333 0003 10       	 .byte 16
 1334              	 .section .rodata.i2c_OLED_cmd_clear_display_pre.11546,"a",%progbits
 1335              	 .align 2
 1338              	i2c_OLED_cmd_clear_display_pre.11546:
 1339 0000 A6       	 .byte -90
 1340 0001 AE       	 .byte -82
 1341 0002 20       	 .byte 32
 1342 0003 00       	 .byte 0
 1343              	 .section .rodata.i2c_OLED_cmd_clear_display_post.11547,"a",%progbits
 1344              	 .align 2
 1347              	i2c_OLED_cmd_clear_display_post.11547:
 1348 0000 81       	 .byte -127
 1349 0001 C8       	 .byte -56
 1350 0002 AF       	 .byte -81
 1351 0003 00       	 .section .rodata.i2c_OLED_cmd_init.11577,"a",%progbits
 1352              	 .align 2
 1355              	i2c_OLED_cmd_init.11577:
 1356 0000 D4       	 .byte -44
 1357 0001 80       	 .byte -128
 1358 0002 A8       	 .byte -88
 1359 0003 3F       	 .byte 63
 1360 0004 D3       	 .byte -45
 1361 0005 00       	 .byte 0
 1362 0006 40       	 .byte 64
 1363 0007 8D       	 .byte -115
 1364 0008 14       	 .byte 20
 1365 0009 A1       	 .byte -95
 1366 000a C8       	 .byte -56
 1367 000b DA       	 .byte -38
 1368 000c 12       	 .byte 18
 1369 000d 81       	 .byte -127
 1370 000e CF       	 .byte -49
 1371 000f D9       	 .byte -39
 1372 0010 F1       	 .byte -15
 1373 0011 DB       	 .byte -37
 1374 0012 40       	 .byte 64
 1375 0013 A4       	 .byte -92
 1376 0014 A6       	 .byte -90
 1377 0015 AF       	 .byte -81
 1378 0016 0000     	 .text
 1379              	.Letext0:
 1380              	 .file 2 "d:\\xmc\\dave-ide-4.4.2-64bit\\eclipse\\arm-gcc-49\\arm-none-eabi\\include\\machine\\_default_types.h"
 1381              	 .file 3 "d:\\xmc\\dave-ide-4.4.2-64bit\\eclipse\\arm-gcc-49\\arm-none-eabi\\include\\stdint.h"
 1382              	 .file 4 "D:/XMC/Projekte/Temp/CF_XMC4700/cleanflight/lib/main/XMC4000/xmc4700.h"
 1383              	 .file 5 "d:\\xmc\\dave-ide-4.4.2-64bit\\eclipse\\arm-gcc-49\\lib\\gcc\\arm-none-eabi\\4.9.3\\include\\stddef.h"
 1384              	 .file 6 "D:/XMC/Projekte/Temp/CF_XMC4700/cleanflight/lib/main/XMC4000/XMCLib/inc/xmc_usic.h"
 1385              	 .file 7 "D:/XMC/Projekte/Temp/CF_XMC4700/cleanflight/src/main/platform.h"
 1386              	 .file 8 "D:/XMC/Projekte/Temp/CF_XMC4700/cleanflight/src/main/drivers/io_types.h"
 1387              	 .file 9 "D:/XMC/Projekte/Temp/CF_XMC4700/cleanflight/src/main/drivers/bus_i2c.h"
 1388              	 .file 10 "D:/XMC/Projekte/Temp/CF_XMC4700/cleanflight/src/main/drivers/bus.h"
 1389              	 .file 11 "D:/XMC/Projekte/Temp/CF_XMC4700/cleanflight/lib/main/CMSIS/Core/Include/core_cm4.h"
 1390              	 .file 12 "D:/XMC/Projekte/Temp/CF_XMC4700/cleanflight/lib/main/XMC4000/system_XMC4700.h"