   1              	 .syntax unified
   2              	 .cpu cortex-m4
   3              	 .eabi_attribute 27,3
   4              	 .fpu fpv4-sp-d16
   5              	 .eabi_attribute 20,1
   6              	 .eabi_attribute 21,1
   7              	 .eabi_attribute 23,3
   8              	 .eabi_attribute 24,1
   9              	 .eabi_attribute 25,1
  10              	 .eabi_attribute 26,1
  11              	 .eabi_attribute 30,6
  12              	 .eabi_attribute 34,1
  13              	 .eabi_attribute 18,4
  14              	 .thumb
  15              	 .file "serial_pinconfig.c"
  16              	 .text
  17              	.Ltext0:
  18              	 .cfi_sections .debug_frame
  19              	 .section .rodata.serialDefaultPin,"a",%progbits
  20              	 .align 2
  23              	serialDefaultPin:
  24 0000 00       	 .byte 0
  25 0001 24       	 .byte 36
  26 0002 25       	 .byte 37
  27 0003 00       	 .byte 0
  28 0004 03       	 .byte 3
  29 0005 10       	 .byte 16
  30 0006 11       	 .byte 17
  31 0007 00       	 .byte 0
  32 0008 05       	 .byte 5
  33 0009 44       	 .byte 68
  34 000a 45       	 .byte 69
  35 000b 00       	 .byte 0
  36              	 .comm serialPinConfig_System,30,4
  37              	 .comm serialPinConfig_Copy,30,4
  38              	 .global serialPinConfig_Registry
  39              	 .section .pg_registry,"a",%progbits
  40              	 .align 2
  43              	serialPinConfig_Registry:
  44 0000 FD01     	 .short 509
  45 0002 1E00     	 .short 30
  46 0004 00000000 	 .word serialPinConfig_System
  47 0008 00000000 	 .word serialPinConfig_Copy
  48 000c 00000000 	 .word 0
  49 0010 00000000 	 .word pgResetFn_serialPinConfig
  50              	 .section .text.pgResetFn_serialPinConfig,"ax",%progbits
  51              	 .align 2
  52              	 .global pgResetFn_serialPinConfig
  53              	 .thumb
  54              	 .thumb_func
  56              	pgResetFn_serialPinConfig:
  57              	.LFB528:
  58              	 .file 1 "../cleanflight/src/main/drivers/serial_pinconfig.c"
   1:../cleanflight/src/main/drivers/serial_pinconfig.c **** /*
   2:../cleanflight/src/main/drivers/serial_pinconfig.c ****  * This file is part of Cleanflight and Betaflight.
   3:../cleanflight/src/main/drivers/serial_pinconfig.c ****  *
   4:../cleanflight/src/main/drivers/serial_pinconfig.c ****  * Cleanflight and Betaflight are free software. You can redistribute
   5:../cleanflight/src/main/drivers/serial_pinconfig.c ****  * this software and/or modify this software under the terms of the
   6:../cleanflight/src/main/drivers/serial_pinconfig.c ****  * GNU General Public License as published by the Free Software
   7:../cleanflight/src/main/drivers/serial_pinconfig.c ****  * Foundation, either version 3 of the License, or (at your option)
   8:../cleanflight/src/main/drivers/serial_pinconfig.c ****  * any later version.
   9:../cleanflight/src/main/drivers/serial_pinconfig.c ****  *
  10:../cleanflight/src/main/drivers/serial_pinconfig.c ****  * Cleanflight and Betaflight are distributed in the hope that they
  11:../cleanflight/src/main/drivers/serial_pinconfig.c ****  * will be useful, but WITHOUT ANY WARRANTY; without even the implied
  12:../cleanflight/src/main/drivers/serial_pinconfig.c ****  * warranty of MERCHANTABILITY or FITNESS FOR A PARTICULAR PURPOSE.
  13:../cleanflight/src/main/drivers/serial_pinconfig.c ****  * See the GNU General Public License for more details.
  14:../cleanflight/src/main/drivers/serial_pinconfig.c ****  *
  15:../cleanflight/src/main/drivers/serial_pinconfig.c ****  * You should have received a copy of the GNU General Public License
  16:../cleanflight/src/main/drivers/serial_pinconfig.c ****  * along with this software.
  17:../cleanflight/src/main/drivers/serial_pinconfig.c ****  *
  18:../cleanflight/src/main/drivers/serial_pinconfig.c ****  * If not, see <http://www.gnu.org/licenses/>.
  19:../cleanflight/src/main/drivers/serial_pinconfig.c ****  */
  20:../cleanflight/src/main/drivers/serial_pinconfig.c **** 
  21:../cleanflight/src/main/drivers/serial_pinconfig.c **** #include <stdbool.h>
  22:../cleanflight/src/main/drivers/serial_pinconfig.c **** #include <stdint.h>
  23:../cleanflight/src/main/drivers/serial_pinconfig.c **** #include <string.h>
  24:../cleanflight/src/main/drivers/serial_pinconfig.c **** 
  25:../cleanflight/src/main/drivers/serial_pinconfig.c **** #include "platform.h"
  26:../cleanflight/src/main/drivers/serial_pinconfig.c **** 
  27:../cleanflight/src/main/drivers/serial_pinconfig.c **** #include "build/build_config.h"
  28:../cleanflight/src/main/drivers/serial_pinconfig.c **** 
  29:../cleanflight/src/main/drivers/serial_pinconfig.c **** #include "io/serial.h"
  30:../cleanflight/src/main/drivers/serial_pinconfig.c **** #include "drivers/serial.h"
  31:../cleanflight/src/main/drivers/serial_pinconfig.c **** #include "drivers/serial_uart.h"
  32:../cleanflight/src/main/drivers/serial_pinconfig.c **** 
  33:../cleanflight/src/main/drivers/serial_pinconfig.c **** #include "pg/pg.h"
  34:../cleanflight/src/main/drivers/serial_pinconfig.c **** #include "pg/pg_ids.h"
  35:../cleanflight/src/main/drivers/serial_pinconfig.c **** 
  36:../cleanflight/src/main/drivers/serial_pinconfig.c **** // Backward compatibility for exisiting targets
  37:../cleanflight/src/main/drivers/serial_pinconfig.c **** 
  38:../cleanflight/src/main/drivers/serial_pinconfig.c **** // F1 targets don't explicitly define pins.
  39:../cleanflight/src/main/drivers/serial_pinconfig.c **** 
  40:../cleanflight/src/main/drivers/serial_pinconfig.c **** #ifdef STM32F1
  41:../cleanflight/src/main/drivers/serial_pinconfig.c **** #ifdef USE_UART1
  42:../cleanflight/src/main/drivers/serial_pinconfig.c **** #ifndef UART1_RX_PIN
  43:../cleanflight/src/main/drivers/serial_pinconfig.c **** #define UART1_RX_PIN        PA10
  44:../cleanflight/src/main/drivers/serial_pinconfig.c **** #endif
  45:../cleanflight/src/main/drivers/serial_pinconfig.c **** #ifndef UART1_TX_PIN
  46:../cleanflight/src/main/drivers/serial_pinconfig.c **** #define UART1_TX_PIN        PA9
  47:../cleanflight/src/main/drivers/serial_pinconfig.c **** #endif
  48:../cleanflight/src/main/drivers/serial_pinconfig.c **** #endif // USE_UART1
  49:../cleanflight/src/main/drivers/serial_pinconfig.c **** 
  50:../cleanflight/src/main/drivers/serial_pinconfig.c **** #ifdef USE_UART2
  51:../cleanflight/src/main/drivers/serial_pinconfig.c **** #ifndef UART2_RX_PIN
  52:../cleanflight/src/main/drivers/serial_pinconfig.c **** #define UART2_RX_PIN        PA3
  53:../cleanflight/src/main/drivers/serial_pinconfig.c **** #endif
  54:../cleanflight/src/main/drivers/serial_pinconfig.c **** #ifndef UART2_TX_PIN
  55:../cleanflight/src/main/drivers/serial_pinconfig.c **** #define UART2_TX_PIN        PA2
  56:../cleanflight/src/main/drivers/serial_pinconfig.c **** #endif
  57:../cleanflight/src/main/drivers/serial_pinconfig.c **** #endif // USE_UART2
  58:../cleanflight/src/main/drivers/serial_pinconfig.c **** #endif // STM32F1
  59:../cleanflight/src/main/drivers/serial_pinconfig.c **** 
  60:../cleanflight/src/main/drivers/serial_pinconfig.c **** // XXX Is there an F3 target that does not define UART pins?
  61:../cleanflight/src/main/drivers/serial_pinconfig.c **** 
  62:../cleanflight/src/main/drivers/serial_pinconfig.c **** #ifdef STM32F3
  63:../cleanflight/src/main/drivers/serial_pinconfig.c **** #ifdef USE_UART1
  64:../cleanflight/src/main/drivers/serial_pinconfig.c **** #ifndef UART1_TX_PIN
  65:../cleanflight/src/main/drivers/serial_pinconfig.c **** #define UART1_TX_PIN        PA9
  66:../cleanflight/src/main/drivers/serial_pinconfig.c **** #endif
  67:../cleanflight/src/main/drivers/serial_pinconfig.c **** #ifndef UART1_RX_PIN
  68:../cleanflight/src/main/drivers/serial_pinconfig.c **** #define UART1_RX_PIN        PA10
  69:../cleanflight/src/main/drivers/serial_pinconfig.c **** #endif
  70:../cleanflight/src/main/drivers/serial_pinconfig.c **** #endif
  71:../cleanflight/src/main/drivers/serial_pinconfig.c **** 
  72:../cleanflight/src/main/drivers/serial_pinconfig.c **** #ifdef USE_UART2
  73:../cleanflight/src/main/drivers/serial_pinconfig.c **** #ifndef UART2_TX_PIN
  74:../cleanflight/src/main/drivers/serial_pinconfig.c **** #define UART2_TX_PIN        PD5
  75:../cleanflight/src/main/drivers/serial_pinconfig.c **** #endif
  76:../cleanflight/src/main/drivers/serial_pinconfig.c **** #ifndef UART2_RX_PIN
  77:../cleanflight/src/main/drivers/serial_pinconfig.c **** #define UART2_RX_PIN        PD6
  78:../cleanflight/src/main/drivers/serial_pinconfig.c **** #endif
  79:../cleanflight/src/main/drivers/serial_pinconfig.c **** #endif
  80:../cleanflight/src/main/drivers/serial_pinconfig.c **** 
  81:../cleanflight/src/main/drivers/serial_pinconfig.c **** #ifdef USE_UART3
  82:../cleanflight/src/main/drivers/serial_pinconfig.c **** #ifndef UART3_TX_PIN
  83:../cleanflight/src/main/drivers/serial_pinconfig.c **** #define UART3_TX_PIN        PB10
  84:../cleanflight/src/main/drivers/serial_pinconfig.c **** #endif
  85:../cleanflight/src/main/drivers/serial_pinconfig.c **** #ifndef UART3_RX_PIN
  86:../cleanflight/src/main/drivers/serial_pinconfig.c **** #define UART3_RX_PIN        PB11
  87:../cleanflight/src/main/drivers/serial_pinconfig.c **** #endif
  88:../cleanflight/src/main/drivers/serial_pinconfig.c **** #endif
  89:../cleanflight/src/main/drivers/serial_pinconfig.c **** 
  90:../cleanflight/src/main/drivers/serial_pinconfig.c **** #ifdef USE_UART4
  91:../cleanflight/src/main/drivers/serial_pinconfig.c **** #ifndef UART4_TX_PIN
  92:../cleanflight/src/main/drivers/serial_pinconfig.c **** #define UART4_TX_PIN        PC10
  93:../cleanflight/src/main/drivers/serial_pinconfig.c **** #endif
  94:../cleanflight/src/main/drivers/serial_pinconfig.c **** #ifndef UART4_RX_PIN
  95:../cleanflight/src/main/drivers/serial_pinconfig.c **** #define UART4_RX_PIN        PC11
  96:../cleanflight/src/main/drivers/serial_pinconfig.c **** #endif
  97:../cleanflight/src/main/drivers/serial_pinconfig.c **** #endif
  98:../cleanflight/src/main/drivers/serial_pinconfig.c **** 
  99:../cleanflight/src/main/drivers/serial_pinconfig.c **** #ifdef USE_UART5
 100:../cleanflight/src/main/drivers/serial_pinconfig.c **** #ifndef UART5_TX_PIN
 101:../cleanflight/src/main/drivers/serial_pinconfig.c **** #define UART5_TX_PIN        PC12
 102:../cleanflight/src/main/drivers/serial_pinconfig.c **** #endif
 103:../cleanflight/src/main/drivers/serial_pinconfig.c **** #ifndef UART5_RX_PIN
 104:../cleanflight/src/main/drivers/serial_pinconfig.c **** #define UART5_RX_PIN        PD2
 105:../cleanflight/src/main/drivers/serial_pinconfig.c **** #endif
 106:../cleanflight/src/main/drivers/serial_pinconfig.c **** #endif
 107:../cleanflight/src/main/drivers/serial_pinconfig.c **** #endif // STM32F3
 108:../cleanflight/src/main/drivers/serial_pinconfig.c **** 
 109:../cleanflight/src/main/drivers/serial_pinconfig.c **** // Default pin (NONE).
 110:../cleanflight/src/main/drivers/serial_pinconfig.c **** 
 111:../cleanflight/src/main/drivers/serial_pinconfig.c **** #ifdef USE_UART1
 112:../cleanflight/src/main/drivers/serial_pinconfig.c **** # if !defined(UART1_RX_PIN)
 113:../cleanflight/src/main/drivers/serial_pinconfig.c **** #  define UART1_RX_PIN NONE
 114:../cleanflight/src/main/drivers/serial_pinconfig.c **** # endif
 115:../cleanflight/src/main/drivers/serial_pinconfig.c **** # if !defined(UART1_TX_PIN)
 116:../cleanflight/src/main/drivers/serial_pinconfig.c **** #  define UART1_TX_PIN NONE
 117:../cleanflight/src/main/drivers/serial_pinconfig.c **** # endif
 118:../cleanflight/src/main/drivers/serial_pinconfig.c **** # if !defined(INVERTER_PIN_UART1)
 119:../cleanflight/src/main/drivers/serial_pinconfig.c **** #  define INVERTER_PIN_UART1 NONE
 120:../cleanflight/src/main/drivers/serial_pinconfig.c **** # endif
 121:../cleanflight/src/main/drivers/serial_pinconfig.c **** #endif
 122:../cleanflight/src/main/drivers/serial_pinconfig.c **** 
 123:../cleanflight/src/main/drivers/serial_pinconfig.c **** #ifdef USE_UART2
 124:../cleanflight/src/main/drivers/serial_pinconfig.c **** # if !defined(UART2_RX_PIN)
 125:../cleanflight/src/main/drivers/serial_pinconfig.c **** #  define UART2_RX_PIN NONE
 126:../cleanflight/src/main/drivers/serial_pinconfig.c **** # endif
 127:../cleanflight/src/main/drivers/serial_pinconfig.c **** # if !defined(UART2_TX_PIN)
 128:../cleanflight/src/main/drivers/serial_pinconfig.c **** #  define UART2_TX_PIN NONE
 129:../cleanflight/src/main/drivers/serial_pinconfig.c **** # endif
 130:../cleanflight/src/main/drivers/serial_pinconfig.c **** # if !defined(INVERTER_PIN_UART2)
 131:../cleanflight/src/main/drivers/serial_pinconfig.c **** #  define INVERTER_PIN_UART2 NONE
 132:../cleanflight/src/main/drivers/serial_pinconfig.c **** # endif
 133:../cleanflight/src/main/drivers/serial_pinconfig.c **** #endif
 134:../cleanflight/src/main/drivers/serial_pinconfig.c **** 
 135:../cleanflight/src/main/drivers/serial_pinconfig.c **** #ifdef USE_UART3
 136:../cleanflight/src/main/drivers/serial_pinconfig.c **** # if !defined(UART3_RX_PIN)
 137:../cleanflight/src/main/drivers/serial_pinconfig.c **** #  define UART3_RX_PIN NONE
 138:../cleanflight/src/main/drivers/serial_pinconfig.c **** # endif
 139:../cleanflight/src/main/drivers/serial_pinconfig.c **** # if !defined(UART3_TX_PIN)
 140:../cleanflight/src/main/drivers/serial_pinconfig.c **** #  define UART3_TX_PIN NONE
 141:../cleanflight/src/main/drivers/serial_pinconfig.c **** # endif
 142:../cleanflight/src/main/drivers/serial_pinconfig.c **** # if !defined(INVERTER_PIN_UART3)
 143:../cleanflight/src/main/drivers/serial_pinconfig.c **** #  define INVERTER_PIN_UART3 NONE
 144:../cleanflight/src/main/drivers/serial_pinconfig.c **** # endif
 145:../cleanflight/src/main/drivers/serial_pinconfig.c **** #endif
 146:../cleanflight/src/main/drivers/serial_pinconfig.c **** 
 147:../cleanflight/src/main/drivers/serial_pinconfig.c **** #ifdef USE_UART4
 148:../cleanflight/src/main/drivers/serial_pinconfig.c **** # if !defined(UART4_RX_PIN)
 149:../cleanflight/src/main/drivers/serial_pinconfig.c **** #  define UART4_RX_PIN NONE
 150:../cleanflight/src/main/drivers/serial_pinconfig.c **** # endif
 151:../cleanflight/src/main/drivers/serial_pinconfig.c **** # if !defined(UART4_TX_PIN)
 152:../cleanflight/src/main/drivers/serial_pinconfig.c **** #  define UART4_TX_PIN NONE
 153:../cleanflight/src/main/drivers/serial_pinconfig.c **** # endif
 154:../cleanflight/src/main/drivers/serial_pinconfig.c **** # if !defined(INVERTER_PIN_UART4)
 155:../cleanflight/src/main/drivers/serial_pinconfig.c **** #  define INVERTER_PIN_UART4 NONE
 156:../cleanflight/src/main/drivers/serial_pinconfig.c **** # endif
 157:../cleanflight/src/main/drivers/serial_pinconfig.c **** #endif
 158:../cleanflight/src/main/drivers/serial_pinconfig.c **** 
 159:../cleanflight/src/main/drivers/serial_pinconfig.c **** #ifdef USE_UART5
 160:../cleanflight/src/main/drivers/serial_pinconfig.c **** # if !defined(UART5_RX_PIN)
 161:../cleanflight/src/main/drivers/serial_pinconfig.c **** #  define UART5_RX_PIN NONE
 162:../cleanflight/src/main/drivers/serial_pinconfig.c **** # endif
 163:../cleanflight/src/main/drivers/serial_pinconfig.c **** # if !defined(UART5_TX_PIN)
 164:../cleanflight/src/main/drivers/serial_pinconfig.c **** #  define UART5_TX_PIN NONE
 165:../cleanflight/src/main/drivers/serial_pinconfig.c **** # endif
 166:../cleanflight/src/main/drivers/serial_pinconfig.c **** # if !defined(INVERTER_PIN_UART5)
 167:../cleanflight/src/main/drivers/serial_pinconfig.c **** #  define INVERTER_PIN_UART5 NONE
 168:../cleanflight/src/main/drivers/serial_pinconfig.c **** # endif
 169:../cleanflight/src/main/drivers/serial_pinconfig.c **** #endif
 170:../cleanflight/src/main/drivers/serial_pinconfig.c **** 
 171:../cleanflight/src/main/drivers/serial_pinconfig.c **** #ifdef USE_UART6
 172:../cleanflight/src/main/drivers/serial_pinconfig.c **** # if !defined(UART6_RX_PIN)
 173:../cleanflight/src/main/drivers/serial_pinconfig.c **** #  define UART6_RX_PIN NONE
 174:../cleanflight/src/main/drivers/serial_pinconfig.c **** # endif
 175:../cleanflight/src/main/drivers/serial_pinconfig.c **** # if !defined(UART6_TX_PIN)
 176:../cleanflight/src/main/drivers/serial_pinconfig.c **** #  define UART6_TX_PIN NONE
 177:../cleanflight/src/main/drivers/serial_pinconfig.c **** # endif
 178:../cleanflight/src/main/drivers/serial_pinconfig.c **** # if !defined(INVERTER_PIN_UART6)
 179:../cleanflight/src/main/drivers/serial_pinconfig.c **** #  define INVERTER_PIN_UART6 NONE
 180:../cleanflight/src/main/drivers/serial_pinconfig.c **** # endif
 181:../cleanflight/src/main/drivers/serial_pinconfig.c **** #endif
 182:../cleanflight/src/main/drivers/serial_pinconfig.c **** 
 183:../cleanflight/src/main/drivers/serial_pinconfig.c **** #ifdef USE_UART7
 184:../cleanflight/src/main/drivers/serial_pinconfig.c **** # if !defined(UART7_RX_PIN)
 185:../cleanflight/src/main/drivers/serial_pinconfig.c **** #  define UART7_RX_PIN NONE
 186:../cleanflight/src/main/drivers/serial_pinconfig.c **** # endif
 187:../cleanflight/src/main/drivers/serial_pinconfig.c **** # if !defined(UART7_TX_PIN)
 188:../cleanflight/src/main/drivers/serial_pinconfig.c **** #  define UART7_TX_PIN NONE
 189:../cleanflight/src/main/drivers/serial_pinconfig.c **** # endif
 190:../cleanflight/src/main/drivers/serial_pinconfig.c **** # if !defined(INVERTER_PIN_UART7)
 191:../cleanflight/src/main/drivers/serial_pinconfig.c **** #  define INVERTER_PIN_UART7 NONE
 192:../cleanflight/src/main/drivers/serial_pinconfig.c **** # endif
 193:../cleanflight/src/main/drivers/serial_pinconfig.c **** #endif
 194:../cleanflight/src/main/drivers/serial_pinconfig.c **** 
 195:../cleanflight/src/main/drivers/serial_pinconfig.c **** #ifdef USE_UART8
 196:../cleanflight/src/main/drivers/serial_pinconfig.c **** # if !defined(UART8_RX_PIN)
 197:../cleanflight/src/main/drivers/serial_pinconfig.c **** #  define UART8_RX_PIN NONE
 198:../cleanflight/src/main/drivers/serial_pinconfig.c **** # endif
 199:../cleanflight/src/main/drivers/serial_pinconfig.c **** # if !defined(UART8_TX_PIN)
 200:../cleanflight/src/main/drivers/serial_pinconfig.c **** #  define UART8_TX_PIN NONE
 201:../cleanflight/src/main/drivers/serial_pinconfig.c **** # endif
 202:../cleanflight/src/main/drivers/serial_pinconfig.c **** # if !defined(INVERTER_PIN_UART8)
 203:../cleanflight/src/main/drivers/serial_pinconfig.c **** #  define INVERTER_PIN_UART8 NONE
 204:../cleanflight/src/main/drivers/serial_pinconfig.c **** # endif
 205:../cleanflight/src/main/drivers/serial_pinconfig.c **** #endif
 206:../cleanflight/src/main/drivers/serial_pinconfig.c **** 
 207:../cleanflight/src/main/drivers/serial_pinconfig.c **** #ifdef USE_SOFTSERIAL1
 208:../cleanflight/src/main/drivers/serial_pinconfig.c **** # if !defined(SOFTSERIAL1_RX_PIN)
 209:../cleanflight/src/main/drivers/serial_pinconfig.c **** #  define SOFTSERIAL1_RX_PIN NONE
 210:../cleanflight/src/main/drivers/serial_pinconfig.c **** # endif
 211:../cleanflight/src/main/drivers/serial_pinconfig.c **** # if !defined(SOFTSERIAL1_TX_PIN)
 212:../cleanflight/src/main/drivers/serial_pinconfig.c **** #  define SOFTSERIAL1_TX_PIN NONE
 213:../cleanflight/src/main/drivers/serial_pinconfig.c **** # endif
 214:../cleanflight/src/main/drivers/serial_pinconfig.c **** #endif
 215:../cleanflight/src/main/drivers/serial_pinconfig.c **** 
 216:../cleanflight/src/main/drivers/serial_pinconfig.c **** #ifdef USE_SOFTSERIAL2
 217:../cleanflight/src/main/drivers/serial_pinconfig.c **** # if !defined(SOFTSERIAL2_RX_PIN)
 218:../cleanflight/src/main/drivers/serial_pinconfig.c **** #  define SOFTSERIAL2_RX_PIN NONE
 219:../cleanflight/src/main/drivers/serial_pinconfig.c **** # endif
 220:../cleanflight/src/main/drivers/serial_pinconfig.c **** # if !defined(SOFTSERIAL2_TX_PIN)
 221:../cleanflight/src/main/drivers/serial_pinconfig.c **** #  define SOFTSERIAL2_TX_PIN NONE
 222:../cleanflight/src/main/drivers/serial_pinconfig.c **** # endif
 223:../cleanflight/src/main/drivers/serial_pinconfig.c **** #endif
 224:../cleanflight/src/main/drivers/serial_pinconfig.c **** 
 225:../cleanflight/src/main/drivers/serial_pinconfig.c **** #if defined(USE_UART) || defined(USE_SOFTSERIAL1) || defined(USE_SOFTSERIAL1)
 226:../cleanflight/src/main/drivers/serial_pinconfig.c **** typedef struct serialDefaultPin_s {
 227:../cleanflight/src/main/drivers/serial_pinconfig.c ****     serialPortIdentifier_e ident;
 228:../cleanflight/src/main/drivers/serial_pinconfig.c ****     ioTag_t rxIO, txIO, inverterIO;
 229:../cleanflight/src/main/drivers/serial_pinconfig.c **** } serialDefaultPin_t;
 230:../cleanflight/src/main/drivers/serial_pinconfig.c **** 
 231:../cleanflight/src/main/drivers/serial_pinconfig.c **** static const serialDefaultPin_t serialDefaultPin[] = {
 232:../cleanflight/src/main/drivers/serial_pinconfig.c **** #ifdef USE_UART1
 233:../cleanflight/src/main/drivers/serial_pinconfig.c ****     { SERIAL_PORT_USART1, IO_TAG(UART1_RX_PIN), IO_TAG(UART1_TX_PIN), IO_TAG(INVERTER_PIN_UART1) },
 234:../cleanflight/src/main/drivers/serial_pinconfig.c **** #endif
 235:../cleanflight/src/main/drivers/serial_pinconfig.c **** #ifdef USE_UART2
 236:../cleanflight/src/main/drivers/serial_pinconfig.c ****     { SERIAL_PORT_USART2, IO_TAG(UART2_RX_PIN), IO_TAG(UART2_TX_PIN), IO_TAG(INVERTER_PIN_UART2) },
 237:../cleanflight/src/main/drivers/serial_pinconfig.c **** #endif
 238:../cleanflight/src/main/drivers/serial_pinconfig.c **** #ifdef USE_UART3
 239:../cleanflight/src/main/drivers/serial_pinconfig.c ****     { SERIAL_PORT_USART3, IO_TAG(UART3_RX_PIN), IO_TAG(UART3_TX_PIN), IO_TAG(INVERTER_PIN_UART3) },
 240:../cleanflight/src/main/drivers/serial_pinconfig.c **** #endif
 241:../cleanflight/src/main/drivers/serial_pinconfig.c **** #ifdef USE_UART4
 242:../cleanflight/src/main/drivers/serial_pinconfig.c ****     { SERIAL_PORT_UART4, IO_TAG(UART4_RX_PIN), IO_TAG(UART4_TX_PIN), IO_TAG(INVERTER_PIN_UART4) },
 243:../cleanflight/src/main/drivers/serial_pinconfig.c **** #endif
 244:../cleanflight/src/main/drivers/serial_pinconfig.c **** #ifdef USE_UART5
 245:../cleanflight/src/main/drivers/serial_pinconfig.c ****     { SERIAL_PORT_UART5, IO_TAG(UART5_RX_PIN), IO_TAG(UART5_TX_PIN), IO_TAG(INVERTER_PIN_UART5) },
 246:../cleanflight/src/main/drivers/serial_pinconfig.c **** #endif
 247:../cleanflight/src/main/drivers/serial_pinconfig.c **** #ifdef USE_UART6
 248:../cleanflight/src/main/drivers/serial_pinconfig.c ****     { SERIAL_PORT_USART6, IO_TAG(UART6_RX_PIN), IO_TAG(UART6_TX_PIN), IO_TAG(INVERTER_PIN_UART6) },
 249:../cleanflight/src/main/drivers/serial_pinconfig.c **** #endif
 250:../cleanflight/src/main/drivers/serial_pinconfig.c **** #ifdef USE_UART7
 251:../cleanflight/src/main/drivers/serial_pinconfig.c ****     { SERIAL_PORT_USART7, IO_TAG(UART7_RX_PIN), IO_TAG(UART7_TX_PIN), IO_TAG(INVERTER_PIN_UART7) },
 252:../cleanflight/src/main/drivers/serial_pinconfig.c **** #endif
 253:../cleanflight/src/main/drivers/serial_pinconfig.c **** #ifdef USE_UART8
 254:../cleanflight/src/main/drivers/serial_pinconfig.c ****     { SERIAL_PORT_USART8, IO_TAG(UART8_RX_PIN), IO_TAG(UART8_TX_PIN), IO_TAG(INVERTER_PIN_UART8) },
 255:../cleanflight/src/main/drivers/serial_pinconfig.c **** #endif
 256:../cleanflight/src/main/drivers/serial_pinconfig.c **** #ifdef USE_SOFTSERIAL1
 257:../cleanflight/src/main/drivers/serial_pinconfig.c ****     { SERIAL_PORT_SOFTSERIAL1, IO_TAG(SOFTSERIAL1_RX_PIN), IO_TAG(SOFTSERIAL1_TX_PIN), IO_TAG(NONE)
 258:../cleanflight/src/main/drivers/serial_pinconfig.c **** #endif
 259:../cleanflight/src/main/drivers/serial_pinconfig.c **** #ifdef USE_SOFTSERIAL2
 260:../cleanflight/src/main/drivers/serial_pinconfig.c ****     { SERIAL_PORT_SOFTSERIAL2, IO_TAG(SOFTSERIAL2_RX_PIN), IO_TAG(SOFTSERIAL2_TX_PIN), IO_TAG(NONE)
 261:../cleanflight/src/main/drivers/serial_pinconfig.c **** #endif
 262:../cleanflight/src/main/drivers/serial_pinconfig.c **** };
 263:../cleanflight/src/main/drivers/serial_pinconfig.c **** 
 264:../cleanflight/src/main/drivers/serial_pinconfig.c **** PG_REGISTER_WITH_RESET_FN(serialPinConfig_t, serialPinConfig, PG_SERIAL_PIN_CONFIG, 0);
 265:../cleanflight/src/main/drivers/serial_pinconfig.c **** 
 266:../cleanflight/src/main/drivers/serial_pinconfig.c **** void pgResetFn_serialPinConfig(serialPinConfig_t *serialPinConfig)
 267:../cleanflight/src/main/drivers/serial_pinconfig.c **** {
  59              	 .loc 1 267 0
  60              	 .cfi_startproc
  61              	 
  62              	 
  63              	 
  64 0000 80B4     	 push {r7}
  65              	.LCFI0:
  66              	 .cfi_def_cfa_offset 4
  67              	 .cfi_offset 7,-4
  68 0002 85B0     	 sub sp,sp,#20
  69              	.LCFI1:
  70              	 .cfi_def_cfa_offset 24
  71 0004 00AF     	 add r7,sp,#0
  72              	.LCFI2:
  73              	 .cfi_def_cfa_register 7
  74 0006 7860     	 str r0,[r7,#4]
  75              	.LBB2:
 268:../cleanflight/src/main/drivers/serial_pinconfig.c ****     for (size_t index = 0 ; index < ARRAYLEN(serialDefaultPin) ; index++) {
  76              	 .loc 1 268 0
  77 0008 0023     	 movs r3,#0
  78 000a FB60     	 str r3,[r7,#12]
  79 000c 3EE0     	 b .L2
  80              	.L9:
  81              	.LBB3:
 269:../cleanflight/src/main/drivers/serial_pinconfig.c ****         const serialDefaultPin_t *defpin = &serialDefaultPin[index];
  82              	 .loc 1 269 0
  83 000e FB68     	 ldr r3,[r7,#12]
  84 0010 9B00     	 lsls r3,r3,#2
  85 0012 224A     	 ldr r2,.L10
  86 0014 1344     	 add r3,r3,r2
  87 0016 BB60     	 str r3,[r7,#8]
 270:../cleanflight/src/main/drivers/serial_pinconfig.c ****         serialPinConfig->ioTagRx[SERIAL_PORT_IDENTIFIER_TO_INDEX(defpin->ident)] = defpin->rxIO;
  88              	 .loc 1 270 0
  89 0018 BB68     	 ldr r3,[r7,#8]
  90 001a 1B78     	 ldrb r3,[r3]
  91 001c 5BB2     	 sxtb r3,r3
  92 001e 072B     	 cmp r3,#7
  93 0020 03DC     	 bgt .L3
  94              	 .loc 1 270 0 is_stmt 0 discriminator 1
  95 0022 BB68     	 ldr r3,[r7,#8]
  96 0024 1B78     	 ldrb r3,[r3]
  97 0026 5BB2     	 sxtb r3,r3
  98 0028 03E0     	 b .L4
  99              	.L3:
 100              	 .loc 1 270 0 discriminator 2
 101 002a BB68     	 ldr r3,[r7,#8]
 102 002c 1B78     	 ldrb r3,[r3]
 103 002e 5BB2     	 sxtb r3,r3
 104 0030 143B     	 subs r3,r3,#20
 105              	.L4:
 106              	 .loc 1 270 0 discriminator 4
 107 0032 BA68     	 ldr r2,[r7,#8]
 108 0034 5178     	 ldrb r1,[r2,#1]
 109 0036 7A68     	 ldr r2,[r7,#4]
 110 0038 1344     	 add r3,r3,r2
 111 003a 0A46     	 mov r2,r1
 112 003c 9A72     	 strb r2,[r3,#10]
 271:../cleanflight/src/main/drivers/serial_pinconfig.c ****         serialPinConfig->ioTagTx[SERIAL_PORT_IDENTIFIER_TO_INDEX(defpin->ident)] = defpin->txIO;
 113              	 .loc 1 271 0 is_stmt 1 discriminator 4
 114 003e BB68     	 ldr r3,[r7,#8]
 115 0040 1B78     	 ldrb r3,[r3]
 116 0042 5BB2     	 sxtb r3,r3
 117 0044 072B     	 cmp r3,#7
 118 0046 03DC     	 bgt .L5
 119              	 .loc 1 271 0 is_stmt 0 discriminator 1
 120 0048 BB68     	 ldr r3,[r7,#8]
 121 004a 1B78     	 ldrb r3,[r3]
 122 004c 5BB2     	 sxtb r3,r3
 123 004e 03E0     	 b .L6
 124              	.L5:
 125              	 .loc 1 271 0 discriminator 2
 126 0050 BB68     	 ldr r3,[r7,#8]
 127 0052 1B78     	 ldrb r3,[r3]
 128 0054 5BB2     	 sxtb r3,r3
 129 0056 143B     	 subs r3,r3,#20
 130              	.L6:
 131              	 .loc 1 271 0 discriminator 4
 132 0058 BA68     	 ldr r2,[r7,#8]
 133 005a 9178     	 ldrb r1,[r2,#2]
 134 005c 7A68     	 ldr r2,[r7,#4]
 135 005e D154     	 strb r1,[r2,r3]
 272:../cleanflight/src/main/drivers/serial_pinconfig.c ****         serialPinConfig->ioTagInverter[SERIAL_PORT_IDENTIFIER_TO_INDEX(defpin->ident)] = defpin->in
 136              	 .loc 1 272 0 is_stmt 1 discriminator 4
 137 0060 BB68     	 ldr r3,[r7,#8]
 138 0062 1B78     	 ldrb r3,[r3]
 139 0064 5BB2     	 sxtb r3,r3
 140 0066 072B     	 cmp r3,#7
 141 0068 03DC     	 bgt .L7
 142              	 .loc 1 272 0 is_stmt 0 discriminator 1
 143 006a BB68     	 ldr r3,[r7,#8]
 144 006c 1B78     	 ldrb r3,[r3]
 145 006e 5BB2     	 sxtb r3,r3
 146 0070 03E0     	 b .L8
 147              	.L7:
 148              	 .loc 1 272 0 discriminator 2
 149 0072 BB68     	 ldr r3,[r7,#8]
 150 0074 1B78     	 ldrb r3,[r3]
 151 0076 5BB2     	 sxtb r3,r3
 152 0078 143B     	 subs r3,r3,#20
 153              	.L8:
 154              	 .loc 1 272 0 discriminator 4
 155 007a BA68     	 ldr r2,[r7,#8]
 156 007c D178     	 ldrb r1,[r2,#3]
 157 007e 7A68     	 ldr r2,[r7,#4]
 158 0080 1344     	 add r3,r3,r2
 159 0082 0A46     	 mov r2,r1
 160 0084 1A75     	 strb r2,[r3,#20]
 161              	.LBE3:
 268:../cleanflight/src/main/drivers/serial_pinconfig.c ****         const serialDefaultPin_t *defpin = &serialDefaultPin[index];
 162              	 .loc 1 268 0 is_stmt 1 discriminator 4
 163 0086 FB68     	 ldr r3,[r7,#12]
 164 0088 0133     	 adds r3,r3,#1
 165 008a FB60     	 str r3,[r7,#12]
 166              	.L2:
 268:../cleanflight/src/main/drivers/serial_pinconfig.c ****         const serialDefaultPin_t *defpin = &serialDefaultPin[index];
 167              	 .loc 1 268 0 is_stmt 0 discriminator 2
 168 008c FB68     	 ldr r3,[r7,#12]
 169 008e 022B     	 cmp r3,#2
 170 0090 BDD9     	 bls .L9
 171              	.LBE2:
 273:../cleanflight/src/main/drivers/serial_pinconfig.c ****     }
 274:../cleanflight/src/main/drivers/serial_pinconfig.c **** }
 172              	 .loc 1 274 0 is_stmt 1
 173 0092 1437     	 adds r7,r7,#20
 174              	.LCFI3:
 175              	 .cfi_def_cfa_offset 4
 176 0094 BD46     	 mov sp,r7
 177              	.LCFI4:
 178              	 .cfi_def_cfa_register 13
 179              	 
 180 0096 5DF8047B 	 ldr r7,[sp],#4
 181              	.LCFI5:
 182              	 .cfi_restore 7
 183              	 .cfi_def_cfa_offset 0
 184 009a 7047     	 bx lr
 185              	.L11:
 186              	 .align 2
 187              	.L10:
 188 009c 00000000 	 .word serialDefaultPin
 189              	 .cfi_endproc
 190              	.LFE528:
 192              	 .text
 193              	.Letext0:
 194              	 .file 2 "d:\\xmc\\dave-ide-4.4.2-64bit\\eclipse\\arm-gcc-49\\arm-none-eabi\\include\\machine\\_default_types.h"
 195              	 .file 3 "d:\\xmc\\dave-ide-4.4.2-64bit\\eclipse\\arm-gcc-49\\arm-none-eabi\\include\\stdint.h"
 196              	 .file 4 "d:\\xmc\\dave-ide-4.4.2-64bit\\eclipse\\arm-gcc-49\\lib\\gcc\\arm-none-eabi\\4.9.3\\include\\stddef.h"
 197              	 .file 5 "D:/XMC/Projekte/Temp/CF_XMC4700/cleanflight/lib/main/XMC4000/XMCLib/inc/xmc_usic.h"
 198              	 .file 6 "D:/XMC/Projekte/Temp/CF_XMC4700/cleanflight/src/main/pg/pg.h"
 199              	 .file 7 "D:/XMC/Projekte/Temp/CF_XMC4700/cleanflight/src/main/drivers/resource.h"
 200              	 .file 8 "D:/XMC/Projekte/Temp/CF_XMC4700/cleanflight/src/main/drivers/io_types.h"
 201              	 .file 9 "D:/XMC/Projekte/Temp/CF_XMC4700/cleanflight/src/main/drivers/serial.h"
 202              	 .file 10 "D:/XMC/Projekte/Temp/CF_XMC4700/cleanflight/src/main/io/serial.h"
 203              	 .file 11 "D:/XMC/Projekte/Temp/CF_XMC4700/cleanflight/lib/main/CMSIS/Core/Include/core_cm4.h"
 204              	 .file 12 "D:/XMC/Projekte/Temp/CF_XMC4700/cleanflight/lib/main/XMC4000/system_XMC4700.h"