   1              	 .syntax unified
   2              	 .cpu cortex-m4
   3              	 .eabi_attribute 27,3
   4              	 .fpu fpv4-sp-d16
   5              	 .eabi_attribute 20,1
   6              	 .eabi_attribute 21,1
   7              	 .eabi_attribute 23,3
   8              	 .eabi_attribute 24,1
   9              	 .eabi_attribute 25,1
  10              	 .eabi_attribute 26,1
  11              	 .eabi_attribute 30,6
  12              	 .eabi_attribute 34,1
  13              	 .eabi_attribute 18,4
  14              	 .thumb
  15              	 .file "system.c"
  16              	 .text
  17              	.Ltext0:
  18              	 .cfi_sections .debug_frame
  19              	 .section .text.__basepriRestoreMem,"ax",%progbits
  20              	 .align 2
  21              	 .thumb
  22              	 .thumb_func
  24              	__basepriRestoreMem:
  25              	.LFB523:
  26              	 .file 1 "D:/XMC/Projekte/Temp/CF_XMC4700/cleanflight/src/main/build/atomic.h"
   1:D:/XMC/Projekte/Temp/CF_XMC4700/cleanflight/src/main/build\atomic.h **** /*
   2:D:/XMC/Projekte/Temp/CF_XMC4700/cleanflight/src/main/build\atomic.h ****  * This file is part of Cleanflight and Betaflight.
   3:D:/XMC/Projekte/Temp/CF_XMC4700/cleanflight/src/main/build\atomic.h ****  *
   4:D:/XMC/Projekte/Temp/CF_XMC4700/cleanflight/src/main/build\atomic.h ****  * Cleanflight and Betaflight are free software. You can redistribute
   5:D:/XMC/Projekte/Temp/CF_XMC4700/cleanflight/src/main/build\atomic.h ****  * this software and/or modify this software under the terms of the
   6:D:/XMC/Projekte/Temp/CF_XMC4700/cleanflight/src/main/build\atomic.h ****  * GNU General Public License as published by the Free Software
   7:D:/XMC/Projekte/Temp/CF_XMC4700/cleanflight/src/main/build\atomic.h ****  * Foundation, either version 3 of the License, or (at your option)
   8:D:/XMC/Projekte/Temp/CF_XMC4700/cleanflight/src/main/build\atomic.h ****  * any later version.
   9:D:/XMC/Projekte/Temp/CF_XMC4700/cleanflight/src/main/build\atomic.h ****  *
  10:D:/XMC/Projekte/Temp/CF_XMC4700/cleanflight/src/main/build\atomic.h ****  * Cleanflight and Betaflight are distributed in the hope that they
  11:D:/XMC/Projekte/Temp/CF_XMC4700/cleanflight/src/main/build\atomic.h ****  * will be useful, but WITHOUT ANY WARRANTY; without even the implied
  12:D:/XMC/Projekte/Temp/CF_XMC4700/cleanflight/src/main/build\atomic.h ****  * warranty of MERCHANTABILITY or FITNESS FOR A PARTICULAR PURPOSE.
  13:D:/XMC/Projekte/Temp/CF_XMC4700/cleanflight/src/main/build\atomic.h ****  * See the GNU General Public License for more details.
  14:D:/XMC/Projekte/Temp/CF_XMC4700/cleanflight/src/main/build\atomic.h ****  *
  15:D:/XMC/Projekte/Temp/CF_XMC4700/cleanflight/src/main/build\atomic.h ****  * You should have received a copy of the GNU General Public License
  16:D:/XMC/Projekte/Temp/CF_XMC4700/cleanflight/src/main/build\atomic.h ****  * along with this software.
  17:D:/XMC/Projekte/Temp/CF_XMC4700/cleanflight/src/main/build\atomic.h ****  *
  18:D:/XMC/Projekte/Temp/CF_XMC4700/cleanflight/src/main/build\atomic.h ****  * If not, see <http://www.gnu.org/licenses/>.
  19:D:/XMC/Projekte/Temp/CF_XMC4700/cleanflight/src/main/build\atomic.h ****  */
  20:D:/XMC/Projekte/Temp/CF_XMC4700/cleanflight/src/main/build\atomic.h **** 
  21:D:/XMC/Projekte/Temp/CF_XMC4700/cleanflight/src/main/build\atomic.h **** #pragma once
  22:D:/XMC/Projekte/Temp/CF_XMC4700/cleanflight/src/main/build\atomic.h **** 
  23:D:/XMC/Projekte/Temp/CF_XMC4700/cleanflight/src/main/build\atomic.h **** #include <stdint.h>
  24:D:/XMC/Projekte/Temp/CF_XMC4700/cleanflight/src/main/build\atomic.h **** #include "cmsis_gcc.h"
  25:D:/XMC/Projekte/Temp/CF_XMC4700/cleanflight/src/main/build\atomic.h **** 
  26:D:/XMC/Projekte/Temp/CF_XMC4700/cleanflight/src/main/build\atomic.h **** #if !defined(UNIT_TEST)
  27:D:/XMC/Projekte/Temp/CF_XMC4700/cleanflight/src/main/build\atomic.h **** // BASEPRI manipulation functions
  28:D:/XMC/Projekte/Temp/CF_XMC4700/cleanflight/src/main/build\atomic.h **** // only set_BASEPRI is implemented in device library. It does always create memory barrier
  29:D:/XMC/Projekte/Temp/CF_XMC4700/cleanflight/src/main/build\atomic.h **** // missing versions are implemented here
  30:D:/XMC/Projekte/Temp/CF_XMC4700/cleanflight/src/main/build\atomic.h **** 
  31:D:/XMC/Projekte/Temp/CF_XMC4700/cleanflight/src/main/build\atomic.h **** // set BASEPRI register, do not create memory barrier
  32:D:/XMC/Projekte/Temp/CF_XMC4700/cleanflight/src/main/build\atomic.h **** __attribute__( ( always_inline ) ) static inline void __set_BASEPRI_nb(uint32_t basePri)
  33:D:/XMC/Projekte/Temp/CF_XMC4700/cleanflight/src/main/build\atomic.h **** {
  34:D:/XMC/Projekte/Temp/CF_XMC4700/cleanflight/src/main/build\atomic.h **** 	__asm volatile ("\tMSR basepri, %0\n" : : "r" (basePri) );
  35:D:/XMC/Projekte/Temp/CF_XMC4700/cleanflight/src/main/build\atomic.h **** }
  36:D:/XMC/Projekte/Temp/CF_XMC4700/cleanflight/src/main/build\atomic.h **** 
  37:D:/XMC/Projekte/Temp/CF_XMC4700/cleanflight/src/main/build\atomic.h **** // set BASEPRI_MAX register, do not create memory barrier
  38:D:/XMC/Projekte/Temp/CF_XMC4700/cleanflight/src/main/build\atomic.h **** __attribute__( ( always_inline ) ) static inline void __set_BASEPRI_MAX_nb(uint32_t basePri)
  39:D:/XMC/Projekte/Temp/CF_XMC4700/cleanflight/src/main/build\atomic.h **** {
  40:D:/XMC/Projekte/Temp/CF_XMC4700/cleanflight/src/main/build\atomic.h **** 	__asm volatile ("\tMSR basepri_max, %0\n" : : "r" (basePri) );
  41:D:/XMC/Projekte/Temp/CF_XMC4700/cleanflight/src/main/build\atomic.h **** }
  42:D:/XMC/Projekte/Temp/CF_XMC4700/cleanflight/src/main/build\atomic.h **** 
  43:D:/XMC/Projekte/Temp/CF_XMC4700/cleanflight/src/main/build\atomic.h **** #endif
  44:D:/XMC/Projekte/Temp/CF_XMC4700/cleanflight/src/main/build\atomic.h **** 
  45:D:/XMC/Projekte/Temp/CF_XMC4700/cleanflight/src/main/build\atomic.h **** #if defined(UNIT_TEST)
  46:D:/XMC/Projekte/Temp/CF_XMC4700/cleanflight/src/main/build\atomic.h **** // atomic related functions for unittest.
  47:D:/XMC/Projekte/Temp/CF_XMC4700/cleanflight/src/main/build\atomic.h **** 
  48:D:/XMC/Projekte/Temp/CF_XMC4700/cleanflight/src/main/build\atomic.h **** extern uint8_t atomic_BASEPRI;
  49:D:/XMC/Projekte/Temp/CF_XMC4700/cleanflight/src/main/build\atomic.h **** 
  50:D:/XMC/Projekte/Temp/CF_XMC4700/cleanflight/src/main/build\atomic.h **** static inline uint8_t __get_BASEPRI(void)
  51:D:/XMC/Projekte/Temp/CF_XMC4700/cleanflight/src/main/build\atomic.h **** {
  52:D:/XMC/Projekte/Temp/CF_XMC4700/cleanflight/src/main/build\atomic.h ****     return atomic_BASEPRI;
  53:D:/XMC/Projekte/Temp/CF_XMC4700/cleanflight/src/main/build\atomic.h **** }
  54:D:/XMC/Projekte/Temp/CF_XMC4700/cleanflight/src/main/build\atomic.h **** 
  55:D:/XMC/Projekte/Temp/CF_XMC4700/cleanflight/src/main/build\atomic.h **** // restore BASEPRI (called as cleanup function), with global memory barrier
  56:D:/XMC/Projekte/Temp/CF_XMC4700/cleanflight/src/main/build\atomic.h **** static inline void __basepriRestoreMem(uint8_t *val)
  57:D:/XMC/Projekte/Temp/CF_XMC4700/cleanflight/src/main/build\atomic.h **** {
  58:D:/XMC/Projekte/Temp/CF_XMC4700/cleanflight/src/main/build\atomic.h ****     atomic_BASEPRI = *val;
  59:D:/XMC/Projekte/Temp/CF_XMC4700/cleanflight/src/main/build\atomic.h ****     asm volatile ("": : :"memory"); // compiler memory barrier
  60:D:/XMC/Projekte/Temp/CF_XMC4700/cleanflight/src/main/build\atomic.h **** }
  61:D:/XMC/Projekte/Temp/CF_XMC4700/cleanflight/src/main/build\atomic.h **** 
  62:D:/XMC/Projekte/Temp/CF_XMC4700/cleanflight/src/main/build\atomic.h **** // increase BASEPRI, with global memory barrier, returns true
  63:D:/XMC/Projekte/Temp/CF_XMC4700/cleanflight/src/main/build\atomic.h **** static inline uint8_t __basepriSetMemRetVal(uint8_t prio)
  64:D:/XMC/Projekte/Temp/CF_XMC4700/cleanflight/src/main/build\atomic.h **** {
  65:D:/XMC/Projekte/Temp/CF_XMC4700/cleanflight/src/main/build\atomic.h ****     if(prio && (atomic_BASEPRI == 0 || atomic_BASEPRI > prio)) {
  66:D:/XMC/Projekte/Temp/CF_XMC4700/cleanflight/src/main/build\atomic.h ****         atomic_BASEPRI = prio;
  67:D:/XMC/Projekte/Temp/CF_XMC4700/cleanflight/src/main/build\atomic.h ****     }
  68:D:/XMC/Projekte/Temp/CF_XMC4700/cleanflight/src/main/build\atomic.h ****     asm volatile ("": : :"memory"); // compiler memory barrier
  69:D:/XMC/Projekte/Temp/CF_XMC4700/cleanflight/src/main/build\atomic.h ****     return 1;
  70:D:/XMC/Projekte/Temp/CF_XMC4700/cleanflight/src/main/build\atomic.h **** }
  71:D:/XMC/Projekte/Temp/CF_XMC4700/cleanflight/src/main/build\atomic.h **** 
  72:D:/XMC/Projekte/Temp/CF_XMC4700/cleanflight/src/main/build\atomic.h **** // restore BASEPRI (called as cleanup function), no memory barrier
  73:D:/XMC/Projekte/Temp/CF_XMC4700/cleanflight/src/main/build\atomic.h **** static inline void __basepriRestore(uint8_t *val)
  74:D:/XMC/Projekte/Temp/CF_XMC4700/cleanflight/src/main/build\atomic.h **** {
  75:D:/XMC/Projekte/Temp/CF_XMC4700/cleanflight/src/main/build\atomic.h ****     atomic_BASEPRI = *val;
  76:D:/XMC/Projekte/Temp/CF_XMC4700/cleanflight/src/main/build\atomic.h **** }
  77:D:/XMC/Projekte/Temp/CF_XMC4700/cleanflight/src/main/build\atomic.h **** 
  78:D:/XMC/Projekte/Temp/CF_XMC4700/cleanflight/src/main/build\atomic.h **** // increase BASEPRI, no memory barrier, returns true
  79:D:/XMC/Projekte/Temp/CF_XMC4700/cleanflight/src/main/build\atomic.h **** static inline uint8_t __basepriSetRetVal(uint8_t prio)
  80:D:/XMC/Projekte/Temp/CF_XMC4700/cleanflight/src/main/build\atomic.h **** {
  81:D:/XMC/Projekte/Temp/CF_XMC4700/cleanflight/src/main/build\atomic.h ****     if(prio && (atomic_BASEPRI == 0 || atomic_BASEPRI > prio)) {
  82:D:/XMC/Projekte/Temp/CF_XMC4700/cleanflight/src/main/build\atomic.h ****         atomic_BASEPRI = prio;
  83:D:/XMC/Projekte/Temp/CF_XMC4700/cleanflight/src/main/build\atomic.h ****     }
  84:D:/XMC/Projekte/Temp/CF_XMC4700/cleanflight/src/main/build\atomic.h ****     return 1;
  85:D:/XMC/Projekte/Temp/CF_XMC4700/cleanflight/src/main/build\atomic.h **** }
  86:D:/XMC/Projekte/Temp/CF_XMC4700/cleanflight/src/main/build\atomic.h **** 
  87:D:/XMC/Projekte/Temp/CF_XMC4700/cleanflight/src/main/build\atomic.h **** #else
  88:D:/XMC/Projekte/Temp/CF_XMC4700/cleanflight/src/main/build\atomic.h **** // ARM BASEPRI manipulation
  89:D:/XMC/Projekte/Temp/CF_XMC4700/cleanflight/src/main/build\atomic.h **** 
  90:D:/XMC/Projekte/Temp/CF_XMC4700/cleanflight/src/main/build\atomic.h **** // restore BASEPRI (called as cleanup function), with global memory barrier
  91:D:/XMC/Projekte/Temp/CF_XMC4700/cleanflight/src/main/build\atomic.h **** static inline void __basepriRestoreMem(uint8_t *val)
  92:D:/XMC/Projekte/Temp/CF_XMC4700/cleanflight/src/main/build\atomic.h **** {
  27              	 .loc 1 92 0
  28              	 .cfi_startproc
  29              	 
  30              	 
  31              	 
  32 0000 80B4     	 push {r7}
  33              	.LCFI0:
  34              	 .cfi_def_cfa_offset 4
  35              	 .cfi_offset 7,-4
  36 0002 85B0     	 sub sp,sp,#20
  37              	.LCFI1:
  38              	 .cfi_def_cfa_offset 24
  39 0004 00AF     	 add r7,sp,#0
  40              	.LCFI2:
  41              	 .cfi_def_cfa_register 7
  42 0006 7860     	 str r0,[r7,#4]
  93:D:/XMC/Projekte/Temp/CF_XMC4700/cleanflight/src/main/build\atomic.h ****     __set_BASEPRI(*val);
  43              	 .loc 1 93 0
  44 0008 7B68     	 ldr r3,[r7,#4]
  45 000a 1B78     	 ldrb r3,[r3]
  46 000c FB60     	 str r3,[r7,#12]
  47              	.LBB14:
  48              	.LBB15:
  49              	 .file 2 "D:/XMC/Projekte/Temp/CF_XMC4700/cleanflight/lib/main/CMSIS/Core/Include/cmsis_gcc.h"
   1:D:/XMC/Projekte/Temp/CF_XMC4700/cleanflight/lib/main/CMSIS/Core/Include\cmsis_gcc.h **** /**************************************************************************//**
   2:D:/XMC/Projekte/Temp/CF_XMC4700/cleanflight/lib/main/CMSIS/Core/Include\cmsis_gcc.h ****  * @file     cmsis_gcc.h
   3:D:/XMC/Projekte/Temp/CF_XMC4700/cleanflight/lib/main/CMSIS/Core/Include\cmsis_gcc.h ****  * @brief    CMSIS compiler GCC header file
   4:D:/XMC/Projekte/Temp/CF_XMC4700/cleanflight/lib/main/CMSIS/Core/Include\cmsis_gcc.h ****  * @version  V5.0.3
   5:D:/XMC/Projekte/Temp/CF_XMC4700/cleanflight/lib/main/CMSIS/Core/Include\cmsis_gcc.h ****  * @date     16. January 2018
   6:D:/XMC/Projekte/Temp/CF_XMC4700/cleanflight/lib/main/CMSIS/Core/Include\cmsis_gcc.h ****  ******************************************************************************/
   7:D:/XMC/Projekte/Temp/CF_XMC4700/cleanflight/lib/main/CMSIS/Core/Include\cmsis_gcc.h **** /*
   8:D:/XMC/Projekte/Temp/CF_XMC4700/cleanflight/lib/main/CMSIS/Core/Include\cmsis_gcc.h ****  * Copyright (c) 2009-2017 ARM Limited. All rights reserved.
   9:D:/XMC/Projekte/Temp/CF_XMC4700/cleanflight/lib/main/CMSIS/Core/Include\cmsis_gcc.h ****  *
  10:D:/XMC/Projekte/Temp/CF_XMC4700/cleanflight/lib/main/CMSIS/Core/Include\cmsis_gcc.h ****  * SPDX-License-Identifier: Apache-2.0
  11:D:/XMC/Projekte/Temp/CF_XMC4700/cleanflight/lib/main/CMSIS/Core/Include\cmsis_gcc.h ****  *
  12:D:/XMC/Projekte/Temp/CF_XMC4700/cleanflight/lib/main/CMSIS/Core/Include\cmsis_gcc.h ****  * Licensed under the Apache License, Version 2.0 (the License); you may
  13:D:/XMC/Projekte/Temp/CF_XMC4700/cleanflight/lib/main/CMSIS/Core/Include\cmsis_gcc.h ****  * not use this file except in compliance with the License.
  14:D:/XMC/Projekte/Temp/CF_XMC4700/cleanflight/lib/main/CMSIS/Core/Include\cmsis_gcc.h ****  * You may obtain a copy of the License at
  15:D:/XMC/Projekte/Temp/CF_XMC4700/cleanflight/lib/main/CMSIS/Core/Include\cmsis_gcc.h ****  *
  16:D:/XMC/Projekte/Temp/CF_XMC4700/cleanflight/lib/main/CMSIS/Core/Include\cmsis_gcc.h ****  * www.apache.org/licenses/LICENSE-2.0
  17:D:/XMC/Projekte/Temp/CF_XMC4700/cleanflight/lib/main/CMSIS/Core/Include\cmsis_gcc.h ****  *
  18:D:/XMC/Projekte/Temp/CF_XMC4700/cleanflight/lib/main/CMSIS/Core/Include\cmsis_gcc.h ****  * Unless required by applicable law or agreed to in writing, software
  19:D:/XMC/Projekte/Temp/CF_XMC4700/cleanflight/lib/main/CMSIS/Core/Include\cmsis_gcc.h ****  * distributed under the License is distributed on an AS IS BASIS, WITHOUT
  20:D:/XMC/Projekte/Temp/CF_XMC4700/cleanflight/lib/main/CMSIS/Core/Include\cmsis_gcc.h ****  * WARRANTIES OR CONDITIONS OF ANY KIND, either express or implied.
  21:D:/XMC/Projekte/Temp/CF_XMC4700/cleanflight/lib/main/CMSIS/Core/Include\cmsis_gcc.h ****  * See the License for the specific language governing permissions and
  22:D:/XMC/Projekte/Temp/CF_XMC4700/cleanflight/lib/main/CMSIS/Core/Include\cmsis_gcc.h ****  * limitations under the License.
  23:D:/XMC/Projekte/Temp/CF_XMC4700/cleanflight/lib/main/CMSIS/Core/Include\cmsis_gcc.h ****  */
  24:D:/XMC/Projekte/Temp/CF_XMC4700/cleanflight/lib/main/CMSIS/Core/Include\cmsis_gcc.h **** 
  25:D:/XMC/Projekte/Temp/CF_XMC4700/cleanflight/lib/main/CMSIS/Core/Include\cmsis_gcc.h **** #ifndef __CMSIS_GCC_H
  26:D:/XMC/Projekte/Temp/CF_XMC4700/cleanflight/lib/main/CMSIS/Core/Include\cmsis_gcc.h **** #define __CMSIS_GCC_H
  27:D:/XMC/Projekte/Temp/CF_XMC4700/cleanflight/lib/main/CMSIS/Core/Include\cmsis_gcc.h **** 
  28:D:/XMC/Projekte/Temp/CF_XMC4700/cleanflight/lib/main/CMSIS/Core/Include\cmsis_gcc.h **** /* ignore some GCC warnings */
  29:D:/XMC/Projekte/Temp/CF_XMC4700/cleanflight/lib/main/CMSIS/Core/Include\cmsis_gcc.h **** #pragma GCC diagnostic push
  30:D:/XMC/Projekte/Temp/CF_XMC4700/cleanflight/lib/main/CMSIS/Core/Include\cmsis_gcc.h **** #pragma GCC diagnostic ignored "-Wsign-conversion"
  31:D:/XMC/Projekte/Temp/CF_XMC4700/cleanflight/lib/main/CMSIS/Core/Include\cmsis_gcc.h **** #pragma GCC diagnostic ignored "-Wconversion"
  32:D:/XMC/Projekte/Temp/CF_XMC4700/cleanflight/lib/main/CMSIS/Core/Include\cmsis_gcc.h **** #pragma GCC diagnostic ignored "-Wunused-parameter"
  33:D:/XMC/Projekte/Temp/CF_XMC4700/cleanflight/lib/main/CMSIS/Core/Include\cmsis_gcc.h **** 
  34:D:/XMC/Projekte/Temp/CF_XMC4700/cleanflight/lib/main/CMSIS/Core/Include\cmsis_gcc.h **** /* Fallback for __has_builtin */
  35:D:/XMC/Projekte/Temp/CF_XMC4700/cleanflight/lib/main/CMSIS/Core/Include\cmsis_gcc.h **** #ifndef __has_builtin
  36:D:/XMC/Projekte/Temp/CF_XMC4700/cleanflight/lib/main/CMSIS/Core/Include\cmsis_gcc.h ****   #define __has_builtin(x) (0)
  37:D:/XMC/Projekte/Temp/CF_XMC4700/cleanflight/lib/main/CMSIS/Core/Include\cmsis_gcc.h **** #endif
  38:D:/XMC/Projekte/Temp/CF_XMC4700/cleanflight/lib/main/CMSIS/Core/Include\cmsis_gcc.h **** 
  39:D:/XMC/Projekte/Temp/CF_XMC4700/cleanflight/lib/main/CMSIS/Core/Include\cmsis_gcc.h **** /* CMSIS compiler specific defines */
  40:D:/XMC/Projekte/Temp/CF_XMC4700/cleanflight/lib/main/CMSIS/Core/Include\cmsis_gcc.h **** #ifndef   __ASM
  41:D:/XMC/Projekte/Temp/CF_XMC4700/cleanflight/lib/main/CMSIS/Core/Include\cmsis_gcc.h ****   #define __ASM                                  __asm
  42:D:/XMC/Projekte/Temp/CF_XMC4700/cleanflight/lib/main/CMSIS/Core/Include\cmsis_gcc.h **** #endif
  43:D:/XMC/Projekte/Temp/CF_XMC4700/cleanflight/lib/main/CMSIS/Core/Include\cmsis_gcc.h **** #ifndef   __INLINE
  44:D:/XMC/Projekte/Temp/CF_XMC4700/cleanflight/lib/main/CMSIS/Core/Include\cmsis_gcc.h ****   #define __INLINE                               inline
  45:D:/XMC/Projekte/Temp/CF_XMC4700/cleanflight/lib/main/CMSIS/Core/Include\cmsis_gcc.h **** #endif
  46:D:/XMC/Projekte/Temp/CF_XMC4700/cleanflight/lib/main/CMSIS/Core/Include\cmsis_gcc.h **** #ifndef   __STATIC_INLINE
  47:D:/XMC/Projekte/Temp/CF_XMC4700/cleanflight/lib/main/CMSIS/Core/Include\cmsis_gcc.h ****   #define __STATIC_INLINE                        static inline
  48:D:/XMC/Projekte/Temp/CF_XMC4700/cleanflight/lib/main/CMSIS/Core/Include\cmsis_gcc.h **** #endif
  49:D:/XMC/Projekte/Temp/CF_XMC4700/cleanflight/lib/main/CMSIS/Core/Include\cmsis_gcc.h **** #ifndef   __STATIC_FORCEINLINE                 
  50:D:/XMC/Projekte/Temp/CF_XMC4700/cleanflight/lib/main/CMSIS/Core/Include\cmsis_gcc.h ****   #define __STATIC_FORCEINLINE                   __attribute__((always_inline)) static inline
  51:D:/XMC/Projekte/Temp/CF_XMC4700/cleanflight/lib/main/CMSIS/Core/Include\cmsis_gcc.h **** #endif                                           
  52:D:/XMC/Projekte/Temp/CF_XMC4700/cleanflight/lib/main/CMSIS/Core/Include\cmsis_gcc.h **** #ifndef   __NO_RETURN
  53:D:/XMC/Projekte/Temp/CF_XMC4700/cleanflight/lib/main/CMSIS/Core/Include\cmsis_gcc.h ****   #define __NO_RETURN                            __attribute__((__noreturn__))
  54:D:/XMC/Projekte/Temp/CF_XMC4700/cleanflight/lib/main/CMSIS/Core/Include\cmsis_gcc.h **** #endif
  55:D:/XMC/Projekte/Temp/CF_XMC4700/cleanflight/lib/main/CMSIS/Core/Include\cmsis_gcc.h **** #ifndef   __USED
  56:D:/XMC/Projekte/Temp/CF_XMC4700/cleanflight/lib/main/CMSIS/Core/Include\cmsis_gcc.h ****   #define __USED                                 __attribute__((used))
  57:D:/XMC/Projekte/Temp/CF_XMC4700/cleanflight/lib/main/CMSIS/Core/Include\cmsis_gcc.h **** #endif
  58:D:/XMC/Projekte/Temp/CF_XMC4700/cleanflight/lib/main/CMSIS/Core/Include\cmsis_gcc.h **** #ifndef   __WEAK
  59:D:/XMC/Projekte/Temp/CF_XMC4700/cleanflight/lib/main/CMSIS/Core/Include\cmsis_gcc.h ****   #define __WEAK                                 __attribute__((weak))
  60:D:/XMC/Projekte/Temp/CF_XMC4700/cleanflight/lib/main/CMSIS/Core/Include\cmsis_gcc.h **** #endif
  61:D:/XMC/Projekte/Temp/CF_XMC4700/cleanflight/lib/main/CMSIS/Core/Include\cmsis_gcc.h **** #ifndef   __PACKED
  62:D:/XMC/Projekte/Temp/CF_XMC4700/cleanflight/lib/main/CMSIS/Core/Include\cmsis_gcc.h ****   #define __PACKED                               __attribute__((packed, aligned(1)))
  63:D:/XMC/Projekte/Temp/CF_XMC4700/cleanflight/lib/main/CMSIS/Core/Include\cmsis_gcc.h **** #endif
  64:D:/XMC/Projekte/Temp/CF_XMC4700/cleanflight/lib/main/CMSIS/Core/Include\cmsis_gcc.h **** #ifndef   __PACKED_STRUCT
  65:D:/XMC/Projekte/Temp/CF_XMC4700/cleanflight/lib/main/CMSIS/Core/Include\cmsis_gcc.h ****   #define __PACKED_STRUCT                        struct __attribute__((packed, aligned(1)))
  66:D:/XMC/Projekte/Temp/CF_XMC4700/cleanflight/lib/main/CMSIS/Core/Include\cmsis_gcc.h **** #endif
  67:D:/XMC/Projekte/Temp/CF_XMC4700/cleanflight/lib/main/CMSIS/Core/Include\cmsis_gcc.h **** #ifndef   __PACKED_UNION
  68:D:/XMC/Projekte/Temp/CF_XMC4700/cleanflight/lib/main/CMSIS/Core/Include\cmsis_gcc.h ****   #define __PACKED_UNION                         union __attribute__((packed, aligned(1)))
  69:D:/XMC/Projekte/Temp/CF_XMC4700/cleanflight/lib/main/CMSIS/Core/Include\cmsis_gcc.h **** #endif
  70:D:/XMC/Projekte/Temp/CF_XMC4700/cleanflight/lib/main/CMSIS/Core/Include\cmsis_gcc.h **** #ifndef   __UNALIGNED_UINT32        /* deprecated */
  71:D:/XMC/Projekte/Temp/CF_XMC4700/cleanflight/lib/main/CMSIS/Core/Include\cmsis_gcc.h ****   #pragma GCC diagnostic push
  72:D:/XMC/Projekte/Temp/CF_XMC4700/cleanflight/lib/main/CMSIS/Core/Include\cmsis_gcc.h ****   #pragma GCC diagnostic ignored "-Wpacked"
  73:D:/XMC/Projekte/Temp/CF_XMC4700/cleanflight/lib/main/CMSIS/Core/Include\cmsis_gcc.h ****   #pragma GCC diagnostic ignored "-Wattributes"
  74:D:/XMC/Projekte/Temp/CF_XMC4700/cleanflight/lib/main/CMSIS/Core/Include\cmsis_gcc.h ****   struct __attribute__((packed)) T_UINT32 { uint32_t v; };
  75:D:/XMC/Projekte/Temp/CF_XMC4700/cleanflight/lib/main/CMSIS/Core/Include\cmsis_gcc.h ****   #pragma GCC diagnostic pop
  76:D:/XMC/Projekte/Temp/CF_XMC4700/cleanflight/lib/main/CMSIS/Core/Include\cmsis_gcc.h ****   #define __UNALIGNED_UINT32(x)                  (((struct T_UINT32 *)(x))->v)
  77:D:/XMC/Projekte/Temp/CF_XMC4700/cleanflight/lib/main/CMSIS/Core/Include\cmsis_gcc.h **** #endif
  78:D:/XMC/Projekte/Temp/CF_XMC4700/cleanflight/lib/main/CMSIS/Core/Include\cmsis_gcc.h **** #ifndef   __UNALIGNED_UINT16_WRITE
  79:D:/XMC/Projekte/Temp/CF_XMC4700/cleanflight/lib/main/CMSIS/Core/Include\cmsis_gcc.h ****   #pragma GCC diagnostic push
  80:D:/XMC/Projekte/Temp/CF_XMC4700/cleanflight/lib/main/CMSIS/Core/Include\cmsis_gcc.h ****   #pragma GCC diagnostic ignored "-Wpacked"
  81:D:/XMC/Projekte/Temp/CF_XMC4700/cleanflight/lib/main/CMSIS/Core/Include\cmsis_gcc.h ****   #pragma GCC diagnostic ignored "-Wattributes"
  82:D:/XMC/Projekte/Temp/CF_XMC4700/cleanflight/lib/main/CMSIS/Core/Include\cmsis_gcc.h ****   __PACKED_STRUCT T_UINT16_WRITE { uint16_t v; };
  83:D:/XMC/Projekte/Temp/CF_XMC4700/cleanflight/lib/main/CMSIS/Core/Include\cmsis_gcc.h ****   #pragma GCC diagnostic pop
  84:D:/XMC/Projekte/Temp/CF_XMC4700/cleanflight/lib/main/CMSIS/Core/Include\cmsis_gcc.h ****   #define __UNALIGNED_UINT16_WRITE(addr, val)    (void)((((struct T_UINT16_WRITE *)(void *)(addr))-
  85:D:/XMC/Projekte/Temp/CF_XMC4700/cleanflight/lib/main/CMSIS/Core/Include\cmsis_gcc.h **** #endif
  86:D:/XMC/Projekte/Temp/CF_XMC4700/cleanflight/lib/main/CMSIS/Core/Include\cmsis_gcc.h **** #ifndef   __UNALIGNED_UINT16_READ
  87:D:/XMC/Projekte/Temp/CF_XMC4700/cleanflight/lib/main/CMSIS/Core/Include\cmsis_gcc.h ****   #pragma GCC diagnostic push
  88:D:/XMC/Projekte/Temp/CF_XMC4700/cleanflight/lib/main/CMSIS/Core/Include\cmsis_gcc.h ****   #pragma GCC diagnostic ignored "-Wpacked"
  89:D:/XMC/Projekte/Temp/CF_XMC4700/cleanflight/lib/main/CMSIS/Core/Include\cmsis_gcc.h ****   #pragma GCC diagnostic ignored "-Wattributes"
  90:D:/XMC/Projekte/Temp/CF_XMC4700/cleanflight/lib/main/CMSIS/Core/Include\cmsis_gcc.h ****   __PACKED_STRUCT T_UINT16_READ { uint16_t v; };
  91:D:/XMC/Projekte/Temp/CF_XMC4700/cleanflight/lib/main/CMSIS/Core/Include\cmsis_gcc.h ****   #pragma GCC diagnostic pop
  92:D:/XMC/Projekte/Temp/CF_XMC4700/cleanflight/lib/main/CMSIS/Core/Include\cmsis_gcc.h ****   #define __UNALIGNED_UINT16_READ(addr)          (((const struct T_UINT16_READ *)(const void *)(add
  93:D:/XMC/Projekte/Temp/CF_XMC4700/cleanflight/lib/main/CMSIS/Core/Include\cmsis_gcc.h **** #endif
  94:D:/XMC/Projekte/Temp/CF_XMC4700/cleanflight/lib/main/CMSIS/Core/Include\cmsis_gcc.h **** #ifndef   __UNALIGNED_UINT32_WRITE
  95:D:/XMC/Projekte/Temp/CF_XMC4700/cleanflight/lib/main/CMSIS/Core/Include\cmsis_gcc.h ****   #pragma GCC diagnostic push
  96:D:/XMC/Projekte/Temp/CF_XMC4700/cleanflight/lib/main/CMSIS/Core/Include\cmsis_gcc.h ****   #pragma GCC diagnostic ignored "-Wpacked"
  97:D:/XMC/Projekte/Temp/CF_XMC4700/cleanflight/lib/main/CMSIS/Core/Include\cmsis_gcc.h ****   #pragma GCC diagnostic ignored "-Wattributes"
  98:D:/XMC/Projekte/Temp/CF_XMC4700/cleanflight/lib/main/CMSIS/Core/Include\cmsis_gcc.h ****   __PACKED_STRUCT T_UINT32_WRITE { uint32_t v; };
  99:D:/XMC/Projekte/Temp/CF_XMC4700/cleanflight/lib/main/CMSIS/Core/Include\cmsis_gcc.h ****   #pragma GCC diagnostic pop
 100:D:/XMC/Projekte/Temp/CF_XMC4700/cleanflight/lib/main/CMSIS/Core/Include\cmsis_gcc.h ****   #define __UNALIGNED_UINT32_WRITE(addr, val)    (void)((((struct T_UINT32_WRITE *)(void *)(addr))-
 101:D:/XMC/Projekte/Temp/CF_XMC4700/cleanflight/lib/main/CMSIS/Core/Include\cmsis_gcc.h **** #endif
 102:D:/XMC/Projekte/Temp/CF_XMC4700/cleanflight/lib/main/CMSIS/Core/Include\cmsis_gcc.h **** #ifndef   __UNALIGNED_UINT32_READ
 103:D:/XMC/Projekte/Temp/CF_XMC4700/cleanflight/lib/main/CMSIS/Core/Include\cmsis_gcc.h ****   #pragma GCC diagnostic push
 104:D:/XMC/Projekte/Temp/CF_XMC4700/cleanflight/lib/main/CMSIS/Core/Include\cmsis_gcc.h ****   #pragma GCC diagnostic ignored "-Wpacked"
 105:D:/XMC/Projekte/Temp/CF_XMC4700/cleanflight/lib/main/CMSIS/Core/Include\cmsis_gcc.h ****   #pragma GCC diagnostic ignored "-Wattributes"
 106:D:/XMC/Projekte/Temp/CF_XMC4700/cleanflight/lib/main/CMSIS/Core/Include\cmsis_gcc.h ****   __PACKED_STRUCT T_UINT32_READ { uint32_t v; };
 107:D:/XMC/Projekte/Temp/CF_XMC4700/cleanflight/lib/main/CMSIS/Core/Include\cmsis_gcc.h ****   #pragma GCC diagnostic pop
 108:D:/XMC/Projekte/Temp/CF_XMC4700/cleanflight/lib/main/CMSIS/Core/Include\cmsis_gcc.h ****   #define __UNALIGNED_UINT32_READ(addr)          (((const struct T_UINT32_READ *)(const void *)(add
 109:D:/XMC/Projekte/Temp/CF_XMC4700/cleanflight/lib/main/CMSIS/Core/Include\cmsis_gcc.h **** #endif
 110:D:/XMC/Projekte/Temp/CF_XMC4700/cleanflight/lib/main/CMSIS/Core/Include\cmsis_gcc.h **** #ifndef   __ALIGNED
 111:D:/XMC/Projekte/Temp/CF_XMC4700/cleanflight/lib/main/CMSIS/Core/Include\cmsis_gcc.h ****   #define __ALIGNED(x)                           __attribute__((aligned(x)))
 112:D:/XMC/Projekte/Temp/CF_XMC4700/cleanflight/lib/main/CMSIS/Core/Include\cmsis_gcc.h **** #endif
 113:D:/XMC/Projekte/Temp/CF_XMC4700/cleanflight/lib/main/CMSIS/Core/Include\cmsis_gcc.h **** #ifndef   __RESTRICT
 114:D:/XMC/Projekte/Temp/CF_XMC4700/cleanflight/lib/main/CMSIS/Core/Include\cmsis_gcc.h ****   #define __RESTRICT                             __restrict
 115:D:/XMC/Projekte/Temp/CF_XMC4700/cleanflight/lib/main/CMSIS/Core/Include\cmsis_gcc.h **** #endif
 116:D:/XMC/Projekte/Temp/CF_XMC4700/cleanflight/lib/main/CMSIS/Core/Include\cmsis_gcc.h **** 
 117:D:/XMC/Projekte/Temp/CF_XMC4700/cleanflight/lib/main/CMSIS/Core/Include\cmsis_gcc.h **** 
 118:D:/XMC/Projekte/Temp/CF_XMC4700/cleanflight/lib/main/CMSIS/Core/Include\cmsis_gcc.h **** /* ###########################  Core Function Access  ########################### */
 119:D:/XMC/Projekte/Temp/CF_XMC4700/cleanflight/lib/main/CMSIS/Core/Include\cmsis_gcc.h **** /** \ingroup  CMSIS_Core_FunctionInterface
 120:D:/XMC/Projekte/Temp/CF_XMC4700/cleanflight/lib/main/CMSIS/Core/Include\cmsis_gcc.h ****     \defgroup CMSIS_Core_RegAccFunctions CMSIS Core Register Access Functions
 121:D:/XMC/Projekte/Temp/CF_XMC4700/cleanflight/lib/main/CMSIS/Core/Include\cmsis_gcc.h ****   @{
 122:D:/XMC/Projekte/Temp/CF_XMC4700/cleanflight/lib/main/CMSIS/Core/Include\cmsis_gcc.h ****  */
 123:D:/XMC/Projekte/Temp/CF_XMC4700/cleanflight/lib/main/CMSIS/Core/Include\cmsis_gcc.h **** 
 124:D:/XMC/Projekte/Temp/CF_XMC4700/cleanflight/lib/main/CMSIS/Core/Include\cmsis_gcc.h **** /**
 125:D:/XMC/Projekte/Temp/CF_XMC4700/cleanflight/lib/main/CMSIS/Core/Include\cmsis_gcc.h ****   \brief   Enable IRQ Interrupts
 126:D:/XMC/Projekte/Temp/CF_XMC4700/cleanflight/lib/main/CMSIS/Core/Include\cmsis_gcc.h ****   \details Enables IRQ interrupts by clearing the I-bit in the CPSR.
 127:D:/XMC/Projekte/Temp/CF_XMC4700/cleanflight/lib/main/CMSIS/Core/Include\cmsis_gcc.h ****            Can only be executed in Privileged modes.
 128:D:/XMC/Projekte/Temp/CF_XMC4700/cleanflight/lib/main/CMSIS/Core/Include\cmsis_gcc.h ****  */
 129:D:/XMC/Projekte/Temp/CF_XMC4700/cleanflight/lib/main/CMSIS/Core/Include\cmsis_gcc.h **** __STATIC_FORCEINLINE void __enable_irq(void)
 130:D:/XMC/Projekte/Temp/CF_XMC4700/cleanflight/lib/main/CMSIS/Core/Include\cmsis_gcc.h **** {
 131:D:/XMC/Projekte/Temp/CF_XMC4700/cleanflight/lib/main/CMSIS/Core/Include\cmsis_gcc.h ****   __ASM volatile ("cpsie i" : : : "memory");
 132:D:/XMC/Projekte/Temp/CF_XMC4700/cleanflight/lib/main/CMSIS/Core/Include\cmsis_gcc.h **** }
 133:D:/XMC/Projekte/Temp/CF_XMC4700/cleanflight/lib/main/CMSIS/Core/Include\cmsis_gcc.h **** 
 134:D:/XMC/Projekte/Temp/CF_XMC4700/cleanflight/lib/main/CMSIS/Core/Include\cmsis_gcc.h **** 
 135:D:/XMC/Projekte/Temp/CF_XMC4700/cleanflight/lib/main/CMSIS/Core/Include\cmsis_gcc.h **** /**
 136:D:/XMC/Projekte/Temp/CF_XMC4700/cleanflight/lib/main/CMSIS/Core/Include\cmsis_gcc.h ****   \brief   Disable IRQ Interrupts
 137:D:/XMC/Projekte/Temp/CF_XMC4700/cleanflight/lib/main/CMSIS/Core/Include\cmsis_gcc.h ****   \details Disables IRQ interrupts by setting the I-bit in the CPSR.
 138:D:/XMC/Projekte/Temp/CF_XMC4700/cleanflight/lib/main/CMSIS/Core/Include\cmsis_gcc.h ****            Can only be executed in Privileged modes.
 139:D:/XMC/Projekte/Temp/CF_XMC4700/cleanflight/lib/main/CMSIS/Core/Include\cmsis_gcc.h ****  */
 140:D:/XMC/Projekte/Temp/CF_XMC4700/cleanflight/lib/main/CMSIS/Core/Include\cmsis_gcc.h **** __STATIC_FORCEINLINE void __disable_irq(void)
 141:D:/XMC/Projekte/Temp/CF_XMC4700/cleanflight/lib/main/CMSIS/Core/Include\cmsis_gcc.h **** {
 142:D:/XMC/Projekte/Temp/CF_XMC4700/cleanflight/lib/main/CMSIS/Core/Include\cmsis_gcc.h ****   __ASM volatile ("cpsid i" : : : "memory");
 143:D:/XMC/Projekte/Temp/CF_XMC4700/cleanflight/lib/main/CMSIS/Core/Include\cmsis_gcc.h **** }
 144:D:/XMC/Projekte/Temp/CF_XMC4700/cleanflight/lib/main/CMSIS/Core/Include\cmsis_gcc.h **** 
 145:D:/XMC/Projekte/Temp/CF_XMC4700/cleanflight/lib/main/CMSIS/Core/Include\cmsis_gcc.h **** 
 146:D:/XMC/Projekte/Temp/CF_XMC4700/cleanflight/lib/main/CMSIS/Core/Include\cmsis_gcc.h **** /**
 147:D:/XMC/Projekte/Temp/CF_XMC4700/cleanflight/lib/main/CMSIS/Core/Include\cmsis_gcc.h ****   \brief   Get Control Register
 148:D:/XMC/Projekte/Temp/CF_XMC4700/cleanflight/lib/main/CMSIS/Core/Include\cmsis_gcc.h ****   \details Returns the content of the Control Register.
 149:D:/XMC/Projekte/Temp/CF_XMC4700/cleanflight/lib/main/CMSIS/Core/Include\cmsis_gcc.h ****   \return               Control Register value
 150:D:/XMC/Projekte/Temp/CF_XMC4700/cleanflight/lib/main/CMSIS/Core/Include\cmsis_gcc.h ****  */
 151:D:/XMC/Projekte/Temp/CF_XMC4700/cleanflight/lib/main/CMSIS/Core/Include\cmsis_gcc.h **** __STATIC_FORCEINLINE uint32_t __get_CONTROL(void)
 152:D:/XMC/Projekte/Temp/CF_XMC4700/cleanflight/lib/main/CMSIS/Core/Include\cmsis_gcc.h **** {
 153:D:/XMC/Projekte/Temp/CF_XMC4700/cleanflight/lib/main/CMSIS/Core/Include\cmsis_gcc.h ****   uint32_t result;
 154:D:/XMC/Projekte/Temp/CF_XMC4700/cleanflight/lib/main/CMSIS/Core/Include\cmsis_gcc.h **** 
 155:D:/XMC/Projekte/Temp/CF_XMC4700/cleanflight/lib/main/CMSIS/Core/Include\cmsis_gcc.h ****   __ASM volatile ("MRS %0, control" : "=r" (result) );
 156:D:/XMC/Projekte/Temp/CF_XMC4700/cleanflight/lib/main/CMSIS/Core/Include\cmsis_gcc.h ****   return(result);
 157:D:/XMC/Projekte/Temp/CF_XMC4700/cleanflight/lib/main/CMSIS/Core/Include\cmsis_gcc.h **** }
 158:D:/XMC/Projekte/Temp/CF_XMC4700/cleanflight/lib/main/CMSIS/Core/Include\cmsis_gcc.h **** 
 159:D:/XMC/Projekte/Temp/CF_XMC4700/cleanflight/lib/main/CMSIS/Core/Include\cmsis_gcc.h **** 
 160:D:/XMC/Projekte/Temp/CF_XMC4700/cleanflight/lib/main/CMSIS/Core/Include\cmsis_gcc.h **** #if (defined (__ARM_FEATURE_CMSE ) && (__ARM_FEATURE_CMSE == 3))
 161:D:/XMC/Projekte/Temp/CF_XMC4700/cleanflight/lib/main/CMSIS/Core/Include\cmsis_gcc.h **** /**
 162:D:/XMC/Projekte/Temp/CF_XMC4700/cleanflight/lib/main/CMSIS/Core/Include\cmsis_gcc.h ****   \brief   Get Control Register (non-secure)
 163:D:/XMC/Projekte/Temp/CF_XMC4700/cleanflight/lib/main/CMSIS/Core/Include\cmsis_gcc.h ****   \details Returns the content of the non-secure Control Register when in secure mode.
 164:D:/XMC/Projekte/Temp/CF_XMC4700/cleanflight/lib/main/CMSIS/Core/Include\cmsis_gcc.h ****   \return               non-secure Control Register value
 165:D:/XMC/Projekte/Temp/CF_XMC4700/cleanflight/lib/main/CMSIS/Core/Include\cmsis_gcc.h ****  */
 166:D:/XMC/Projekte/Temp/CF_XMC4700/cleanflight/lib/main/CMSIS/Core/Include\cmsis_gcc.h **** __STATIC_FORCEINLINE uint32_t __TZ_get_CONTROL_NS(void)
 167:D:/XMC/Projekte/Temp/CF_XMC4700/cleanflight/lib/main/CMSIS/Core/Include\cmsis_gcc.h **** {
 168:D:/XMC/Projekte/Temp/CF_XMC4700/cleanflight/lib/main/CMSIS/Core/Include\cmsis_gcc.h ****   uint32_t result;
 169:D:/XMC/Projekte/Temp/CF_XMC4700/cleanflight/lib/main/CMSIS/Core/Include\cmsis_gcc.h **** 
 170:D:/XMC/Projekte/Temp/CF_XMC4700/cleanflight/lib/main/CMSIS/Core/Include\cmsis_gcc.h ****   __ASM volatile ("MRS %0, control_ns" : "=r" (result) );
 171:D:/XMC/Projekte/Temp/CF_XMC4700/cleanflight/lib/main/CMSIS/Core/Include\cmsis_gcc.h ****   return(result);
 172:D:/XMC/Projekte/Temp/CF_XMC4700/cleanflight/lib/main/CMSIS/Core/Include\cmsis_gcc.h **** }
 173:D:/XMC/Projekte/Temp/CF_XMC4700/cleanflight/lib/main/CMSIS/Core/Include\cmsis_gcc.h **** #endif
 174:D:/XMC/Projekte/Temp/CF_XMC4700/cleanflight/lib/main/CMSIS/Core/Include\cmsis_gcc.h **** 
 175:D:/XMC/Projekte/Temp/CF_XMC4700/cleanflight/lib/main/CMSIS/Core/Include\cmsis_gcc.h **** 
 176:D:/XMC/Projekte/Temp/CF_XMC4700/cleanflight/lib/main/CMSIS/Core/Include\cmsis_gcc.h **** /**
 177:D:/XMC/Projekte/Temp/CF_XMC4700/cleanflight/lib/main/CMSIS/Core/Include\cmsis_gcc.h ****   \brief   Set Control Register
 178:D:/XMC/Projekte/Temp/CF_XMC4700/cleanflight/lib/main/CMSIS/Core/Include\cmsis_gcc.h ****   \details Writes the given value to the Control Register.
 179:D:/XMC/Projekte/Temp/CF_XMC4700/cleanflight/lib/main/CMSIS/Core/Include\cmsis_gcc.h ****   \param [in]    control  Control Register value to set
 180:D:/XMC/Projekte/Temp/CF_XMC4700/cleanflight/lib/main/CMSIS/Core/Include\cmsis_gcc.h ****  */
 181:D:/XMC/Projekte/Temp/CF_XMC4700/cleanflight/lib/main/CMSIS/Core/Include\cmsis_gcc.h **** __STATIC_FORCEINLINE void __set_CONTROL(uint32_t control)
 182:D:/XMC/Projekte/Temp/CF_XMC4700/cleanflight/lib/main/CMSIS/Core/Include\cmsis_gcc.h **** {
 183:D:/XMC/Projekte/Temp/CF_XMC4700/cleanflight/lib/main/CMSIS/Core/Include\cmsis_gcc.h ****   __ASM volatile ("MSR control, %0" : : "r" (control) : "memory");
 184:D:/XMC/Projekte/Temp/CF_XMC4700/cleanflight/lib/main/CMSIS/Core/Include\cmsis_gcc.h **** }
 185:D:/XMC/Projekte/Temp/CF_XMC4700/cleanflight/lib/main/CMSIS/Core/Include\cmsis_gcc.h **** 
 186:D:/XMC/Projekte/Temp/CF_XMC4700/cleanflight/lib/main/CMSIS/Core/Include\cmsis_gcc.h **** 
 187:D:/XMC/Projekte/Temp/CF_XMC4700/cleanflight/lib/main/CMSIS/Core/Include\cmsis_gcc.h **** #if (defined (__ARM_FEATURE_CMSE ) && (__ARM_FEATURE_CMSE == 3))
 188:D:/XMC/Projekte/Temp/CF_XMC4700/cleanflight/lib/main/CMSIS/Core/Include\cmsis_gcc.h **** /**
 189:D:/XMC/Projekte/Temp/CF_XMC4700/cleanflight/lib/main/CMSIS/Core/Include\cmsis_gcc.h ****   \brief   Set Control Register (non-secure)
 190:D:/XMC/Projekte/Temp/CF_XMC4700/cleanflight/lib/main/CMSIS/Core/Include\cmsis_gcc.h ****   \details Writes the given value to the non-secure Control Register when in secure state.
 191:D:/XMC/Projekte/Temp/CF_XMC4700/cleanflight/lib/main/CMSIS/Core/Include\cmsis_gcc.h ****   \param [in]    control  Control Register value to set
 192:D:/XMC/Projekte/Temp/CF_XMC4700/cleanflight/lib/main/CMSIS/Core/Include\cmsis_gcc.h ****  */
 193:D:/XMC/Projekte/Temp/CF_XMC4700/cleanflight/lib/main/CMSIS/Core/Include\cmsis_gcc.h **** __STATIC_FORCEINLINE void __TZ_set_CONTROL_NS(uint32_t control)
 194:D:/XMC/Projekte/Temp/CF_XMC4700/cleanflight/lib/main/CMSIS/Core/Include\cmsis_gcc.h **** {
 195:D:/XMC/Projekte/Temp/CF_XMC4700/cleanflight/lib/main/CMSIS/Core/Include\cmsis_gcc.h ****   __ASM volatile ("MSR control_ns, %0" : : "r" (control) : "memory");
 196:D:/XMC/Projekte/Temp/CF_XMC4700/cleanflight/lib/main/CMSIS/Core/Include\cmsis_gcc.h **** }
 197:D:/XMC/Projekte/Temp/CF_XMC4700/cleanflight/lib/main/CMSIS/Core/Include\cmsis_gcc.h **** #endif
 198:D:/XMC/Projekte/Temp/CF_XMC4700/cleanflight/lib/main/CMSIS/Core/Include\cmsis_gcc.h **** 
 199:D:/XMC/Projekte/Temp/CF_XMC4700/cleanflight/lib/main/CMSIS/Core/Include\cmsis_gcc.h **** 
 200:D:/XMC/Projekte/Temp/CF_XMC4700/cleanflight/lib/main/CMSIS/Core/Include\cmsis_gcc.h **** /**
 201:D:/XMC/Projekte/Temp/CF_XMC4700/cleanflight/lib/main/CMSIS/Core/Include\cmsis_gcc.h ****   \brief   Get IPSR Register
 202:D:/XMC/Projekte/Temp/CF_XMC4700/cleanflight/lib/main/CMSIS/Core/Include\cmsis_gcc.h ****   \details Returns the content of the IPSR Register.
 203:D:/XMC/Projekte/Temp/CF_XMC4700/cleanflight/lib/main/CMSIS/Core/Include\cmsis_gcc.h ****   \return               IPSR Register value
 204:D:/XMC/Projekte/Temp/CF_XMC4700/cleanflight/lib/main/CMSIS/Core/Include\cmsis_gcc.h ****  */
 205:D:/XMC/Projekte/Temp/CF_XMC4700/cleanflight/lib/main/CMSIS/Core/Include\cmsis_gcc.h **** __STATIC_FORCEINLINE uint32_t __get_IPSR(void)
 206:D:/XMC/Projekte/Temp/CF_XMC4700/cleanflight/lib/main/CMSIS/Core/Include\cmsis_gcc.h **** {
 207:D:/XMC/Projekte/Temp/CF_XMC4700/cleanflight/lib/main/CMSIS/Core/Include\cmsis_gcc.h ****   uint32_t result;
 208:D:/XMC/Projekte/Temp/CF_XMC4700/cleanflight/lib/main/CMSIS/Core/Include\cmsis_gcc.h **** 
 209:D:/XMC/Projekte/Temp/CF_XMC4700/cleanflight/lib/main/CMSIS/Core/Include\cmsis_gcc.h ****   __ASM volatile ("MRS %0, ipsr" : "=r" (result) );
 210:D:/XMC/Projekte/Temp/CF_XMC4700/cleanflight/lib/main/CMSIS/Core/Include\cmsis_gcc.h ****   return(result);
 211:D:/XMC/Projekte/Temp/CF_XMC4700/cleanflight/lib/main/CMSIS/Core/Include\cmsis_gcc.h **** }
 212:D:/XMC/Projekte/Temp/CF_XMC4700/cleanflight/lib/main/CMSIS/Core/Include\cmsis_gcc.h **** 
 213:D:/XMC/Projekte/Temp/CF_XMC4700/cleanflight/lib/main/CMSIS/Core/Include\cmsis_gcc.h **** 
 214:D:/XMC/Projekte/Temp/CF_XMC4700/cleanflight/lib/main/CMSIS/Core/Include\cmsis_gcc.h **** /**
 215:D:/XMC/Projekte/Temp/CF_XMC4700/cleanflight/lib/main/CMSIS/Core/Include\cmsis_gcc.h ****   \brief   Get APSR Register
 216:D:/XMC/Projekte/Temp/CF_XMC4700/cleanflight/lib/main/CMSIS/Core/Include\cmsis_gcc.h ****   \details Returns the content of the APSR Register.
 217:D:/XMC/Projekte/Temp/CF_XMC4700/cleanflight/lib/main/CMSIS/Core/Include\cmsis_gcc.h ****   \return               APSR Register value
 218:D:/XMC/Projekte/Temp/CF_XMC4700/cleanflight/lib/main/CMSIS/Core/Include\cmsis_gcc.h ****  */
 219:D:/XMC/Projekte/Temp/CF_XMC4700/cleanflight/lib/main/CMSIS/Core/Include\cmsis_gcc.h **** __STATIC_FORCEINLINE uint32_t __get_APSR(void)
 220:D:/XMC/Projekte/Temp/CF_XMC4700/cleanflight/lib/main/CMSIS/Core/Include\cmsis_gcc.h **** {
 221:D:/XMC/Projekte/Temp/CF_XMC4700/cleanflight/lib/main/CMSIS/Core/Include\cmsis_gcc.h ****   uint32_t result;
 222:D:/XMC/Projekte/Temp/CF_XMC4700/cleanflight/lib/main/CMSIS/Core/Include\cmsis_gcc.h **** 
 223:D:/XMC/Projekte/Temp/CF_XMC4700/cleanflight/lib/main/CMSIS/Core/Include\cmsis_gcc.h ****   __ASM volatile ("MRS %0, apsr" : "=r" (result) );
 224:D:/XMC/Projekte/Temp/CF_XMC4700/cleanflight/lib/main/CMSIS/Core/Include\cmsis_gcc.h ****   return(result);
 225:D:/XMC/Projekte/Temp/CF_XMC4700/cleanflight/lib/main/CMSIS/Core/Include\cmsis_gcc.h **** }
 226:D:/XMC/Projekte/Temp/CF_XMC4700/cleanflight/lib/main/CMSIS/Core/Include\cmsis_gcc.h **** 
 227:D:/XMC/Projekte/Temp/CF_XMC4700/cleanflight/lib/main/CMSIS/Core/Include\cmsis_gcc.h **** 
 228:D:/XMC/Projekte/Temp/CF_XMC4700/cleanflight/lib/main/CMSIS/Core/Include\cmsis_gcc.h **** /**
 229:D:/XMC/Projekte/Temp/CF_XMC4700/cleanflight/lib/main/CMSIS/Core/Include\cmsis_gcc.h ****   \brief   Get xPSR Register
 230:D:/XMC/Projekte/Temp/CF_XMC4700/cleanflight/lib/main/CMSIS/Core/Include\cmsis_gcc.h ****   \details Returns the content of the xPSR Register.
 231:D:/XMC/Projekte/Temp/CF_XMC4700/cleanflight/lib/main/CMSIS/Core/Include\cmsis_gcc.h ****   \return               xPSR Register value
 232:D:/XMC/Projekte/Temp/CF_XMC4700/cleanflight/lib/main/CMSIS/Core/Include\cmsis_gcc.h ****  */
 233:D:/XMC/Projekte/Temp/CF_XMC4700/cleanflight/lib/main/CMSIS/Core/Include\cmsis_gcc.h **** __STATIC_FORCEINLINE uint32_t __get_xPSR(void)
 234:D:/XMC/Projekte/Temp/CF_XMC4700/cleanflight/lib/main/CMSIS/Core/Include\cmsis_gcc.h **** {
 235:D:/XMC/Projekte/Temp/CF_XMC4700/cleanflight/lib/main/CMSIS/Core/Include\cmsis_gcc.h ****   uint32_t result;
 236:D:/XMC/Projekte/Temp/CF_XMC4700/cleanflight/lib/main/CMSIS/Core/Include\cmsis_gcc.h **** 
 237:D:/XMC/Projekte/Temp/CF_XMC4700/cleanflight/lib/main/CMSIS/Core/Include\cmsis_gcc.h ****   __ASM volatile ("MRS %0, xpsr" : "=r" (result) );
 238:D:/XMC/Projekte/Temp/CF_XMC4700/cleanflight/lib/main/CMSIS/Core/Include\cmsis_gcc.h ****   return(result);
 239:D:/XMC/Projekte/Temp/CF_XMC4700/cleanflight/lib/main/CMSIS/Core/Include\cmsis_gcc.h **** }
 240:D:/XMC/Projekte/Temp/CF_XMC4700/cleanflight/lib/main/CMSIS/Core/Include\cmsis_gcc.h **** 
 241:D:/XMC/Projekte/Temp/CF_XMC4700/cleanflight/lib/main/CMSIS/Core/Include\cmsis_gcc.h **** 
 242:D:/XMC/Projekte/Temp/CF_XMC4700/cleanflight/lib/main/CMSIS/Core/Include\cmsis_gcc.h **** /**
 243:D:/XMC/Projekte/Temp/CF_XMC4700/cleanflight/lib/main/CMSIS/Core/Include\cmsis_gcc.h ****   \brief   Get Process Stack Pointer
 244:D:/XMC/Projekte/Temp/CF_XMC4700/cleanflight/lib/main/CMSIS/Core/Include\cmsis_gcc.h ****   \details Returns the current value of the Process Stack Pointer (PSP).
 245:D:/XMC/Projekte/Temp/CF_XMC4700/cleanflight/lib/main/CMSIS/Core/Include\cmsis_gcc.h ****   \return               PSP Register value
 246:D:/XMC/Projekte/Temp/CF_XMC4700/cleanflight/lib/main/CMSIS/Core/Include\cmsis_gcc.h ****  */
 247:D:/XMC/Projekte/Temp/CF_XMC4700/cleanflight/lib/main/CMSIS/Core/Include\cmsis_gcc.h **** __STATIC_FORCEINLINE uint32_t __get_PSP(void)
 248:D:/XMC/Projekte/Temp/CF_XMC4700/cleanflight/lib/main/CMSIS/Core/Include\cmsis_gcc.h **** {
 249:D:/XMC/Projekte/Temp/CF_XMC4700/cleanflight/lib/main/CMSIS/Core/Include\cmsis_gcc.h ****   register uint32_t result;
 250:D:/XMC/Projekte/Temp/CF_XMC4700/cleanflight/lib/main/CMSIS/Core/Include\cmsis_gcc.h **** 
 251:D:/XMC/Projekte/Temp/CF_XMC4700/cleanflight/lib/main/CMSIS/Core/Include\cmsis_gcc.h ****   __ASM volatile ("MRS %0, psp"  : "=r" (result) );
 252:D:/XMC/Projekte/Temp/CF_XMC4700/cleanflight/lib/main/CMSIS/Core/Include\cmsis_gcc.h ****   return(result);
 253:D:/XMC/Projekte/Temp/CF_XMC4700/cleanflight/lib/main/CMSIS/Core/Include\cmsis_gcc.h **** }
 254:D:/XMC/Projekte/Temp/CF_XMC4700/cleanflight/lib/main/CMSIS/Core/Include\cmsis_gcc.h **** 
 255:D:/XMC/Projekte/Temp/CF_XMC4700/cleanflight/lib/main/CMSIS/Core/Include\cmsis_gcc.h **** 
 256:D:/XMC/Projekte/Temp/CF_XMC4700/cleanflight/lib/main/CMSIS/Core/Include\cmsis_gcc.h **** #if (defined (__ARM_FEATURE_CMSE ) && (__ARM_FEATURE_CMSE == 3))
 257:D:/XMC/Projekte/Temp/CF_XMC4700/cleanflight/lib/main/CMSIS/Core/Include\cmsis_gcc.h **** /**
 258:D:/XMC/Projekte/Temp/CF_XMC4700/cleanflight/lib/main/CMSIS/Core/Include\cmsis_gcc.h ****   \brief   Get Process Stack Pointer (non-secure)
 259:D:/XMC/Projekte/Temp/CF_XMC4700/cleanflight/lib/main/CMSIS/Core/Include\cmsis_gcc.h ****   \details Returns the current value of the non-secure Process Stack Pointer (PSP) when in secure s
 260:D:/XMC/Projekte/Temp/CF_XMC4700/cleanflight/lib/main/CMSIS/Core/Include\cmsis_gcc.h ****   \return               PSP Register value
 261:D:/XMC/Projekte/Temp/CF_XMC4700/cleanflight/lib/main/CMSIS/Core/Include\cmsis_gcc.h ****  */
 262:D:/XMC/Projekte/Temp/CF_XMC4700/cleanflight/lib/main/CMSIS/Core/Include\cmsis_gcc.h **** __STATIC_FORCEINLINE uint32_t __TZ_get_PSP_NS(void)
 263:D:/XMC/Projekte/Temp/CF_XMC4700/cleanflight/lib/main/CMSIS/Core/Include\cmsis_gcc.h **** {
 264:D:/XMC/Projekte/Temp/CF_XMC4700/cleanflight/lib/main/CMSIS/Core/Include\cmsis_gcc.h ****   register uint32_t result;
 265:D:/XMC/Projekte/Temp/CF_XMC4700/cleanflight/lib/main/CMSIS/Core/Include\cmsis_gcc.h **** 
 266:D:/XMC/Projekte/Temp/CF_XMC4700/cleanflight/lib/main/CMSIS/Core/Include\cmsis_gcc.h ****   __ASM volatile ("MRS %0, psp_ns"  : "=r" (result) );
 267:D:/XMC/Projekte/Temp/CF_XMC4700/cleanflight/lib/main/CMSIS/Core/Include\cmsis_gcc.h ****   return(result);
 268:D:/XMC/Projekte/Temp/CF_XMC4700/cleanflight/lib/main/CMSIS/Core/Include\cmsis_gcc.h **** }
 269:D:/XMC/Projekte/Temp/CF_XMC4700/cleanflight/lib/main/CMSIS/Core/Include\cmsis_gcc.h **** #endif
 270:D:/XMC/Projekte/Temp/CF_XMC4700/cleanflight/lib/main/CMSIS/Core/Include\cmsis_gcc.h **** 
 271:D:/XMC/Projekte/Temp/CF_XMC4700/cleanflight/lib/main/CMSIS/Core/Include\cmsis_gcc.h **** 
 272:D:/XMC/Projekte/Temp/CF_XMC4700/cleanflight/lib/main/CMSIS/Core/Include\cmsis_gcc.h **** /**
 273:D:/XMC/Projekte/Temp/CF_XMC4700/cleanflight/lib/main/CMSIS/Core/Include\cmsis_gcc.h ****   \brief   Set Process Stack Pointer
 274:D:/XMC/Projekte/Temp/CF_XMC4700/cleanflight/lib/main/CMSIS/Core/Include\cmsis_gcc.h ****   \details Assigns the given value to the Process Stack Pointer (PSP).
 275:D:/XMC/Projekte/Temp/CF_XMC4700/cleanflight/lib/main/CMSIS/Core/Include\cmsis_gcc.h ****   \param [in]    topOfProcStack  Process Stack Pointer value to set
 276:D:/XMC/Projekte/Temp/CF_XMC4700/cleanflight/lib/main/CMSIS/Core/Include\cmsis_gcc.h ****  */
 277:D:/XMC/Projekte/Temp/CF_XMC4700/cleanflight/lib/main/CMSIS/Core/Include\cmsis_gcc.h **** __STATIC_FORCEINLINE void __set_PSP(uint32_t topOfProcStack)
 278:D:/XMC/Projekte/Temp/CF_XMC4700/cleanflight/lib/main/CMSIS/Core/Include\cmsis_gcc.h **** {
 279:D:/XMC/Projekte/Temp/CF_XMC4700/cleanflight/lib/main/CMSIS/Core/Include\cmsis_gcc.h ****   __ASM volatile ("MSR psp, %0" : : "r" (topOfProcStack) : );
 280:D:/XMC/Projekte/Temp/CF_XMC4700/cleanflight/lib/main/CMSIS/Core/Include\cmsis_gcc.h **** }
 281:D:/XMC/Projekte/Temp/CF_XMC4700/cleanflight/lib/main/CMSIS/Core/Include\cmsis_gcc.h **** 
 282:D:/XMC/Projekte/Temp/CF_XMC4700/cleanflight/lib/main/CMSIS/Core/Include\cmsis_gcc.h **** 
 283:D:/XMC/Projekte/Temp/CF_XMC4700/cleanflight/lib/main/CMSIS/Core/Include\cmsis_gcc.h **** #if (defined (__ARM_FEATURE_CMSE ) && (__ARM_FEATURE_CMSE == 3))
 284:D:/XMC/Projekte/Temp/CF_XMC4700/cleanflight/lib/main/CMSIS/Core/Include\cmsis_gcc.h **** /**
 285:D:/XMC/Projekte/Temp/CF_XMC4700/cleanflight/lib/main/CMSIS/Core/Include\cmsis_gcc.h ****   \brief   Set Process Stack Pointer (non-secure)
 286:D:/XMC/Projekte/Temp/CF_XMC4700/cleanflight/lib/main/CMSIS/Core/Include\cmsis_gcc.h ****   \details Assigns the given value to the non-secure Process Stack Pointer (PSP) when in secure sta
 287:D:/XMC/Projekte/Temp/CF_XMC4700/cleanflight/lib/main/CMSIS/Core/Include\cmsis_gcc.h ****   \param [in]    topOfProcStack  Process Stack Pointer value to set
 288:D:/XMC/Projekte/Temp/CF_XMC4700/cleanflight/lib/main/CMSIS/Core/Include\cmsis_gcc.h ****  */
 289:D:/XMC/Projekte/Temp/CF_XMC4700/cleanflight/lib/main/CMSIS/Core/Include\cmsis_gcc.h **** __STATIC_FORCEINLINE void __TZ_set_PSP_NS(uint32_t topOfProcStack)
 290:D:/XMC/Projekte/Temp/CF_XMC4700/cleanflight/lib/main/CMSIS/Core/Include\cmsis_gcc.h **** {
 291:D:/XMC/Projekte/Temp/CF_XMC4700/cleanflight/lib/main/CMSIS/Core/Include\cmsis_gcc.h ****   __ASM volatile ("MSR psp_ns, %0" : : "r" (topOfProcStack) : );
 292:D:/XMC/Projekte/Temp/CF_XMC4700/cleanflight/lib/main/CMSIS/Core/Include\cmsis_gcc.h **** }
 293:D:/XMC/Projekte/Temp/CF_XMC4700/cleanflight/lib/main/CMSIS/Core/Include\cmsis_gcc.h **** #endif
 294:D:/XMC/Projekte/Temp/CF_XMC4700/cleanflight/lib/main/CMSIS/Core/Include\cmsis_gcc.h **** 
 295:D:/XMC/Projekte/Temp/CF_XMC4700/cleanflight/lib/main/CMSIS/Core/Include\cmsis_gcc.h **** 
 296:D:/XMC/Projekte/Temp/CF_XMC4700/cleanflight/lib/main/CMSIS/Core/Include\cmsis_gcc.h **** /**
 297:D:/XMC/Projekte/Temp/CF_XMC4700/cleanflight/lib/main/CMSIS/Core/Include\cmsis_gcc.h ****   \brief   Get Main Stack Pointer
 298:D:/XMC/Projekte/Temp/CF_XMC4700/cleanflight/lib/main/CMSIS/Core/Include\cmsis_gcc.h ****   \details Returns the current value of the Main Stack Pointer (MSP).
 299:D:/XMC/Projekte/Temp/CF_XMC4700/cleanflight/lib/main/CMSIS/Core/Include\cmsis_gcc.h ****   \return               MSP Register value
 300:D:/XMC/Projekte/Temp/CF_XMC4700/cleanflight/lib/main/CMSIS/Core/Include\cmsis_gcc.h ****  */
 301:D:/XMC/Projekte/Temp/CF_XMC4700/cleanflight/lib/main/CMSIS/Core/Include\cmsis_gcc.h **** __STATIC_FORCEINLINE uint32_t __get_MSP(void)
 302:D:/XMC/Projekte/Temp/CF_XMC4700/cleanflight/lib/main/CMSIS/Core/Include\cmsis_gcc.h **** {
 303:D:/XMC/Projekte/Temp/CF_XMC4700/cleanflight/lib/main/CMSIS/Core/Include\cmsis_gcc.h ****   register uint32_t result;
 304:D:/XMC/Projekte/Temp/CF_XMC4700/cleanflight/lib/main/CMSIS/Core/Include\cmsis_gcc.h **** 
 305:D:/XMC/Projekte/Temp/CF_XMC4700/cleanflight/lib/main/CMSIS/Core/Include\cmsis_gcc.h ****   __ASM volatile ("MRS %0, msp" : "=r" (result) );
 306:D:/XMC/Projekte/Temp/CF_XMC4700/cleanflight/lib/main/CMSIS/Core/Include\cmsis_gcc.h ****   return(result);
 307:D:/XMC/Projekte/Temp/CF_XMC4700/cleanflight/lib/main/CMSIS/Core/Include\cmsis_gcc.h **** }
 308:D:/XMC/Projekte/Temp/CF_XMC4700/cleanflight/lib/main/CMSIS/Core/Include\cmsis_gcc.h **** 
 309:D:/XMC/Projekte/Temp/CF_XMC4700/cleanflight/lib/main/CMSIS/Core/Include\cmsis_gcc.h **** 
 310:D:/XMC/Projekte/Temp/CF_XMC4700/cleanflight/lib/main/CMSIS/Core/Include\cmsis_gcc.h **** #if (defined (__ARM_FEATURE_CMSE ) && (__ARM_FEATURE_CMSE == 3))
 311:D:/XMC/Projekte/Temp/CF_XMC4700/cleanflight/lib/main/CMSIS/Core/Include\cmsis_gcc.h **** /**
 312:D:/XMC/Projekte/Temp/CF_XMC4700/cleanflight/lib/main/CMSIS/Core/Include\cmsis_gcc.h ****   \brief   Get Main Stack Pointer (non-secure)
 313:D:/XMC/Projekte/Temp/CF_XMC4700/cleanflight/lib/main/CMSIS/Core/Include\cmsis_gcc.h ****   \details Returns the current value of the non-secure Main Stack Pointer (MSP) when in secure stat
 314:D:/XMC/Projekte/Temp/CF_XMC4700/cleanflight/lib/main/CMSIS/Core/Include\cmsis_gcc.h ****   \return               MSP Register value
 315:D:/XMC/Projekte/Temp/CF_XMC4700/cleanflight/lib/main/CMSIS/Core/Include\cmsis_gcc.h ****  */
 316:D:/XMC/Projekte/Temp/CF_XMC4700/cleanflight/lib/main/CMSIS/Core/Include\cmsis_gcc.h **** __STATIC_FORCEINLINE uint32_t __TZ_get_MSP_NS(void)
 317:D:/XMC/Projekte/Temp/CF_XMC4700/cleanflight/lib/main/CMSIS/Core/Include\cmsis_gcc.h **** {
 318:D:/XMC/Projekte/Temp/CF_XMC4700/cleanflight/lib/main/CMSIS/Core/Include\cmsis_gcc.h ****   register uint32_t result;
 319:D:/XMC/Projekte/Temp/CF_XMC4700/cleanflight/lib/main/CMSIS/Core/Include\cmsis_gcc.h **** 
 320:D:/XMC/Projekte/Temp/CF_XMC4700/cleanflight/lib/main/CMSIS/Core/Include\cmsis_gcc.h ****   __ASM volatile ("MRS %0, msp_ns" : "=r" (result) );
 321:D:/XMC/Projekte/Temp/CF_XMC4700/cleanflight/lib/main/CMSIS/Core/Include\cmsis_gcc.h ****   return(result);
 322:D:/XMC/Projekte/Temp/CF_XMC4700/cleanflight/lib/main/CMSIS/Core/Include\cmsis_gcc.h **** }
 323:D:/XMC/Projekte/Temp/CF_XMC4700/cleanflight/lib/main/CMSIS/Core/Include\cmsis_gcc.h **** #endif
 324:D:/XMC/Projekte/Temp/CF_XMC4700/cleanflight/lib/main/CMSIS/Core/Include\cmsis_gcc.h **** 
 325:D:/XMC/Projekte/Temp/CF_XMC4700/cleanflight/lib/main/CMSIS/Core/Include\cmsis_gcc.h **** 
 326:D:/XMC/Projekte/Temp/CF_XMC4700/cleanflight/lib/main/CMSIS/Core/Include\cmsis_gcc.h **** /**
 327:D:/XMC/Projekte/Temp/CF_XMC4700/cleanflight/lib/main/CMSIS/Core/Include\cmsis_gcc.h ****   \brief   Set Main Stack Pointer
 328:D:/XMC/Projekte/Temp/CF_XMC4700/cleanflight/lib/main/CMSIS/Core/Include\cmsis_gcc.h ****   \details Assigns the given value to the Main Stack Pointer (MSP).
 329:D:/XMC/Projekte/Temp/CF_XMC4700/cleanflight/lib/main/CMSIS/Core/Include\cmsis_gcc.h ****   \param [in]    topOfMainStack  Main Stack Pointer value to set
 330:D:/XMC/Projekte/Temp/CF_XMC4700/cleanflight/lib/main/CMSIS/Core/Include\cmsis_gcc.h ****  */
 331:D:/XMC/Projekte/Temp/CF_XMC4700/cleanflight/lib/main/CMSIS/Core/Include\cmsis_gcc.h **** __STATIC_FORCEINLINE void __set_MSP(uint32_t topOfMainStack)
 332:D:/XMC/Projekte/Temp/CF_XMC4700/cleanflight/lib/main/CMSIS/Core/Include\cmsis_gcc.h **** {
 333:D:/XMC/Projekte/Temp/CF_XMC4700/cleanflight/lib/main/CMSIS/Core/Include\cmsis_gcc.h ****   __ASM volatile ("MSR msp, %0" : : "r" (topOfMainStack) : );
 334:D:/XMC/Projekte/Temp/CF_XMC4700/cleanflight/lib/main/CMSIS/Core/Include\cmsis_gcc.h **** }
 335:D:/XMC/Projekte/Temp/CF_XMC4700/cleanflight/lib/main/CMSIS/Core/Include\cmsis_gcc.h **** 
 336:D:/XMC/Projekte/Temp/CF_XMC4700/cleanflight/lib/main/CMSIS/Core/Include\cmsis_gcc.h **** 
 337:D:/XMC/Projekte/Temp/CF_XMC4700/cleanflight/lib/main/CMSIS/Core/Include\cmsis_gcc.h **** #if (defined (__ARM_FEATURE_CMSE ) && (__ARM_FEATURE_CMSE == 3))
 338:D:/XMC/Projekte/Temp/CF_XMC4700/cleanflight/lib/main/CMSIS/Core/Include\cmsis_gcc.h **** /**
 339:D:/XMC/Projekte/Temp/CF_XMC4700/cleanflight/lib/main/CMSIS/Core/Include\cmsis_gcc.h ****   \brief   Set Main Stack Pointer (non-secure)
 340:D:/XMC/Projekte/Temp/CF_XMC4700/cleanflight/lib/main/CMSIS/Core/Include\cmsis_gcc.h ****   \details Assigns the given value to the non-secure Main Stack Pointer (MSP) when in secure state.
 341:D:/XMC/Projekte/Temp/CF_XMC4700/cleanflight/lib/main/CMSIS/Core/Include\cmsis_gcc.h ****   \param [in]    topOfMainStack  Main Stack Pointer value to set
 342:D:/XMC/Projekte/Temp/CF_XMC4700/cleanflight/lib/main/CMSIS/Core/Include\cmsis_gcc.h ****  */
 343:D:/XMC/Projekte/Temp/CF_XMC4700/cleanflight/lib/main/CMSIS/Core/Include\cmsis_gcc.h **** __STATIC_FORCEINLINE void __TZ_set_MSP_NS(uint32_t topOfMainStack)
 344:D:/XMC/Projekte/Temp/CF_XMC4700/cleanflight/lib/main/CMSIS/Core/Include\cmsis_gcc.h **** {
 345:D:/XMC/Projekte/Temp/CF_XMC4700/cleanflight/lib/main/CMSIS/Core/Include\cmsis_gcc.h ****   __ASM volatile ("MSR msp_ns, %0" : : "r" (topOfMainStack) : );
 346:D:/XMC/Projekte/Temp/CF_XMC4700/cleanflight/lib/main/CMSIS/Core/Include\cmsis_gcc.h **** }
 347:D:/XMC/Projekte/Temp/CF_XMC4700/cleanflight/lib/main/CMSIS/Core/Include\cmsis_gcc.h **** #endif
 348:D:/XMC/Projekte/Temp/CF_XMC4700/cleanflight/lib/main/CMSIS/Core/Include\cmsis_gcc.h **** 
 349:D:/XMC/Projekte/Temp/CF_XMC4700/cleanflight/lib/main/CMSIS/Core/Include\cmsis_gcc.h **** 
 350:D:/XMC/Projekte/Temp/CF_XMC4700/cleanflight/lib/main/CMSIS/Core/Include\cmsis_gcc.h **** #if (defined (__ARM_FEATURE_CMSE ) && (__ARM_FEATURE_CMSE == 3))
 351:D:/XMC/Projekte/Temp/CF_XMC4700/cleanflight/lib/main/CMSIS/Core/Include\cmsis_gcc.h **** /**
 352:D:/XMC/Projekte/Temp/CF_XMC4700/cleanflight/lib/main/CMSIS/Core/Include\cmsis_gcc.h ****   \brief   Get Stack Pointer (non-secure)
 353:D:/XMC/Projekte/Temp/CF_XMC4700/cleanflight/lib/main/CMSIS/Core/Include\cmsis_gcc.h ****   \details Returns the current value of the non-secure Stack Pointer (SP) when in secure state.
 354:D:/XMC/Projekte/Temp/CF_XMC4700/cleanflight/lib/main/CMSIS/Core/Include\cmsis_gcc.h ****   \return               SP Register value
 355:D:/XMC/Projekte/Temp/CF_XMC4700/cleanflight/lib/main/CMSIS/Core/Include\cmsis_gcc.h ****  */
 356:D:/XMC/Projekte/Temp/CF_XMC4700/cleanflight/lib/main/CMSIS/Core/Include\cmsis_gcc.h **** __STATIC_FORCEINLINE uint32_t __TZ_get_SP_NS(void)
 357:D:/XMC/Projekte/Temp/CF_XMC4700/cleanflight/lib/main/CMSIS/Core/Include\cmsis_gcc.h **** {
 358:D:/XMC/Projekte/Temp/CF_XMC4700/cleanflight/lib/main/CMSIS/Core/Include\cmsis_gcc.h ****   register uint32_t result;
 359:D:/XMC/Projekte/Temp/CF_XMC4700/cleanflight/lib/main/CMSIS/Core/Include\cmsis_gcc.h **** 
 360:D:/XMC/Projekte/Temp/CF_XMC4700/cleanflight/lib/main/CMSIS/Core/Include\cmsis_gcc.h ****   __ASM volatile ("MRS %0, sp_ns" : "=r" (result) );
 361:D:/XMC/Projekte/Temp/CF_XMC4700/cleanflight/lib/main/CMSIS/Core/Include\cmsis_gcc.h ****   return(result);
 362:D:/XMC/Projekte/Temp/CF_XMC4700/cleanflight/lib/main/CMSIS/Core/Include\cmsis_gcc.h **** }
 363:D:/XMC/Projekte/Temp/CF_XMC4700/cleanflight/lib/main/CMSIS/Core/Include\cmsis_gcc.h **** 
 364:D:/XMC/Projekte/Temp/CF_XMC4700/cleanflight/lib/main/CMSIS/Core/Include\cmsis_gcc.h **** 
 365:D:/XMC/Projekte/Temp/CF_XMC4700/cleanflight/lib/main/CMSIS/Core/Include\cmsis_gcc.h **** /**
 366:D:/XMC/Projekte/Temp/CF_XMC4700/cleanflight/lib/main/CMSIS/Core/Include\cmsis_gcc.h ****   \brief   Set Stack Pointer (non-secure)
 367:D:/XMC/Projekte/Temp/CF_XMC4700/cleanflight/lib/main/CMSIS/Core/Include\cmsis_gcc.h ****   \details Assigns the given value to the non-secure Stack Pointer (SP) when in secure state.
 368:D:/XMC/Projekte/Temp/CF_XMC4700/cleanflight/lib/main/CMSIS/Core/Include\cmsis_gcc.h ****   \param [in]    topOfStack  Stack Pointer value to set
 369:D:/XMC/Projekte/Temp/CF_XMC4700/cleanflight/lib/main/CMSIS/Core/Include\cmsis_gcc.h ****  */
 370:D:/XMC/Projekte/Temp/CF_XMC4700/cleanflight/lib/main/CMSIS/Core/Include\cmsis_gcc.h **** __STATIC_FORCEINLINE void __TZ_set_SP_NS(uint32_t topOfStack)
 371:D:/XMC/Projekte/Temp/CF_XMC4700/cleanflight/lib/main/CMSIS/Core/Include\cmsis_gcc.h **** {
 372:D:/XMC/Projekte/Temp/CF_XMC4700/cleanflight/lib/main/CMSIS/Core/Include\cmsis_gcc.h ****   __ASM volatile ("MSR sp_ns, %0" : : "r" (topOfStack) : );
 373:D:/XMC/Projekte/Temp/CF_XMC4700/cleanflight/lib/main/CMSIS/Core/Include\cmsis_gcc.h **** }
 374:D:/XMC/Projekte/Temp/CF_XMC4700/cleanflight/lib/main/CMSIS/Core/Include\cmsis_gcc.h **** #endif
 375:D:/XMC/Projekte/Temp/CF_XMC4700/cleanflight/lib/main/CMSIS/Core/Include\cmsis_gcc.h **** 
 376:D:/XMC/Projekte/Temp/CF_XMC4700/cleanflight/lib/main/CMSIS/Core/Include\cmsis_gcc.h **** 
 377:D:/XMC/Projekte/Temp/CF_XMC4700/cleanflight/lib/main/CMSIS/Core/Include\cmsis_gcc.h **** /**
 378:D:/XMC/Projekte/Temp/CF_XMC4700/cleanflight/lib/main/CMSIS/Core/Include\cmsis_gcc.h ****   \brief   Get Priority Mask
 379:D:/XMC/Projekte/Temp/CF_XMC4700/cleanflight/lib/main/CMSIS/Core/Include\cmsis_gcc.h ****   \details Returns the current state of the priority mask bit from the Priority Mask Register.
 380:D:/XMC/Projekte/Temp/CF_XMC4700/cleanflight/lib/main/CMSIS/Core/Include\cmsis_gcc.h ****   \return               Priority Mask value
 381:D:/XMC/Projekte/Temp/CF_XMC4700/cleanflight/lib/main/CMSIS/Core/Include\cmsis_gcc.h ****  */
 382:D:/XMC/Projekte/Temp/CF_XMC4700/cleanflight/lib/main/CMSIS/Core/Include\cmsis_gcc.h **** __STATIC_FORCEINLINE uint32_t __get_PRIMASK(void)
 383:D:/XMC/Projekte/Temp/CF_XMC4700/cleanflight/lib/main/CMSIS/Core/Include\cmsis_gcc.h **** {
 384:D:/XMC/Projekte/Temp/CF_XMC4700/cleanflight/lib/main/CMSIS/Core/Include\cmsis_gcc.h ****   uint32_t result;
 385:D:/XMC/Projekte/Temp/CF_XMC4700/cleanflight/lib/main/CMSIS/Core/Include\cmsis_gcc.h **** 
 386:D:/XMC/Projekte/Temp/CF_XMC4700/cleanflight/lib/main/CMSIS/Core/Include\cmsis_gcc.h ****   __ASM volatile ("MRS %0, primask" : "=r" (result) :: "memory");
 387:D:/XMC/Projekte/Temp/CF_XMC4700/cleanflight/lib/main/CMSIS/Core/Include\cmsis_gcc.h ****   return(result);
 388:D:/XMC/Projekte/Temp/CF_XMC4700/cleanflight/lib/main/CMSIS/Core/Include\cmsis_gcc.h **** }
 389:D:/XMC/Projekte/Temp/CF_XMC4700/cleanflight/lib/main/CMSIS/Core/Include\cmsis_gcc.h **** 
 390:D:/XMC/Projekte/Temp/CF_XMC4700/cleanflight/lib/main/CMSIS/Core/Include\cmsis_gcc.h **** 
 391:D:/XMC/Projekte/Temp/CF_XMC4700/cleanflight/lib/main/CMSIS/Core/Include\cmsis_gcc.h **** #if (defined (__ARM_FEATURE_CMSE ) && (__ARM_FEATURE_CMSE == 3))
 392:D:/XMC/Projekte/Temp/CF_XMC4700/cleanflight/lib/main/CMSIS/Core/Include\cmsis_gcc.h **** /**
 393:D:/XMC/Projekte/Temp/CF_XMC4700/cleanflight/lib/main/CMSIS/Core/Include\cmsis_gcc.h ****   \brief   Get Priority Mask (non-secure)
 394:D:/XMC/Projekte/Temp/CF_XMC4700/cleanflight/lib/main/CMSIS/Core/Include\cmsis_gcc.h ****   \details Returns the current state of the non-secure priority mask bit from the Priority Mask Reg
 395:D:/XMC/Projekte/Temp/CF_XMC4700/cleanflight/lib/main/CMSIS/Core/Include\cmsis_gcc.h ****   \return               Priority Mask value
 396:D:/XMC/Projekte/Temp/CF_XMC4700/cleanflight/lib/main/CMSIS/Core/Include\cmsis_gcc.h ****  */
 397:D:/XMC/Projekte/Temp/CF_XMC4700/cleanflight/lib/main/CMSIS/Core/Include\cmsis_gcc.h **** __STATIC_FORCEINLINE uint32_t __TZ_get_PRIMASK_NS(void)
 398:D:/XMC/Projekte/Temp/CF_XMC4700/cleanflight/lib/main/CMSIS/Core/Include\cmsis_gcc.h **** {
 399:D:/XMC/Projekte/Temp/CF_XMC4700/cleanflight/lib/main/CMSIS/Core/Include\cmsis_gcc.h ****   uint32_t result;
 400:D:/XMC/Projekte/Temp/CF_XMC4700/cleanflight/lib/main/CMSIS/Core/Include\cmsis_gcc.h **** 
 401:D:/XMC/Projekte/Temp/CF_XMC4700/cleanflight/lib/main/CMSIS/Core/Include\cmsis_gcc.h ****   __ASM volatile ("MRS %0, primask_ns" : "=r" (result) :: "memory");
 402:D:/XMC/Projekte/Temp/CF_XMC4700/cleanflight/lib/main/CMSIS/Core/Include\cmsis_gcc.h ****   return(result);
 403:D:/XMC/Projekte/Temp/CF_XMC4700/cleanflight/lib/main/CMSIS/Core/Include\cmsis_gcc.h **** }
 404:D:/XMC/Projekte/Temp/CF_XMC4700/cleanflight/lib/main/CMSIS/Core/Include\cmsis_gcc.h **** #endif
 405:D:/XMC/Projekte/Temp/CF_XMC4700/cleanflight/lib/main/CMSIS/Core/Include\cmsis_gcc.h **** 
 406:D:/XMC/Projekte/Temp/CF_XMC4700/cleanflight/lib/main/CMSIS/Core/Include\cmsis_gcc.h **** 
 407:D:/XMC/Projekte/Temp/CF_XMC4700/cleanflight/lib/main/CMSIS/Core/Include\cmsis_gcc.h **** /**
 408:D:/XMC/Projekte/Temp/CF_XMC4700/cleanflight/lib/main/CMSIS/Core/Include\cmsis_gcc.h ****   \brief   Set Priority Mask
 409:D:/XMC/Projekte/Temp/CF_XMC4700/cleanflight/lib/main/CMSIS/Core/Include\cmsis_gcc.h ****   \details Assigns the given value to the Priority Mask Register.
 410:D:/XMC/Projekte/Temp/CF_XMC4700/cleanflight/lib/main/CMSIS/Core/Include\cmsis_gcc.h ****   \param [in]    priMask  Priority Mask
 411:D:/XMC/Projekte/Temp/CF_XMC4700/cleanflight/lib/main/CMSIS/Core/Include\cmsis_gcc.h ****  */
 412:D:/XMC/Projekte/Temp/CF_XMC4700/cleanflight/lib/main/CMSIS/Core/Include\cmsis_gcc.h **** __STATIC_FORCEINLINE void __set_PRIMASK(uint32_t priMask)
 413:D:/XMC/Projekte/Temp/CF_XMC4700/cleanflight/lib/main/CMSIS/Core/Include\cmsis_gcc.h **** {
 414:D:/XMC/Projekte/Temp/CF_XMC4700/cleanflight/lib/main/CMSIS/Core/Include\cmsis_gcc.h ****   __ASM volatile ("MSR primask, %0" : : "r" (priMask) : "memory");
 415:D:/XMC/Projekte/Temp/CF_XMC4700/cleanflight/lib/main/CMSIS/Core/Include\cmsis_gcc.h **** }
 416:D:/XMC/Projekte/Temp/CF_XMC4700/cleanflight/lib/main/CMSIS/Core/Include\cmsis_gcc.h **** 
 417:D:/XMC/Projekte/Temp/CF_XMC4700/cleanflight/lib/main/CMSIS/Core/Include\cmsis_gcc.h **** 
 418:D:/XMC/Projekte/Temp/CF_XMC4700/cleanflight/lib/main/CMSIS/Core/Include\cmsis_gcc.h **** #if (defined (__ARM_FEATURE_CMSE ) && (__ARM_FEATURE_CMSE == 3))
 419:D:/XMC/Projekte/Temp/CF_XMC4700/cleanflight/lib/main/CMSIS/Core/Include\cmsis_gcc.h **** /**
 420:D:/XMC/Projekte/Temp/CF_XMC4700/cleanflight/lib/main/CMSIS/Core/Include\cmsis_gcc.h ****   \brief   Set Priority Mask (non-secure)
 421:D:/XMC/Projekte/Temp/CF_XMC4700/cleanflight/lib/main/CMSIS/Core/Include\cmsis_gcc.h ****   \details Assigns the given value to the non-secure Priority Mask Register when in secure state.
 422:D:/XMC/Projekte/Temp/CF_XMC4700/cleanflight/lib/main/CMSIS/Core/Include\cmsis_gcc.h ****   \param [in]    priMask  Priority Mask
 423:D:/XMC/Projekte/Temp/CF_XMC4700/cleanflight/lib/main/CMSIS/Core/Include\cmsis_gcc.h ****  */
 424:D:/XMC/Projekte/Temp/CF_XMC4700/cleanflight/lib/main/CMSIS/Core/Include\cmsis_gcc.h **** __STATIC_FORCEINLINE void __TZ_set_PRIMASK_NS(uint32_t priMask)
 425:D:/XMC/Projekte/Temp/CF_XMC4700/cleanflight/lib/main/CMSIS/Core/Include\cmsis_gcc.h **** {
 426:D:/XMC/Projekte/Temp/CF_XMC4700/cleanflight/lib/main/CMSIS/Core/Include\cmsis_gcc.h ****   __ASM volatile ("MSR primask_ns, %0" : : "r" (priMask) : "memory");
 427:D:/XMC/Projekte/Temp/CF_XMC4700/cleanflight/lib/main/CMSIS/Core/Include\cmsis_gcc.h **** }
 428:D:/XMC/Projekte/Temp/CF_XMC4700/cleanflight/lib/main/CMSIS/Core/Include\cmsis_gcc.h **** #endif
 429:D:/XMC/Projekte/Temp/CF_XMC4700/cleanflight/lib/main/CMSIS/Core/Include\cmsis_gcc.h **** 
 430:D:/XMC/Projekte/Temp/CF_XMC4700/cleanflight/lib/main/CMSIS/Core/Include\cmsis_gcc.h **** 
 431:D:/XMC/Projekte/Temp/CF_XMC4700/cleanflight/lib/main/CMSIS/Core/Include\cmsis_gcc.h **** #if ((defined (__ARM_ARCH_7M__      ) && (__ARM_ARCH_7M__      == 1)) || \
 432:D:/XMC/Projekte/Temp/CF_XMC4700/cleanflight/lib/main/CMSIS/Core/Include\cmsis_gcc.h ****      (defined (__ARM_ARCH_7EM__     ) && (__ARM_ARCH_7EM__     == 1)) || \
 433:D:/XMC/Projekte/Temp/CF_XMC4700/cleanflight/lib/main/CMSIS/Core/Include\cmsis_gcc.h ****      (defined (__ARM_ARCH_8M_MAIN__ ) && (__ARM_ARCH_8M_MAIN__ == 1))    )
 434:D:/XMC/Projekte/Temp/CF_XMC4700/cleanflight/lib/main/CMSIS/Core/Include\cmsis_gcc.h **** /**
 435:D:/XMC/Projekte/Temp/CF_XMC4700/cleanflight/lib/main/CMSIS/Core/Include\cmsis_gcc.h ****   \brief   Enable FIQ
 436:D:/XMC/Projekte/Temp/CF_XMC4700/cleanflight/lib/main/CMSIS/Core/Include\cmsis_gcc.h ****   \details Enables FIQ interrupts by clearing the F-bit in the CPSR.
 437:D:/XMC/Projekte/Temp/CF_XMC4700/cleanflight/lib/main/CMSIS/Core/Include\cmsis_gcc.h ****            Can only be executed in Privileged modes.
 438:D:/XMC/Projekte/Temp/CF_XMC4700/cleanflight/lib/main/CMSIS/Core/Include\cmsis_gcc.h ****  */
 439:D:/XMC/Projekte/Temp/CF_XMC4700/cleanflight/lib/main/CMSIS/Core/Include\cmsis_gcc.h **** __STATIC_FORCEINLINE void __enable_fault_irq(void)
 440:D:/XMC/Projekte/Temp/CF_XMC4700/cleanflight/lib/main/CMSIS/Core/Include\cmsis_gcc.h **** {
 441:D:/XMC/Projekte/Temp/CF_XMC4700/cleanflight/lib/main/CMSIS/Core/Include\cmsis_gcc.h ****   __ASM volatile ("cpsie f" : : : "memory");
 442:D:/XMC/Projekte/Temp/CF_XMC4700/cleanflight/lib/main/CMSIS/Core/Include\cmsis_gcc.h **** }
 443:D:/XMC/Projekte/Temp/CF_XMC4700/cleanflight/lib/main/CMSIS/Core/Include\cmsis_gcc.h **** 
 444:D:/XMC/Projekte/Temp/CF_XMC4700/cleanflight/lib/main/CMSIS/Core/Include\cmsis_gcc.h **** 
 445:D:/XMC/Projekte/Temp/CF_XMC4700/cleanflight/lib/main/CMSIS/Core/Include\cmsis_gcc.h **** /**
 446:D:/XMC/Projekte/Temp/CF_XMC4700/cleanflight/lib/main/CMSIS/Core/Include\cmsis_gcc.h ****   \brief   Disable FIQ
 447:D:/XMC/Projekte/Temp/CF_XMC4700/cleanflight/lib/main/CMSIS/Core/Include\cmsis_gcc.h ****   \details Disables FIQ interrupts by setting the F-bit in the CPSR.
 448:D:/XMC/Projekte/Temp/CF_XMC4700/cleanflight/lib/main/CMSIS/Core/Include\cmsis_gcc.h ****            Can only be executed in Privileged modes.
 449:D:/XMC/Projekte/Temp/CF_XMC4700/cleanflight/lib/main/CMSIS/Core/Include\cmsis_gcc.h ****  */
 450:D:/XMC/Projekte/Temp/CF_XMC4700/cleanflight/lib/main/CMSIS/Core/Include\cmsis_gcc.h **** __STATIC_FORCEINLINE void __disable_fault_irq(void)
 451:D:/XMC/Projekte/Temp/CF_XMC4700/cleanflight/lib/main/CMSIS/Core/Include\cmsis_gcc.h **** {
 452:D:/XMC/Projekte/Temp/CF_XMC4700/cleanflight/lib/main/CMSIS/Core/Include\cmsis_gcc.h ****   __ASM volatile ("cpsid f" : : : "memory");
 453:D:/XMC/Projekte/Temp/CF_XMC4700/cleanflight/lib/main/CMSIS/Core/Include\cmsis_gcc.h **** }
 454:D:/XMC/Projekte/Temp/CF_XMC4700/cleanflight/lib/main/CMSIS/Core/Include\cmsis_gcc.h **** 
 455:D:/XMC/Projekte/Temp/CF_XMC4700/cleanflight/lib/main/CMSIS/Core/Include\cmsis_gcc.h **** 
 456:D:/XMC/Projekte/Temp/CF_XMC4700/cleanflight/lib/main/CMSIS/Core/Include\cmsis_gcc.h **** /**
 457:D:/XMC/Projekte/Temp/CF_XMC4700/cleanflight/lib/main/CMSIS/Core/Include\cmsis_gcc.h ****   \brief   Get Base Priority
 458:D:/XMC/Projekte/Temp/CF_XMC4700/cleanflight/lib/main/CMSIS/Core/Include\cmsis_gcc.h ****   \details Returns the current value of the Base Priority register.
 459:D:/XMC/Projekte/Temp/CF_XMC4700/cleanflight/lib/main/CMSIS/Core/Include\cmsis_gcc.h ****   \return               Base Priority register value
 460:D:/XMC/Projekte/Temp/CF_XMC4700/cleanflight/lib/main/CMSIS/Core/Include\cmsis_gcc.h ****  */
 461:D:/XMC/Projekte/Temp/CF_XMC4700/cleanflight/lib/main/CMSIS/Core/Include\cmsis_gcc.h **** __STATIC_FORCEINLINE uint32_t __get_BASEPRI(void)
 462:D:/XMC/Projekte/Temp/CF_XMC4700/cleanflight/lib/main/CMSIS/Core/Include\cmsis_gcc.h **** {
 463:D:/XMC/Projekte/Temp/CF_XMC4700/cleanflight/lib/main/CMSIS/Core/Include\cmsis_gcc.h ****   uint32_t result;
 464:D:/XMC/Projekte/Temp/CF_XMC4700/cleanflight/lib/main/CMSIS/Core/Include\cmsis_gcc.h **** 
 465:D:/XMC/Projekte/Temp/CF_XMC4700/cleanflight/lib/main/CMSIS/Core/Include\cmsis_gcc.h ****   __ASM volatile ("MRS %0, basepri" : "=r" (result) );
 466:D:/XMC/Projekte/Temp/CF_XMC4700/cleanflight/lib/main/CMSIS/Core/Include\cmsis_gcc.h ****   return(result);
 467:D:/XMC/Projekte/Temp/CF_XMC4700/cleanflight/lib/main/CMSIS/Core/Include\cmsis_gcc.h **** }
 468:D:/XMC/Projekte/Temp/CF_XMC4700/cleanflight/lib/main/CMSIS/Core/Include\cmsis_gcc.h **** 
 469:D:/XMC/Projekte/Temp/CF_XMC4700/cleanflight/lib/main/CMSIS/Core/Include\cmsis_gcc.h **** 
 470:D:/XMC/Projekte/Temp/CF_XMC4700/cleanflight/lib/main/CMSIS/Core/Include\cmsis_gcc.h **** #if (defined (__ARM_FEATURE_CMSE ) && (__ARM_FEATURE_CMSE == 3))
 471:D:/XMC/Projekte/Temp/CF_XMC4700/cleanflight/lib/main/CMSIS/Core/Include\cmsis_gcc.h **** /**
 472:D:/XMC/Projekte/Temp/CF_XMC4700/cleanflight/lib/main/CMSIS/Core/Include\cmsis_gcc.h ****   \brief   Get Base Priority (non-secure)
 473:D:/XMC/Projekte/Temp/CF_XMC4700/cleanflight/lib/main/CMSIS/Core/Include\cmsis_gcc.h ****   \details Returns the current value of the non-secure Base Priority register when in secure state.
 474:D:/XMC/Projekte/Temp/CF_XMC4700/cleanflight/lib/main/CMSIS/Core/Include\cmsis_gcc.h ****   \return               Base Priority register value
 475:D:/XMC/Projekte/Temp/CF_XMC4700/cleanflight/lib/main/CMSIS/Core/Include\cmsis_gcc.h ****  */
 476:D:/XMC/Projekte/Temp/CF_XMC4700/cleanflight/lib/main/CMSIS/Core/Include\cmsis_gcc.h **** __STATIC_FORCEINLINE uint32_t __TZ_get_BASEPRI_NS(void)
 477:D:/XMC/Projekte/Temp/CF_XMC4700/cleanflight/lib/main/CMSIS/Core/Include\cmsis_gcc.h **** {
 478:D:/XMC/Projekte/Temp/CF_XMC4700/cleanflight/lib/main/CMSIS/Core/Include\cmsis_gcc.h ****   uint32_t result;
 479:D:/XMC/Projekte/Temp/CF_XMC4700/cleanflight/lib/main/CMSIS/Core/Include\cmsis_gcc.h **** 
 480:D:/XMC/Projekte/Temp/CF_XMC4700/cleanflight/lib/main/CMSIS/Core/Include\cmsis_gcc.h ****   __ASM volatile ("MRS %0, basepri_ns" : "=r" (result) );
 481:D:/XMC/Projekte/Temp/CF_XMC4700/cleanflight/lib/main/CMSIS/Core/Include\cmsis_gcc.h ****   return(result);
 482:D:/XMC/Projekte/Temp/CF_XMC4700/cleanflight/lib/main/CMSIS/Core/Include\cmsis_gcc.h **** }
 483:D:/XMC/Projekte/Temp/CF_XMC4700/cleanflight/lib/main/CMSIS/Core/Include\cmsis_gcc.h **** #endif
 484:D:/XMC/Projekte/Temp/CF_XMC4700/cleanflight/lib/main/CMSIS/Core/Include\cmsis_gcc.h **** 
 485:D:/XMC/Projekte/Temp/CF_XMC4700/cleanflight/lib/main/CMSIS/Core/Include\cmsis_gcc.h **** 
 486:D:/XMC/Projekte/Temp/CF_XMC4700/cleanflight/lib/main/CMSIS/Core/Include\cmsis_gcc.h **** /**
 487:D:/XMC/Projekte/Temp/CF_XMC4700/cleanflight/lib/main/CMSIS/Core/Include\cmsis_gcc.h ****   \brief   Set Base Priority
 488:D:/XMC/Projekte/Temp/CF_XMC4700/cleanflight/lib/main/CMSIS/Core/Include\cmsis_gcc.h ****   \details Assigns the given value to the Base Priority register.
 489:D:/XMC/Projekte/Temp/CF_XMC4700/cleanflight/lib/main/CMSIS/Core/Include\cmsis_gcc.h ****   \param [in]    basePri  Base Priority value to set
 490:D:/XMC/Projekte/Temp/CF_XMC4700/cleanflight/lib/main/CMSIS/Core/Include\cmsis_gcc.h ****  */
 491:D:/XMC/Projekte/Temp/CF_XMC4700/cleanflight/lib/main/CMSIS/Core/Include\cmsis_gcc.h **** __STATIC_FORCEINLINE void __set_BASEPRI(uint32_t basePri)
 492:D:/XMC/Projekte/Temp/CF_XMC4700/cleanflight/lib/main/CMSIS/Core/Include\cmsis_gcc.h **** {
 493:D:/XMC/Projekte/Temp/CF_XMC4700/cleanflight/lib/main/CMSIS/Core/Include\cmsis_gcc.h ****   __ASM volatile ("MSR basepri, %0" : : "r" (basePri) : "memory");
  50              	 .loc 2 493 0
  51 000e FB68     	 ldr r3,[r7,#12]
  52              	
  53 0010 83F31188 	 MSR basepri,r3
  54              	
  55              	 .thumb
  56              	.LBE15:
  57              	.LBE14:
  94:D:/XMC/Projekte/Temp/CF_XMC4700/cleanflight/src/main/build\atomic.h **** }
  58              	 .loc 1 94 0
  59 0014 1437     	 adds r7,r7,#20
  60              	.LCFI3:
  61              	 .cfi_def_cfa_offset 4
  62 0016 BD46     	 mov sp,r7
  63              	.LCFI4:
  64              	 .cfi_def_cfa_register 13
  65              	 
  66 0018 5DF8047B 	 ldr r7,[sp],#4
  67              	.LCFI5:
  68              	 .cfi_restore 7
  69              	 .cfi_def_cfa_offset 0
  70 001c 7047     	 bx lr
  71              	 .cfi_endproc
  72              	.LFE523:
  74 001e 00BF     	 .section .text.__basepriSetMemRetVal,"ax",%progbits
  75              	 .align 2
  76              	 .thumb
  77              	 .thumb_func
  79              	__basepriSetMemRetVal:
  80              	.LFB524:
  95:D:/XMC/Projekte/Temp/CF_XMC4700/cleanflight/src/main/build\atomic.h **** 
  96:D:/XMC/Projekte/Temp/CF_XMC4700/cleanflight/src/main/build\atomic.h **** // set BASEPRI_MAX, with global memory barrier, returns true
  97:D:/XMC/Projekte/Temp/CF_XMC4700/cleanflight/src/main/build\atomic.h **** static inline uint8_t __basepriSetMemRetVal(uint8_t prio)
  98:D:/XMC/Projekte/Temp/CF_XMC4700/cleanflight/src/main/build\atomic.h **** {
  81              	 .loc 1 98 0
  82              	 .cfi_startproc
  83              	 
  84              	 
  85              	 
  86 0000 80B4     	 push {r7}
  87              	.LCFI6:
  88              	 .cfi_def_cfa_offset 4
  89              	 .cfi_offset 7,-4
  90 0002 85B0     	 sub sp,sp,#20
  91              	.LCFI7:
  92              	 .cfi_def_cfa_offset 24
  93 0004 00AF     	 add r7,sp,#0
  94              	.LCFI8:
  95              	 .cfi_def_cfa_register 7
  96 0006 0346     	 mov r3,r0
  97 0008 FB71     	 strb r3,[r7,#7]
  99:D:/XMC/Projekte/Temp/CF_XMC4700/cleanflight/src/main/build\atomic.h ****     __set_BASEPRI_MAX(prio);
  98              	 .loc 1 99 0
  99 000a FB79     	 ldrb r3,[r7,#7]
 100 000c FB60     	 str r3,[r7,#12]
 101              	.LBB16:
 102              	.LBB17:
 494:D:/XMC/Projekte/Temp/CF_XMC4700/cleanflight/lib/main/CMSIS/Core/Include\cmsis_gcc.h **** }
 495:D:/XMC/Projekte/Temp/CF_XMC4700/cleanflight/lib/main/CMSIS/Core/Include\cmsis_gcc.h **** 
 496:D:/XMC/Projekte/Temp/CF_XMC4700/cleanflight/lib/main/CMSIS/Core/Include\cmsis_gcc.h **** 
 497:D:/XMC/Projekte/Temp/CF_XMC4700/cleanflight/lib/main/CMSIS/Core/Include\cmsis_gcc.h **** #if (defined (__ARM_FEATURE_CMSE ) && (__ARM_FEATURE_CMSE == 3))
 498:D:/XMC/Projekte/Temp/CF_XMC4700/cleanflight/lib/main/CMSIS/Core/Include\cmsis_gcc.h **** /**
 499:D:/XMC/Projekte/Temp/CF_XMC4700/cleanflight/lib/main/CMSIS/Core/Include\cmsis_gcc.h ****   \brief   Set Base Priority (non-secure)
 500:D:/XMC/Projekte/Temp/CF_XMC4700/cleanflight/lib/main/CMSIS/Core/Include\cmsis_gcc.h ****   \details Assigns the given value to the non-secure Base Priority register when in secure state.
 501:D:/XMC/Projekte/Temp/CF_XMC4700/cleanflight/lib/main/CMSIS/Core/Include\cmsis_gcc.h ****   \param [in]    basePri  Base Priority value to set
 502:D:/XMC/Projekte/Temp/CF_XMC4700/cleanflight/lib/main/CMSIS/Core/Include\cmsis_gcc.h ****  */
 503:D:/XMC/Projekte/Temp/CF_XMC4700/cleanflight/lib/main/CMSIS/Core/Include\cmsis_gcc.h **** __STATIC_FORCEINLINE void __TZ_set_BASEPRI_NS(uint32_t basePri)
 504:D:/XMC/Projekte/Temp/CF_XMC4700/cleanflight/lib/main/CMSIS/Core/Include\cmsis_gcc.h **** {
 505:D:/XMC/Projekte/Temp/CF_XMC4700/cleanflight/lib/main/CMSIS/Core/Include\cmsis_gcc.h ****   __ASM volatile ("MSR basepri_ns, %0" : : "r" (basePri) : "memory");
 506:D:/XMC/Projekte/Temp/CF_XMC4700/cleanflight/lib/main/CMSIS/Core/Include\cmsis_gcc.h **** }
 507:D:/XMC/Projekte/Temp/CF_XMC4700/cleanflight/lib/main/CMSIS/Core/Include\cmsis_gcc.h **** #endif
 508:D:/XMC/Projekte/Temp/CF_XMC4700/cleanflight/lib/main/CMSIS/Core/Include\cmsis_gcc.h **** 
 509:D:/XMC/Projekte/Temp/CF_XMC4700/cleanflight/lib/main/CMSIS/Core/Include\cmsis_gcc.h **** 
 510:D:/XMC/Projekte/Temp/CF_XMC4700/cleanflight/lib/main/CMSIS/Core/Include\cmsis_gcc.h **** /**
 511:D:/XMC/Projekte/Temp/CF_XMC4700/cleanflight/lib/main/CMSIS/Core/Include\cmsis_gcc.h ****   \brief   Set Base Priority with condition
 512:D:/XMC/Projekte/Temp/CF_XMC4700/cleanflight/lib/main/CMSIS/Core/Include\cmsis_gcc.h ****   \details Assigns the given value to the Base Priority register only if BASEPRI masking is disable
 513:D:/XMC/Projekte/Temp/CF_XMC4700/cleanflight/lib/main/CMSIS/Core/Include\cmsis_gcc.h ****            or the new value increases the BASEPRI priority level.
 514:D:/XMC/Projekte/Temp/CF_XMC4700/cleanflight/lib/main/CMSIS/Core/Include\cmsis_gcc.h ****   \param [in]    basePri  Base Priority value to set
 515:D:/XMC/Projekte/Temp/CF_XMC4700/cleanflight/lib/main/CMSIS/Core/Include\cmsis_gcc.h ****  */
 516:D:/XMC/Projekte/Temp/CF_XMC4700/cleanflight/lib/main/CMSIS/Core/Include\cmsis_gcc.h **** __STATIC_FORCEINLINE void __set_BASEPRI_MAX(uint32_t basePri)
 517:D:/XMC/Projekte/Temp/CF_XMC4700/cleanflight/lib/main/CMSIS/Core/Include\cmsis_gcc.h **** {
 518:D:/XMC/Projekte/Temp/CF_XMC4700/cleanflight/lib/main/CMSIS/Core/Include\cmsis_gcc.h ****   __ASM volatile ("MSR basepri_max, %0" : : "r" (basePri) : "memory");
 103              	 .loc 2 518 0
 104 000e FB68     	 ldr r3,[r7,#12]
 105              	
 106 0010 83F31288 	 MSR basepri_max,r3
 107              	
 108              	 .thumb
 109              	.LBE17:
 110              	.LBE16:
 100:D:/XMC/Projekte/Temp/CF_XMC4700/cleanflight/src/main/build\atomic.h ****     return 1;
 111              	 .loc 1 100 0
 112 0014 0123     	 movs r3,#1
 101:D:/XMC/Projekte/Temp/CF_XMC4700/cleanflight/src/main/build\atomic.h **** }
 113              	 .loc 1 101 0
 114 0016 1846     	 mov r0,r3
 115 0018 1437     	 adds r7,r7,#20
 116              	.LCFI9:
 117              	 .cfi_def_cfa_offset 4
 118 001a BD46     	 mov sp,r7
 119              	.LCFI10:
 120              	 .cfi_def_cfa_register 13
 121              	 
 122 001c 5DF8047B 	 ldr r7,[sp],#4
 123              	.LCFI11:
 124              	 .cfi_restore 7
 125              	 .cfi_def_cfa_offset 0
 126 0020 7047     	 bx lr
 127              	 .cfi_endproc
 128              	.LFE524:
 130 0022 00BF     	 .section .bss.usTicks,"aw",%nobits
 131              	 .align 2
 134              	usTicks:
 135 0000 00000000 	 .space 4
 136              	 .section .bss.sysTickUptime,"aw",%nobits
 137              	 .align 2
 140              	sysTickUptime:
 141 0000 00000000 	 .space 4
 142              	 .section .bss.sysTickValStamp,"aw",%nobits
 143              	 .align 2
 146              	sysTickValStamp:
 147 0000 00000000 	 .space 4
 148              	 .comm cachedRccCsrValue,4,4
 149              	 .section .text.cycleCounterInit,"ax",%progbits
 150              	 .align 2
 151              	 .global cycleCounterInit
 152              	 .thumb
 153              	 .thumb_func
 155              	cycleCounterInit:
 156              	.LFB532:
 157              	 .file 3 "../cleanflight/src/main/drivers/system.c"
   1:../cleanflight/src/main/drivers/system.c **** /*
   2:../cleanflight/src/main/drivers/system.c ****  * This file is part of Cleanflight and Betaflight.
   3:../cleanflight/src/main/drivers/system.c ****  *
   4:../cleanflight/src/main/drivers/system.c ****  * Cleanflight and Betaflight are free software. You can redistribute
   5:../cleanflight/src/main/drivers/system.c ****  * this software and/or modify this software under the terms of the
   6:../cleanflight/src/main/drivers/system.c ****  * GNU General Public License as published by the Free Software
   7:../cleanflight/src/main/drivers/system.c ****  * Foundation, either version 3 of the License, or (at your option)
   8:../cleanflight/src/main/drivers/system.c ****  * any later version.
   9:../cleanflight/src/main/drivers/system.c ****  *
  10:../cleanflight/src/main/drivers/system.c ****  * Cleanflight and Betaflight are distributed in the hope that they
  11:../cleanflight/src/main/drivers/system.c ****  * will be useful, but WITHOUT ANY WARRANTY; without even the implied
  12:../cleanflight/src/main/drivers/system.c ****  * warranty of MERCHANTABILITY or FITNESS FOR A PARTICULAR PURPOSE.
  13:../cleanflight/src/main/drivers/system.c ****  * See the GNU General Public License for more details.
  14:../cleanflight/src/main/drivers/system.c ****  *
  15:../cleanflight/src/main/drivers/system.c ****  * You should have received a copy of the GNU General Public License
  16:../cleanflight/src/main/drivers/system.c ****  * along with this software.
  17:../cleanflight/src/main/drivers/system.c ****  *
  18:../cleanflight/src/main/drivers/system.c ****  * If not, see <http://www.gnu.org/licenses/>.
  19:../cleanflight/src/main/drivers/system.c ****  */
  20:../cleanflight/src/main/drivers/system.c **** 
  21:../cleanflight/src/main/drivers/system.c **** #include <stdbool.h>
  22:../cleanflight/src/main/drivers/system.c **** #include <stdint.h>
  23:../cleanflight/src/main/drivers/system.c **** 
  24:../cleanflight/src/main/drivers/system.c **** #include "platform.h"
  25:../cleanflight/src/main/drivers/system.c **** 
  26:../cleanflight/src/main/drivers/system.c **** #include "build/atomic.h"
  27:../cleanflight/src/main/drivers/system.c **** 
  28:../cleanflight/src/main/drivers/system.c **** #include "drivers/light_led.h"
  29:../cleanflight/src/main/drivers/system.c **** #include "drivers/nvic.h"
  30:../cleanflight/src/main/drivers/system.c **** #include "drivers/sound_beeper.h"
  31:../cleanflight/src/main/drivers/system.c **** 
  32:../cleanflight/src/main/drivers/system.c **** #include "system.h"
  33:../cleanflight/src/main/drivers/system.c **** 
  34:../cleanflight/src/main/drivers/system.c **** // cycles per microsecond
  35:../cleanflight/src/main/drivers/system.c **** static uint32_t usTicks = 0;
  36:../cleanflight/src/main/drivers/system.c **** // current uptime for 1kHz systick timer. will rollover after 49 days. hopefully we won't care.
  37:../cleanflight/src/main/drivers/system.c **** static volatile uint32_t sysTickUptime = 0;
  38:../cleanflight/src/main/drivers/system.c **** static volatile uint32_t sysTickValStamp = 0;
  39:../cleanflight/src/main/drivers/system.c **** // cached value of RCC->CSR
  40:../cleanflight/src/main/drivers/system.c **** uint32_t cachedRccCsrValue;
  41:../cleanflight/src/main/drivers/system.c **** 
  42:../cleanflight/src/main/drivers/system.c **** void cycleCounterInit(void)
  43:../cleanflight/src/main/drivers/system.c **** {
 158              	 .loc 3 43 0
 159              	 .cfi_startproc
 160              	 
 161              	 
 162              	 
 163 0000 80B4     	 push {r7}
 164              	.LCFI12:
 165              	 .cfi_def_cfa_offset 4
 166              	 .cfi_offset 7,-4
 167 0002 00AF     	 add r7,sp,#0
 168              	.LCFI13:
 169              	 .cfi_def_cfa_register 7
  44:../cleanflight/src/main/drivers/system.c **** #ifdef XMC4700_F100x2048
  45:../cleanflight/src/main/drivers/system.c **** 	usTicks = SystemCoreClock / 1000000;
 170              	 .loc 3 45 0
 171 0004 054B     	 ldr r3,.L5
 172 0006 1B68     	 ldr r3,[r3]
 173 0008 054A     	 ldr r2,.L5+4
 174 000a A2FB0323 	 umull r2,r3,r2,r3
 175 000e 9B0C     	 lsrs r3,r3,#18
 176 0010 044A     	 ldr r2,.L5+8
 177 0012 1360     	 str r3,[r2]
  46:../cleanflight/src/main/drivers/system.c **** #else
  47:../cleanflight/src/main/drivers/system.c **** #if defined(USE_HAL_DRIVER)
  48:../cleanflight/src/main/drivers/system.c ****     usTicks = HAL_RCC_GetSysClockFreq() / 1000000;
  49:../cleanflight/src/main/drivers/system.c **** #else
  50:../cleanflight/src/main/drivers/system.c ****     RCC_ClocksTypeDef clocks;
  51:../cleanflight/src/main/drivers/system.c ****     RCC_GetClocksFreq(&clocks);
  52:../cleanflight/src/main/drivers/system.c ****     usTicks = clocks.SYSCLK_Frequency / 1000000;
  53:../cleanflight/src/main/drivers/system.c **** #endif
  54:../cleanflight/src/main/drivers/system.c **** #endif
  55:../cleanflight/src/main/drivers/system.c **** }
 178              	 .loc 3 55 0
 179 0014 BD46     	 mov sp,r7
 180              	.LCFI14:
 181              	 .cfi_def_cfa_register 13
 182              	 
 183 0016 5DF8047B 	 ldr r7,[sp],#4
 184              	.LCFI15:
 185              	 .cfi_restore 7
 186              	 .cfi_def_cfa_offset 0
 187 001a 7047     	 bx lr
 188              	.L6:
 189              	 .align 2
 190              	.L5:
 191 001c 00000000 	 .word SystemCoreClock
 192 0020 83DE1B43 	 .word 1125899907
 193 0024 00000000 	 .word usTicks
 194              	 .cfi_endproc
 195              	.LFE532:
 197              	 .section .bss.sysTickPending,"aw",%nobits
 198              	 .align 2
 201              	sysTickPending:
 202 0000 00000000 	 .space 4
 203              	 .section .text.SysTick_Handler,"ax",%progbits
 204              	 .align 2
 205              	 .global SysTick_Handler
 206              	 .thumb
 207              	 .thumb_func
 209              	SysTick_Handler:
 210              	.LFB533:
  56:../cleanflight/src/main/drivers/system.c **** 
  57:../cleanflight/src/main/drivers/system.c **** // SysTick
  58:../cleanflight/src/main/drivers/system.c **** 
  59:../cleanflight/src/main/drivers/system.c **** static volatile int sysTickPending = 0;
  60:../cleanflight/src/main/drivers/system.c **** 
  61:../cleanflight/src/main/drivers/system.c **** void SysTick_Handler(void)
  62:../cleanflight/src/main/drivers/system.c **** {
 211              	 .loc 3 62 0
 212              	 .cfi_startproc
 213              	 
 214              	 
 215 0000 80B5     	 push {r7,lr}
 216              	.LCFI16:
 217              	 .cfi_def_cfa_offset 8
 218              	 .cfi_offset 7,-8
 219              	 .cfi_offset 14,-4
 220 0002 84B0     	 sub sp,sp,#16
 221              	.LCFI17:
 222              	 .cfi_def_cfa_offset 24
 223 0004 00AF     	 add r7,sp,#0
 224              	.LCFI18:
 225              	 .cfi_def_cfa_register 7
 226              	.LBB18:
 227              	.LBB19:
 228              	.LBB20:
 465:D:/XMC/Projekte/Temp/CF_XMC4700/cleanflight/lib/main/CMSIS/Core/Include\cmsis_gcc.h ****   return(result);
 229              	 .loc 2 465 0
 230              	
 231 0006 EFF31183 	 MRS r3,basepri
 232              	
 233              	 .thumb
 234 000a BB60     	 str r3,[r7,#8]
 466:D:/XMC/Projekte/Temp/CF_XMC4700/cleanflight/lib/main/CMSIS/Core/Include\cmsis_gcc.h **** }
 235              	 .loc 2 466 0
 236 000c BB68     	 ldr r3,[r7,#8]
 237              	.LBE20:
 238              	.LBE19:
  63:../cleanflight/src/main/drivers/system.c ****     ATOMIC_BLOCK(NVIC_PRIO_MAX) {
 239              	 .loc 3 63 0
 240 000e DBB2     	 uxtb r3,r3
 241 0010 FB71     	 strb r3,[r7,#7]
 242 0012 1020     	 movs r0,#16
 243 0014 FFF7FEFF 	 bl __basepriSetMemRetVal
 244 0018 0346     	 mov r3,r0
 245 001a FB73     	 strb r3,[r7,#15]
 246 001c 0FE0     	 b .L9
 247              	.L10:
  64:../cleanflight/src/main/drivers/system.c ****         sysTickUptime++;
 248              	 .loc 3 64 0 discriminator 3
 249 001e 0D4B     	 ldr r3,.L11
 250 0020 1B68     	 ldr r3,[r3]
 251 0022 0133     	 adds r3,r3,#1
 252 0024 0B4A     	 ldr r2,.L11
 253 0026 1360     	 str r3,[r2]
  65:../cleanflight/src/main/drivers/system.c ****         sysTickValStamp = SysTick->VAL;
 254              	 .loc 3 65 0 discriminator 3
 255 0028 0B4B     	 ldr r3,.L11+4
 256 002a 9B68     	 ldr r3,[r3,#8]
 257 002c 0B4A     	 ldr r2,.L11+8
 258 002e 1360     	 str r3,[r2]
  66:../cleanflight/src/main/drivers/system.c ****         sysTickPending = 0;
 259              	 .loc 3 66 0 discriminator 3
 260 0030 0B4B     	 ldr r3,.L11+12
 261 0032 0022     	 movs r2,#0
 262 0034 1A60     	 str r2,[r3]
  67:../cleanflight/src/main/drivers/system.c ****         (void)(SysTick->CTRL);
 263              	 .loc 3 67 0 discriminator 3
 264 0036 084B     	 ldr r3,.L11+4
 265 0038 1B68     	 ldr r3,[r3]
  63:../cleanflight/src/main/drivers/system.c ****         sysTickUptime++;
 266              	 .loc 3 63 0 discriminator 3
 267 003a 0023     	 movs r3,#0
 268 003c FB73     	 strb r3,[r7,#15]
 269              	.L9:
  63:../cleanflight/src/main/drivers/system.c ****         sysTickUptime++;
 270              	 .loc 3 63 0 is_stmt 0 discriminator 1
 271 003e FB7B     	 ldrb r3,[r7,#15]
 272 0040 002B     	 cmp r3,#0
 273 0042 ECD1     	 bne .L10
  63:../cleanflight/src/main/drivers/system.c ****         sysTickUptime++;
 274              	 .loc 3 63 0 discriminator 4
 275 0044 FB1D     	 adds r3,r7,#7
 276 0046 1846     	 mov r0,r3
 277 0048 FFF7FEFF 	 bl __basepriRestoreMem
 278              	.LBE18:
  68:../cleanflight/src/main/drivers/system.c ****     }
  69:../cleanflight/src/main/drivers/system.c **** #ifdef USE_HAL_DRIVER
  70:../cleanflight/src/main/drivers/system.c ****     // used by the HAL for some timekeeping and timeouts, should always be 1ms
  71:../cleanflight/src/main/drivers/system.c ****     HAL_IncTick();
  72:../cleanflight/src/main/drivers/system.c **** #endif
  73:../cleanflight/src/main/drivers/system.c **** }
 279              	 .loc 3 73 0 is_stmt 1 discriminator 4
 280 004c 1037     	 adds r7,r7,#16
 281              	.LCFI19:
 282              	 .cfi_def_cfa_offset 8
 283 004e BD46     	 mov sp,r7
 284              	.LCFI20:
 285              	 .cfi_def_cfa_register 13
 286              	 
 287 0050 80BD     	 pop {r7,pc}
 288              	.L12:
 289 0052 00BF     	 .align 2
 290              	.L11:
 291 0054 00000000 	 .word sysTickUptime
 292 0058 10E000E0 	 .word -536813552
 293 005c 00000000 	 .word sysTickValStamp
 294 0060 00000000 	 .word sysTickPending
 295              	 .cfi_endproc
 296              	.LFE533:
 298              	 .section .text.microsISR,"ax",%progbits
 299              	 .align 2
 300              	 .global microsISR
 301              	 .thumb
 302              	 .thumb_func
 304              	microsISR:
 305              	.LFB534:
  74:../cleanflight/src/main/drivers/system.c **** 
  75:../cleanflight/src/main/drivers/system.c **** // Return system uptime in microseconds (rollover in 70minutes)
  76:../cleanflight/src/main/drivers/system.c **** 
  77:../cleanflight/src/main/drivers/system.c **** uint32_t microsISR(void)
  78:../cleanflight/src/main/drivers/system.c **** {
 306              	 .loc 3 78 0
 307              	 .cfi_startproc
 308              	 
 309              	 
 310 0000 F0B5     	 push {r4,r5,r6,r7,lr}
 311              	.LCFI21:
 312              	 .cfi_def_cfa_offset 20
 313              	 .cfi_offset 4,-20
 314              	 .cfi_offset 5,-16
 315              	 .cfi_offset 6,-12
 316              	 .cfi_offset 7,-8
 317              	 .cfi_offset 14,-4
 318 0002 85B0     	 sub sp,sp,#20
 319              	.LCFI22:
 320              	 .cfi_def_cfa_offset 40
 321 0004 00AF     	 add r7,sp,#0
 322              	.LCFI23:
 323              	 .cfi_def_cfa_register 7
 324              	.LBB21:
 325              	.LBB22:
 326              	.LBB23:
 465:D:/XMC/Projekte/Temp/CF_XMC4700/cleanflight/lib/main/CMSIS/Core/Include\cmsis_gcc.h ****   return(result);
 327              	 .loc 2 465 0
 328              	
 329 0006 EFF31183 	 MRS r3,basepri
 330              	
 331              	 .thumb
 332 000a BB60     	 str r3,[r7,#8]
 466:D:/XMC/Projekte/Temp/CF_XMC4700/cleanflight/lib/main/CMSIS/Core/Include\cmsis_gcc.h **** }
 333              	 .loc 2 466 0
 334 000c BB68     	 ldr r3,[r7,#8]
 335              	.LBE23:
 336              	.LBE22:
  79:../cleanflight/src/main/drivers/system.c ****     register uint32_t ms, pending, cycle_cnt;
  80:../cleanflight/src/main/drivers/system.c **** 
  81:../cleanflight/src/main/drivers/system.c ****     ATOMIC_BLOCK(NVIC_PRIO_MAX) {
 337              	 .loc 3 81 0
 338 000e DBB2     	 uxtb r3,r3
 339 0010 FB71     	 strb r3,[r7,#7]
 340 0012 1020     	 movs r0,#16
 341 0014 FFF7FEFF 	 bl __basepriSetMemRetVal
 342 0018 0346     	 mov r3,r0
 343 001a FB73     	 strb r3,[r7,#15]
 344 001c 13E0     	 b .L15
 345              	.L17:
  82:../cleanflight/src/main/drivers/system.c ****         cycle_cnt = SysTick->VAL;
 346              	 .loc 3 82 0
 347 001e 184B     	 ldr r3,.L19
 348 0020 9C68     	 ldr r4,[r3,#8]
  83:../cleanflight/src/main/drivers/system.c **** 
  84:../cleanflight/src/main/drivers/system.c ****         if (SysTick->CTRL & SysTick_CTRL_COUNTFLAG_Msk) {
 349              	 .loc 3 84 0
 350 0022 174B     	 ldr r3,.L19
 351 0024 1B68     	 ldr r3,[r3]
 352 0026 03F48033 	 and r3,r3,#65536
 353 002a 002B     	 cmp r3,#0
 354 002c 04D0     	 beq .L16
  85:../cleanflight/src/main/drivers/system.c ****             // Update pending.
  86:../cleanflight/src/main/drivers/system.c ****             // Record it for multiple calls within the same rollover period
  87:../cleanflight/src/main/drivers/system.c ****             // (Will be cleared when serviced).
  88:../cleanflight/src/main/drivers/system.c ****             // Note that multiple rollovers are not considered.
  89:../cleanflight/src/main/drivers/system.c **** 
  90:../cleanflight/src/main/drivers/system.c ****             sysTickPending = 1;
 355              	 .loc 3 90 0
 356 002e 154B     	 ldr r3,.L19+4
 357 0030 0122     	 movs r2,#1
 358 0032 1A60     	 str r2,[r3]
  91:../cleanflight/src/main/drivers/system.c **** 
  92:../cleanflight/src/main/drivers/system.c ****             // Read VAL again to ensure the value is read after the rollover.
  93:../cleanflight/src/main/drivers/system.c **** 
  94:../cleanflight/src/main/drivers/system.c ****             cycle_cnt = SysTick->VAL;
 359              	 .loc 3 94 0
 360 0034 124B     	 ldr r3,.L19
 361 0036 9C68     	 ldr r4,[r3,#8]
 362              	.L16:
  95:../cleanflight/src/main/drivers/system.c ****         }
  96:../cleanflight/src/main/drivers/system.c **** 
  97:../cleanflight/src/main/drivers/system.c ****         ms = sysTickUptime;
 363              	 .loc 3 97 0 discriminator 2
 364 0038 134B     	 ldr r3,.L19+8
 365 003a 1D68     	 ldr r5,[r3]
  98:../cleanflight/src/main/drivers/system.c ****         pending = sysTickPending;
 366              	 .loc 3 98 0 discriminator 2
 367 003c 114B     	 ldr r3,.L19+4
 368 003e 1B68     	 ldr r3,[r3]
 369 0040 1E46     	 mov r6,r3
  81:../cleanflight/src/main/drivers/system.c ****         cycle_cnt = SysTick->VAL;
 370              	 .loc 3 81 0 discriminator 2
 371 0042 0023     	 movs r3,#0
 372 0044 FB73     	 strb r3,[r7,#15]
 373              	.L15:
  81:../cleanflight/src/main/drivers/system.c ****         cycle_cnt = SysTick->VAL;
 374              	 .loc 3 81 0 is_stmt 0 discriminator 1
 375 0046 FB7B     	 ldrb r3,[r7,#15]
 376 0048 002B     	 cmp r3,#0
 377 004a E8D1     	 bne .L17
  81:../cleanflight/src/main/drivers/system.c ****         cycle_cnt = SysTick->VAL;
 378              	 .loc 3 81 0 discriminator 3
 379 004c FB1D     	 adds r3,r7,#7
 380 004e 1846     	 mov r0,r3
 381 0050 FFF7FEFF 	 bl __basepriRestoreMem
 382              	.LBE21:
  99:../cleanflight/src/main/drivers/system.c ****     }
 100:../cleanflight/src/main/drivers/system.c **** 
 101:../cleanflight/src/main/drivers/system.c ****     return ((ms + pending) * 1000) + (usTicks * 1000 - cycle_cnt) / usTicks;
 383              	 .loc 3 101 0 is_stmt 1 discriminator 3
 384 0054 AB19     	 adds r3,r5,r6
 385 0056 4FF47A72 	 mov r2,#1000
 386 005a 02FB03F2 	 mul r2,r2,r3
 387 005e 0B4B     	 ldr r3,.L19+12
 388 0060 1B68     	 ldr r3,[r3]
 389 0062 4FF47A71 	 mov r1,#1000
 390 0066 01FB03F3 	 mul r3,r1,r3
 391 006a 191B     	 subs r1,r3,r4
 392 006c 074B     	 ldr r3,.L19+12
 393 006e 1B68     	 ldr r3,[r3]
 394 0070 B1FBF3F3 	 udiv r3,r1,r3
 395 0074 1344     	 add r3,r3,r2
 102:../cleanflight/src/main/drivers/system.c **** }
 396              	 .loc 3 102 0 discriminator 3
 397 0076 1846     	 mov r0,r3
 398 0078 1437     	 adds r7,r7,#20
 399              	.LCFI24:
 400              	 .cfi_def_cfa_offset 20
 401 007a BD46     	 mov sp,r7
 402              	.LCFI25:
 403              	 .cfi_def_cfa_register 13
 404              	 
 405 007c F0BD     	 pop {r4,r5,r6,r7,pc}
 406              	.L20:
 407 007e 00BF     	 .align 2
 408              	.L19:
 409 0080 10E000E0 	 .word -536813552
 410 0084 00000000 	 .word sysTickPending
 411 0088 00000000 	 .word sysTickUptime
 412 008c 00000000 	 .word usTicks
 413              	 .cfi_endproc
 414              	.LFE534:
 416              	 .section .text.micros,"ax",%progbits
 417              	 .align 2
 418              	 .global micros
 419              	 .thumb
 420              	 .thumb_func
 422              	micros:
 423              	.LFB535:
 103:../cleanflight/src/main/drivers/system.c **** 
 104:../cleanflight/src/main/drivers/system.c **** uint32_t micros(void)
 105:../cleanflight/src/main/drivers/system.c **** {
 424              	 .loc 3 105 0
 425              	 .cfi_startproc
 426              	 
 427              	 
 428 0000 B0B5     	 push {r4,r5,r7,lr}
 429              	.LCFI26:
 430              	 .cfi_def_cfa_offset 16
 431              	 .cfi_offset 4,-16
 432              	 .cfi_offset 5,-12
 433              	 .cfi_offset 7,-8
 434              	 .cfi_offset 14,-4
 435 0002 82B0     	 sub sp,sp,#8
 436              	.LCFI27:
 437              	 .cfi_def_cfa_offset 24
 438 0004 00AF     	 add r7,sp,#0
 439              	.LCFI28:
 440              	 .cfi_def_cfa_register 7
 106:../cleanflight/src/main/drivers/system.c ****     register uint32_t ms, cycle_cnt;
 107:../cleanflight/src/main/drivers/system.c **** 
 108:../cleanflight/src/main/drivers/system.c ****     // Call microsISR() in interrupt and elevated (non-zero) BASEPRI context
 109:../cleanflight/src/main/drivers/system.c **** 
 110:../cleanflight/src/main/drivers/system.c ****     if ((SCB->ICSR & SCB_ICSR_VECTACTIVE_Msk) || (__get_BASEPRI())) {
 441              	 .loc 3 110 0
 442 0006 184B     	 ldr r3,.L26
 443 0008 5B68     	 ldr r3,[r3,#4]
 444 000a C3F30803 	 ubfx r3,r3,#0,#9
 445 000e 002B     	 cmp r3,#0
 446 0010 05D1     	 bne .L22
 447              	.LBB24:
 448              	.LBB25:
 465:D:/XMC/Projekte/Temp/CF_XMC4700/cleanflight/lib/main/CMSIS/Core/Include\cmsis_gcc.h ****   return(result);
 449              	 .loc 2 465 0 discriminator 1
 450              	
 451 0012 EFF31183 	 MRS r3,basepri
 452              	
 453              	 .thumb
 454 0016 7B60     	 str r3,[r7,#4]
 466:D:/XMC/Projekte/Temp/CF_XMC4700/cleanflight/lib/main/CMSIS/Core/Include\cmsis_gcc.h **** }
 455              	 .loc 2 466 0 discriminator 1
 456 0018 7B68     	 ldr r3,[r7,#4]
 457              	.LBE25:
 458              	.LBE24:
 459              	 .loc 3 110 0 discriminator 1
 460 001a 002B     	 cmp r3,#0
 461 001c 03D0     	 beq .L24
 462              	.L22:
 111:../cleanflight/src/main/drivers/system.c ****         return microsISR();
 463              	 .loc 3 111 0
 464 001e FFF7FEFF 	 bl microsISR
 465 0022 0346     	 mov r3,r0
 466 0024 1BE0     	 b .L25
 467              	.L24:
 112:../cleanflight/src/main/drivers/system.c ****     }
 113:../cleanflight/src/main/drivers/system.c **** 
 114:../cleanflight/src/main/drivers/system.c ****     do {
 115:../cleanflight/src/main/drivers/system.c ****         ms = sysTickUptime;
 468              	 .loc 3 115 0 discriminator 3
 469 0026 114B     	 ldr r3,.L26+4
 470 0028 1D68     	 ldr r5,[r3]
 116:../cleanflight/src/main/drivers/system.c ****         cycle_cnt = SysTick->VAL;
 471              	 .loc 3 116 0 discriminator 3
 472 002a 114B     	 ldr r3,.L26+8
 473 002c 9C68     	 ldr r4,[r3,#8]
 117:../cleanflight/src/main/drivers/system.c ****     } while (ms != sysTickUptime || cycle_cnt > sysTickValStamp);
 474              	 .loc 3 117 0 discriminator 3
 475 002e 0F4B     	 ldr r3,.L26+4
 476 0030 1B68     	 ldr r3,[r3]
 477 0032 9D42     	 cmp r5,r3
 478 0034 F7D1     	 bne .L24
 479              	 .loc 3 117 0 is_stmt 0 discriminator 2
 480 0036 0F4B     	 ldr r3,.L26+12
 481 0038 1B68     	 ldr r3,[r3]
 482 003a 9C42     	 cmp r4,r3
 483 003c F3D8     	 bhi .L24
 118:../cleanflight/src/main/drivers/system.c **** 
 119:../cleanflight/src/main/drivers/system.c ****     return (ms * 1000) + (usTicks * 1000 - cycle_cnt) / usTicks;
 484              	 .loc 3 119 0 is_stmt 1
 485 003e 4FF47A73 	 mov r3,#1000
 486 0042 03FB05F2 	 mul r2,r3,r5
 487 0046 0C4B     	 ldr r3,.L26+16
 488 0048 1B68     	 ldr r3,[r3]
 489 004a 4FF47A71 	 mov r1,#1000
 490 004e 01FB03F3 	 mul r3,r1,r3
 491 0052 191B     	 subs r1,r3,r4
 492 0054 084B     	 ldr r3,.L26+16
 493 0056 1B68     	 ldr r3,[r3]
 494 0058 B1FBF3F3 	 udiv r3,r1,r3
 495 005c 1344     	 add r3,r3,r2
 496              	.L25:
 120:../cleanflight/src/main/drivers/system.c **** }
 497              	 .loc 3 120 0
 498 005e 1846     	 mov r0,r3
 499 0060 0837     	 adds r7,r7,#8
 500              	.LCFI29:
 501              	 .cfi_def_cfa_offset 16
 502 0062 BD46     	 mov sp,r7
 503              	.LCFI30:
 504              	 .cfi_def_cfa_register 13
 505              	 
 506 0064 B0BD     	 pop {r4,r5,r7,pc}
 507              	.L27:
 508 0066 00BF     	 .align 2
 509              	.L26:
 510 0068 00ED00E0 	 .word -536810240
 511 006c 00000000 	 .word sysTickUptime
 512 0070 10E000E0 	 .word -536813552
 513 0074 00000000 	 .word sysTickValStamp
 514 0078 00000000 	 .word usTicks
 515              	 .cfi_endproc
 516              	.LFE535:
 518              	 .section .text.millis,"ax",%progbits
 519              	 .align 2
 520              	 .global millis
 521              	 .thumb
 522              	 .thumb_func
 524              	millis:
 525              	.LFB536:
 121:../cleanflight/src/main/drivers/system.c **** 
 122:../cleanflight/src/main/drivers/system.c **** // Return system uptime in milliseconds (rollover in 49 days)
 123:../cleanflight/src/main/drivers/system.c **** uint32_t millis(void)
 124:../cleanflight/src/main/drivers/system.c **** {
 526              	 .loc 3 124 0
 527              	 .cfi_startproc
 528              	 
 529              	 
 530              	 
 531 0000 80B4     	 push {r7}
 532              	.LCFI31:
 533              	 .cfi_def_cfa_offset 4
 534              	 .cfi_offset 7,-4
 535 0002 00AF     	 add r7,sp,#0
 536              	.LCFI32:
 537              	 .cfi_def_cfa_register 7
 125:../cleanflight/src/main/drivers/system.c ****     return sysTickUptime;
 538              	 .loc 3 125 0
 539 0004 034B     	 ldr r3,.L30
 540 0006 1B68     	 ldr r3,[r3]
 126:../cleanflight/src/main/drivers/system.c **** }
 541              	 .loc 3 126 0
 542 0008 1846     	 mov r0,r3
 543 000a BD46     	 mov sp,r7
 544              	.LCFI33:
 545              	 .cfi_def_cfa_register 13
 546              	 
 547 000c 5DF8047B 	 ldr r7,[sp],#4
 548              	.LCFI34:
 549              	 .cfi_restore 7
 550              	 .cfi_def_cfa_offset 0
 551 0010 7047     	 bx lr
 552              	.L31:
 553 0012 00BF     	 .align 2
 554              	.L30:
 555 0014 00000000 	 .word sysTickUptime
 556              	 .cfi_endproc
 557              	.LFE536:
 559              	 .section .text.delayMicroseconds,"ax",%progbits
 560              	 .align 2
 561              	 .global delayMicroseconds
 562              	 .thumb
 563              	 .thumb_func
 565              	delayMicroseconds:
 566              	.LFB537:
 127:../cleanflight/src/main/drivers/system.c **** 
 128:../cleanflight/src/main/drivers/system.c **** #if 1
 129:../cleanflight/src/main/drivers/system.c **** void delayMicroseconds(uint32_t us)
 130:../cleanflight/src/main/drivers/system.c **** {
 567              	 .loc 3 130 0
 568              	 .cfi_startproc
 569              	 
 570              	 
 571 0000 80B5     	 push {r7,lr}
 572              	.LCFI35:
 573              	 .cfi_def_cfa_offset 8
 574              	 .cfi_offset 7,-8
 575              	 .cfi_offset 14,-4
 576 0002 84B0     	 sub sp,sp,#16
 577              	.LCFI36:
 578              	 .cfi_def_cfa_offset 24
 579 0004 00AF     	 add r7,sp,#0
 580              	.LCFI37:
 581              	 .cfi_def_cfa_register 7
 582 0006 7860     	 str r0,[r7,#4]
 131:../cleanflight/src/main/drivers/system.c ****     uint32_t now = micros();
 583              	 .loc 3 131 0
 584 0008 FFF7FEFF 	 bl micros
 585 000c F860     	 str r0,[r7,#12]
 132:../cleanflight/src/main/drivers/system.c ****     while (micros() - now < us);
 586              	 .loc 3 132 0
 587 000e 00BF     	 nop
 588              	.L33:
 589              	 .loc 3 132 0 is_stmt 0 discriminator 1
 590 0010 FFF7FEFF 	 bl micros
 591 0014 0246     	 mov r2,r0
 592 0016 FB68     	 ldr r3,[r7,#12]
 593 0018 D21A     	 subs r2,r2,r3
 594 001a 7B68     	 ldr r3,[r7,#4]
 595 001c 9A42     	 cmp r2,r3
 596 001e F7D3     	 bcc .L33
 133:../cleanflight/src/main/drivers/system.c **** }
 597              	 .loc 3 133 0 is_stmt 1
 598 0020 1037     	 adds r7,r7,#16
 599              	.LCFI38:
 600              	 .cfi_def_cfa_offset 8
 601 0022 BD46     	 mov sp,r7
 602              	.LCFI39:
 603              	 .cfi_def_cfa_register 13
 604              	 
 605 0024 80BD     	 pop {r7,pc}
 606              	 .cfi_endproc
 607              	.LFE537:
 609 0026 00BF     	 .section .text.delay,"ax",%progbits
 610              	 .align 2
 611              	 .global delay
 612              	 .thumb
 613              	 .thumb_func
 615              	delay:
 616              	.LFB538:
 134:../cleanflight/src/main/drivers/system.c **** #else
 135:../cleanflight/src/main/drivers/system.c **** void delayMicroseconds(uint32_t us)
 136:../cleanflight/src/main/drivers/system.c **** {
 137:../cleanflight/src/main/drivers/system.c ****     uint32_t elapsed = 0;
 138:../cleanflight/src/main/drivers/system.c ****     uint32_t lastCount = SysTick->VAL;
 139:../cleanflight/src/main/drivers/system.c **** 
 140:../cleanflight/src/main/drivers/system.c ****     for (;;) {
 141:../cleanflight/src/main/drivers/system.c ****         register uint32_t current_count = SysTick->VAL;
 142:../cleanflight/src/main/drivers/system.c ****         uint32_t elapsed_us;
 143:../cleanflight/src/main/drivers/system.c **** 
 144:../cleanflight/src/main/drivers/system.c ****         // measure the time elapsed since the last time we checked
 145:../cleanflight/src/main/drivers/system.c ****         elapsed += current_count - lastCount;
 146:../cleanflight/src/main/drivers/system.c ****         lastCount = current_count;
 147:../cleanflight/src/main/drivers/system.c **** 
 148:../cleanflight/src/main/drivers/system.c ****         // convert to microseconds
 149:../cleanflight/src/main/drivers/system.c ****         elapsed_us = elapsed / usTicks;
 150:../cleanflight/src/main/drivers/system.c ****         if (elapsed_us >= us)
 151:../cleanflight/src/main/drivers/system.c ****             break;
 152:../cleanflight/src/main/drivers/system.c **** 
 153:../cleanflight/src/main/drivers/system.c ****         // reduce the delay by the elapsed time
 154:../cleanflight/src/main/drivers/system.c ****         us -= elapsed_us;
 155:../cleanflight/src/main/drivers/system.c **** 
 156:../cleanflight/src/main/drivers/system.c ****         // keep fractional microseconds for the next iteration
 157:../cleanflight/src/main/drivers/system.c ****         elapsed %= usTicks;
 158:../cleanflight/src/main/drivers/system.c ****     }
 159:../cleanflight/src/main/drivers/system.c **** }
 160:../cleanflight/src/main/drivers/system.c **** #endif
 161:../cleanflight/src/main/drivers/system.c **** 
 162:../cleanflight/src/main/drivers/system.c **** void delay(uint32_t ms)
 163:../cleanflight/src/main/drivers/system.c **** {
 617              	 .loc 3 163 0
 618              	 .cfi_startproc
 619              	 
 620              	 
 621 0000 80B5     	 push {r7,lr}
 622              	.LCFI40:
 623              	 .cfi_def_cfa_offset 8
 624              	 .cfi_offset 7,-8
 625              	 .cfi_offset 14,-4
 626 0002 82B0     	 sub sp,sp,#8
 627              	.LCFI41:
 628              	 .cfi_def_cfa_offset 16
 629 0004 00AF     	 add r7,sp,#0
 630              	.LCFI42:
 631              	 .cfi_def_cfa_register 7
 632 0006 7860     	 str r0,[r7,#4]
 164:../cleanflight/src/main/drivers/system.c ****     while (ms--)
 633              	 .loc 3 164 0
 634 0008 03E0     	 b .L35
 635              	.L36:
 165:../cleanflight/src/main/drivers/system.c ****         delayMicroseconds(1000);
 636              	 .loc 3 165 0
 637 000a 4FF47A70 	 mov r0,#1000
 638 000e FFF7FEFF 	 bl delayMicroseconds
 639              	.L35:
 164:../cleanflight/src/main/drivers/system.c ****     while (ms--)
 640              	 .loc 3 164 0
 641 0012 7B68     	 ldr r3,[r7,#4]
 642 0014 5A1E     	 subs r2,r3,#1
 643 0016 7A60     	 str r2,[r7,#4]
 644 0018 002B     	 cmp r3,#0
 645 001a F6D1     	 bne .L36
 166:../cleanflight/src/main/drivers/system.c **** }
 646              	 .loc 3 166 0
 647 001c 0837     	 adds r7,r7,#8
 648              	.LCFI43:
 649              	 .cfi_def_cfa_offset 8
 650 001e BD46     	 mov sp,r7
 651              	.LCFI44:
 652              	 .cfi_def_cfa_register 13
 653              	 
 654 0020 80BD     	 pop {r7,pc}
 655              	 .cfi_endproc
 656              	.LFE538:
 658 0022 00BF     	 .section .text.indicate,"ax",%progbits
 659              	 .align 2
 660              	 .thumb
 661              	 .thumb_func
 663              	indicate:
 664              	.LFB539:
 167:../cleanflight/src/main/drivers/system.c **** 
 168:../cleanflight/src/main/drivers/system.c **** static void indicate(uint8_t count, uint16_t duration)
 169:../cleanflight/src/main/drivers/system.c **** {
 665              	 .loc 3 169 0
 666              	 .cfi_startproc
 667              	 
 668              	 
 669 0000 80B5     	 push {r7,lr}
 670              	.LCFI45:
 671              	 .cfi_def_cfa_offset 8
 672              	 .cfi_offset 7,-8
 673              	 .cfi_offset 14,-4
 674 0002 82B0     	 sub sp,sp,#8
 675              	.LCFI46:
 676              	 .cfi_def_cfa_offset 16
 677 0004 00AF     	 add r7,sp,#0
 678              	.LCFI47:
 679              	 .cfi_def_cfa_register 7
 680 0006 0346     	 mov r3,r0
 681 0008 0A46     	 mov r2,r1
 682 000a FB71     	 strb r3,[r7,#7]
 683 000c 1346     	 mov r3,r2
 684 000e BB80     	 strh r3,[r7,#4]
 170:../cleanflight/src/main/drivers/system.c ****     if (count) {
 685              	 .loc 3 170 0
 686 0010 FB79     	 ldrb r3,[r7,#7]
 687 0012 002B     	 cmp r3,#0
 688 0014 21D0     	 beq .L37
 171:../cleanflight/src/main/drivers/system.c ****         LED1_ON;
 689              	 .loc 3 171 0
 690 0016 0120     	 movs r0,#1
 691 0018 0121     	 movs r1,#1
 692 001a FFF7FEFF 	 bl ledSet
 172:../cleanflight/src/main/drivers/system.c ****         LED0_OFF;
 693              	 .loc 3 172 0
 694 001e 0020     	 movs r0,#0
 695 0020 0021     	 movs r1,#0
 696 0022 FFF7FEFF 	 bl ledSet
 173:../cleanflight/src/main/drivers/system.c **** 
 174:../cleanflight/src/main/drivers/system.c ****         while (count--) {
 697              	 .loc 3 174 0
 698 0026 13E0     	 b .L39
 699              	.L40:
 175:../cleanflight/src/main/drivers/system.c ****             LED1_TOGGLE;
 700              	 .loc 3 175 0
 701 0028 0120     	 movs r0,#1
 702 002a FFF7FEFF 	 bl ledToggle
 176:../cleanflight/src/main/drivers/system.c ****             LED0_TOGGLE;
 703              	 .loc 3 176 0
 704 002e 0020     	 movs r0,#0
 705 0030 FFF7FEFF 	 bl ledToggle
 177:../cleanflight/src/main/drivers/system.c ****             BEEP_ON;
 178:../cleanflight/src/main/drivers/system.c ****             delay(duration);
 706              	 .loc 3 178 0
 707 0034 BB88     	 ldrh r3,[r7,#4]
 708 0036 1846     	 mov r0,r3
 709 0038 FFF7FEFF 	 bl delay
 179:../cleanflight/src/main/drivers/system.c **** 
 180:../cleanflight/src/main/drivers/system.c ****             LED1_TOGGLE;
 710              	 .loc 3 180 0
 711 003c 0120     	 movs r0,#1
 712 003e FFF7FEFF 	 bl ledToggle
 181:../cleanflight/src/main/drivers/system.c ****             LED0_TOGGLE;
 713              	 .loc 3 181 0
 714 0042 0020     	 movs r0,#0
 715 0044 FFF7FEFF 	 bl ledToggle
 182:../cleanflight/src/main/drivers/system.c ****             BEEP_OFF;
 183:../cleanflight/src/main/drivers/system.c ****             delay(duration);
 716              	 .loc 3 183 0
 717 0048 BB88     	 ldrh r3,[r7,#4]
 718 004a 1846     	 mov r0,r3
 719 004c FFF7FEFF 	 bl delay
 720              	.L39:
 174:../cleanflight/src/main/drivers/system.c ****             LED1_TOGGLE;
 721              	 .loc 3 174 0
 722 0050 FB79     	 ldrb r3,[r7,#7]
 723 0052 5A1E     	 subs r2,r3,#1
 724 0054 FA71     	 strb r2,[r7,#7]
 725 0056 002B     	 cmp r3,#0
 726 0058 E6D1     	 bne .L40
 727              	.L37:
 184:../cleanflight/src/main/drivers/system.c ****         }
 185:../cleanflight/src/main/drivers/system.c ****     }
 186:../cleanflight/src/main/drivers/system.c **** }
 728              	 .loc 3 186 0
 729 005a 0837     	 adds r7,r7,#8
 730              	.LCFI48:
 731              	 .cfi_def_cfa_offset 8
 732 005c BD46     	 mov sp,r7
 733              	.LCFI49:
 734              	 .cfi_def_cfa_register 13
 735              	 
 736 005e 80BD     	 pop {r7,pc}
 737              	 .cfi_endproc
 738              	.LFE539:
 740              	 .section .text.indicateFailure,"ax",%progbits
 741              	 .align 2
 742              	 .global indicateFailure
 743              	 .thumb
 744              	 .thumb_func
 746              	indicateFailure:
 747              	.LFB540:
 187:../cleanflight/src/main/drivers/system.c **** 
 188:../cleanflight/src/main/drivers/system.c **** void indicateFailure(failureMode_e mode, int codeRepeatsRemaining)
 189:../cleanflight/src/main/drivers/system.c **** {
 748              	 .loc 3 189 0
 749              	 .cfi_startproc
 750              	 
 751              	 
 752 0000 80B5     	 push {r7,lr}
 753              	.LCFI50:
 754              	 .cfi_def_cfa_offset 8
 755              	 .cfi_offset 7,-8
 756              	 .cfi_offset 14,-4
 757 0002 82B0     	 sub sp,sp,#8
 758              	.LCFI51:
 759              	 .cfi_def_cfa_offset 16
 760 0004 00AF     	 add r7,sp,#0
 761              	.LCFI52:
 762              	 .cfi_def_cfa_register 7
 763 0006 0346     	 mov r3,r0
 764 0008 3960     	 str r1,[r7]
 765 000a FB71     	 strb r3,[r7,#7]
 190:../cleanflight/src/main/drivers/system.c ****     while (codeRepeatsRemaining--) {
 766              	 .loc 3 190 0
 767 000c 12E0     	 b .L42
 768              	.L43:
 191:../cleanflight/src/main/drivers/system.c ****         indicate(WARNING_FLASH_COUNT, WARNING_FLASH_DURATION_MS);
 769              	 .loc 3 191 0
 770 000e 0520     	 movs r0,#5
 771 0010 3221     	 movs r1,#50
 772 0012 FFF7FEFF 	 bl indicate
 192:../cleanflight/src/main/drivers/system.c **** 
 193:../cleanflight/src/main/drivers/system.c ****         delay(WARNING_PAUSE_DURATION_MS);
 773              	 .loc 3 193 0
 774 0016 4FF4FA70 	 mov r0,#500
 775 001a FFF7FEFF 	 bl delay
 194:../cleanflight/src/main/drivers/system.c **** 
 195:../cleanflight/src/main/drivers/system.c ****         indicate(mode + 1, WARNING_CODE_DURATION_LONG_MS);
 776              	 .loc 3 195 0
 777 001e FB79     	 ldrb r3,[r7,#7]
 778 0020 0133     	 adds r3,r3,#1
 779 0022 DBB2     	 uxtb r3,r3
 780 0024 1846     	 mov r0,r3
 781 0026 FA21     	 movs r1,#250
 782 0028 FFF7FEFF 	 bl indicate
 196:../cleanflight/src/main/drivers/system.c **** 
 197:../cleanflight/src/main/drivers/system.c ****         delay(1000);
 783              	 .loc 3 197 0
 784 002c 4FF47A70 	 mov r0,#1000
 785 0030 FFF7FEFF 	 bl delay
 786              	.L42:
 190:../cleanflight/src/main/drivers/system.c ****         indicate(WARNING_FLASH_COUNT, WARNING_FLASH_DURATION_MS);
 787              	 .loc 3 190 0
 788 0034 3B68     	 ldr r3,[r7]
 789 0036 5A1E     	 subs r2,r3,#1
 790 0038 3A60     	 str r2,[r7]
 791 003a 002B     	 cmp r3,#0
 792 003c E7D1     	 bne .L43
 198:../cleanflight/src/main/drivers/system.c ****     }
 199:../cleanflight/src/main/drivers/system.c **** }
 793              	 .loc 3 199 0
 794 003e 0837     	 adds r7,r7,#8
 795              	.LCFI53:
 796              	 .cfi_def_cfa_offset 8
 797 0040 BD46     	 mov sp,r7
 798              	.LCFI54:
 799              	 .cfi_def_cfa_register 13
 800              	 
 801 0042 80BD     	 pop {r7,pc}
 802              	 .cfi_endproc
 803              	.LFE540:
 805              	 .section .text.failureMode,"ax",%progbits
 806              	 .align 2
 807              	 .global failureMode
 808              	 .thumb
 809              	 .thumb_func
 811              	failureMode:
 812              	.LFB541:
 200:../cleanflight/src/main/drivers/system.c **** 
 201:../cleanflight/src/main/drivers/system.c **** void failureMode(failureMode_e mode)
 202:../cleanflight/src/main/drivers/system.c **** {
 813              	 .loc 3 202 0
 814              	 .cfi_startproc
 815              	 
 816              	 
 817 0000 80B5     	 push {r7,lr}
 818              	.LCFI55:
 819              	 .cfi_def_cfa_offset 8
 820              	 .cfi_offset 7,-8
 821              	 .cfi_offset 14,-4
 822 0002 82B0     	 sub sp,sp,#8
 823              	.LCFI56:
 824              	 .cfi_def_cfa_offset 16
 825 0004 00AF     	 add r7,sp,#0
 826              	.LCFI57:
 827              	 .cfi_def_cfa_register 7
 828 0006 0346     	 mov r3,r0
 829 0008 FB71     	 strb r3,[r7,#7]
 203:../cleanflight/src/main/drivers/system.c ****     indicateFailure(mode, 10);
 830              	 .loc 3 203 0
 831 000a FB79     	 ldrb r3,[r7,#7]
 832 000c 1846     	 mov r0,r3
 833 000e 0A21     	 movs r1,#10
 834 0010 FFF7FEFF 	 bl indicateFailure
 204:../cleanflight/src/main/drivers/system.c **** 
 205:../cleanflight/src/main/drivers/system.c **** #ifdef DEBUG
 206:../cleanflight/src/main/drivers/system.c ****     systemReset();
 207:../cleanflight/src/main/drivers/system.c **** #else
 208:../cleanflight/src/main/drivers/system.c ****     systemResetToBootloader();
 835              	 .loc 3 208 0
 836 0014 FFF7FEFF 	 bl systemResetToBootloader
 209:../cleanflight/src/main/drivers/system.c **** #endif
 210:../cleanflight/src/main/drivers/system.c **** }
 837              	 .loc 3 210 0
 838 0018 0837     	 adds r7,r7,#8
 839              	.LCFI58:
 840              	 .cfi_def_cfa_offset 8
 841 001a BD46     	 mov sp,r7
 842              	.LCFI59:
 843              	 .cfi_def_cfa_register 13
 844              	 
 845 001c 80BD     	 pop {r7,pc}
 846              	 .cfi_endproc
 847              	.LFE541:
 849 001e 00BF     	 .text
 850              	.Letext0:
 851              	 .file 4 "d:\\xmc\\dave-ide-4.4.2-64bit\\eclipse\\arm-gcc-49\\arm-none-eabi\\include\\machine\\_default_types.h"
 852              	 .file 5 "d:\\xmc\\dave-ide-4.4.2-64bit\\eclipse\\arm-gcc-49\\arm-none-eabi\\include\\stdint.h"
 853              	 .file 6 "D:/XMC/Projekte/Temp/CF_XMC4700/cleanflight/lib/main/CMSIS/Core/Include/core_cm4.h"
 854              	 .file 7 "D:/XMC/Projekte/Temp/CF_XMC4700/cleanflight/lib/main/XMC4000/XMCLib/inc/xmc_usic.h"
 855              	 .file 8 "D:/XMC/Projekte/Temp/CF_XMC4700/cleanflight/src/main/drivers/io_types.h"
 856              	 .file 9 "D:/XMC/Projekte/Temp/CF_XMC4700/cleanflight/src/main/drivers/light_led.h"
 857              	 .file 10 "../cleanflight/src/main/drivers/system.h"
 858              	 .file 11 "D:/XMC/Projekte/Temp/CF_XMC4700/cleanflight/lib/main/XMC4000/system_XMC4700.h"