   1              	 .syntax unified
   2              	 .cpu cortex-m4
   3              	 .eabi_attribute 27,3
   4              	 .fpu fpv4-sp-d16
   5              	 .eabi_attribute 20,1
   6              	 .eabi_attribute 21,1
   7              	 .eabi_attribute 23,3
   8              	 .eabi_attribute 24,1
   9              	 .eabi_attribute 25,1
  10              	 .eabi_attribute 26,1
  11              	 .eabi_attribute 30,6
  12              	 .eabi_attribute 34,1
  13              	 .eabi_attribute 18,4
  14              	 .thumb
  15              	 .file "vtx_common.c"
  16              	 .text
  17              	.Ltext0:
  18              	 .cfi_sections .debug_frame
  19              	 .section .bss.vtxDevice,"aw",%nobits
  20              	 .align 2
  23              	vtxDevice:
  24 0000 00000000 	 .space 4
  25              	 .section .text.vtxCommonInit,"ax",%progbits
  26              	 .align 2
  27              	 .global vtxCommonInit
  28              	 .thumb
  29              	 .thumb_func
  31              	vtxCommonInit:
  32              	.LFB527:
  33              	 .file 1 "../cleanflight/src/main/drivers/vtx_common.c"
   1:../cleanflight/src/main/drivers/vtx_common.c **** /*
   2:../cleanflight/src/main/drivers/vtx_common.c ****  * This file is part of Cleanflight and Betaflight.
   3:../cleanflight/src/main/drivers/vtx_common.c ****  *
   4:../cleanflight/src/main/drivers/vtx_common.c ****  * Cleanflight and Betaflight are free software. You can redistribute
   5:../cleanflight/src/main/drivers/vtx_common.c ****  * this software and/or modify this software under the terms of the
   6:../cleanflight/src/main/drivers/vtx_common.c ****  * GNU General Public License as published by the Free Software
   7:../cleanflight/src/main/drivers/vtx_common.c ****  * Foundation, either version 3 of the License, or (at your option)
   8:../cleanflight/src/main/drivers/vtx_common.c ****  * any later version.
   9:../cleanflight/src/main/drivers/vtx_common.c ****  *
  10:../cleanflight/src/main/drivers/vtx_common.c ****  * Cleanflight and Betaflight are distributed in the hope that they
  11:../cleanflight/src/main/drivers/vtx_common.c ****  * will be useful, but WITHOUT ANY WARRANTY; without even the implied
  12:../cleanflight/src/main/drivers/vtx_common.c ****  * warranty of MERCHANTABILITY or FITNESS FOR A PARTICULAR PURPOSE.
  13:../cleanflight/src/main/drivers/vtx_common.c ****  * See the GNU General Public License for more details.
  14:../cleanflight/src/main/drivers/vtx_common.c ****  *
  15:../cleanflight/src/main/drivers/vtx_common.c ****  * You should have received a copy of the GNU General Public License
  16:../cleanflight/src/main/drivers/vtx_common.c ****  * along with this software.
  17:../cleanflight/src/main/drivers/vtx_common.c ****  *
  18:../cleanflight/src/main/drivers/vtx_common.c ****  * If not, see <http://www.gnu.org/licenses/>.
  19:../cleanflight/src/main/drivers/vtx_common.c ****  */
  20:../cleanflight/src/main/drivers/vtx_common.c **** 
  21:../cleanflight/src/main/drivers/vtx_common.c **** /* Created by jflyper */
  22:../cleanflight/src/main/drivers/vtx_common.c **** 
  23:../cleanflight/src/main/drivers/vtx_common.c **** #include <stdbool.h>
  24:../cleanflight/src/main/drivers/vtx_common.c **** #include <stdint.h>
  25:../cleanflight/src/main/drivers/vtx_common.c **** #include <ctype.h>
  26:../cleanflight/src/main/drivers/vtx_common.c **** #include <string.h>
  27:../cleanflight/src/main/drivers/vtx_common.c **** 
  28:../cleanflight/src/main/drivers/vtx_common.c **** #include "platform.h"
  29:../cleanflight/src/main/drivers/vtx_common.c **** 
  30:../cleanflight/src/main/drivers/vtx_common.c **** #if defined(USE_VTX_COMMON)
  31:../cleanflight/src/main/drivers/vtx_common.c **** 
  32:../cleanflight/src/main/drivers/vtx_common.c **** #include "common/time.h"
  33:../cleanflight/src/main/drivers/vtx_common.c **** #include "drivers/vtx_common.h"
  34:../cleanflight/src/main/drivers/vtx_common.c **** 
  35:../cleanflight/src/main/drivers/vtx_common.c **** 
  36:../cleanflight/src/main/drivers/vtx_common.c **** static vtxDevice_t *vtxDevice = NULL;
  37:../cleanflight/src/main/drivers/vtx_common.c **** 
  38:../cleanflight/src/main/drivers/vtx_common.c **** void vtxCommonInit(void)
  39:../cleanflight/src/main/drivers/vtx_common.c **** {
  34              	 .loc 1 39 0
  35              	 .cfi_startproc
  36              	 
  37              	 
  38              	 
  39 0000 80B4     	 push {r7}
  40              	.LCFI0:
  41              	 .cfi_def_cfa_offset 4
  42              	 .cfi_offset 7,-4
  43 0002 00AF     	 add r7,sp,#0
  44              	.LCFI1:
  45              	 .cfi_def_cfa_register 7
  40:../cleanflight/src/main/drivers/vtx_common.c **** }
  46              	 .loc 1 40 0
  47 0004 BD46     	 mov sp,r7
  48              	.LCFI2:
  49              	 .cfi_def_cfa_register 13
  50              	 
  51 0006 5DF8047B 	 ldr r7,[sp],#4
  52              	.LCFI3:
  53              	 .cfi_restore 7
  54              	 .cfi_def_cfa_offset 0
  55 000a 7047     	 bx lr
  56              	 .cfi_endproc
  57              	.LFE527:
  59              	 .section .text.vtxCommonSetDevice,"ax",%progbits
  60              	 .align 2
  61              	 .global vtxCommonSetDevice
  62              	 .thumb
  63              	 .thumb_func
  65              	vtxCommonSetDevice:
  66              	.LFB528:
  41:../cleanflight/src/main/drivers/vtx_common.c **** 
  42:../cleanflight/src/main/drivers/vtx_common.c **** void vtxCommonSetDevice(vtxDevice_t *pDevice)
  43:../cleanflight/src/main/drivers/vtx_common.c **** {
  67              	 .loc 1 43 0
  68              	 .cfi_startproc
  69              	 
  70              	 
  71              	 
  72 0000 80B4     	 push {r7}
  73              	.LCFI4:
  74              	 .cfi_def_cfa_offset 4
  75              	 .cfi_offset 7,-4
  76 0002 83B0     	 sub sp,sp,#12
  77              	.LCFI5:
  78              	 .cfi_def_cfa_offset 16
  79 0004 00AF     	 add r7,sp,#0
  80              	.LCFI6:
  81              	 .cfi_def_cfa_register 7
  82 0006 7860     	 str r0,[r7,#4]
  44:../cleanflight/src/main/drivers/vtx_common.c ****     vtxDevice = pDevice;
  83              	 .loc 1 44 0
  84 0008 034A     	 ldr r2,.L3
  85 000a 7B68     	 ldr r3,[r7,#4]
  86 000c 1360     	 str r3,[r2]
  45:../cleanflight/src/main/drivers/vtx_common.c **** }
  87              	 .loc 1 45 0
  88 000e 0C37     	 adds r7,r7,#12
  89              	.LCFI7:
  90              	 .cfi_def_cfa_offset 4
  91 0010 BD46     	 mov sp,r7
  92              	.LCFI8:
  93              	 .cfi_def_cfa_register 13
  94              	 
  95 0012 5DF8047B 	 ldr r7,[sp],#4
  96              	.LCFI9:
  97              	 .cfi_restore 7
  98              	 .cfi_def_cfa_offset 0
  99 0016 7047     	 bx lr
 100              	.L4:
 101              	 .align 2
 102              	.L3:
 103 0018 00000000 	 .word vtxDevice
 104              	 .cfi_endproc
 105              	.LFE528:
 107              	 .section .text.vtxCommonDevice,"ax",%progbits
 108              	 .align 2
 109              	 .global vtxCommonDevice
 110              	 .thumb
 111              	 .thumb_func
 113              	vtxCommonDevice:
 114              	.LFB529:
  46:../cleanflight/src/main/drivers/vtx_common.c **** 
  47:../cleanflight/src/main/drivers/vtx_common.c **** vtxDevice_t *vtxCommonDevice(void)
  48:../cleanflight/src/main/drivers/vtx_common.c **** {
 115              	 .loc 1 48 0
 116              	 .cfi_startproc
 117              	 
 118              	 
 119              	 
 120 0000 80B4     	 push {r7}
 121              	.LCFI10:
 122              	 .cfi_def_cfa_offset 4
 123              	 .cfi_offset 7,-4
 124 0002 00AF     	 add r7,sp,#0
 125              	.LCFI11:
 126              	 .cfi_def_cfa_register 7
  49:../cleanflight/src/main/drivers/vtx_common.c ****     return vtxDevice;
 127              	 .loc 1 49 0
 128 0004 034B     	 ldr r3,.L7
 129 0006 1B68     	 ldr r3,[r3]
  50:../cleanflight/src/main/drivers/vtx_common.c **** }
 130              	 .loc 1 50 0
 131 0008 1846     	 mov r0,r3
 132 000a BD46     	 mov sp,r7
 133              	.LCFI12:
 134              	 .cfi_def_cfa_register 13
 135              	 
 136 000c 5DF8047B 	 ldr r7,[sp],#4
 137              	.LCFI13:
 138              	 .cfi_restore 7
 139              	 .cfi_def_cfa_offset 0
 140 0010 7047     	 bx lr
 141              	.L8:
 142 0012 00BF     	 .align 2
 143              	.L7:
 144 0014 00000000 	 .word vtxDevice
 145              	 .cfi_endproc
 146              	.LFE529:
 148              	 .section .text.vtxCommonGetDeviceType,"ax",%progbits
 149              	 .align 2
 150              	 .global vtxCommonGetDeviceType
 151              	 .thumb
 152              	 .thumb_func
 154              	vtxCommonGetDeviceType:
 155              	.LFB530:
  51:../cleanflight/src/main/drivers/vtx_common.c **** 
  52:../cleanflight/src/main/drivers/vtx_common.c **** vtxDevType_e vtxCommonGetDeviceType(const vtxDevice_t *vtxDevice)
  53:../cleanflight/src/main/drivers/vtx_common.c **** {
 156              	 .loc 1 53 0
 157              	 .cfi_startproc
 158              	 
 159              	 
 160 0000 80B5     	 push {r7,lr}
 161              	.LCFI14:
 162              	 .cfi_def_cfa_offset 8
 163              	 .cfi_offset 7,-8
 164              	 .cfi_offset 14,-4
 165 0002 82B0     	 sub sp,sp,#8
 166              	.LCFI15:
 167              	 .cfi_def_cfa_offset 16
 168 0004 00AF     	 add r7,sp,#0
 169              	.LCFI16:
 170              	 .cfi_def_cfa_register 7
 171 0006 7860     	 str r0,[r7,#4]
  54:../cleanflight/src/main/drivers/vtx_common.c ****     if (!vtxDevice) {
 172              	 .loc 1 54 0
 173 0008 7B68     	 ldr r3,[r7,#4]
 174 000a 002B     	 cmp r3,#0
 175 000c 01D1     	 bne .L10
  55:../cleanflight/src/main/drivers/vtx_common.c ****         return VTXDEV_UNKNOWN;
 176              	 .loc 1 55 0
 177 000e FF23     	 movs r3,#255
 178 0010 05E0     	 b .L11
 179              	.L10:
  56:../cleanflight/src/main/drivers/vtx_common.c ****     }
  57:../cleanflight/src/main/drivers/vtx_common.c ****     return vtxDevice->vTable->getDeviceType(vtxDevice);
 180              	 .loc 1 57 0
 181 0012 7B68     	 ldr r3,[r7,#4]
 182 0014 1B68     	 ldr r3,[r3]
 183 0016 5B68     	 ldr r3,[r3,#4]
 184 0018 7868     	 ldr r0,[r7,#4]
 185 001a 9847     	 blx r3
 186 001c 0346     	 mov r3,r0
 187              	.L11:
  58:../cleanflight/src/main/drivers/vtx_common.c **** }
 188              	 .loc 1 58 0
 189 001e 1846     	 mov r0,r3
 190 0020 0837     	 adds r7,r7,#8
 191              	.LCFI17:
 192              	 .cfi_def_cfa_offset 8
 193 0022 BD46     	 mov sp,r7
 194              	.LCFI18:
 195              	 .cfi_def_cfa_register 13
 196              	 
 197 0024 80BD     	 pop {r7,pc}
 198              	 .cfi_endproc
 199              	.LFE530:
 201 0026 00BF     	 .section .text.vtxCommonProcess,"ax",%progbits
 202              	 .align 2
 203              	 .global vtxCommonProcess
 204              	 .thumb
 205              	 .thumb_func
 207              	vtxCommonProcess:
 208              	.LFB531:
  59:../cleanflight/src/main/drivers/vtx_common.c **** 
  60:../cleanflight/src/main/drivers/vtx_common.c **** void vtxCommonProcess(vtxDevice_t *vtxDevice, timeUs_t currentTimeUs)
  61:../cleanflight/src/main/drivers/vtx_common.c **** {
 209              	 .loc 1 61 0
 210              	 .cfi_startproc
 211              	 
 212              	 
 213 0000 80B5     	 push {r7,lr}
 214              	.LCFI19:
 215              	 .cfi_def_cfa_offset 8
 216              	 .cfi_offset 7,-8
 217              	 .cfi_offset 14,-4
 218 0002 82B0     	 sub sp,sp,#8
 219              	.LCFI20:
 220              	 .cfi_def_cfa_offset 16
 221 0004 00AF     	 add r7,sp,#0
 222              	.LCFI21:
 223              	 .cfi_def_cfa_register 7
 224 0006 7860     	 str r0,[r7,#4]
 225 0008 3960     	 str r1,[r7]
  62:../cleanflight/src/main/drivers/vtx_common.c ****     if (vtxDevice) {
 226              	 .loc 1 62 0
 227 000a 7B68     	 ldr r3,[r7,#4]
 228 000c 002B     	 cmp r3,#0
 229 000e 05D0     	 beq .L12
  63:../cleanflight/src/main/drivers/vtx_common.c ****         vtxDevice->vTable->process(vtxDevice, currentTimeUs);
 230              	 .loc 1 63 0
 231 0010 7B68     	 ldr r3,[r7,#4]
 232 0012 1B68     	 ldr r3,[r3]
 233 0014 1B68     	 ldr r3,[r3]
 234 0016 7868     	 ldr r0,[r7,#4]
 235 0018 3968     	 ldr r1,[r7]
 236 001a 9847     	 blx r3
 237              	.L12:
  64:../cleanflight/src/main/drivers/vtx_common.c ****     }
  65:../cleanflight/src/main/drivers/vtx_common.c **** }
 238              	 .loc 1 65 0
 239 001c 0837     	 adds r7,r7,#8
 240              	.LCFI22:
 241              	 .cfi_def_cfa_offset 8
 242 001e BD46     	 mov sp,r7
 243              	.LCFI23:
 244              	 .cfi_def_cfa_register 13
 245              	 
 246 0020 80BD     	 pop {r7,pc}
 247              	 .cfi_endproc
 248              	.LFE531:
 250 0022 00BF     	 .section .text.vtxCommonSetBandAndChannel,"ax",%progbits
 251              	 .align 2
 252              	 .global vtxCommonSetBandAndChannel
 253              	 .thumb
 254              	 .thumb_func
 256              	vtxCommonSetBandAndChannel:
 257              	.LFB532:
  66:../cleanflight/src/main/drivers/vtx_common.c **** 
  67:../cleanflight/src/main/drivers/vtx_common.c **** // band and channel are 1 origin
  68:../cleanflight/src/main/drivers/vtx_common.c **** void vtxCommonSetBandAndChannel(vtxDevice_t *vtxDevice, uint8_t band, uint8_t channel)
  69:../cleanflight/src/main/drivers/vtx_common.c **** {
 258              	 .loc 1 69 0
 259              	 .cfi_startproc
 260              	 
 261              	 
 262 0000 80B5     	 push {r7,lr}
 263              	.LCFI24:
 264              	 .cfi_def_cfa_offset 8
 265              	 .cfi_offset 7,-8
 266              	 .cfi_offset 14,-4
 267 0002 82B0     	 sub sp,sp,#8
 268              	.LCFI25:
 269              	 .cfi_def_cfa_offset 16
 270 0004 00AF     	 add r7,sp,#0
 271              	.LCFI26:
 272              	 .cfi_def_cfa_register 7
 273 0006 7860     	 str r0,[r7,#4]
 274 0008 0B46     	 mov r3,r1
 275 000a FB70     	 strb r3,[r7,#3]
 276 000c 1346     	 mov r3,r2
 277 000e BB70     	 strb r3,[r7,#2]
  70:../cleanflight/src/main/drivers/vtx_common.c ****     if (band <= vtxDevice->capability.bandCount && channel <= vtxDevice->capability.channelCount) {
 278              	 .loc 1 70 0
 279 0010 7B68     	 ldr r3,[r7,#4]
 280 0012 1B79     	 ldrb r3,[r3,#4]
 281 0014 FA78     	 ldrb r2,[r7,#3]
 282 0016 9A42     	 cmp r2,r3
 283 0018 0BD8     	 bhi .L14
 284              	 .loc 1 70 0 is_stmt 0 discriminator 1
 285 001a 7B68     	 ldr r3,[r7,#4]
 286 001c 5B79     	 ldrb r3,[r3,#5]
 287 001e BA78     	 ldrb r2,[r7,#2]
 288 0020 9A42     	 cmp r2,r3
 289 0022 06D8     	 bhi .L14
  71:../cleanflight/src/main/drivers/vtx_common.c ****         vtxDevice->vTable->setBandAndChannel(vtxDevice, band, channel);
 290              	 .loc 1 71 0 is_stmt 1
 291 0024 7B68     	 ldr r3,[r7,#4]
 292 0026 1B68     	 ldr r3,[r3]
 293 0028 DB68     	 ldr r3,[r3,#12]
 294 002a F978     	 ldrb r1,[r7,#3]
 295 002c BA78     	 ldrb r2,[r7,#2]
 296 002e 7868     	 ldr r0,[r7,#4]
 297 0030 9847     	 blx r3
 298              	.L14:
  72:../cleanflight/src/main/drivers/vtx_common.c ****     }
  73:../cleanflight/src/main/drivers/vtx_common.c **** }
 299              	 .loc 1 73 0
 300 0032 0837     	 adds r7,r7,#8
 301              	.LCFI27:
 302              	 .cfi_def_cfa_offset 8
 303 0034 BD46     	 mov sp,r7
 304              	.LCFI28:
 305              	 .cfi_def_cfa_register 13
 306              	 
 307 0036 80BD     	 pop {r7,pc}
 308              	 .cfi_endproc
 309              	.LFE532:
 311              	 .section .text.vtxCommonSetPowerByIndex,"ax",%progbits
 312              	 .align 2
 313              	 .global vtxCommonSetPowerByIndex
 314              	 .thumb
 315              	 .thumb_func
 317              	vtxCommonSetPowerByIndex:
 318              	.LFB533:
  74:../cleanflight/src/main/drivers/vtx_common.c **** 
  75:../cleanflight/src/main/drivers/vtx_common.c **** // index is zero origin, zero = power off completely
  76:../cleanflight/src/main/drivers/vtx_common.c **** void vtxCommonSetPowerByIndex(vtxDevice_t *vtxDevice, uint8_t index)
  77:../cleanflight/src/main/drivers/vtx_common.c **** {
 319              	 .loc 1 77 0
 320              	 .cfi_startproc
 321              	 
 322              	 
 323 0000 80B5     	 push {r7,lr}
 324              	.LCFI29:
 325              	 .cfi_def_cfa_offset 8
 326              	 .cfi_offset 7,-8
 327              	 .cfi_offset 14,-4
 328 0002 82B0     	 sub sp,sp,#8
 329              	.LCFI30:
 330              	 .cfi_def_cfa_offset 16
 331 0004 00AF     	 add r7,sp,#0
 332              	.LCFI31:
 333              	 .cfi_def_cfa_register 7
 334 0006 7860     	 str r0,[r7,#4]
 335 0008 0B46     	 mov r3,r1
 336 000a FB70     	 strb r3,[r7,#3]
  78:../cleanflight/src/main/drivers/vtx_common.c ****     if (index <= vtxDevice->capability.powerCount) {
 337              	 .loc 1 78 0
 338 000c 7B68     	 ldr r3,[r7,#4]
 339 000e 9B79     	 ldrb r3,[r3,#6]
 340 0010 FA78     	 ldrb r2,[r7,#3]
 341 0012 9A42     	 cmp r2,r3
 342 0014 06D8     	 bhi .L16
  79:../cleanflight/src/main/drivers/vtx_common.c ****         vtxDevice->vTable->setPowerByIndex(vtxDevice, index);
 343              	 .loc 1 79 0
 344 0016 7B68     	 ldr r3,[r7,#4]
 345 0018 1B68     	 ldr r3,[r3]
 346 001a 1B69     	 ldr r3,[r3,#16]
 347 001c FA78     	 ldrb r2,[r7,#3]
 348 001e 7868     	 ldr r0,[r7,#4]
 349 0020 1146     	 mov r1,r2
 350 0022 9847     	 blx r3
 351              	.L16:
  80:../cleanflight/src/main/drivers/vtx_common.c ****     }
  81:../cleanflight/src/main/drivers/vtx_common.c **** }
 352              	 .loc 1 81 0
 353 0024 0837     	 adds r7,r7,#8
 354              	.LCFI32:
 355              	 .cfi_def_cfa_offset 8
 356 0026 BD46     	 mov sp,r7
 357              	.LCFI33:
 358              	 .cfi_def_cfa_register 13
 359              	 
 360 0028 80BD     	 pop {r7,pc}
 361              	 .cfi_endproc
 362              	.LFE533:
 364 002a 00BF     	 .section .text.vtxCommonSetPitMode,"ax",%progbits
 365              	 .align 2
 366              	 .global vtxCommonSetPitMode
 367              	 .thumb
 368              	 .thumb_func
 370              	vtxCommonSetPitMode:
 371              	.LFB534:
  82:../cleanflight/src/main/drivers/vtx_common.c **** 
  83:../cleanflight/src/main/drivers/vtx_common.c **** // on = 1, off = 0
  84:../cleanflight/src/main/drivers/vtx_common.c **** void vtxCommonSetPitMode(vtxDevice_t *vtxDevice, uint8_t onOff)
  85:../cleanflight/src/main/drivers/vtx_common.c **** {
 372              	 .loc 1 85 0
 373              	 .cfi_startproc
 374              	 
 375              	 
 376 0000 80B5     	 push {r7,lr}
 377              	.LCFI34:
 378              	 .cfi_def_cfa_offset 8
 379              	 .cfi_offset 7,-8
 380              	 .cfi_offset 14,-4
 381 0002 82B0     	 sub sp,sp,#8
 382              	.LCFI35:
 383              	 .cfi_def_cfa_offset 16
 384 0004 00AF     	 add r7,sp,#0
 385              	.LCFI36:
 386              	 .cfi_def_cfa_register 7
 387 0006 7860     	 str r0,[r7,#4]
 388 0008 0B46     	 mov r3,r1
 389 000a FB70     	 strb r3,[r7,#3]
  86:../cleanflight/src/main/drivers/vtx_common.c ****     vtxDevice->vTable->setPitMode(vtxDevice, onOff);
 390              	 .loc 1 86 0
 391 000c 7B68     	 ldr r3,[r7,#4]
 392 000e 1B68     	 ldr r3,[r3]
 393 0010 5B69     	 ldr r3,[r3,#20]
 394 0012 FA78     	 ldrb r2,[r7,#3]
 395 0014 7868     	 ldr r0,[r7,#4]
 396 0016 1146     	 mov r1,r2
 397 0018 9847     	 blx r3
  87:../cleanflight/src/main/drivers/vtx_common.c **** }
 398              	 .loc 1 87 0
 399 001a 0837     	 adds r7,r7,#8
 400              	.LCFI37:
 401              	 .cfi_def_cfa_offset 8
 402 001c BD46     	 mov sp,r7
 403              	.LCFI38:
 404              	 .cfi_def_cfa_register 13
 405              	 
 406 001e 80BD     	 pop {r7,pc}
 407              	 .cfi_endproc
 408              	.LFE534:
 410              	 .section .text.vtxCommonSetFrequency,"ax",%progbits
 411              	 .align 2
 412              	 .global vtxCommonSetFrequency
 413              	 .thumb
 414              	 .thumb_func
 416              	vtxCommonSetFrequency:
 417              	.LFB535:
  88:../cleanflight/src/main/drivers/vtx_common.c **** 
  89:../cleanflight/src/main/drivers/vtx_common.c **** void vtxCommonSetFrequency(vtxDevice_t *vtxDevice, uint16_t frequency)
  90:../cleanflight/src/main/drivers/vtx_common.c **** {
 418              	 .loc 1 90 0
 419              	 .cfi_startproc
 420              	 
 421              	 
 422 0000 80B5     	 push {r7,lr}
 423              	.LCFI39:
 424              	 .cfi_def_cfa_offset 8
 425              	 .cfi_offset 7,-8
 426              	 .cfi_offset 14,-4
 427 0002 82B0     	 sub sp,sp,#8
 428              	.LCFI40:
 429              	 .cfi_def_cfa_offset 16
 430 0004 00AF     	 add r7,sp,#0
 431              	.LCFI41:
 432              	 .cfi_def_cfa_register 7
 433 0006 7860     	 str r0,[r7,#4]
 434 0008 0B46     	 mov r3,r1
 435 000a 7B80     	 strh r3,[r7,#2]
  91:../cleanflight/src/main/drivers/vtx_common.c ****     vtxDevice->vTable->setFrequency(vtxDevice, frequency);
 436              	 .loc 1 91 0
 437 000c 7B68     	 ldr r3,[r7,#4]
 438 000e 1B68     	 ldr r3,[r3]
 439 0010 9B69     	 ldr r3,[r3,#24]
 440 0012 7A88     	 ldrh r2,[r7,#2]
 441 0014 7868     	 ldr r0,[r7,#4]
 442 0016 1146     	 mov r1,r2
 443 0018 9847     	 blx r3
  92:../cleanflight/src/main/drivers/vtx_common.c **** }
 444              	 .loc 1 92 0
 445 001a 0837     	 adds r7,r7,#8
 446              	.LCFI42:
 447              	 .cfi_def_cfa_offset 8
 448 001c BD46     	 mov sp,r7
 449              	.LCFI43:
 450              	 .cfi_def_cfa_register 13
 451              	 
 452 001e 80BD     	 pop {r7,pc}
 453              	 .cfi_endproc
 454              	.LFE535:
 456              	 .section .text.vtxCommonGetBandAndChannel,"ax",%progbits
 457              	 .align 2
 458              	 .global vtxCommonGetBandAndChannel
 459              	 .thumb
 460              	 .thumb_func
 462              	vtxCommonGetBandAndChannel:
 463              	.LFB536:
  93:../cleanflight/src/main/drivers/vtx_common.c **** 
  94:../cleanflight/src/main/drivers/vtx_common.c **** bool vtxCommonGetBandAndChannel(const vtxDevice_t *vtxDevice, uint8_t *pBand, uint8_t *pChannel)
  95:../cleanflight/src/main/drivers/vtx_common.c **** {
 464              	 .loc 1 95 0
 465              	 .cfi_startproc
 466              	 
 467              	 
 468 0000 80B5     	 push {r7,lr}
 469              	.LCFI44:
 470              	 .cfi_def_cfa_offset 8
 471              	 .cfi_offset 7,-8
 472              	 .cfi_offset 14,-4
 473 0002 84B0     	 sub sp,sp,#16
 474              	.LCFI45:
 475              	 .cfi_def_cfa_offset 24
 476 0004 00AF     	 add r7,sp,#0
 477              	.LCFI46:
 478              	 .cfi_def_cfa_register 7
 479 0006 F860     	 str r0,[r7,#12]
 480 0008 B960     	 str r1,[r7,#8]
 481 000a 7A60     	 str r2,[r7,#4]
  96:../cleanflight/src/main/drivers/vtx_common.c ****     return vtxDevice->vTable->getBandAndChannel(vtxDevice, pBand, pChannel);
 482              	 .loc 1 96 0
 483 000c FB68     	 ldr r3,[r7,#12]
 484 000e 1B68     	 ldr r3,[r3]
 485 0010 DB69     	 ldr r3,[r3,#28]
 486 0012 F868     	 ldr r0,[r7,#12]
 487 0014 B968     	 ldr r1,[r7,#8]
 488 0016 7A68     	 ldr r2,[r7,#4]
 489 0018 9847     	 blx r3
 490 001a 0346     	 mov r3,r0
  97:../cleanflight/src/main/drivers/vtx_common.c **** }
 491              	 .loc 1 97 0
 492 001c 1846     	 mov r0,r3
 493 001e 1037     	 adds r7,r7,#16
 494              	.LCFI47:
 495              	 .cfi_def_cfa_offset 8
 496 0020 BD46     	 mov sp,r7
 497              	.LCFI48:
 498              	 .cfi_def_cfa_register 13
 499              	 
 500 0022 80BD     	 pop {r7,pc}
 501              	 .cfi_endproc
 502              	.LFE536:
 504              	 .section .text.vtxCommonGetPowerIndex,"ax",%progbits
 505              	 .align 2
 506              	 .global vtxCommonGetPowerIndex
 507              	 .thumb
 508              	 .thumb_func
 510              	vtxCommonGetPowerIndex:
 511              	.LFB537:
  98:../cleanflight/src/main/drivers/vtx_common.c **** 
  99:../cleanflight/src/main/drivers/vtx_common.c **** bool vtxCommonGetPowerIndex(const vtxDevice_t *vtxDevice, uint8_t *pIndex)
 100:../cleanflight/src/main/drivers/vtx_common.c **** {
 512              	 .loc 1 100 0
 513              	 .cfi_startproc
 514              	 
 515              	 
 516 0000 80B5     	 push {r7,lr}
 517              	.LCFI49:
 518              	 .cfi_def_cfa_offset 8
 519              	 .cfi_offset 7,-8
 520              	 .cfi_offset 14,-4
 521 0002 82B0     	 sub sp,sp,#8
 522              	.LCFI50:
 523              	 .cfi_def_cfa_offset 16
 524 0004 00AF     	 add r7,sp,#0
 525              	.LCFI51:
 526              	 .cfi_def_cfa_register 7
 527 0006 7860     	 str r0,[r7,#4]
 528 0008 3960     	 str r1,[r7]
 101:../cleanflight/src/main/drivers/vtx_common.c ****     return vtxDevice->vTable->getPowerIndex(vtxDevice, pIndex);
 529              	 .loc 1 101 0
 530 000a 7B68     	 ldr r3,[r7,#4]
 531 000c 1B68     	 ldr r3,[r3]
 532 000e 1B6A     	 ldr r3,[r3,#32]
 533 0010 7868     	 ldr r0,[r7,#4]
 534 0012 3968     	 ldr r1,[r7]
 535 0014 9847     	 blx r3
 536 0016 0346     	 mov r3,r0
 102:../cleanflight/src/main/drivers/vtx_common.c **** }
 537              	 .loc 1 102 0
 538 0018 1846     	 mov r0,r3
 539 001a 0837     	 adds r7,r7,#8
 540              	.LCFI52:
 541              	 .cfi_def_cfa_offset 8
 542 001c BD46     	 mov sp,r7
 543              	.LCFI53:
 544              	 .cfi_def_cfa_register 13
 545              	 
 546 001e 80BD     	 pop {r7,pc}
 547              	 .cfi_endproc
 548              	.LFE537:
 550              	 .section .text.vtxCommonGetPitMode,"ax",%progbits
 551              	 .align 2
 552              	 .global vtxCommonGetPitMode
 553              	 .thumb
 554              	 .thumb_func
 556              	vtxCommonGetPitMode:
 557              	.LFB538:
 103:../cleanflight/src/main/drivers/vtx_common.c **** 
 104:../cleanflight/src/main/drivers/vtx_common.c **** bool vtxCommonGetPitMode(const vtxDevice_t *vtxDevice, uint8_t *pOnOff)
 105:../cleanflight/src/main/drivers/vtx_common.c **** {
 558              	 .loc 1 105 0
 559              	 .cfi_startproc
 560              	 
 561              	 
 562 0000 80B5     	 push {r7,lr}
 563              	.LCFI54:
 564              	 .cfi_def_cfa_offset 8
 565              	 .cfi_offset 7,-8
 566              	 .cfi_offset 14,-4
 567 0002 82B0     	 sub sp,sp,#8
 568              	.LCFI55:
 569              	 .cfi_def_cfa_offset 16
 570 0004 00AF     	 add r7,sp,#0
 571              	.LCFI56:
 572              	 .cfi_def_cfa_register 7
 573 0006 7860     	 str r0,[r7,#4]
 574 0008 3960     	 str r1,[r7]
 106:../cleanflight/src/main/drivers/vtx_common.c ****     return vtxDevice->vTable->getPitMode(vtxDevice, pOnOff);
 575              	 .loc 1 106 0
 576 000a 7B68     	 ldr r3,[r7,#4]
 577 000c 1B68     	 ldr r3,[r3]
 578 000e 5B6A     	 ldr r3,[r3,#36]
 579 0010 7868     	 ldr r0,[r7,#4]
 580 0012 3968     	 ldr r1,[r7]
 581 0014 9847     	 blx r3
 582 0016 0346     	 mov r3,r0
 107:../cleanflight/src/main/drivers/vtx_common.c **** }
 583              	 .loc 1 107 0
 584 0018 1846     	 mov r0,r3
 585 001a 0837     	 adds r7,r7,#8
 586              	.LCFI57:
 587              	 .cfi_def_cfa_offset 8
 588 001c BD46     	 mov sp,r7
 589              	.LCFI58:
 590              	 .cfi_def_cfa_register 13
 591              	 
 592 001e 80BD     	 pop {r7,pc}
 593              	 .cfi_endproc
 594              	.LFE538:
 596              	 .section .text.vtxCommonGetFrequency,"ax",%progbits
 597              	 .align 2
 598              	 .global vtxCommonGetFrequency
 599              	 .thumb
 600              	 .thumb_func
 602              	vtxCommonGetFrequency:
 603              	.LFB539:
 108:../cleanflight/src/main/drivers/vtx_common.c **** 
 109:../cleanflight/src/main/drivers/vtx_common.c **** bool vtxCommonGetFrequency(const vtxDevice_t *vtxDevice, uint16_t *pFrequency)
 110:../cleanflight/src/main/drivers/vtx_common.c **** {
 604              	 .loc 1 110 0
 605              	 .cfi_startproc
 606              	 
 607              	 
 608 0000 80B5     	 push {r7,lr}
 609              	.LCFI59:
 610              	 .cfi_def_cfa_offset 8
 611              	 .cfi_offset 7,-8
 612              	 .cfi_offset 14,-4
 613 0002 82B0     	 sub sp,sp,#8
 614              	.LCFI60:
 615              	 .cfi_def_cfa_offset 16
 616 0004 00AF     	 add r7,sp,#0
 617              	.LCFI61:
 618              	 .cfi_def_cfa_register 7
 619 0006 7860     	 str r0,[r7,#4]
 620 0008 3960     	 str r1,[r7]
 111:../cleanflight/src/main/drivers/vtx_common.c ****     return vtxDevice->vTable->getFrequency(vtxDevice, pFrequency);
 621              	 .loc 1 111 0
 622 000a 7B68     	 ldr r3,[r7,#4]
 623 000c 1B68     	 ldr r3,[r3]
 624 000e 9B6A     	 ldr r3,[r3,#40]
 625 0010 7868     	 ldr r0,[r7,#4]
 626 0012 3968     	 ldr r1,[r7]
 627 0014 9847     	 blx r3
 628 0016 0346     	 mov r3,r0
 112:../cleanflight/src/main/drivers/vtx_common.c **** }
 629              	 .loc 1 112 0
 630 0018 1846     	 mov r0,r3
 631 001a 0837     	 adds r7,r7,#8
 632              	.LCFI62:
 633              	 .cfi_def_cfa_offset 8
 634 001c BD46     	 mov sp,r7
 635              	.LCFI63:
 636              	 .cfi_def_cfa_register 13
 637              	 
 638 001e 80BD     	 pop {r7,pc}
 639              	 .cfi_endproc
 640              	.LFE539:
 642              	 .section .text.vtxCommonGetDeviceCapability,"ax",%progbits
 643              	 .align 2
 644              	 .global vtxCommonGetDeviceCapability
 645              	 .thumb
 646              	 .thumb_func
 648              	vtxCommonGetDeviceCapability:
 649              	.LFB540:
 113:../cleanflight/src/main/drivers/vtx_common.c **** 
 114:../cleanflight/src/main/drivers/vtx_common.c **** bool vtxCommonGetDeviceCapability(const vtxDevice_t *vtxDevice, vtxDeviceCapability_t *pDeviceCapab
 115:../cleanflight/src/main/drivers/vtx_common.c **** {
 650              	 .loc 1 115 0
 651              	 .cfi_startproc
 652              	 
 653              	 
 654 0000 80B5     	 push {r7,lr}
 655              	.LCFI64:
 656              	 .cfi_def_cfa_offset 8
 657              	 .cfi_offset 7,-8
 658              	 .cfi_offset 14,-4
 659 0002 82B0     	 sub sp,sp,#8
 660              	.LCFI65:
 661              	 .cfi_def_cfa_offset 16
 662 0004 00AF     	 add r7,sp,#0
 663              	.LCFI66:
 664              	 .cfi_def_cfa_register 7
 665 0006 7860     	 str r0,[r7,#4]
 666 0008 3960     	 str r1,[r7]
 116:../cleanflight/src/main/drivers/vtx_common.c ****     memcpy(pDeviceCapability, &vtxDevice->capability, sizeof(vtxDeviceCapability_t));
 667              	 .loc 1 116 0
 668 000a 7B68     	 ldr r3,[r7,#4]
 669 000c 0433     	 adds r3,r3,#4
 670 000e 3868     	 ldr r0,[r7]
 671 0010 1946     	 mov r1,r3
 672 0012 0422     	 movs r2,#4
 673 0014 FFF7FEFF 	 bl memcpy
 117:../cleanflight/src/main/drivers/vtx_common.c ****     return true;
 674              	 .loc 1 117 0
 675 0018 0123     	 movs r3,#1
 118:../cleanflight/src/main/drivers/vtx_common.c **** }
 676              	 .loc 1 118 0
 677 001a 1846     	 mov r0,r3
 678 001c 0837     	 adds r7,r7,#8
 679              	.LCFI67:
 680              	 .cfi_def_cfa_offset 8
 681 001e BD46     	 mov sp,r7
 682              	.LCFI68:
 683              	 .cfi_def_cfa_register 13
 684              	 
 685 0020 80BD     	 pop {r7,pc}
 686              	 .cfi_endproc
 687              	.LFE540:
 689 0022 00BF     	 .text
 690              	.Letext0:
 691              	 .file 2 "d:\\xmc\\dave-ide-4.4.2-64bit\\eclipse\\arm-gcc-49\\arm-none-eabi\\include\\machine\\_default_types.h"
 692              	 .file 3 "d:\\xmc\\dave-ide-4.4.2-64bit\\eclipse\\arm-gcc-49\\arm-none-eabi\\include\\stdint.h"
 693              	 .file 4 "D:/XMC/Projekte/Temp/CF_XMC4700/cleanflight/lib/main/XMC4000/XMCLib/inc/xmc_usic.h"
 694              	 .file 5 "D:/XMC/Projekte/Temp/CF_XMC4700/cleanflight/src/main/common/time.h"
 695              	 .file 6 "D:/XMC/Projekte/Temp/CF_XMC4700/cleanflight/src/main/drivers/vtx_common.h"
 696              	 .file 7 "D:/XMC/Projekte/Temp/CF_XMC4700/cleanflight/lib/main/CMSIS/Core/Include/core_cm4.h"
 697              	 .file 8 "D:/XMC/Projekte/Temp/CF_XMC4700/cleanflight/lib/main/XMC4000/system_XMC4700.h"