   1              	 .syntax unified
   2              	 .cpu cortex-m4
   3              	 .eabi_attribute 27,3
   4              	 .fpu fpv4-sp-d16
   5              	 .eabi_attribute 20,1
   6              	 .eabi_attribute 21,1
   7              	 .eabi_attribute 23,3
   8              	 .eabi_attribute 24,1
   9              	 .eabi_attribute 25,1
  10              	 .eabi_attribute 26,1
  11              	 .eabi_attribute 30,6
  12              	 .eabi_attribute 34,1
  13              	 .eabi_attribute 18,4
  14              	 .thumb
  15              	 .file "cli.c"
  16              	 .text
  17              	.Ltext0:
  18              	 .cfi_sections .debug_frame
  19              	 .global cliMode
  20              	 .section .bss.cliMode,"aw",%nobits
  23              	cliMode:
  24 0000 00       	 .space 1
  25              	 .comm pCurrentDisplay,4,4
  26              	 .section .text.constrain,"ax",%progbits
  27              	 .align 2
  28              	 .thumb
  29              	 .thumb_func
  31              	constrain:
  32              	.LFB529:
  33              	 .file 1 "D:/XMC/Projekte/Temp/CF_XMC4700/cleanflight/src/main/common/maths.h"
   1:D:/XMC/Projekte/Temp/CF_XMC4700/cleanflight/src/main/common\maths.h **** /*
   2:D:/XMC/Projekte/Temp/CF_XMC4700/cleanflight/src/main/common\maths.h ****  * This file is part of Cleanflight and Betaflight.
   3:D:/XMC/Projekte/Temp/CF_XMC4700/cleanflight/src/main/common\maths.h ****  *
   4:D:/XMC/Projekte/Temp/CF_XMC4700/cleanflight/src/main/common\maths.h ****  * Cleanflight and Betaflight are free software. You can redistribute
   5:D:/XMC/Projekte/Temp/CF_XMC4700/cleanflight/src/main/common\maths.h ****  * this software and/or modify this software under the terms of the
   6:D:/XMC/Projekte/Temp/CF_XMC4700/cleanflight/src/main/common\maths.h ****  * GNU General Public License as published by the Free Software
   7:D:/XMC/Projekte/Temp/CF_XMC4700/cleanflight/src/main/common\maths.h ****  * Foundation, either version 3 of the License, or (at your option)
   8:D:/XMC/Projekte/Temp/CF_XMC4700/cleanflight/src/main/common\maths.h ****  * any later version.
   9:D:/XMC/Projekte/Temp/CF_XMC4700/cleanflight/src/main/common\maths.h ****  *
  10:D:/XMC/Projekte/Temp/CF_XMC4700/cleanflight/src/main/common\maths.h ****  * Cleanflight and Betaflight are distributed in the hope that they
  11:D:/XMC/Projekte/Temp/CF_XMC4700/cleanflight/src/main/common\maths.h ****  * will be useful, but WITHOUT ANY WARRANTY; without even the implied
  12:D:/XMC/Projekte/Temp/CF_XMC4700/cleanflight/src/main/common\maths.h ****  * warranty of MERCHANTABILITY or FITNESS FOR A PARTICULAR PURPOSE.
  13:D:/XMC/Projekte/Temp/CF_XMC4700/cleanflight/src/main/common\maths.h ****  * See the GNU General Public License for more details.
  14:D:/XMC/Projekte/Temp/CF_XMC4700/cleanflight/src/main/common\maths.h ****  *
  15:D:/XMC/Projekte/Temp/CF_XMC4700/cleanflight/src/main/common\maths.h ****  * You should have received a copy of the GNU General Public License
  16:D:/XMC/Projekte/Temp/CF_XMC4700/cleanflight/src/main/common\maths.h ****  * along with this software.
  17:D:/XMC/Projekte/Temp/CF_XMC4700/cleanflight/src/main/common\maths.h ****  *
  18:D:/XMC/Projekte/Temp/CF_XMC4700/cleanflight/src/main/common\maths.h ****  * If not, see <http://www.gnu.org/licenses/>.
  19:D:/XMC/Projekte/Temp/CF_XMC4700/cleanflight/src/main/common\maths.h ****  */
  20:D:/XMC/Projekte/Temp/CF_XMC4700/cleanflight/src/main/common\maths.h **** 
  21:D:/XMC/Projekte/Temp/CF_XMC4700/cleanflight/src/main/common\maths.h **** #pragma once
  22:D:/XMC/Projekte/Temp/CF_XMC4700/cleanflight/src/main/common\maths.h **** 
  23:D:/XMC/Projekte/Temp/CF_XMC4700/cleanflight/src/main/common\maths.h **** #include <stdint.h>
  24:D:/XMC/Projekte/Temp/CF_XMC4700/cleanflight/src/main/common\maths.h **** 
  25:D:/XMC/Projekte/Temp/CF_XMC4700/cleanflight/src/main/common\maths.h **** #ifndef sq
  26:D:/XMC/Projekte/Temp/CF_XMC4700/cleanflight/src/main/common\maths.h **** #define sq(x) ((x)*(x))
  27:D:/XMC/Projekte/Temp/CF_XMC4700/cleanflight/src/main/common\maths.h **** #endif
  28:D:/XMC/Projekte/Temp/CF_XMC4700/cleanflight/src/main/common\maths.h **** #define power3(x) ((x)*(x)*(x))
  29:D:/XMC/Projekte/Temp/CF_XMC4700/cleanflight/src/main/common\maths.h **** 
  30:D:/XMC/Projekte/Temp/CF_XMC4700/cleanflight/src/main/common\maths.h **** // Undefine this for use libc sinf/cosf. Keep this defined to use fast sin/cos approximations
  31:D:/XMC/Projekte/Temp/CF_XMC4700/cleanflight/src/main/common\maths.h **** #define FAST_MATH             // order 9 approximation
  32:D:/XMC/Projekte/Temp/CF_XMC4700/cleanflight/src/main/common\maths.h **** #define VERY_FAST_MATH      // order 7 approximation
  33:D:/XMC/Projekte/Temp/CF_XMC4700/cleanflight/src/main/common\maths.h **** 
  34:D:/XMC/Projekte/Temp/CF_XMC4700/cleanflight/src/main/common\maths.h **** // Use floating point M_PI instead explicitly.
  35:D:/XMC/Projekte/Temp/CF_XMC4700/cleanflight/src/main/common\maths.h **** #define M_PIf       3.14159265358979323846f
  36:D:/XMC/Projekte/Temp/CF_XMC4700/cleanflight/src/main/common\maths.h **** 
  37:D:/XMC/Projekte/Temp/CF_XMC4700/cleanflight/src/main/common\maths.h **** #define RAD    (M_PIf / 180.0f)
  38:D:/XMC/Projekte/Temp/CF_XMC4700/cleanflight/src/main/common\maths.h **** #define DEGREES_TO_DECIDEGREES(angle) ((angle) * 10)
  39:D:/XMC/Projekte/Temp/CF_XMC4700/cleanflight/src/main/common\maths.h **** #define DECIDEGREES_TO_DEGREES(angle) ((angle) / 10)
  40:D:/XMC/Projekte/Temp/CF_XMC4700/cleanflight/src/main/common\maths.h **** #define DECIDEGREES_TO_RADIANS(angle) ((angle) / 10.0f * 0.0174532925f)
  41:D:/XMC/Projekte/Temp/CF_XMC4700/cleanflight/src/main/common\maths.h **** #define DEGREES_TO_RADIANS(angle) ((angle) * 0.0174532925f)
  42:D:/XMC/Projekte/Temp/CF_XMC4700/cleanflight/src/main/common\maths.h **** 
  43:D:/XMC/Projekte/Temp/CF_XMC4700/cleanflight/src/main/common\maths.h **** #define CM_S_TO_KM_H(centimetersPerSecond) ((centimetersPerSecond) * 36 / 1000)
  44:D:/XMC/Projekte/Temp/CF_XMC4700/cleanflight/src/main/common\maths.h **** #define CM_S_TO_MPH(centimetersPerSecond) ((centimetersPerSecond) * 10000 / 5080 / 88)
  45:D:/XMC/Projekte/Temp/CF_XMC4700/cleanflight/src/main/common\maths.h **** 
  46:D:/XMC/Projekte/Temp/CF_XMC4700/cleanflight/src/main/common\maths.h **** #define MIN(a,b) \
  47:D:/XMC/Projekte/Temp/CF_XMC4700/cleanflight/src/main/common\maths.h ****   __extension__ ({ __typeof__ (a) _a = (a); \
  48:D:/XMC/Projekte/Temp/CF_XMC4700/cleanflight/src/main/common\maths.h ****   __typeof__ (b) _b = (b); \
  49:D:/XMC/Projekte/Temp/CF_XMC4700/cleanflight/src/main/common\maths.h ****   _a < _b ? _a : _b; })
  50:D:/XMC/Projekte/Temp/CF_XMC4700/cleanflight/src/main/common\maths.h **** #define MAX(a,b) \
  51:D:/XMC/Projekte/Temp/CF_XMC4700/cleanflight/src/main/common\maths.h ****   __extension__ ({ __typeof__ (a) _a = (a); \
  52:D:/XMC/Projekte/Temp/CF_XMC4700/cleanflight/src/main/common\maths.h ****   __typeof__ (b) _b = (b); \
  53:D:/XMC/Projekte/Temp/CF_XMC4700/cleanflight/src/main/common\maths.h ****   _a > _b ? _a : _b; })
  54:D:/XMC/Projekte/Temp/CF_XMC4700/cleanflight/src/main/common\maths.h **** #define ABS(x) \
  55:D:/XMC/Projekte/Temp/CF_XMC4700/cleanflight/src/main/common\maths.h ****   __extension__ ({ __typeof__ (x) _x = (x); \
  56:D:/XMC/Projekte/Temp/CF_XMC4700/cleanflight/src/main/common\maths.h ****   _x > 0 ? _x : -_x; })
  57:D:/XMC/Projekte/Temp/CF_XMC4700/cleanflight/src/main/common\maths.h **** 
  58:D:/XMC/Projekte/Temp/CF_XMC4700/cleanflight/src/main/common\maths.h **** #define Q12 (1 << 12)
  59:D:/XMC/Projekte/Temp/CF_XMC4700/cleanflight/src/main/common\maths.h **** 
  60:D:/XMC/Projekte/Temp/CF_XMC4700/cleanflight/src/main/common\maths.h **** #define HZ_TO_INTERVAL_US(x) (1000000 / (x))
  61:D:/XMC/Projekte/Temp/CF_XMC4700/cleanflight/src/main/common\maths.h **** 
  62:D:/XMC/Projekte/Temp/CF_XMC4700/cleanflight/src/main/common\maths.h **** typedef int32_t fix12_t;
  63:D:/XMC/Projekte/Temp/CF_XMC4700/cleanflight/src/main/common\maths.h **** 
  64:D:/XMC/Projekte/Temp/CF_XMC4700/cleanflight/src/main/common\maths.h **** typedef struct stdev_s
  65:D:/XMC/Projekte/Temp/CF_XMC4700/cleanflight/src/main/common\maths.h **** {
  66:D:/XMC/Projekte/Temp/CF_XMC4700/cleanflight/src/main/common\maths.h ****     float m_oldM, m_newM, m_oldS, m_newS;
  67:D:/XMC/Projekte/Temp/CF_XMC4700/cleanflight/src/main/common\maths.h ****     int m_n;
  68:D:/XMC/Projekte/Temp/CF_XMC4700/cleanflight/src/main/common\maths.h **** } stdev_t;
  69:D:/XMC/Projekte/Temp/CF_XMC4700/cleanflight/src/main/common\maths.h **** 
  70:D:/XMC/Projekte/Temp/CF_XMC4700/cleanflight/src/main/common\maths.h **** // Floating point 3 vector.
  71:D:/XMC/Projekte/Temp/CF_XMC4700/cleanflight/src/main/common\maths.h **** typedef struct fp_vector {
  72:D:/XMC/Projekte/Temp/CF_XMC4700/cleanflight/src/main/common\maths.h ****     float X;
  73:D:/XMC/Projekte/Temp/CF_XMC4700/cleanflight/src/main/common\maths.h ****     float Y;
  74:D:/XMC/Projekte/Temp/CF_XMC4700/cleanflight/src/main/common\maths.h ****     float Z;
  75:D:/XMC/Projekte/Temp/CF_XMC4700/cleanflight/src/main/common\maths.h **** } t_fp_vector_def;
  76:D:/XMC/Projekte/Temp/CF_XMC4700/cleanflight/src/main/common\maths.h **** 
  77:D:/XMC/Projekte/Temp/CF_XMC4700/cleanflight/src/main/common\maths.h **** typedef union u_fp_vector {
  78:D:/XMC/Projekte/Temp/CF_XMC4700/cleanflight/src/main/common\maths.h ****     float A[3];
  79:D:/XMC/Projekte/Temp/CF_XMC4700/cleanflight/src/main/common\maths.h ****     t_fp_vector_def V;
  80:D:/XMC/Projekte/Temp/CF_XMC4700/cleanflight/src/main/common\maths.h **** } t_fp_vector;
  81:D:/XMC/Projekte/Temp/CF_XMC4700/cleanflight/src/main/common\maths.h **** 
  82:D:/XMC/Projekte/Temp/CF_XMC4700/cleanflight/src/main/common\maths.h **** // Floating point Euler angles.
  83:D:/XMC/Projekte/Temp/CF_XMC4700/cleanflight/src/main/common\maths.h **** // Be carefull, could be either of degrees or radians.
  84:D:/XMC/Projekte/Temp/CF_XMC4700/cleanflight/src/main/common\maths.h **** typedef struct fp_angles {
  85:D:/XMC/Projekte/Temp/CF_XMC4700/cleanflight/src/main/common\maths.h ****     float roll;
  86:D:/XMC/Projekte/Temp/CF_XMC4700/cleanflight/src/main/common\maths.h ****     float pitch;
  87:D:/XMC/Projekte/Temp/CF_XMC4700/cleanflight/src/main/common\maths.h ****     float yaw;
  88:D:/XMC/Projekte/Temp/CF_XMC4700/cleanflight/src/main/common\maths.h **** } fp_angles_def;
  89:D:/XMC/Projekte/Temp/CF_XMC4700/cleanflight/src/main/common\maths.h **** 
  90:D:/XMC/Projekte/Temp/CF_XMC4700/cleanflight/src/main/common\maths.h **** typedef union {
  91:D:/XMC/Projekte/Temp/CF_XMC4700/cleanflight/src/main/common\maths.h ****     float raw[3];
  92:D:/XMC/Projekte/Temp/CF_XMC4700/cleanflight/src/main/common\maths.h ****     fp_angles_def angles;
  93:D:/XMC/Projekte/Temp/CF_XMC4700/cleanflight/src/main/common\maths.h **** } fp_angles_t;
  94:D:/XMC/Projekte/Temp/CF_XMC4700/cleanflight/src/main/common\maths.h **** 
  95:D:/XMC/Projekte/Temp/CF_XMC4700/cleanflight/src/main/common\maths.h **** int gcd(int num, int denom);
  96:D:/XMC/Projekte/Temp/CF_XMC4700/cleanflight/src/main/common\maths.h **** float powerf(float base, int exp);
  97:D:/XMC/Projekte/Temp/CF_XMC4700/cleanflight/src/main/common\maths.h **** int32_t applyDeadband(int32_t value, int32_t deadband);
  98:D:/XMC/Projekte/Temp/CF_XMC4700/cleanflight/src/main/common\maths.h **** float fapplyDeadband(float value, float deadband);
  99:D:/XMC/Projekte/Temp/CF_XMC4700/cleanflight/src/main/common\maths.h **** 
 100:D:/XMC/Projekte/Temp/CF_XMC4700/cleanflight/src/main/common\maths.h **** void devClear(stdev_t *dev);
 101:D:/XMC/Projekte/Temp/CF_XMC4700/cleanflight/src/main/common\maths.h **** void devPush(stdev_t *dev, float x);
 102:D:/XMC/Projekte/Temp/CF_XMC4700/cleanflight/src/main/common\maths.h **** float devVariance(stdev_t *dev);
 103:D:/XMC/Projekte/Temp/CF_XMC4700/cleanflight/src/main/common\maths.h **** float devStandardDeviation(stdev_t *dev);
 104:D:/XMC/Projekte/Temp/CF_XMC4700/cleanflight/src/main/common\maths.h **** float degreesToRadians(int16_t degrees);
 105:D:/XMC/Projekte/Temp/CF_XMC4700/cleanflight/src/main/common\maths.h **** 
 106:D:/XMC/Projekte/Temp/CF_XMC4700/cleanflight/src/main/common\maths.h **** int scaleRange(int x, int srcFrom, int srcTo, int destFrom, int destTo);
 107:D:/XMC/Projekte/Temp/CF_XMC4700/cleanflight/src/main/common\maths.h **** float scaleRangef(float x, float srcFrom, float srcTo, float destFrom, float destTo);
 108:D:/XMC/Projekte/Temp/CF_XMC4700/cleanflight/src/main/common\maths.h **** 
 109:D:/XMC/Projekte/Temp/CF_XMC4700/cleanflight/src/main/common\maths.h **** void normalizeV(struct fp_vector *src, struct fp_vector *dest);
 110:D:/XMC/Projekte/Temp/CF_XMC4700/cleanflight/src/main/common\maths.h **** 
 111:D:/XMC/Projekte/Temp/CF_XMC4700/cleanflight/src/main/common\maths.h **** void rotateV(struct fp_vector *v, fp_angles_t *delta);
 112:D:/XMC/Projekte/Temp/CF_XMC4700/cleanflight/src/main/common\maths.h **** void buildRotationMatrix(fp_angles_t *delta, float matrix[3][3]);
 113:D:/XMC/Projekte/Temp/CF_XMC4700/cleanflight/src/main/common\maths.h **** 
 114:D:/XMC/Projekte/Temp/CF_XMC4700/cleanflight/src/main/common\maths.h **** int32_t quickMedianFilter3(int32_t * v);
 115:D:/XMC/Projekte/Temp/CF_XMC4700/cleanflight/src/main/common\maths.h **** int32_t quickMedianFilter5(int32_t * v);
 116:D:/XMC/Projekte/Temp/CF_XMC4700/cleanflight/src/main/common\maths.h **** int32_t quickMedianFilter7(int32_t * v);
 117:D:/XMC/Projekte/Temp/CF_XMC4700/cleanflight/src/main/common\maths.h **** int32_t quickMedianFilter9(int32_t * v);
 118:D:/XMC/Projekte/Temp/CF_XMC4700/cleanflight/src/main/common\maths.h **** 
 119:D:/XMC/Projekte/Temp/CF_XMC4700/cleanflight/src/main/common\maths.h **** float quickMedianFilter3f(float * v);
 120:D:/XMC/Projekte/Temp/CF_XMC4700/cleanflight/src/main/common\maths.h **** float quickMedianFilter5f(float * v);
 121:D:/XMC/Projekte/Temp/CF_XMC4700/cleanflight/src/main/common\maths.h **** float quickMedianFilter7f(float * v);
 122:D:/XMC/Projekte/Temp/CF_XMC4700/cleanflight/src/main/common\maths.h **** float quickMedianFilter9f(float * v);
 123:D:/XMC/Projekte/Temp/CF_XMC4700/cleanflight/src/main/common\maths.h **** 
 124:D:/XMC/Projekte/Temp/CF_XMC4700/cleanflight/src/main/common\maths.h **** #if defined(FAST_MATH) || defined(VERY_FAST_MATH)
 125:D:/XMC/Projekte/Temp/CF_XMC4700/cleanflight/src/main/common\maths.h **** float sin_approx(float x);
 126:D:/XMC/Projekte/Temp/CF_XMC4700/cleanflight/src/main/common\maths.h **** float cos_approx(float x);
 127:D:/XMC/Projekte/Temp/CF_XMC4700/cleanflight/src/main/common\maths.h **** float atan2_approx(float y, float x);
 128:D:/XMC/Projekte/Temp/CF_XMC4700/cleanflight/src/main/common\maths.h **** float acos_approx(float x);
 129:D:/XMC/Projekte/Temp/CF_XMC4700/cleanflight/src/main/common\maths.h **** #define tan_approx(x)       (sin_approx(x) / cos_approx(x))
 130:D:/XMC/Projekte/Temp/CF_XMC4700/cleanflight/src/main/common\maths.h **** float exp_approx(float val);
 131:D:/XMC/Projekte/Temp/CF_XMC4700/cleanflight/src/main/common\maths.h **** float log_approx(float val);
 132:D:/XMC/Projekte/Temp/CF_XMC4700/cleanflight/src/main/common\maths.h **** float pow_approx(float a, float b);
 133:D:/XMC/Projekte/Temp/CF_XMC4700/cleanflight/src/main/common\maths.h **** #else
 134:D:/XMC/Projekte/Temp/CF_XMC4700/cleanflight/src/main/common\maths.h **** #define sin_approx(x)   sinf(x)
 135:D:/XMC/Projekte/Temp/CF_XMC4700/cleanflight/src/main/common\maths.h **** #define cos_approx(x)   cosf(x)
 136:D:/XMC/Projekte/Temp/CF_XMC4700/cleanflight/src/main/common\maths.h **** #define atan2_approx(y,x)   atan2f(y,x)
 137:D:/XMC/Projekte/Temp/CF_XMC4700/cleanflight/src/main/common\maths.h **** #define acos_approx(x)      acosf(x)
 138:D:/XMC/Projekte/Temp/CF_XMC4700/cleanflight/src/main/common\maths.h **** #define tan_approx(x)       tanf(x)
 139:D:/XMC/Projekte/Temp/CF_XMC4700/cleanflight/src/main/common\maths.h **** #define exp_approx(x)       expf(x)
 140:D:/XMC/Projekte/Temp/CF_XMC4700/cleanflight/src/main/common\maths.h **** #define log_approx(x)       logf(x)
 141:D:/XMC/Projekte/Temp/CF_XMC4700/cleanflight/src/main/common\maths.h **** #define pow_approx(a, b)    powf(b, a)
 142:D:/XMC/Projekte/Temp/CF_XMC4700/cleanflight/src/main/common\maths.h **** #endif
 143:D:/XMC/Projekte/Temp/CF_XMC4700/cleanflight/src/main/common\maths.h **** 
 144:D:/XMC/Projekte/Temp/CF_XMC4700/cleanflight/src/main/common\maths.h **** void arraySubInt32(int32_t *dest, int32_t *array1, int32_t *array2, int count);
 145:D:/XMC/Projekte/Temp/CF_XMC4700/cleanflight/src/main/common\maths.h **** 
 146:D:/XMC/Projekte/Temp/CF_XMC4700/cleanflight/src/main/common\maths.h **** int16_t qPercent(fix12_t q);
 147:D:/XMC/Projekte/Temp/CF_XMC4700/cleanflight/src/main/common\maths.h **** int16_t qMultiply(fix12_t q, int16_t input);
 148:D:/XMC/Projekte/Temp/CF_XMC4700/cleanflight/src/main/common\maths.h **** fix12_t qConstruct(int16_t num, int16_t den);
 149:D:/XMC/Projekte/Temp/CF_XMC4700/cleanflight/src/main/common\maths.h **** 
 150:D:/XMC/Projekte/Temp/CF_XMC4700/cleanflight/src/main/common\maths.h **** static inline int constrain(int amt, int low, int high)
 151:D:/XMC/Projekte/Temp/CF_XMC4700/cleanflight/src/main/common\maths.h **** {
  34              	 .loc 1 151 0
  35              	 .cfi_startproc
  36              	 
  37              	 
  38              	 
  39 0000 80B4     	 push {r7}
  40              	.LCFI0:
  41              	 .cfi_def_cfa_offset 4
  42              	 .cfi_offset 7,-4
  43 0002 85B0     	 sub sp,sp,#20
  44              	.LCFI1:
  45              	 .cfi_def_cfa_offset 24
  46 0004 00AF     	 add r7,sp,#0
  47              	.LCFI2:
  48              	 .cfi_def_cfa_register 7
  49 0006 F860     	 str r0,[r7,#12]
  50 0008 B960     	 str r1,[r7,#8]
  51 000a 7A60     	 str r2,[r7,#4]
 152:D:/XMC/Projekte/Temp/CF_XMC4700/cleanflight/src/main/common\maths.h ****     if (amt < low)
  52              	 .loc 1 152 0
  53 000c FA68     	 ldr r2,[r7,#12]
  54 000e BB68     	 ldr r3,[r7,#8]
  55 0010 9A42     	 cmp r2,r3
  56 0012 01DA     	 bge .L2
 153:D:/XMC/Projekte/Temp/CF_XMC4700/cleanflight/src/main/common\maths.h ****         return low;
  57              	 .loc 1 153 0
  58 0014 BB68     	 ldr r3,[r7,#8]
  59 0016 06E0     	 b .L3
  60              	.L2:
 154:D:/XMC/Projekte/Temp/CF_XMC4700/cleanflight/src/main/common\maths.h ****     else if (amt > high)
  61              	 .loc 1 154 0
  62 0018 FA68     	 ldr r2,[r7,#12]
  63 001a 7B68     	 ldr r3,[r7,#4]
  64 001c 9A42     	 cmp r2,r3
  65 001e 01DD     	 ble .L4
 155:D:/XMC/Projekte/Temp/CF_XMC4700/cleanflight/src/main/common\maths.h ****         return high;
  66              	 .loc 1 155 0
  67 0020 7B68     	 ldr r3,[r7,#4]
  68 0022 00E0     	 b .L3
  69              	.L4:
 156:D:/XMC/Projekte/Temp/CF_XMC4700/cleanflight/src/main/common\maths.h ****     else
 157:D:/XMC/Projekte/Temp/CF_XMC4700/cleanflight/src/main/common\maths.h ****         return amt;
  70              	 .loc 1 157 0
  71 0024 FB68     	 ldr r3,[r7,#12]
  72              	.L3:
 158:D:/XMC/Projekte/Temp/CF_XMC4700/cleanflight/src/main/common\maths.h **** }
  73              	 .loc 1 158 0
  74 0026 1846     	 mov r0,r3
  75 0028 1437     	 adds r7,r7,#20
  76              	.LCFI3:
  77              	 .cfi_def_cfa_offset 4
  78 002a BD46     	 mov sp,r7
  79              	.LCFI4:
  80              	 .cfi_def_cfa_register 13
  81              	 
  82 002c 5DF8047B 	 ldr r7,[sp],#4
  83              	.LCFI5:
  84              	 .cfi_restore 7
  85              	 .cfi_def_cfa_offset 0
  86 0030 7047     	 bx lr
  87              	 .cfi_endproc
  88              	.LFE529:
  90 0032 00BF     	 .section .text.featureConfig,"ax",%progbits
  91              	 .align 2
  92              	 .thumb
  93              	 .thumb_func
  95              	featureConfig:
  96              	.LFB531:
  97              	 .file 2 "D:/XMC/Projekte/Temp/CF_XMC4700/cleanflight/src/main/config/feature.h"
   1:D:/XMC/Projekte/Temp/CF_XMC4700/cleanflight/src/main/config\feature.h **** /*
   2:D:/XMC/Projekte/Temp/CF_XMC4700/cleanflight/src/main/config\feature.h ****  * This file is part of Cleanflight and Betaflight.
   3:D:/XMC/Projekte/Temp/CF_XMC4700/cleanflight/src/main/config\feature.h ****  *
   4:D:/XMC/Projekte/Temp/CF_XMC4700/cleanflight/src/main/config\feature.h ****  * Cleanflight and Betaflight are free software. You can redistribute
   5:D:/XMC/Projekte/Temp/CF_XMC4700/cleanflight/src/main/config\feature.h ****  * this software and/or modify this software under the terms of the
   6:D:/XMC/Projekte/Temp/CF_XMC4700/cleanflight/src/main/config\feature.h ****  * GNU General Public License as published by the Free Software
   7:D:/XMC/Projekte/Temp/CF_XMC4700/cleanflight/src/main/config\feature.h ****  * Foundation, either version 3 of the License, or (at your option)
   8:D:/XMC/Projekte/Temp/CF_XMC4700/cleanflight/src/main/config\feature.h ****  * any later version.
   9:D:/XMC/Projekte/Temp/CF_XMC4700/cleanflight/src/main/config\feature.h ****  *
  10:D:/XMC/Projekte/Temp/CF_XMC4700/cleanflight/src/main/config\feature.h ****  * Cleanflight and Betaflight are distributed in the hope that they
  11:D:/XMC/Projekte/Temp/CF_XMC4700/cleanflight/src/main/config\feature.h ****  * will be useful, but WITHOUT ANY WARRANTY; without even the implied
  12:D:/XMC/Projekte/Temp/CF_XMC4700/cleanflight/src/main/config\feature.h ****  * warranty of MERCHANTABILITY or FITNESS FOR A PARTICULAR PURPOSE.
  13:D:/XMC/Projekte/Temp/CF_XMC4700/cleanflight/src/main/config\feature.h ****  * See the GNU General Public License for more details.
  14:D:/XMC/Projekte/Temp/CF_XMC4700/cleanflight/src/main/config\feature.h ****  *
  15:D:/XMC/Projekte/Temp/CF_XMC4700/cleanflight/src/main/config\feature.h ****  * You should have received a copy of the GNU General Public License
  16:D:/XMC/Projekte/Temp/CF_XMC4700/cleanflight/src/main/config\feature.h ****  * along with this software.
  17:D:/XMC/Projekte/Temp/CF_XMC4700/cleanflight/src/main/config\feature.h ****  *
  18:D:/XMC/Projekte/Temp/CF_XMC4700/cleanflight/src/main/config\feature.h ****  * If not, see <http://www.gnu.org/licenses/>.
  19:D:/XMC/Projekte/Temp/CF_XMC4700/cleanflight/src/main/config\feature.h ****  */
  20:D:/XMC/Projekte/Temp/CF_XMC4700/cleanflight/src/main/config\feature.h **** 
  21:D:/XMC/Projekte/Temp/CF_XMC4700/cleanflight/src/main/config\feature.h **** #pragma once
  22:D:/XMC/Projekte/Temp/CF_XMC4700/cleanflight/src/main/config\feature.h **** 
  23:D:/XMC/Projekte/Temp/CF_XMC4700/cleanflight/src/main/config\feature.h **** #include "pg/pg.h"
  24:D:/XMC/Projekte/Temp/CF_XMC4700/cleanflight/src/main/config\feature.h **** 
  25:D:/XMC/Projekte/Temp/CF_XMC4700/cleanflight/src/main/config\feature.h **** #ifndef DEFAULT_FEATURES
  26:D:/XMC/Projekte/Temp/CF_XMC4700/cleanflight/src/main/config\feature.h **** #define DEFAULT_FEATURES 0
  27:D:/XMC/Projekte/Temp/CF_XMC4700/cleanflight/src/main/config\feature.h **** #endif
  28:D:/XMC/Projekte/Temp/CF_XMC4700/cleanflight/src/main/config\feature.h **** #ifndef DEFAULT_RX_FEATURE
  29:D:/XMC/Projekte/Temp/CF_XMC4700/cleanflight/src/main/config\feature.h **** #define DEFAULT_RX_FEATURE FEATURE_RX_PARALLEL_PWM
  30:D:/XMC/Projekte/Temp/CF_XMC4700/cleanflight/src/main/config\feature.h **** #endif
  31:D:/XMC/Projekte/Temp/CF_XMC4700/cleanflight/src/main/config\feature.h **** 
  32:D:/XMC/Projekte/Temp/CF_XMC4700/cleanflight/src/main/config\feature.h **** typedef enum {
  33:D:/XMC/Projekte/Temp/CF_XMC4700/cleanflight/src/main/config\feature.h ****     FEATURE_RX_PPM = 1 << 0,
  34:D:/XMC/Projekte/Temp/CF_XMC4700/cleanflight/src/main/config\feature.h ****     FEATURE_INFLIGHT_ACC_CAL = 1 << 2,
  35:D:/XMC/Projekte/Temp/CF_XMC4700/cleanflight/src/main/config\feature.h ****     FEATURE_RX_SERIAL = 1 << 3,
  36:D:/XMC/Projekte/Temp/CF_XMC4700/cleanflight/src/main/config\feature.h ****     FEATURE_MOTOR_STOP = 1 << 4,
  37:D:/XMC/Projekte/Temp/CF_XMC4700/cleanflight/src/main/config\feature.h ****     FEATURE_SERVO_TILT = 1 << 5,
  38:D:/XMC/Projekte/Temp/CF_XMC4700/cleanflight/src/main/config\feature.h ****     FEATURE_SOFTSERIAL = 1 << 6,
  39:D:/XMC/Projekte/Temp/CF_XMC4700/cleanflight/src/main/config\feature.h ****     FEATURE_GPS = 1 << 7,
  40:D:/XMC/Projekte/Temp/CF_XMC4700/cleanflight/src/main/config\feature.h ****     FEATURE_RANGEFINDER = 1 << 9,
  41:D:/XMC/Projekte/Temp/CF_XMC4700/cleanflight/src/main/config\feature.h ****     FEATURE_TELEMETRY = 1 << 10,
  42:D:/XMC/Projekte/Temp/CF_XMC4700/cleanflight/src/main/config\feature.h ****     FEATURE_3D = 1 << 12,
  43:D:/XMC/Projekte/Temp/CF_XMC4700/cleanflight/src/main/config\feature.h ****     FEATURE_RX_PARALLEL_PWM = 1 << 13,
  44:D:/XMC/Projekte/Temp/CF_XMC4700/cleanflight/src/main/config\feature.h ****     FEATURE_RX_MSP = 1 << 14,
  45:D:/XMC/Projekte/Temp/CF_XMC4700/cleanflight/src/main/config\feature.h ****     FEATURE_RSSI_ADC = 1 << 15,
  46:D:/XMC/Projekte/Temp/CF_XMC4700/cleanflight/src/main/config\feature.h ****     FEATURE_LED_STRIP = 1 << 16,
  47:D:/XMC/Projekte/Temp/CF_XMC4700/cleanflight/src/main/config\feature.h ****     FEATURE_DASHBOARD = 1 << 17,
  48:D:/XMC/Projekte/Temp/CF_XMC4700/cleanflight/src/main/config\feature.h ****     FEATURE_OSD = 1 << 18,
  49:D:/XMC/Projekte/Temp/CF_XMC4700/cleanflight/src/main/config\feature.h ****     FEATURE_CHANNEL_FORWARDING = 1 << 20,
  50:D:/XMC/Projekte/Temp/CF_XMC4700/cleanflight/src/main/config\feature.h ****     FEATURE_TRANSPONDER = 1 << 21,
  51:D:/XMC/Projekte/Temp/CF_XMC4700/cleanflight/src/main/config\feature.h ****     FEATURE_AIRMODE = 1 << 22,
  52:D:/XMC/Projekte/Temp/CF_XMC4700/cleanflight/src/main/config\feature.h ****     FEATURE_RX_SPI = 1 << 25,
  53:D:/XMC/Projekte/Temp/CF_XMC4700/cleanflight/src/main/config\feature.h ****     FEATURE_SOFTSPI = 1 << 26,
  54:D:/XMC/Projekte/Temp/CF_XMC4700/cleanflight/src/main/config\feature.h ****     FEATURE_ESC_SENSOR = 1 << 27,
  55:D:/XMC/Projekte/Temp/CF_XMC4700/cleanflight/src/main/config\feature.h ****     FEATURE_ANTI_GRAVITY = 1 << 28,
  56:D:/XMC/Projekte/Temp/CF_XMC4700/cleanflight/src/main/config\feature.h ****     FEATURE_DYNAMIC_FILTER = 1 << 29,
  57:D:/XMC/Projekte/Temp/CF_XMC4700/cleanflight/src/main/config\feature.h **** } features_e;
  58:D:/XMC/Projekte/Temp/CF_XMC4700/cleanflight/src/main/config\feature.h **** 
  59:D:/XMC/Projekte/Temp/CF_XMC4700/cleanflight/src/main/config\feature.h **** typedef struct featureConfig_s {
  60:D:/XMC/Projekte/Temp/CF_XMC4700/cleanflight/src/main/config\feature.h ****     uint32_t enabledFeatures;
  61:D:/XMC/Projekte/Temp/CF_XMC4700/cleanflight/src/main/config\feature.h **** } featureConfig_t;
  62:D:/XMC/Projekte/Temp/CF_XMC4700/cleanflight/src/main/config\feature.h **** 
  63:D:/XMC/Projekte/Temp/CF_XMC4700/cleanflight/src/main/config\feature.h **** PG_DECLARE(featureConfig_t, featureConfig);
  98              	 .loc 2 63 0
  99              	 .cfi_startproc
 100              	 
 101              	 
 102              	 
 103 0000 80B4     	 push {r7}
 104              	.LCFI6:
 105              	 .cfi_def_cfa_offset 4
 106              	 .cfi_offset 7,-4
 107 0002 00AF     	 add r7,sp,#0
 108              	.LCFI7:
 109              	 .cfi_def_cfa_register 7
 110              	 .loc 2 63 0
 111 0004 024B     	 ldr r3,.L7
 112 0006 1846     	 mov r0,r3
 113 0008 BD46     	 mov sp,r7
 114              	.LCFI8:
 115              	 .cfi_def_cfa_register 13
 116              	 
 117 000a 5DF8047B 	 ldr r7,[sp],#4
 118              	.LCFI9:
 119              	 .cfi_restore 7
 120              	 .cfi_def_cfa_offset 0
 121 000e 7047     	 bx lr
 122              	.L8:
 123              	 .align 2
 124              	.L7:
 125 0010 00000000 	 .word featureConfig_System
 126              	 .cfi_endproc
 127              	.LFE531:
 129              	 .section .text.pilotConfig,"ax",%progbits
 130              	 .align 2
 131              	 .thumb
 132              	 .thumb_func
 134              	pilotConfig:
 135              	.LFB562:
 136              	 .file 3 "D:/XMC/Projekte/Temp/CF_XMC4700/cleanflight/src/main/fc/config.h"
   1:D:/XMC/Projekte/Temp/CF_XMC4700/cleanflight/src/main/fc\config.h **** /*
   2:D:/XMC/Projekte/Temp/CF_XMC4700/cleanflight/src/main/fc\config.h ****  * This file is part of Cleanflight and Betaflight.
   3:D:/XMC/Projekte/Temp/CF_XMC4700/cleanflight/src/main/fc\config.h ****  *
   4:D:/XMC/Projekte/Temp/CF_XMC4700/cleanflight/src/main/fc\config.h ****  * Cleanflight and Betaflight are free software. You can redistribute
   5:D:/XMC/Projekte/Temp/CF_XMC4700/cleanflight/src/main/fc\config.h ****  * this software and/or modify this software under the terms of the
   6:D:/XMC/Projekte/Temp/CF_XMC4700/cleanflight/src/main/fc\config.h ****  * GNU General Public License as published by the Free Software
   7:D:/XMC/Projekte/Temp/CF_XMC4700/cleanflight/src/main/fc\config.h ****  * Foundation, either version 3 of the License, or (at your option)
   8:D:/XMC/Projekte/Temp/CF_XMC4700/cleanflight/src/main/fc\config.h ****  * any later version.
   9:D:/XMC/Projekte/Temp/CF_XMC4700/cleanflight/src/main/fc\config.h ****  *
  10:D:/XMC/Projekte/Temp/CF_XMC4700/cleanflight/src/main/fc\config.h ****  * Cleanflight and Betaflight are distributed in the hope that they
  11:D:/XMC/Projekte/Temp/CF_XMC4700/cleanflight/src/main/fc\config.h ****  * will be useful, but WITHOUT ANY WARRANTY; without even the implied
  12:D:/XMC/Projekte/Temp/CF_XMC4700/cleanflight/src/main/fc\config.h ****  * warranty of MERCHANTABILITY or FITNESS FOR A PARTICULAR PURPOSE.
  13:D:/XMC/Projekte/Temp/CF_XMC4700/cleanflight/src/main/fc\config.h ****  * See the GNU General Public License for more details.
  14:D:/XMC/Projekte/Temp/CF_XMC4700/cleanflight/src/main/fc\config.h ****  *
  15:D:/XMC/Projekte/Temp/CF_XMC4700/cleanflight/src/main/fc\config.h ****  * You should have received a copy of the GNU General Public License
  16:D:/XMC/Projekte/Temp/CF_XMC4700/cleanflight/src/main/fc\config.h ****  * along with this software.
  17:D:/XMC/Projekte/Temp/CF_XMC4700/cleanflight/src/main/fc\config.h ****  *
  18:D:/XMC/Projekte/Temp/CF_XMC4700/cleanflight/src/main/fc\config.h ****  * If not, see <http://www.gnu.org/licenses/>.
  19:D:/XMC/Projekte/Temp/CF_XMC4700/cleanflight/src/main/fc\config.h ****  */
  20:D:/XMC/Projekte/Temp/CF_XMC4700/cleanflight/src/main/fc\config.h **** 
  21:D:/XMC/Projekte/Temp/CF_XMC4700/cleanflight/src/main/fc\config.h **** #pragma once
  22:D:/XMC/Projekte/Temp/CF_XMC4700/cleanflight/src/main/fc\config.h **** 
  23:D:/XMC/Projekte/Temp/CF_XMC4700/cleanflight/src/main/fc\config.h **** #include <stdint.h>
  24:D:/XMC/Projekte/Temp/CF_XMC4700/cleanflight/src/main/fc\config.h **** #include <stdbool.h>
  25:D:/XMC/Projekte/Temp/CF_XMC4700/cleanflight/src/main/fc\config.h **** 
  26:D:/XMC/Projekte/Temp/CF_XMC4700/cleanflight/src/main/fc\config.h **** #include "pg/pg.h"
  27:D:/XMC/Projekte/Temp/CF_XMC4700/cleanflight/src/main/fc\config.h **** 
  28:D:/XMC/Projekte/Temp/CF_XMC4700/cleanflight/src/main/fc\config.h **** #define MAX_NAME_LENGTH 16u
  29:D:/XMC/Projekte/Temp/CF_XMC4700/cleanflight/src/main/fc\config.h **** 
  30:D:/XMC/Projekte/Temp/CF_XMC4700/cleanflight/src/main/fc\config.h **** typedef struct pilotConfig_s {
  31:D:/XMC/Projekte/Temp/CF_XMC4700/cleanflight/src/main/fc\config.h ****     char name[MAX_NAME_LENGTH + 1];
  32:D:/XMC/Projekte/Temp/CF_XMC4700/cleanflight/src/main/fc\config.h **** } pilotConfig_t;
  33:D:/XMC/Projekte/Temp/CF_XMC4700/cleanflight/src/main/fc\config.h **** 
  34:D:/XMC/Projekte/Temp/CF_XMC4700/cleanflight/src/main/fc\config.h **** PG_DECLARE(pilotConfig_t, pilotConfig);
 137              	 .loc 3 34 0
 138              	 .cfi_startproc
 139              	 
 140              	 
 141              	 
 142 0000 80B4     	 push {r7}
 143              	.LCFI10:
 144              	 .cfi_def_cfa_offset 4
 145              	 .cfi_offset 7,-4
 146 0002 00AF     	 add r7,sp,#0
 147              	.LCFI11:
 148              	 .cfi_def_cfa_register 7
 149              	 .loc 3 34 0
 150 0004 024B     	 ldr r3,.L11
 151 0006 1846     	 mov r0,r3
 152 0008 BD46     	 mov sp,r7
 153              	.LCFI12:
 154              	 .cfi_def_cfa_register 13
 155              	 
 156 000a 5DF8047B 	 ldr r7,[sp],#4
 157              	.LCFI13:
 158              	 .cfi_restore 7
 159              	 .cfi_def_cfa_offset 0
 160 000e 7047     	 bx lr
 161              	.L12:
 162              	 .align 2
 163              	.L11:
 164 0010 00000000 	 .word pilotConfig_System
 165              	 .cfi_endproc
 166              	.LFE562:
 168              	 .section .text.pilotConfigMutable,"ax",%progbits
 169              	 .align 2
 170              	 .thumb
 171              	 .thumb_func
 173              	pilotConfigMutable:
 174              	.LFB563:
 175              	 .loc 3 34 0
 176              	 .cfi_startproc
 177              	 
 178              	 
 179              	 
 180 0000 80B4     	 push {r7}
 181              	.LCFI14:
 182              	 .cfi_def_cfa_offset 4
 183              	 .cfi_offset 7,-4
 184 0002 00AF     	 add r7,sp,#0
 185              	.LCFI15:
 186              	 .cfi_def_cfa_register 7
 187              	 .loc 3 34 0
 188 0004 024B     	 ldr r3,.L15
 189 0006 1846     	 mov r0,r3
 190 0008 BD46     	 mov sp,r7
 191              	.LCFI16:
 192              	 .cfi_def_cfa_register 13
 193              	 
 194 000a 5DF8047B 	 ldr r7,[sp],#4
 195              	.LCFI17:
 196              	 .cfi_restore 7
 197              	 .cfi_def_cfa_offset 0
 198 000e 7047     	 bx lr
 199              	.L16:
 200              	 .align 2
 201              	.L15:
 202 0010 00000000 	 .word pilotConfig_System
 203              	 .cfi_endproc
 204              	.LFE563:
 206              	 .section .text.systemConfig,"ax",%progbits
 207              	 .align 2
 208              	 .thumb
 209              	 .thumb_func
 211              	systemConfig:
 212              	.LFB564:
  35:D:/XMC/Projekte/Temp/CF_XMC4700/cleanflight/src/main/fc\config.h **** 
  36:D:/XMC/Projekte/Temp/CF_XMC4700/cleanflight/src/main/fc\config.h **** typedef struct systemConfig_s {
  37:D:/XMC/Projekte/Temp/CF_XMC4700/cleanflight/src/main/fc\config.h ****     uint8_t pidProfileIndex;
  38:D:/XMC/Projekte/Temp/CF_XMC4700/cleanflight/src/main/fc\config.h ****     uint8_t activeRateProfile;
  39:D:/XMC/Projekte/Temp/CF_XMC4700/cleanflight/src/main/fc\config.h ****     uint8_t debug_mode;
  40:D:/XMC/Projekte/Temp/CF_XMC4700/cleanflight/src/main/fc\config.h ****     uint8_t task_statistics;
  41:D:/XMC/Projekte/Temp/CF_XMC4700/cleanflight/src/main/fc\config.h ****     uint8_t rateProfile6PosSwitch;
  42:D:/XMC/Projekte/Temp/CF_XMC4700/cleanflight/src/main/fc\config.h ****     uint8_t cpu_overclock;
  43:D:/XMC/Projekte/Temp/CF_XMC4700/cleanflight/src/main/fc\config.h ****     uint8_t powerOnArmingGraceTime; // in seconds
  44:D:/XMC/Projekte/Temp/CF_XMC4700/cleanflight/src/main/fc\config.h ****     char boardIdentifier[sizeof(TARGET_BOARD_IDENTIFIER) + 1];
  45:D:/XMC/Projekte/Temp/CF_XMC4700/cleanflight/src/main/fc\config.h **** } systemConfig_t;
  46:D:/XMC/Projekte/Temp/CF_XMC4700/cleanflight/src/main/fc\config.h **** 
  47:D:/XMC/Projekte/Temp/CF_XMC4700/cleanflight/src/main/fc\config.h **** PG_DECLARE(systemConfig_t, systemConfig);
 213              	 .loc 3 47 0
 214              	 .cfi_startproc
 215              	 
 216              	 
 217              	 
 218 0000 80B4     	 push {r7}
 219              	.LCFI18:
 220              	 .cfi_def_cfa_offset 4
 221              	 .cfi_offset 7,-4
 222 0002 00AF     	 add r7,sp,#0
 223              	.LCFI19:
 224              	 .cfi_def_cfa_register 7
 225              	 .loc 3 47 0
 226 0004 024B     	 ldr r3,.L19
 227 0006 1846     	 mov r0,r3
 228 0008 BD46     	 mov sp,r7
 229              	.LCFI20:
 230              	 .cfi_def_cfa_register 13
 231              	 
 232 000a 5DF8047B 	 ldr r7,[sp],#4
 233              	.LCFI21:
 234              	 .cfi_restore 7
 235              	 .cfi_def_cfa_offset 0
 236 000e 7047     	 bx lr
 237              	.L20:
 238              	 .align 2
 239              	.L19:
 240 0010 00000000 	 .word systemConfig_System
 241              	 .cfi_endproc
 242              	.LFE564:
 244              	 .section .text.modeActivationConditions,"ax",%progbits
 245              	 .align 2
 246              	 .thumb
 247              	 .thumb_func
 249              	modeActivationConditions:
 250              	.LFB571:
 251              	 .file 4 "D:/XMC/Projekte/Temp/CF_XMC4700/cleanflight/src/main/fc/rc_modes.h"
   1:D:/XMC/Projekte/Temp/CF_XMC4700/cleanflight/src/main/fc\rc_modes.h **** /*
   2:D:/XMC/Projekte/Temp/CF_XMC4700/cleanflight/src/main/fc\rc_modes.h ****  * This file is part of Cleanflight and Betaflight.
   3:D:/XMC/Projekte/Temp/CF_XMC4700/cleanflight/src/main/fc\rc_modes.h ****  *
   4:D:/XMC/Projekte/Temp/CF_XMC4700/cleanflight/src/main/fc\rc_modes.h ****  * Cleanflight and Betaflight are free software. You can redistribute
   5:D:/XMC/Projekte/Temp/CF_XMC4700/cleanflight/src/main/fc\rc_modes.h ****  * this software and/or modify this software under the terms of the
   6:D:/XMC/Projekte/Temp/CF_XMC4700/cleanflight/src/main/fc\rc_modes.h ****  * GNU General Public License as published by the Free Software
   7:D:/XMC/Projekte/Temp/CF_XMC4700/cleanflight/src/main/fc\rc_modes.h ****  * Foundation, either version 3 of the License, or (at your option)
   8:D:/XMC/Projekte/Temp/CF_XMC4700/cleanflight/src/main/fc\rc_modes.h ****  * any later version.
   9:D:/XMC/Projekte/Temp/CF_XMC4700/cleanflight/src/main/fc\rc_modes.h ****  *
  10:D:/XMC/Projekte/Temp/CF_XMC4700/cleanflight/src/main/fc\rc_modes.h ****  * Cleanflight and Betaflight are distributed in the hope that they
  11:D:/XMC/Projekte/Temp/CF_XMC4700/cleanflight/src/main/fc\rc_modes.h ****  * will be useful, but WITHOUT ANY WARRANTY; without even the implied
  12:D:/XMC/Projekte/Temp/CF_XMC4700/cleanflight/src/main/fc\rc_modes.h ****  * warranty of MERCHANTABILITY or FITNESS FOR A PARTICULAR PURPOSE.
  13:D:/XMC/Projekte/Temp/CF_XMC4700/cleanflight/src/main/fc\rc_modes.h ****  * See the GNU General Public License for more details.
  14:D:/XMC/Projekte/Temp/CF_XMC4700/cleanflight/src/main/fc\rc_modes.h ****  *
  15:D:/XMC/Projekte/Temp/CF_XMC4700/cleanflight/src/main/fc\rc_modes.h ****  * You should have received a copy of the GNU General Public License
  16:D:/XMC/Projekte/Temp/CF_XMC4700/cleanflight/src/main/fc\rc_modes.h ****  * along with this software.
  17:D:/XMC/Projekte/Temp/CF_XMC4700/cleanflight/src/main/fc\rc_modes.h ****  *
  18:D:/XMC/Projekte/Temp/CF_XMC4700/cleanflight/src/main/fc\rc_modes.h ****  * If not, see <http://www.gnu.org/licenses/>.
  19:D:/XMC/Projekte/Temp/CF_XMC4700/cleanflight/src/main/fc\rc_modes.h ****  */
  20:D:/XMC/Projekte/Temp/CF_XMC4700/cleanflight/src/main/fc\rc_modes.h **** 
  21:D:/XMC/Projekte/Temp/CF_XMC4700/cleanflight/src/main/fc\rc_modes.h **** #pragma once
  22:D:/XMC/Projekte/Temp/CF_XMC4700/cleanflight/src/main/fc\rc_modes.h **** 
  23:D:/XMC/Projekte/Temp/CF_XMC4700/cleanflight/src/main/fc\rc_modes.h **** #include <stdbool.h>
  24:D:/XMC/Projekte/Temp/CF_XMC4700/cleanflight/src/main/fc\rc_modes.h **** 
  25:D:/XMC/Projekte/Temp/CF_XMC4700/cleanflight/src/main/fc\rc_modes.h **** #include "pg/pg.h"
  26:D:/XMC/Projekte/Temp/CF_XMC4700/cleanflight/src/main/fc\rc_modes.h **** 
  27:D:/XMC/Projekte/Temp/CF_XMC4700/cleanflight/src/main/fc\rc_modes.h **** #define BOXID_NONE 255
  28:D:/XMC/Projekte/Temp/CF_XMC4700/cleanflight/src/main/fc\rc_modes.h **** 
  29:D:/XMC/Projekte/Temp/CF_XMC4700/cleanflight/src/main/fc\rc_modes.h **** typedef enum {
  30:D:/XMC/Projekte/Temp/CF_XMC4700/cleanflight/src/main/fc\rc_modes.h ****     // ARM flag
  31:D:/XMC/Projekte/Temp/CF_XMC4700/cleanflight/src/main/fc\rc_modes.h ****     BOXARM = 0,
  32:D:/XMC/Projekte/Temp/CF_XMC4700/cleanflight/src/main/fc\rc_modes.h ****     // FLIGHT_MODE
  33:D:/XMC/Projekte/Temp/CF_XMC4700/cleanflight/src/main/fc\rc_modes.h ****     BOXANGLE,
  34:D:/XMC/Projekte/Temp/CF_XMC4700/cleanflight/src/main/fc\rc_modes.h ****     BOXHORIZON,
  35:D:/XMC/Projekte/Temp/CF_XMC4700/cleanflight/src/main/fc\rc_modes.h ****     BOXMAG,
  36:D:/XMC/Projekte/Temp/CF_XMC4700/cleanflight/src/main/fc\rc_modes.h ****     BOXBARO,
  37:D:/XMC/Projekte/Temp/CF_XMC4700/cleanflight/src/main/fc\rc_modes.h ****     BOXGPSHOME,
  38:D:/XMC/Projekte/Temp/CF_XMC4700/cleanflight/src/main/fc\rc_modes.h ****     BOXGPSHOLD,
  39:D:/XMC/Projekte/Temp/CF_XMC4700/cleanflight/src/main/fc\rc_modes.h ****     BOXHEADFREE,
  40:D:/XMC/Projekte/Temp/CF_XMC4700/cleanflight/src/main/fc\rc_modes.h ****     BOXPASSTHRU,
  41:D:/XMC/Projekte/Temp/CF_XMC4700/cleanflight/src/main/fc\rc_modes.h ****     BOXFAILSAFE,
  42:D:/XMC/Projekte/Temp/CF_XMC4700/cleanflight/src/main/fc\rc_modes.h ****     BOXGPSRESCUE,
  43:D:/XMC/Projekte/Temp/CF_XMC4700/cleanflight/src/main/fc\rc_modes.h ****     BOXID_FLIGHTMODE_LAST = BOXGPSRESCUE,
  44:D:/XMC/Projekte/Temp/CF_XMC4700/cleanflight/src/main/fc\rc_modes.h **** 
  45:D:/XMC/Projekte/Temp/CF_XMC4700/cleanflight/src/main/fc\rc_modes.h **** // When new flight modes are added, the parameter group version for 'modeActivationConditions' in s
  46:D:/XMC/Projekte/Temp/CF_XMC4700/cleanflight/src/main/fc\rc_modes.h **** 
  47:D:/XMC/Projekte/Temp/CF_XMC4700/cleanflight/src/main/fc\rc_modes.h ****     // RCMODE flags
  48:D:/XMC/Projekte/Temp/CF_XMC4700/cleanflight/src/main/fc\rc_modes.h ****     BOXANTIGRAVITY,
  49:D:/XMC/Projekte/Temp/CF_XMC4700/cleanflight/src/main/fc\rc_modes.h ****     BOXHEADADJ,
  50:D:/XMC/Projekte/Temp/CF_XMC4700/cleanflight/src/main/fc\rc_modes.h ****     BOXCAMSTAB,
  51:D:/XMC/Projekte/Temp/CF_XMC4700/cleanflight/src/main/fc\rc_modes.h ****     BOXBEEPERON,
  52:D:/XMC/Projekte/Temp/CF_XMC4700/cleanflight/src/main/fc\rc_modes.h ****     BOXLEDLOW,
  53:D:/XMC/Projekte/Temp/CF_XMC4700/cleanflight/src/main/fc\rc_modes.h ****     BOXCALIB,
  54:D:/XMC/Projekte/Temp/CF_XMC4700/cleanflight/src/main/fc\rc_modes.h ****     BOXOSD,
  55:D:/XMC/Projekte/Temp/CF_XMC4700/cleanflight/src/main/fc\rc_modes.h ****     BOXTELEMETRY,
  56:D:/XMC/Projekte/Temp/CF_XMC4700/cleanflight/src/main/fc\rc_modes.h ****     BOXSERVO1,
  57:D:/XMC/Projekte/Temp/CF_XMC4700/cleanflight/src/main/fc\rc_modes.h ****     BOXSERVO2,
  58:D:/XMC/Projekte/Temp/CF_XMC4700/cleanflight/src/main/fc\rc_modes.h ****     BOXSERVO3,
  59:D:/XMC/Projekte/Temp/CF_XMC4700/cleanflight/src/main/fc\rc_modes.h ****     BOXBLACKBOX,
  60:D:/XMC/Projekte/Temp/CF_XMC4700/cleanflight/src/main/fc\rc_modes.h ****     BOXAIRMODE,
  61:D:/XMC/Projekte/Temp/CF_XMC4700/cleanflight/src/main/fc\rc_modes.h ****     BOX3D,
  62:D:/XMC/Projekte/Temp/CF_XMC4700/cleanflight/src/main/fc\rc_modes.h ****     BOXFPVANGLEMIX,
  63:D:/XMC/Projekte/Temp/CF_XMC4700/cleanflight/src/main/fc\rc_modes.h ****     BOXBLACKBOXERASE,
  64:D:/XMC/Projekte/Temp/CF_XMC4700/cleanflight/src/main/fc\rc_modes.h ****     BOXCAMERA1,
  65:D:/XMC/Projekte/Temp/CF_XMC4700/cleanflight/src/main/fc\rc_modes.h ****     BOXCAMERA2,
  66:D:/XMC/Projekte/Temp/CF_XMC4700/cleanflight/src/main/fc\rc_modes.h ****     BOXCAMERA3,
  67:D:/XMC/Projekte/Temp/CF_XMC4700/cleanflight/src/main/fc\rc_modes.h ****     BOXFLIPOVERAFTERCRASH,
  68:D:/XMC/Projekte/Temp/CF_XMC4700/cleanflight/src/main/fc\rc_modes.h ****     BOXPREARM,
  69:D:/XMC/Projekte/Temp/CF_XMC4700/cleanflight/src/main/fc\rc_modes.h ****     BOXBEEPGPSCOUNT,
  70:D:/XMC/Projekte/Temp/CF_XMC4700/cleanflight/src/main/fc\rc_modes.h ****     BOXVTXPITMODE,
  71:D:/XMC/Projekte/Temp/CF_XMC4700/cleanflight/src/main/fc\rc_modes.h ****     BOXPARALYZE,
  72:D:/XMC/Projekte/Temp/CF_XMC4700/cleanflight/src/main/fc\rc_modes.h ****     BOXUSER1,
  73:D:/XMC/Projekte/Temp/CF_XMC4700/cleanflight/src/main/fc\rc_modes.h ****     BOXUSER2,
  74:D:/XMC/Projekte/Temp/CF_XMC4700/cleanflight/src/main/fc\rc_modes.h ****     BOXUSER3,
  75:D:/XMC/Projekte/Temp/CF_XMC4700/cleanflight/src/main/fc\rc_modes.h ****     BOXUSER4,
  76:D:/XMC/Projekte/Temp/CF_XMC4700/cleanflight/src/main/fc\rc_modes.h ****     BOXPIDAUDIO,
  77:D:/XMC/Projekte/Temp/CF_XMC4700/cleanflight/src/main/fc\rc_modes.h ****     BOXACROTRAINER,
  78:D:/XMC/Projekte/Temp/CF_XMC4700/cleanflight/src/main/fc\rc_modes.h ****     CHECKBOX_ITEM_COUNT
  79:D:/XMC/Projekte/Temp/CF_XMC4700/cleanflight/src/main/fc\rc_modes.h **** } boxId_e;
  80:D:/XMC/Projekte/Temp/CF_XMC4700/cleanflight/src/main/fc\rc_modes.h **** 
  81:D:/XMC/Projekte/Temp/CF_XMC4700/cleanflight/src/main/fc\rc_modes.h **** typedef enum {
  82:D:/XMC/Projekte/Temp/CF_XMC4700/cleanflight/src/main/fc\rc_modes.h ****     MODELOGIC_OR = 0,
  83:D:/XMC/Projekte/Temp/CF_XMC4700/cleanflight/src/main/fc\rc_modes.h ****     MODELOGIC_AND
  84:D:/XMC/Projekte/Temp/CF_XMC4700/cleanflight/src/main/fc\rc_modes.h **** } modeLogic_e;
  85:D:/XMC/Projekte/Temp/CF_XMC4700/cleanflight/src/main/fc\rc_modes.h **** 
  86:D:/XMC/Projekte/Temp/CF_XMC4700/cleanflight/src/main/fc\rc_modes.h **** // type to hold enough bits for CHECKBOX_ITEM_COUNT. Struct used for value-like behavior
  87:D:/XMC/Projekte/Temp/CF_XMC4700/cleanflight/src/main/fc\rc_modes.h **** typedef struct boxBitmask_s { uint32_t bits[(CHECKBOX_ITEM_COUNT + 31) / 32]; } boxBitmask_t;
  88:D:/XMC/Projekte/Temp/CF_XMC4700/cleanflight/src/main/fc\rc_modes.h **** 
  89:D:/XMC/Projekte/Temp/CF_XMC4700/cleanflight/src/main/fc\rc_modes.h **** #define MAX_MODE_ACTIVATION_CONDITION_COUNT 20
  90:D:/XMC/Projekte/Temp/CF_XMC4700/cleanflight/src/main/fc\rc_modes.h **** 
  91:D:/XMC/Projekte/Temp/CF_XMC4700/cleanflight/src/main/fc\rc_modes.h **** #define CHANNEL_RANGE_MIN 900
  92:D:/XMC/Projekte/Temp/CF_XMC4700/cleanflight/src/main/fc\rc_modes.h **** #define CHANNEL_RANGE_MAX 2100
  93:D:/XMC/Projekte/Temp/CF_XMC4700/cleanflight/src/main/fc\rc_modes.h **** 
  94:D:/XMC/Projekte/Temp/CF_XMC4700/cleanflight/src/main/fc\rc_modes.h **** #define MODE_STEP_TO_CHANNEL_VALUE(step) (CHANNEL_RANGE_MIN + 25 * step)
  95:D:/XMC/Projekte/Temp/CF_XMC4700/cleanflight/src/main/fc\rc_modes.h **** #define CHANNEL_VALUE_TO_STEP(channelValue) ((constrain(channelValue, CHANNEL_RANGE_MIN, CHANNEL_RA
  96:D:/XMC/Projekte/Temp/CF_XMC4700/cleanflight/src/main/fc\rc_modes.h **** 
  97:D:/XMC/Projekte/Temp/CF_XMC4700/cleanflight/src/main/fc\rc_modes.h **** #define MIN_MODE_RANGE_STEP 0
  98:D:/XMC/Projekte/Temp/CF_XMC4700/cleanflight/src/main/fc\rc_modes.h **** #define MAX_MODE_RANGE_STEP ((CHANNEL_RANGE_MAX - CHANNEL_RANGE_MIN) / 25)
  99:D:/XMC/Projekte/Temp/CF_XMC4700/cleanflight/src/main/fc\rc_modes.h **** 
 100:D:/XMC/Projekte/Temp/CF_XMC4700/cleanflight/src/main/fc\rc_modes.h **** // steps are 25 apart
 101:D:/XMC/Projekte/Temp/CF_XMC4700/cleanflight/src/main/fc\rc_modes.h **** // a value of 0 corresponds to a channel value of 900 or less
 102:D:/XMC/Projekte/Temp/CF_XMC4700/cleanflight/src/main/fc\rc_modes.h **** // a value of 48 corresponds to a channel value of 2100 or more
 103:D:/XMC/Projekte/Temp/CF_XMC4700/cleanflight/src/main/fc\rc_modes.h **** // 48 steps between 900 and 2100
 104:D:/XMC/Projekte/Temp/CF_XMC4700/cleanflight/src/main/fc\rc_modes.h **** typedef struct channelRange_s {
 105:D:/XMC/Projekte/Temp/CF_XMC4700/cleanflight/src/main/fc\rc_modes.h ****     uint8_t startStep;
 106:D:/XMC/Projekte/Temp/CF_XMC4700/cleanflight/src/main/fc\rc_modes.h ****     uint8_t endStep;
 107:D:/XMC/Projekte/Temp/CF_XMC4700/cleanflight/src/main/fc\rc_modes.h **** } channelRange_t;
 108:D:/XMC/Projekte/Temp/CF_XMC4700/cleanflight/src/main/fc\rc_modes.h **** 
 109:D:/XMC/Projekte/Temp/CF_XMC4700/cleanflight/src/main/fc\rc_modes.h **** typedef struct modeActivationCondition_s {
 110:D:/XMC/Projekte/Temp/CF_XMC4700/cleanflight/src/main/fc\rc_modes.h ****     boxId_e modeId;
 111:D:/XMC/Projekte/Temp/CF_XMC4700/cleanflight/src/main/fc\rc_modes.h ****     uint8_t auxChannelIndex;
 112:D:/XMC/Projekte/Temp/CF_XMC4700/cleanflight/src/main/fc\rc_modes.h ****     channelRange_t range;
 113:D:/XMC/Projekte/Temp/CF_XMC4700/cleanflight/src/main/fc\rc_modes.h ****     modeLogic_e modeLogic;
 114:D:/XMC/Projekte/Temp/CF_XMC4700/cleanflight/src/main/fc\rc_modes.h ****     boxId_e linkedTo;
 115:D:/XMC/Projekte/Temp/CF_XMC4700/cleanflight/src/main/fc\rc_modes.h **** } modeActivationCondition_t;
 116:D:/XMC/Projekte/Temp/CF_XMC4700/cleanflight/src/main/fc\rc_modes.h **** 
 117:D:/XMC/Projekte/Temp/CF_XMC4700/cleanflight/src/main/fc\rc_modes.h **** PG_DECLARE_ARRAY(modeActivationCondition_t, MAX_MODE_ACTIVATION_CONDITION_COUNT, modeActivationCond
 252              	 .loc 4 117 0
 253              	 .cfi_startproc
 254              	 
 255              	 
 256              	 
 257 0000 80B4     	 push {r7}
 258              	.LCFI22:
 259              	 .cfi_def_cfa_offset 4
 260              	 .cfi_offset 7,-4
 261 0002 83B0     	 sub sp,sp,#12
 262              	.LCFI23:
 263              	 .cfi_def_cfa_offset 16
 264 0004 00AF     	 add r7,sp,#0
 265              	.LCFI24:
 266              	 .cfi_def_cfa_register 7
 267 0006 7860     	 str r0,[r7,#4]
 268              	 .loc 4 117 0
 269 0008 7A68     	 ldr r2,[r7,#4]
 270 000a 1346     	 mov r3,r2
 271 000c 5B00     	 lsls r3,r3,#1
 272 000e 1344     	 add r3,r3,r2
 273 0010 5B00     	 lsls r3,r3,#1
 274 0012 044A     	 ldr r2,.L23
 275 0014 1344     	 add r3,r3,r2
 276 0016 1846     	 mov r0,r3
 277 0018 0C37     	 adds r7,r7,#12
 278              	.LCFI25:
 279              	 .cfi_def_cfa_offset 4
 280 001a BD46     	 mov sp,r7
 281              	.LCFI26:
 282              	 .cfi_def_cfa_register 13
 283              	 
 284 001c 5DF8047B 	 ldr r7,[sp],#4
 285              	.LCFI27:
 286              	 .cfi_restore 7
 287              	 .cfi_def_cfa_offset 0
 288 0020 7047     	 bx lr
 289              	.L24:
 290 0022 00BF     	 .align 2
 291              	.L23:
 292 0024 00000000 	 .word modeActivationConditions_SystemArray
 293              	 .cfi_endproc
 294              	.LFE571:
 296              	 .section .text.modeActivationConditionsMutable,"ax",%progbits
 297              	 .align 2
 298              	 .thumb
 299              	 .thumb_func
 301              	modeActivationConditionsMutable:
 302              	.LFB572:
 303              	 .loc 4 117 0
 304              	 .cfi_startproc
 305              	 
 306              	 
 307              	 
 308 0000 80B4     	 push {r7}
 309              	.LCFI28:
 310              	 .cfi_def_cfa_offset 4
 311              	 .cfi_offset 7,-4
 312 0002 83B0     	 sub sp,sp,#12
 313              	.LCFI29:
 314              	 .cfi_def_cfa_offset 16
 315 0004 00AF     	 add r7,sp,#0
 316              	.LCFI30:
 317              	 .cfi_def_cfa_register 7
 318 0006 7860     	 str r0,[r7,#4]
 319              	 .loc 4 117 0
 320 0008 7A68     	 ldr r2,[r7,#4]
 321 000a 1346     	 mov r3,r2
 322 000c 5B00     	 lsls r3,r3,#1
 323 000e 1344     	 add r3,r3,r2
 324 0010 5B00     	 lsls r3,r3,#1
 325 0012 044A     	 ldr r2,.L27
 326 0014 1344     	 add r3,r3,r2
 327 0016 1846     	 mov r0,r3
 328 0018 0C37     	 adds r7,r7,#12
 329              	.LCFI31:
 330              	 .cfi_def_cfa_offset 4
 331 001a BD46     	 mov sp,r7
 332              	.LCFI32:
 333              	 .cfi_def_cfa_register 13
 334              	 
 335 001c 5DF8047B 	 ldr r7,[sp],#4
 336              	.LCFI33:
 337              	 .cfi_restore 7
 338              	 .cfi_def_cfa_offset 0
 339 0020 7047     	 bx lr
 340              	.L28:
 341 0022 00BF     	 .align 2
 342              	.L27:
 343 0024 00000000 	 .word modeActivationConditions_SystemArray
 344              	 .cfi_endproc
 345              	.LFE572:
 347              	 .section .text.adjustmentRanges,"ax",%progbits
 348              	 .align 2
 349              	 .thumb
 350              	 .thumb_func
 352              	adjustmentRanges:
 353              	.LFB574:
 354              	 .file 5 "D:/XMC/Projekte/Temp/CF_XMC4700/cleanflight/src/main/fc/rc_adjustments.h"
   1:D:/XMC/Projekte/Temp/CF_XMC4700/cleanflight/src/main/fc\rc_adjustments.h **** /*
   2:D:/XMC/Projekte/Temp/CF_XMC4700/cleanflight/src/main/fc\rc_adjustments.h ****  * This file is part of Cleanflight and Betaflight.
   3:D:/XMC/Projekte/Temp/CF_XMC4700/cleanflight/src/main/fc\rc_adjustments.h ****  *
   4:D:/XMC/Projekte/Temp/CF_XMC4700/cleanflight/src/main/fc\rc_adjustments.h ****  * Cleanflight and Betaflight are free software. You can redistribute
   5:D:/XMC/Projekte/Temp/CF_XMC4700/cleanflight/src/main/fc\rc_adjustments.h ****  * this software and/or modify this software under the terms of the
   6:D:/XMC/Projekte/Temp/CF_XMC4700/cleanflight/src/main/fc\rc_adjustments.h ****  * GNU General Public License as published by the Free Software
   7:D:/XMC/Projekte/Temp/CF_XMC4700/cleanflight/src/main/fc\rc_adjustments.h ****  * Foundation, either version 3 of the License, or (at your option)
   8:D:/XMC/Projekte/Temp/CF_XMC4700/cleanflight/src/main/fc\rc_adjustments.h ****  * any later version.
   9:D:/XMC/Projekte/Temp/CF_XMC4700/cleanflight/src/main/fc\rc_adjustments.h ****  *
  10:D:/XMC/Projekte/Temp/CF_XMC4700/cleanflight/src/main/fc\rc_adjustments.h ****  * Cleanflight and Betaflight are distributed in the hope that they
  11:D:/XMC/Projekte/Temp/CF_XMC4700/cleanflight/src/main/fc\rc_adjustments.h ****  * will be useful, but WITHOUT ANY WARRANTY; without even the implied
  12:D:/XMC/Projekte/Temp/CF_XMC4700/cleanflight/src/main/fc\rc_adjustments.h ****  * warranty of MERCHANTABILITY or FITNESS FOR A PARTICULAR PURPOSE.
  13:D:/XMC/Projekte/Temp/CF_XMC4700/cleanflight/src/main/fc\rc_adjustments.h ****  * See the GNU General Public License for more details.
  14:D:/XMC/Projekte/Temp/CF_XMC4700/cleanflight/src/main/fc\rc_adjustments.h ****  *
  15:D:/XMC/Projekte/Temp/CF_XMC4700/cleanflight/src/main/fc\rc_adjustments.h ****  * You should have received a copy of the GNU General Public License
  16:D:/XMC/Projekte/Temp/CF_XMC4700/cleanflight/src/main/fc\rc_adjustments.h ****  * along with this software.
  17:D:/XMC/Projekte/Temp/CF_XMC4700/cleanflight/src/main/fc\rc_adjustments.h ****  *
  18:D:/XMC/Projekte/Temp/CF_XMC4700/cleanflight/src/main/fc\rc_adjustments.h ****  * If not, see <http://www.gnu.org/licenses/>.
  19:D:/XMC/Projekte/Temp/CF_XMC4700/cleanflight/src/main/fc\rc_adjustments.h ****  */
  20:D:/XMC/Projekte/Temp/CF_XMC4700/cleanflight/src/main/fc\rc_adjustments.h **** 
  21:D:/XMC/Projekte/Temp/CF_XMC4700/cleanflight/src/main/fc\rc_adjustments.h **** #pragma once
  22:D:/XMC/Projekte/Temp/CF_XMC4700/cleanflight/src/main/fc\rc_adjustments.h **** 
  23:D:/XMC/Projekte/Temp/CF_XMC4700/cleanflight/src/main/fc\rc_adjustments.h **** #include <stdbool.h>
  24:D:/XMC/Projekte/Temp/CF_XMC4700/cleanflight/src/main/fc\rc_adjustments.h **** #include "pg/pg.h"
  25:D:/XMC/Projekte/Temp/CF_XMC4700/cleanflight/src/main/fc\rc_adjustments.h **** #include "fc/rc_modes.h"
  26:D:/XMC/Projekte/Temp/CF_XMC4700/cleanflight/src/main/fc\rc_adjustments.h **** 
  27:D:/XMC/Projekte/Temp/CF_XMC4700/cleanflight/src/main/fc\rc_adjustments.h **** typedef enum {
  28:D:/XMC/Projekte/Temp/CF_XMC4700/cleanflight/src/main/fc\rc_adjustments.h ****     ADJUSTMENT_NONE = 0,
  29:D:/XMC/Projekte/Temp/CF_XMC4700/cleanflight/src/main/fc\rc_adjustments.h ****     ADJUSTMENT_RC_RATE,
  30:D:/XMC/Projekte/Temp/CF_XMC4700/cleanflight/src/main/fc\rc_adjustments.h ****     ADJUSTMENT_RC_EXPO,
  31:D:/XMC/Projekte/Temp/CF_XMC4700/cleanflight/src/main/fc\rc_adjustments.h ****     ADJUSTMENT_THROTTLE_EXPO,
  32:D:/XMC/Projekte/Temp/CF_XMC4700/cleanflight/src/main/fc\rc_adjustments.h ****     ADJUSTMENT_PITCH_ROLL_RATE,
  33:D:/XMC/Projekte/Temp/CF_XMC4700/cleanflight/src/main/fc\rc_adjustments.h ****     ADJUSTMENT_YAW_RATE,
  34:D:/XMC/Projekte/Temp/CF_XMC4700/cleanflight/src/main/fc\rc_adjustments.h ****     ADJUSTMENT_PITCH_ROLL_P,
  35:D:/XMC/Projekte/Temp/CF_XMC4700/cleanflight/src/main/fc\rc_adjustments.h ****     ADJUSTMENT_PITCH_ROLL_I,
  36:D:/XMC/Projekte/Temp/CF_XMC4700/cleanflight/src/main/fc\rc_adjustments.h ****     ADJUSTMENT_PITCH_ROLL_D,
  37:D:/XMC/Projekte/Temp/CF_XMC4700/cleanflight/src/main/fc\rc_adjustments.h ****     ADJUSTMENT_YAW_P,
  38:D:/XMC/Projekte/Temp/CF_XMC4700/cleanflight/src/main/fc\rc_adjustments.h ****     ADJUSTMENT_YAW_I,
  39:D:/XMC/Projekte/Temp/CF_XMC4700/cleanflight/src/main/fc\rc_adjustments.h ****     ADJUSTMENT_YAW_D,
  40:D:/XMC/Projekte/Temp/CF_XMC4700/cleanflight/src/main/fc\rc_adjustments.h ****     ADJUSTMENT_RATE_PROFILE,
  41:D:/XMC/Projekte/Temp/CF_XMC4700/cleanflight/src/main/fc\rc_adjustments.h ****     ADJUSTMENT_PITCH_RATE,
  42:D:/XMC/Projekte/Temp/CF_XMC4700/cleanflight/src/main/fc\rc_adjustments.h ****     ADJUSTMENT_ROLL_RATE,
  43:D:/XMC/Projekte/Temp/CF_XMC4700/cleanflight/src/main/fc\rc_adjustments.h ****     ADJUSTMENT_PITCH_P,
  44:D:/XMC/Projekte/Temp/CF_XMC4700/cleanflight/src/main/fc\rc_adjustments.h ****     ADJUSTMENT_PITCH_I,
  45:D:/XMC/Projekte/Temp/CF_XMC4700/cleanflight/src/main/fc\rc_adjustments.h ****     ADJUSTMENT_PITCH_D,
  46:D:/XMC/Projekte/Temp/CF_XMC4700/cleanflight/src/main/fc\rc_adjustments.h ****     ADJUSTMENT_ROLL_P,
  47:D:/XMC/Projekte/Temp/CF_XMC4700/cleanflight/src/main/fc\rc_adjustments.h ****     ADJUSTMENT_ROLL_I,
  48:D:/XMC/Projekte/Temp/CF_XMC4700/cleanflight/src/main/fc\rc_adjustments.h ****     ADJUSTMENT_ROLL_D,
  49:D:/XMC/Projekte/Temp/CF_XMC4700/cleanflight/src/main/fc\rc_adjustments.h ****     ADJUSTMENT_RC_RATE_YAW,
  50:D:/XMC/Projekte/Temp/CF_XMC4700/cleanflight/src/main/fc\rc_adjustments.h ****     ADJUSTMENT_PITCH_ROLL_F,
  51:D:/XMC/Projekte/Temp/CF_XMC4700/cleanflight/src/main/fc\rc_adjustments.h ****     ADJUSTMENT_FEEDFORWARD_TRANSITION,
  52:D:/XMC/Projekte/Temp/CF_XMC4700/cleanflight/src/main/fc\rc_adjustments.h ****     ADJUSTMENT_HORIZON_STRENGTH,
  53:D:/XMC/Projekte/Temp/CF_XMC4700/cleanflight/src/main/fc\rc_adjustments.h ****     ADJUSTMENT_ROLL_RC_RATE,
  54:D:/XMC/Projekte/Temp/CF_XMC4700/cleanflight/src/main/fc\rc_adjustments.h ****     ADJUSTMENT_PITCH_RC_RATE,
  55:D:/XMC/Projekte/Temp/CF_XMC4700/cleanflight/src/main/fc\rc_adjustments.h ****     ADJUSTMENT_ROLL_RC_EXPO,
  56:D:/XMC/Projekte/Temp/CF_XMC4700/cleanflight/src/main/fc\rc_adjustments.h ****     ADJUSTMENT_PITCH_RC_EXPO,
  57:D:/XMC/Projekte/Temp/CF_XMC4700/cleanflight/src/main/fc\rc_adjustments.h ****     ADJUSTMENT_PID_AUDIO,
  58:D:/XMC/Projekte/Temp/CF_XMC4700/cleanflight/src/main/fc\rc_adjustments.h ****     ADJUSTMENT_PITCH_F,
  59:D:/XMC/Projekte/Temp/CF_XMC4700/cleanflight/src/main/fc\rc_adjustments.h ****     ADJUSTMENT_ROLL_F,
  60:D:/XMC/Projekte/Temp/CF_XMC4700/cleanflight/src/main/fc\rc_adjustments.h ****     ADJUSTMENT_YAW_F,
  61:D:/XMC/Projekte/Temp/CF_XMC4700/cleanflight/src/main/fc\rc_adjustments.h ****     ADJUSTMENT_FUNCTION_COUNT
  62:D:/XMC/Projekte/Temp/CF_XMC4700/cleanflight/src/main/fc\rc_adjustments.h **** } adjustmentFunction_e;
  63:D:/XMC/Projekte/Temp/CF_XMC4700/cleanflight/src/main/fc\rc_adjustments.h **** 
  64:D:/XMC/Projekte/Temp/CF_XMC4700/cleanflight/src/main/fc\rc_adjustments.h **** typedef enum {
  65:D:/XMC/Projekte/Temp/CF_XMC4700/cleanflight/src/main/fc\rc_adjustments.h ****     ADJUSTMENT_MODE_STEP,
  66:D:/XMC/Projekte/Temp/CF_XMC4700/cleanflight/src/main/fc\rc_adjustments.h ****     ADJUSTMENT_MODE_SELECT
  67:D:/XMC/Projekte/Temp/CF_XMC4700/cleanflight/src/main/fc\rc_adjustments.h **** } adjustmentMode_e;
  68:D:/XMC/Projekte/Temp/CF_XMC4700/cleanflight/src/main/fc\rc_adjustments.h **** 
  69:D:/XMC/Projekte/Temp/CF_XMC4700/cleanflight/src/main/fc\rc_adjustments.h **** typedef union adjustmentConfig_u {
  70:D:/XMC/Projekte/Temp/CF_XMC4700/cleanflight/src/main/fc\rc_adjustments.h ****     uint8_t step;
  71:D:/XMC/Projekte/Temp/CF_XMC4700/cleanflight/src/main/fc\rc_adjustments.h ****     uint8_t switchPositions;
  72:D:/XMC/Projekte/Temp/CF_XMC4700/cleanflight/src/main/fc\rc_adjustments.h **** } adjustmentData_t;
  73:D:/XMC/Projekte/Temp/CF_XMC4700/cleanflight/src/main/fc\rc_adjustments.h **** 
  74:D:/XMC/Projekte/Temp/CF_XMC4700/cleanflight/src/main/fc\rc_adjustments.h **** typedef struct adjustmentConfig_s {
  75:D:/XMC/Projekte/Temp/CF_XMC4700/cleanflight/src/main/fc\rc_adjustments.h ****     adjustmentFunction_e adjustmentFunction;
  76:D:/XMC/Projekte/Temp/CF_XMC4700/cleanflight/src/main/fc\rc_adjustments.h ****     adjustmentMode_e mode;
  77:D:/XMC/Projekte/Temp/CF_XMC4700/cleanflight/src/main/fc\rc_adjustments.h ****     adjustmentData_t data;
  78:D:/XMC/Projekte/Temp/CF_XMC4700/cleanflight/src/main/fc\rc_adjustments.h **** } adjustmentConfig_t;
  79:D:/XMC/Projekte/Temp/CF_XMC4700/cleanflight/src/main/fc\rc_adjustments.h **** 
  80:D:/XMC/Projekte/Temp/CF_XMC4700/cleanflight/src/main/fc\rc_adjustments.h **** #define MAX_ADJUSTMENT_RANGE_COUNT 15
  81:D:/XMC/Projekte/Temp/CF_XMC4700/cleanflight/src/main/fc\rc_adjustments.h **** 
  82:D:/XMC/Projekte/Temp/CF_XMC4700/cleanflight/src/main/fc\rc_adjustments.h **** typedef struct adjustmentRange_s {
  83:D:/XMC/Projekte/Temp/CF_XMC4700/cleanflight/src/main/fc\rc_adjustments.h ****     // when aux channel is in range...
  84:D:/XMC/Projekte/Temp/CF_XMC4700/cleanflight/src/main/fc\rc_adjustments.h ****     uint8_t auxChannelIndex;
  85:D:/XMC/Projekte/Temp/CF_XMC4700/cleanflight/src/main/fc\rc_adjustments.h ****     channelRange_t range;
  86:D:/XMC/Projekte/Temp/CF_XMC4700/cleanflight/src/main/fc\rc_adjustments.h **** 
  87:D:/XMC/Projekte/Temp/CF_XMC4700/cleanflight/src/main/fc\rc_adjustments.h ****     // ..then apply the adjustment function to the auxSwitchChannel ...
  88:D:/XMC/Projekte/Temp/CF_XMC4700/cleanflight/src/main/fc\rc_adjustments.h ****     uint8_t adjustmentFunction;
  89:D:/XMC/Projekte/Temp/CF_XMC4700/cleanflight/src/main/fc\rc_adjustments.h ****     uint8_t auxSwitchChannelIndex;
  90:D:/XMC/Projekte/Temp/CF_XMC4700/cleanflight/src/main/fc\rc_adjustments.h **** 
  91:D:/XMC/Projekte/Temp/CF_XMC4700/cleanflight/src/main/fc\rc_adjustments.h ****     // ... via slot
  92:D:/XMC/Projekte/Temp/CF_XMC4700/cleanflight/src/main/fc\rc_adjustments.h ****     uint8_t adjustmentIndex;
  93:D:/XMC/Projekte/Temp/CF_XMC4700/cleanflight/src/main/fc\rc_adjustments.h ****     uint16_t adjustmentCenter;
  94:D:/XMC/Projekte/Temp/CF_XMC4700/cleanflight/src/main/fc\rc_adjustments.h ****     uint16_t adjustmentScale;
  95:D:/XMC/Projekte/Temp/CF_XMC4700/cleanflight/src/main/fc\rc_adjustments.h **** } adjustmentRange_t;
  96:D:/XMC/Projekte/Temp/CF_XMC4700/cleanflight/src/main/fc\rc_adjustments.h **** 
  97:D:/XMC/Projekte/Temp/CF_XMC4700/cleanflight/src/main/fc\rc_adjustments.h **** PG_DECLARE_ARRAY(adjustmentRange_t, MAX_ADJUSTMENT_RANGE_COUNT, adjustmentRanges);
 355              	 .loc 5 97 0
 356              	 .cfi_startproc
 357              	 
 358              	 
 359              	 
 360 0000 80B4     	 push {r7}
 361              	.LCFI34:
 362              	 .cfi_def_cfa_offset 4
 363              	 .cfi_offset 7,-4
 364 0002 83B0     	 sub sp,sp,#12
 365              	.LCFI35:
 366              	 .cfi_def_cfa_offset 16
 367 0004 00AF     	 add r7,sp,#0
 368              	.LCFI36:
 369              	 .cfi_def_cfa_register 7
 370 0006 7860     	 str r0,[r7,#4]
 371              	 .loc 5 97 0
 372 0008 7A68     	 ldr r2,[r7,#4]
 373 000a 1346     	 mov r3,r2
 374 000c 9B00     	 lsls r3,r3,#2
 375 000e 1344     	 add r3,r3,r2
 376 0010 5B00     	 lsls r3,r3,#1
 377 0012 044A     	 ldr r2,.L31
 378 0014 1344     	 add r3,r3,r2
 379 0016 1846     	 mov r0,r3
 380 0018 0C37     	 adds r7,r7,#12
 381              	.LCFI37:
 382              	 .cfi_def_cfa_offset 4
 383 001a BD46     	 mov sp,r7
 384              	.LCFI38:
 385              	 .cfi_def_cfa_register 13
 386              	 
 387 001c 5DF8047B 	 ldr r7,[sp],#4
 388              	.LCFI39:
 389              	 .cfi_restore 7
 390              	 .cfi_def_cfa_offset 0
 391 0020 7047     	 bx lr
 392              	.L32:
 393 0022 00BF     	 .align 2
 394              	.L31:
 395 0024 00000000 	 .word adjustmentRanges_SystemArray
 396              	 .cfi_endproc
 397              	.LFE574:
 399              	 .section .text.adjustmentRangesMutable,"ax",%progbits
 400              	 .align 2
 401              	 .thumb
 402              	 .thumb_func
 404              	adjustmentRangesMutable:
 405              	.LFB575:
 406              	 .loc 5 97 0
 407              	 .cfi_startproc
 408              	 
 409              	 
 410              	 
 411 0000 80B4     	 push {r7}
 412              	.LCFI40:
 413              	 .cfi_def_cfa_offset 4
 414              	 .cfi_offset 7,-4
 415 0002 83B0     	 sub sp,sp,#12
 416              	.LCFI41:
 417              	 .cfi_def_cfa_offset 16
 418 0004 00AF     	 add r7,sp,#0
 419              	.LCFI42:
 420              	 .cfi_def_cfa_register 7
 421 0006 7860     	 str r0,[r7,#4]
 422              	 .loc 5 97 0
 423 0008 7A68     	 ldr r2,[r7,#4]
 424 000a 1346     	 mov r3,r2
 425 000c 9B00     	 lsls r3,r3,#2
 426 000e 1344     	 add r3,r3,r2
 427 0010 5B00     	 lsls r3,r3,#1
 428 0012 044A     	 ldr r2,.L35
 429 0014 1344     	 add r3,r3,r2
 430 0016 1846     	 mov r0,r3
 431 0018 0C37     	 adds r7,r7,#12
 432              	.LCFI43:
 433              	 .cfi_def_cfa_offset 4
 434 001a BD46     	 mov sp,r7
 435              	.LCFI44:
 436              	 .cfi_def_cfa_register 13
 437              	 
 438 001c 5DF8047B 	 ldr r7,[sp],#4
 439              	.LCFI45:
 440              	 .cfi_restore 7
 441              	 .cfi_def_cfa_offset 0
 442 0020 7047     	 bx lr
 443              	.L36:
 444 0022 00BF     	 .align 2
 445              	.L35:
 446 0024 00000000 	 .word adjustmentRanges_SystemArray
 447              	 .cfi_endproc
 448              	.LFE575:
 450              	 .section .text.customMotorMixer,"ax",%progbits
 451              	 .align 2
 452              	 .thumb
 453              	 .thumb_func
 455              	customMotorMixer:
 456              	.LFB587:
 457              	 .file 6 "D:/XMC/Projekte/Temp/CF_XMC4700/cleanflight/src/main/flight/mixer.h"
   1:D:/XMC/Projekte/Temp/CF_XMC4700/cleanflight/src/main/flight\mixer.h **** /*
   2:D:/XMC/Projekte/Temp/CF_XMC4700/cleanflight/src/main/flight\mixer.h ****  * This file is part of Cleanflight and Betaflight.
   3:D:/XMC/Projekte/Temp/CF_XMC4700/cleanflight/src/main/flight\mixer.h ****  *
   4:D:/XMC/Projekte/Temp/CF_XMC4700/cleanflight/src/main/flight\mixer.h ****  * Cleanflight and Betaflight are free software. You can redistribute
   5:D:/XMC/Projekte/Temp/CF_XMC4700/cleanflight/src/main/flight\mixer.h ****  * this software and/or modify this software under the terms of the
   6:D:/XMC/Projekte/Temp/CF_XMC4700/cleanflight/src/main/flight\mixer.h ****  * GNU General Public License as published by the Free Software
   7:D:/XMC/Projekte/Temp/CF_XMC4700/cleanflight/src/main/flight\mixer.h ****  * Foundation, either version 3 of the License, or (at your option)
   8:D:/XMC/Projekte/Temp/CF_XMC4700/cleanflight/src/main/flight\mixer.h ****  * any later version.
   9:D:/XMC/Projekte/Temp/CF_XMC4700/cleanflight/src/main/flight\mixer.h ****  *
  10:D:/XMC/Projekte/Temp/CF_XMC4700/cleanflight/src/main/flight\mixer.h ****  * Cleanflight and Betaflight are distributed in the hope that they
  11:D:/XMC/Projekte/Temp/CF_XMC4700/cleanflight/src/main/flight\mixer.h ****  * will be useful, but WITHOUT ANY WARRANTY; without even the implied
  12:D:/XMC/Projekte/Temp/CF_XMC4700/cleanflight/src/main/flight\mixer.h ****  * warranty of MERCHANTABILITY or FITNESS FOR A PARTICULAR PURPOSE.
  13:D:/XMC/Projekte/Temp/CF_XMC4700/cleanflight/src/main/flight\mixer.h ****  * See the GNU General Public License for more details.
  14:D:/XMC/Projekte/Temp/CF_XMC4700/cleanflight/src/main/flight\mixer.h ****  *
  15:D:/XMC/Projekte/Temp/CF_XMC4700/cleanflight/src/main/flight\mixer.h ****  * You should have received a copy of the GNU General Public License
  16:D:/XMC/Projekte/Temp/CF_XMC4700/cleanflight/src/main/flight\mixer.h ****  * along with this software.
  17:D:/XMC/Projekte/Temp/CF_XMC4700/cleanflight/src/main/flight\mixer.h ****  *
  18:D:/XMC/Projekte/Temp/CF_XMC4700/cleanflight/src/main/flight\mixer.h ****  * If not, see <http://www.gnu.org/licenses/>.
  19:D:/XMC/Projekte/Temp/CF_XMC4700/cleanflight/src/main/flight\mixer.h ****  */
  20:D:/XMC/Projekte/Temp/CF_XMC4700/cleanflight/src/main/flight\mixer.h **** 
  21:D:/XMC/Projekte/Temp/CF_XMC4700/cleanflight/src/main/flight\mixer.h **** #pragma once
  22:D:/XMC/Projekte/Temp/CF_XMC4700/cleanflight/src/main/flight\mixer.h **** 
  23:D:/XMC/Projekte/Temp/CF_XMC4700/cleanflight/src/main/flight\mixer.h **** #include "platform.h"
  24:D:/XMC/Projekte/Temp/CF_XMC4700/cleanflight/src/main/flight\mixer.h **** 
  25:D:/XMC/Projekte/Temp/CF_XMC4700/cleanflight/src/main/flight\mixer.h **** #include "common/time.h"
  26:D:/XMC/Projekte/Temp/CF_XMC4700/cleanflight/src/main/flight\mixer.h **** #include "pg/pg.h"
  27:D:/XMC/Projekte/Temp/CF_XMC4700/cleanflight/src/main/flight\mixer.h **** #include "drivers/pwm_output_counts.h"
  28:D:/XMC/Projekte/Temp/CF_XMC4700/cleanflight/src/main/flight\mixer.h **** #include "drivers/io_types.h"
  29:D:/XMC/Projekte/Temp/CF_XMC4700/cleanflight/src/main/flight\mixer.h **** #include "drivers/pwm_output.h"
  30:D:/XMC/Projekte/Temp/CF_XMC4700/cleanflight/src/main/flight\mixer.h **** 
  31:D:/XMC/Projekte/Temp/CF_XMC4700/cleanflight/src/main/flight\mixer.h **** #define QUAD_MOTOR_COUNT 4
  32:D:/XMC/Projekte/Temp/CF_XMC4700/cleanflight/src/main/flight\mixer.h **** #define BRUSHED_MOTORS_PWM_RATE 16000
  33:D:/XMC/Projekte/Temp/CF_XMC4700/cleanflight/src/main/flight\mixer.h **** #define BRUSHLESS_MOTORS_PWM_RATE 480
  34:D:/XMC/Projekte/Temp/CF_XMC4700/cleanflight/src/main/flight\mixer.h **** 
  35:D:/XMC/Projekte/Temp/CF_XMC4700/cleanflight/src/main/flight\mixer.h **** // Digital protocol has fixed values
  36:D:/XMC/Projekte/Temp/CF_XMC4700/cleanflight/src/main/flight\mixer.h **** #define DSHOT_DISARM_COMMAND      0
  37:D:/XMC/Projekte/Temp/CF_XMC4700/cleanflight/src/main/flight\mixer.h **** #define DSHOT_MIN_THROTTLE       48
  38:D:/XMC/Projekte/Temp/CF_XMC4700/cleanflight/src/main/flight\mixer.h **** #define DSHOT_MAX_THROTTLE     2047
  39:D:/XMC/Projekte/Temp/CF_XMC4700/cleanflight/src/main/flight\mixer.h **** #define DSHOT_3D_DEADBAND_LOW  1047
  40:D:/XMC/Projekte/Temp/CF_XMC4700/cleanflight/src/main/flight\mixer.h **** #define DSHOT_3D_DEADBAND_HIGH 1048
  41:D:/XMC/Projekte/Temp/CF_XMC4700/cleanflight/src/main/flight\mixer.h **** 
  42:D:/XMC/Projekte/Temp/CF_XMC4700/cleanflight/src/main/flight\mixer.h **** // Note: this is called MultiType/MULTITYPE_* in baseflight.
  43:D:/XMC/Projekte/Temp/CF_XMC4700/cleanflight/src/main/flight\mixer.h **** typedef enum mixerMode
  44:D:/XMC/Projekte/Temp/CF_XMC4700/cleanflight/src/main/flight\mixer.h **** {
  45:D:/XMC/Projekte/Temp/CF_XMC4700/cleanflight/src/main/flight\mixer.h ****     MIXER_TRI = 1,
  46:D:/XMC/Projekte/Temp/CF_XMC4700/cleanflight/src/main/flight\mixer.h ****     MIXER_QUADP = 2,
  47:D:/XMC/Projekte/Temp/CF_XMC4700/cleanflight/src/main/flight\mixer.h ****     MIXER_QUADX = 3,
  48:D:/XMC/Projekte/Temp/CF_XMC4700/cleanflight/src/main/flight\mixer.h ****     MIXER_BICOPTER = 4,
  49:D:/XMC/Projekte/Temp/CF_XMC4700/cleanflight/src/main/flight\mixer.h ****     MIXER_GIMBAL = 5,
  50:D:/XMC/Projekte/Temp/CF_XMC4700/cleanflight/src/main/flight\mixer.h ****     MIXER_Y6 = 6,
  51:D:/XMC/Projekte/Temp/CF_XMC4700/cleanflight/src/main/flight\mixer.h ****     MIXER_HEX6 = 7,
  52:D:/XMC/Projekte/Temp/CF_XMC4700/cleanflight/src/main/flight\mixer.h ****     MIXER_FLYING_WING = 8,
  53:D:/XMC/Projekte/Temp/CF_XMC4700/cleanflight/src/main/flight\mixer.h ****     MIXER_Y4 = 9,
  54:D:/XMC/Projekte/Temp/CF_XMC4700/cleanflight/src/main/flight\mixer.h ****     MIXER_HEX6X = 10,
  55:D:/XMC/Projekte/Temp/CF_XMC4700/cleanflight/src/main/flight\mixer.h ****     MIXER_OCTOX8 = 11,
  56:D:/XMC/Projekte/Temp/CF_XMC4700/cleanflight/src/main/flight\mixer.h ****     MIXER_OCTOFLATP = 12,
  57:D:/XMC/Projekte/Temp/CF_XMC4700/cleanflight/src/main/flight\mixer.h ****     MIXER_OCTOFLATX = 13,
  58:D:/XMC/Projekte/Temp/CF_XMC4700/cleanflight/src/main/flight\mixer.h ****     MIXER_AIRPLANE = 14,        // airplane / singlecopter / dualcopter (not yet properly supported
  59:D:/XMC/Projekte/Temp/CF_XMC4700/cleanflight/src/main/flight\mixer.h ****     MIXER_HELI_120_CCPM = 15,
  60:D:/XMC/Projekte/Temp/CF_XMC4700/cleanflight/src/main/flight\mixer.h ****     MIXER_HELI_90_DEG = 16,
  61:D:/XMC/Projekte/Temp/CF_XMC4700/cleanflight/src/main/flight\mixer.h ****     MIXER_VTAIL4 = 17,
  62:D:/XMC/Projekte/Temp/CF_XMC4700/cleanflight/src/main/flight\mixer.h ****     MIXER_HEX6H = 18,
  63:D:/XMC/Projekte/Temp/CF_XMC4700/cleanflight/src/main/flight\mixer.h ****     MIXER_RX_TO_SERVO = 19,    // PPM -> servo relay
  64:D:/XMC/Projekte/Temp/CF_XMC4700/cleanflight/src/main/flight\mixer.h ****     MIXER_DUALCOPTER = 20,
  65:D:/XMC/Projekte/Temp/CF_XMC4700/cleanflight/src/main/flight\mixer.h ****     MIXER_SINGLECOPTER = 21,
  66:D:/XMC/Projekte/Temp/CF_XMC4700/cleanflight/src/main/flight\mixer.h ****     MIXER_ATAIL4 = 22,
  67:D:/XMC/Projekte/Temp/CF_XMC4700/cleanflight/src/main/flight\mixer.h ****     MIXER_CUSTOM = 23,
  68:D:/XMC/Projekte/Temp/CF_XMC4700/cleanflight/src/main/flight\mixer.h ****     MIXER_CUSTOM_AIRPLANE = 24,
  69:D:/XMC/Projekte/Temp/CF_XMC4700/cleanflight/src/main/flight\mixer.h ****     MIXER_CUSTOM_TRI = 25,
  70:D:/XMC/Projekte/Temp/CF_XMC4700/cleanflight/src/main/flight\mixer.h ****     MIXER_QUADX_1234 = 26
  71:D:/XMC/Projekte/Temp/CF_XMC4700/cleanflight/src/main/flight\mixer.h **** } mixerMode_e;
  72:D:/XMC/Projekte/Temp/CF_XMC4700/cleanflight/src/main/flight\mixer.h **** 
  73:D:/XMC/Projekte/Temp/CF_XMC4700/cleanflight/src/main/flight\mixer.h **** // Custom mixer data per motor
  74:D:/XMC/Projekte/Temp/CF_XMC4700/cleanflight/src/main/flight\mixer.h **** typedef struct motorMixer_s {
  75:D:/XMC/Projekte/Temp/CF_XMC4700/cleanflight/src/main/flight\mixer.h ****     float throttle;
  76:D:/XMC/Projekte/Temp/CF_XMC4700/cleanflight/src/main/flight\mixer.h ****     float roll;
  77:D:/XMC/Projekte/Temp/CF_XMC4700/cleanflight/src/main/flight\mixer.h ****     float pitch;
  78:D:/XMC/Projekte/Temp/CF_XMC4700/cleanflight/src/main/flight\mixer.h ****     float yaw;
  79:D:/XMC/Projekte/Temp/CF_XMC4700/cleanflight/src/main/flight\mixer.h **** } motorMixer_t;
  80:D:/XMC/Projekte/Temp/CF_XMC4700/cleanflight/src/main/flight\mixer.h **** 
  81:D:/XMC/Projekte/Temp/CF_XMC4700/cleanflight/src/main/flight\mixer.h **** PG_DECLARE_ARRAY(motorMixer_t, MAX_SUPPORTED_MOTORS, customMotorMixer);
 458              	 .loc 6 81 0
 459              	 .cfi_startproc
 460              	 
 461              	 
 462              	 
 463 0000 80B4     	 push {r7}
 464              	.LCFI46:
 465              	 .cfi_def_cfa_offset 4
 466              	 .cfi_offset 7,-4
 467 0002 83B0     	 sub sp,sp,#12
 468              	.LCFI47:
 469              	 .cfi_def_cfa_offset 16
 470 0004 00AF     	 add r7,sp,#0
 471              	.LCFI48:
 472              	 .cfi_def_cfa_register 7
 473 0006 7860     	 str r0,[r7,#4]
 474              	 .loc 6 81 0
 475 0008 7B68     	 ldr r3,[r7,#4]
 476 000a 1B01     	 lsls r3,r3,#4
 477 000c 034A     	 ldr r2,.L39
 478 000e 1344     	 add r3,r3,r2
 479 0010 1846     	 mov r0,r3
 480 0012 0C37     	 adds r7,r7,#12
 481              	.LCFI49:
 482              	 .cfi_def_cfa_offset 4
 483 0014 BD46     	 mov sp,r7
 484              	.LCFI50:
 485              	 .cfi_def_cfa_register 13
 486              	 
 487 0016 5DF8047B 	 ldr r7,[sp],#4
 488              	.LCFI51:
 489              	 .cfi_restore 7
 490              	 .cfi_def_cfa_offset 0
 491 001a 7047     	 bx lr
 492              	.L40:
 493              	 .align 2
 494              	.L39:
 495 001c 00000000 	 .word customMotorMixer_SystemArray
 496              	 .cfi_endproc
 497              	.LFE587:
 499              	 .section .text.customMotorMixerMutable,"ax",%progbits
 500              	 .align 2
 501              	 .thumb
 502              	 .thumb_func
 504              	customMotorMixerMutable:
 505              	.LFB588:
 506              	 .loc 6 81 0
 507              	 .cfi_startproc
 508              	 
 509              	 
 510              	 
 511 0000 80B4     	 push {r7}
 512              	.LCFI52:
 513              	 .cfi_def_cfa_offset 4
 514              	 .cfi_offset 7,-4
 515 0002 83B0     	 sub sp,sp,#12
 516              	.LCFI53:
 517              	 .cfi_def_cfa_offset 16
 518 0004 00AF     	 add r7,sp,#0
 519              	.LCFI54:
 520              	 .cfi_def_cfa_register 7
 521 0006 7860     	 str r0,[r7,#4]
 522              	 .loc 6 81 0
 523 0008 7B68     	 ldr r3,[r7,#4]
 524 000a 1B01     	 lsls r3,r3,#4
 525 000c 034A     	 ldr r2,.L43
 526 000e 1344     	 add r3,r3,r2
 527 0010 1846     	 mov r0,r3
 528 0012 0C37     	 adds r7,r7,#12
 529              	.LCFI55:
 530              	 .cfi_def_cfa_offset 4
 531 0014 BD46     	 mov sp,r7
 532              	.LCFI56:
 533              	 .cfi_def_cfa_register 13
 534              	 
 535 0016 5DF8047B 	 ldr r7,[sp],#4
 536              	.LCFI57:
 537              	 .cfi_restore 7
 538              	 .cfi_def_cfa_offset 0
 539 001a 7047     	 bx lr
 540              	.L44:
 541              	 .align 2
 542              	.L43:
 543 001c 00000000 	 .word customMotorMixer_SystemArray
 544              	 .cfi_endproc
 545              	.LFE588:
 547              	 .section .text.mixerConfig,"ax",%progbits
 548              	 .align 2
 549              	 .thumb
 550              	 .thumb_func
 552              	mixerConfig:
 553              	.LFB590:
  82:D:/XMC/Projekte/Temp/CF_XMC4700/cleanflight/src/main/flight\mixer.h **** 
  83:D:/XMC/Projekte/Temp/CF_XMC4700/cleanflight/src/main/flight\mixer.h **** // Custom mixer configuration
  84:D:/XMC/Projekte/Temp/CF_XMC4700/cleanflight/src/main/flight\mixer.h **** typedef struct mixer_s {
  85:D:/XMC/Projekte/Temp/CF_XMC4700/cleanflight/src/main/flight\mixer.h ****     uint8_t motorCount;
  86:D:/XMC/Projekte/Temp/CF_XMC4700/cleanflight/src/main/flight\mixer.h ****     uint8_t useServo;
  87:D:/XMC/Projekte/Temp/CF_XMC4700/cleanflight/src/main/flight\mixer.h ****     const motorMixer_t *motor;
  88:D:/XMC/Projekte/Temp/CF_XMC4700/cleanflight/src/main/flight\mixer.h **** } mixer_t;
  89:D:/XMC/Projekte/Temp/CF_XMC4700/cleanflight/src/main/flight\mixer.h **** 
  90:D:/XMC/Projekte/Temp/CF_XMC4700/cleanflight/src/main/flight\mixer.h **** typedef struct mixerConfig_s {
  91:D:/XMC/Projekte/Temp/CF_XMC4700/cleanflight/src/main/flight\mixer.h ****     uint8_t mixerMode;
  92:D:/XMC/Projekte/Temp/CF_XMC4700/cleanflight/src/main/flight\mixer.h ****     bool yaw_motors_reversed;
  93:D:/XMC/Projekte/Temp/CF_XMC4700/cleanflight/src/main/flight\mixer.h ****     uint8_t crashflip_motor_percent;
  94:D:/XMC/Projekte/Temp/CF_XMC4700/cleanflight/src/main/flight\mixer.h **** } mixerConfig_t;
  95:D:/XMC/Projekte/Temp/CF_XMC4700/cleanflight/src/main/flight\mixer.h **** 
  96:D:/XMC/Projekte/Temp/CF_XMC4700/cleanflight/src/main/flight\mixer.h **** PG_DECLARE(mixerConfig_t, mixerConfig);
 554              	 .loc 6 96 0
 555              	 .cfi_startproc
 556              	 
 557              	 
 558              	 
 559 0000 80B4     	 push {r7}
 560              	.LCFI58:
 561              	 .cfi_def_cfa_offset 4
 562              	 .cfi_offset 7,-4
 563 0002 00AF     	 add r7,sp,#0
 564              	.LCFI59:
 565              	 .cfi_def_cfa_register 7
 566              	 .loc 6 96 0
 567 0004 024B     	 ldr r3,.L47
 568 0006 1846     	 mov r0,r3
 569 0008 BD46     	 mov sp,r7
 570              	.LCFI60:
 571              	 .cfi_def_cfa_register 13
 572              	 
 573 000a 5DF8047B 	 ldr r7,[sp],#4
 574              	.LCFI61:
 575              	 .cfi_restore 7
 576              	 .cfi_def_cfa_offset 0
 577 000e 7047     	 bx lr
 578              	.L48:
 579              	 .align 2
 580              	.L47:
 581 0010 00000000 	 .word mixerConfig_System
 582              	 .cfi_endproc
 583              	.LFE590:
 585              	 .section .text.mixerConfigMutable,"ax",%progbits
 586              	 .align 2
 587              	 .thumb
 588              	 .thumb_func
 590              	mixerConfigMutable:
 591              	.LFB591:
 592              	 .loc 6 96 0
 593              	 .cfi_startproc
 594              	 
 595              	 
 596              	 
 597 0000 80B4     	 push {r7}
 598              	.LCFI62:
 599              	 .cfi_def_cfa_offset 4
 600              	 .cfi_offset 7,-4
 601 0002 00AF     	 add r7,sp,#0
 602              	.LCFI63:
 603              	 .cfi_def_cfa_register 7
 604              	 .loc 6 96 0
 605 0004 024B     	 ldr r3,.L51
 606 0006 1846     	 mov r0,r3
 607 0008 BD46     	 mov sp,r7
 608              	.LCFI64:
 609              	 .cfi_def_cfa_register 13
 610              	 
 611 000a 5DF8047B 	 ldr r7,[sp],#4
 612              	.LCFI65:
 613              	 .cfi_restore 7
 614              	 .cfi_def_cfa_offset 0
 615 000e 7047     	 bx lr
 616              	.L52:
 617              	 .align 2
 618              	.L51:
 619 0010 00000000 	 .word mixerConfig_System
 620              	 .cfi_endproc
 621              	.LFE591:
 623              	 .section .text.pidConfig,"ax",%progbits
 624              	 .align 2
 625              	 .thumb
 626              	 .thumb_func
 628              	pidConfig:
 629              	.LFB597:
 630              	 .file 7 "D:/XMC/Projekte/Temp/CF_XMC4700/cleanflight/src/main/flight/pid.h"
   1:D:/XMC/Projekte/Temp/CF_XMC4700/cleanflight/src/main/flight\pid.h **** /*
   2:D:/XMC/Projekte/Temp/CF_XMC4700/cleanflight/src/main/flight\pid.h ****  * This file is part of Cleanflight and Betaflight.
   3:D:/XMC/Projekte/Temp/CF_XMC4700/cleanflight/src/main/flight\pid.h ****  *
   4:D:/XMC/Projekte/Temp/CF_XMC4700/cleanflight/src/main/flight\pid.h ****  * Cleanflight and Betaflight are free software. You can redistribute
   5:D:/XMC/Projekte/Temp/CF_XMC4700/cleanflight/src/main/flight\pid.h ****  * this software and/or modify this software under the terms of the
   6:D:/XMC/Projekte/Temp/CF_XMC4700/cleanflight/src/main/flight\pid.h ****  * GNU General Public License as published by the Free Software
   7:D:/XMC/Projekte/Temp/CF_XMC4700/cleanflight/src/main/flight\pid.h ****  * Foundation, either version 3 of the License, or (at your option)
   8:D:/XMC/Projekte/Temp/CF_XMC4700/cleanflight/src/main/flight\pid.h ****  * any later version.
   9:D:/XMC/Projekte/Temp/CF_XMC4700/cleanflight/src/main/flight\pid.h ****  *
  10:D:/XMC/Projekte/Temp/CF_XMC4700/cleanflight/src/main/flight\pid.h ****  * Cleanflight and Betaflight are distributed in the hope that they
  11:D:/XMC/Projekte/Temp/CF_XMC4700/cleanflight/src/main/flight\pid.h ****  * will be useful, but WITHOUT ANY WARRANTY; without even the implied
  12:D:/XMC/Projekte/Temp/CF_XMC4700/cleanflight/src/main/flight\pid.h ****  * warranty of MERCHANTABILITY or FITNESS FOR A PARTICULAR PURPOSE.
  13:D:/XMC/Projekte/Temp/CF_XMC4700/cleanflight/src/main/flight\pid.h ****  * See the GNU General Public License for more details.
  14:D:/XMC/Projekte/Temp/CF_XMC4700/cleanflight/src/main/flight\pid.h ****  *
  15:D:/XMC/Projekte/Temp/CF_XMC4700/cleanflight/src/main/flight\pid.h ****  * You should have received a copy of the GNU General Public License
  16:D:/XMC/Projekte/Temp/CF_XMC4700/cleanflight/src/main/flight\pid.h ****  * along with this software.
  17:D:/XMC/Projekte/Temp/CF_XMC4700/cleanflight/src/main/flight\pid.h ****  *
  18:D:/XMC/Projekte/Temp/CF_XMC4700/cleanflight/src/main/flight\pid.h ****  * If not, see <http://www.gnu.org/licenses/>.
  19:D:/XMC/Projekte/Temp/CF_XMC4700/cleanflight/src/main/flight\pid.h ****  */
  20:D:/XMC/Projekte/Temp/CF_XMC4700/cleanflight/src/main/flight\pid.h **** 
  21:D:/XMC/Projekte/Temp/CF_XMC4700/cleanflight/src/main/flight\pid.h **** #pragma once
  22:D:/XMC/Projekte/Temp/CF_XMC4700/cleanflight/src/main/flight\pid.h **** 
  23:D:/XMC/Projekte/Temp/CF_XMC4700/cleanflight/src/main/flight\pid.h **** #include <stdbool.h>
  24:D:/XMC/Projekte/Temp/CF_XMC4700/cleanflight/src/main/flight\pid.h **** #include "common/time.h"
  25:D:/XMC/Projekte/Temp/CF_XMC4700/cleanflight/src/main/flight\pid.h **** #include "common/filter.h"
  26:D:/XMC/Projekte/Temp/CF_XMC4700/cleanflight/src/main/flight\pid.h **** #include "pg/pg.h"
  27:D:/XMC/Projekte/Temp/CF_XMC4700/cleanflight/src/main/flight\pid.h **** 
  28:D:/XMC/Projekte/Temp/CF_XMC4700/cleanflight/src/main/flight\pid.h **** #define MAX_PID_PROCESS_DENOM       16
  29:D:/XMC/Projekte/Temp/CF_XMC4700/cleanflight/src/main/flight\pid.h **** #define PID_CONTROLLER_BETAFLIGHT   1
  30:D:/XMC/Projekte/Temp/CF_XMC4700/cleanflight/src/main/flight\pid.h **** #define PID_MIXER_SCALING           1000.0f
  31:D:/XMC/Projekte/Temp/CF_XMC4700/cleanflight/src/main/flight\pid.h **** #define PID_SERVO_MIXER_SCALING     0.7f
  32:D:/XMC/Projekte/Temp/CF_XMC4700/cleanflight/src/main/flight\pid.h **** #define PIDSUM_LIMIT                500
  33:D:/XMC/Projekte/Temp/CF_XMC4700/cleanflight/src/main/flight\pid.h **** #define PIDSUM_LIMIT_YAW            400
  34:D:/XMC/Projekte/Temp/CF_XMC4700/cleanflight/src/main/flight\pid.h **** #define PIDSUM_LIMIT_MIN            100
  35:D:/XMC/Projekte/Temp/CF_XMC4700/cleanflight/src/main/flight\pid.h **** #define PIDSUM_LIMIT_MAX            1000
  36:D:/XMC/Projekte/Temp/CF_XMC4700/cleanflight/src/main/flight\pid.h **** 
  37:D:/XMC/Projekte/Temp/CF_XMC4700/cleanflight/src/main/flight\pid.h **** // Scaling factors for Pids for better tunable range in configurator for betaflight pid controller.
  38:D:/XMC/Projekte/Temp/CF_XMC4700/cleanflight/src/main/flight\pid.h **** #define PTERM_SCALE 0.032029f
  39:D:/XMC/Projekte/Temp/CF_XMC4700/cleanflight/src/main/flight\pid.h **** #define ITERM_SCALE 0.244381f
  40:D:/XMC/Projekte/Temp/CF_XMC4700/cleanflight/src/main/flight\pid.h **** #define DTERM_SCALE 0.000529f
  41:D:/XMC/Projekte/Temp/CF_XMC4700/cleanflight/src/main/flight\pid.h **** 
  42:D:/XMC/Projekte/Temp/CF_XMC4700/cleanflight/src/main/flight\pid.h **** // The constant scale factor to replace the Kd component of the feedforward calculation.
  43:D:/XMC/Projekte/Temp/CF_XMC4700/cleanflight/src/main/flight\pid.h **** // This value gives the same "feel" as the previous Kd default of 26 (26 * DTERM_SCALE)
  44:D:/XMC/Projekte/Temp/CF_XMC4700/cleanflight/src/main/flight\pid.h **** #define FEEDFORWARD_SCALE 0.013754f
  45:D:/XMC/Projekte/Temp/CF_XMC4700/cleanflight/src/main/flight\pid.h **** 
  46:D:/XMC/Projekte/Temp/CF_XMC4700/cleanflight/src/main/flight\pid.h **** typedef enum {
  47:D:/XMC/Projekte/Temp/CF_XMC4700/cleanflight/src/main/flight\pid.h ****     PID_ROLL,
  48:D:/XMC/Projekte/Temp/CF_XMC4700/cleanflight/src/main/flight\pid.h ****     PID_PITCH,
  49:D:/XMC/Projekte/Temp/CF_XMC4700/cleanflight/src/main/flight\pid.h ****     PID_YAW,
  50:D:/XMC/Projekte/Temp/CF_XMC4700/cleanflight/src/main/flight\pid.h ****     PID_LEVEL,
  51:D:/XMC/Projekte/Temp/CF_XMC4700/cleanflight/src/main/flight\pid.h ****     PID_MAG,
  52:D:/XMC/Projekte/Temp/CF_XMC4700/cleanflight/src/main/flight\pid.h ****     PID_ITEM_COUNT
  53:D:/XMC/Projekte/Temp/CF_XMC4700/cleanflight/src/main/flight\pid.h **** } pidIndex_e;
  54:D:/XMC/Projekte/Temp/CF_XMC4700/cleanflight/src/main/flight\pid.h **** 
  55:D:/XMC/Projekte/Temp/CF_XMC4700/cleanflight/src/main/flight\pid.h **** typedef enum {
  56:D:/XMC/Projekte/Temp/CF_XMC4700/cleanflight/src/main/flight\pid.h ****     SUPEREXPO_YAW_OFF = 0,
  57:D:/XMC/Projekte/Temp/CF_XMC4700/cleanflight/src/main/flight\pid.h ****     SUPEREXPO_YAW_ON,
  58:D:/XMC/Projekte/Temp/CF_XMC4700/cleanflight/src/main/flight\pid.h ****     SUPEREXPO_YAW_ALWAYS
  59:D:/XMC/Projekte/Temp/CF_XMC4700/cleanflight/src/main/flight\pid.h **** } pidSuperExpoYaw_e;
  60:D:/XMC/Projekte/Temp/CF_XMC4700/cleanflight/src/main/flight\pid.h **** 
  61:D:/XMC/Projekte/Temp/CF_XMC4700/cleanflight/src/main/flight\pid.h **** typedef enum {
  62:D:/XMC/Projekte/Temp/CF_XMC4700/cleanflight/src/main/flight\pid.h ****     PID_STABILISATION_OFF = 0,
  63:D:/XMC/Projekte/Temp/CF_XMC4700/cleanflight/src/main/flight\pid.h ****     PID_STABILISATION_ON
  64:D:/XMC/Projekte/Temp/CF_XMC4700/cleanflight/src/main/flight\pid.h **** } pidStabilisationState_e;
  65:D:/XMC/Projekte/Temp/CF_XMC4700/cleanflight/src/main/flight\pid.h **** 
  66:D:/XMC/Projekte/Temp/CF_XMC4700/cleanflight/src/main/flight\pid.h **** typedef enum {
  67:D:/XMC/Projekte/Temp/CF_XMC4700/cleanflight/src/main/flight\pid.h ****     PID_CRASH_RECOVERY_OFF = 0,
  68:D:/XMC/Projekte/Temp/CF_XMC4700/cleanflight/src/main/flight\pid.h ****     PID_CRASH_RECOVERY_ON,
  69:D:/XMC/Projekte/Temp/CF_XMC4700/cleanflight/src/main/flight\pid.h ****     PID_CRASH_RECOVERY_BEEP
  70:D:/XMC/Projekte/Temp/CF_XMC4700/cleanflight/src/main/flight\pid.h **** } pidCrashRecovery_e;
  71:D:/XMC/Projekte/Temp/CF_XMC4700/cleanflight/src/main/flight\pid.h **** 
  72:D:/XMC/Projekte/Temp/CF_XMC4700/cleanflight/src/main/flight\pid.h **** typedef struct pidf_s {
  73:D:/XMC/Projekte/Temp/CF_XMC4700/cleanflight/src/main/flight\pid.h ****     uint8_t P;
  74:D:/XMC/Projekte/Temp/CF_XMC4700/cleanflight/src/main/flight\pid.h ****     uint8_t I;
  75:D:/XMC/Projekte/Temp/CF_XMC4700/cleanflight/src/main/flight\pid.h ****     uint8_t D;
  76:D:/XMC/Projekte/Temp/CF_XMC4700/cleanflight/src/main/flight\pid.h ****     uint16_t F;
  77:D:/XMC/Projekte/Temp/CF_XMC4700/cleanflight/src/main/flight\pid.h **** } pidf_t;
  78:D:/XMC/Projekte/Temp/CF_XMC4700/cleanflight/src/main/flight\pid.h **** 
  79:D:/XMC/Projekte/Temp/CF_XMC4700/cleanflight/src/main/flight\pid.h **** typedef enum {
  80:D:/XMC/Projekte/Temp/CF_XMC4700/cleanflight/src/main/flight\pid.h ****     ANTI_GRAVITY_SMOOTH,
  81:D:/XMC/Projekte/Temp/CF_XMC4700/cleanflight/src/main/flight\pid.h ****     ANTI_GRAVITY_STEP
  82:D:/XMC/Projekte/Temp/CF_XMC4700/cleanflight/src/main/flight\pid.h **** } antiGravityMode_e;
  83:D:/XMC/Projekte/Temp/CF_XMC4700/cleanflight/src/main/flight\pid.h **** 
  84:D:/XMC/Projekte/Temp/CF_XMC4700/cleanflight/src/main/flight\pid.h **** typedef enum {
  85:D:/XMC/Projekte/Temp/CF_XMC4700/cleanflight/src/main/flight\pid.h ****     ITERM_RELAX_OFF,
  86:D:/XMC/Projekte/Temp/CF_XMC4700/cleanflight/src/main/flight\pid.h ****     ITERM_RELAX_RP,
  87:D:/XMC/Projekte/Temp/CF_XMC4700/cleanflight/src/main/flight\pid.h ****     ITERM_RELAX_RPY,
  88:D:/XMC/Projekte/Temp/CF_XMC4700/cleanflight/src/main/flight\pid.h ****     ITERM_RELAX_RP_INC,
  89:D:/XMC/Projekte/Temp/CF_XMC4700/cleanflight/src/main/flight\pid.h ****     ITERM_RELAX_RPY_INC
  90:D:/XMC/Projekte/Temp/CF_XMC4700/cleanflight/src/main/flight\pid.h **** } itermRelax_e;
  91:D:/XMC/Projekte/Temp/CF_XMC4700/cleanflight/src/main/flight\pid.h **** 
  92:D:/XMC/Projekte/Temp/CF_XMC4700/cleanflight/src/main/flight\pid.h **** typedef enum {
  93:D:/XMC/Projekte/Temp/CF_XMC4700/cleanflight/src/main/flight\pid.h ****     ITERM_RELAX_GYRO,
  94:D:/XMC/Projekte/Temp/CF_XMC4700/cleanflight/src/main/flight\pid.h ****     ITERM_RELAX_SETPOINT
  95:D:/XMC/Projekte/Temp/CF_XMC4700/cleanflight/src/main/flight\pid.h **** } itermRelaxType_e;
  96:D:/XMC/Projekte/Temp/CF_XMC4700/cleanflight/src/main/flight\pid.h **** 
  97:D:/XMC/Projekte/Temp/CF_XMC4700/cleanflight/src/main/flight\pid.h **** typedef struct pidProfile_s {
  98:D:/XMC/Projekte/Temp/CF_XMC4700/cleanflight/src/main/flight\pid.h ****     uint16_t yaw_lowpass_hz;                // Additional yaw filter when yaw axis too noisy
  99:D:/XMC/Projekte/Temp/CF_XMC4700/cleanflight/src/main/flight\pid.h ****     uint16_t dterm_lowpass_hz;              // Delta Filter in hz
 100:D:/XMC/Projekte/Temp/CF_XMC4700/cleanflight/src/main/flight\pid.h ****     uint16_t dterm_notch_hz;                // Biquad dterm notch hz
 101:D:/XMC/Projekte/Temp/CF_XMC4700/cleanflight/src/main/flight\pid.h ****     uint16_t dterm_notch_cutoff;            // Biquad dterm notch low cutoff
 102:D:/XMC/Projekte/Temp/CF_XMC4700/cleanflight/src/main/flight\pid.h **** 
 103:D:/XMC/Projekte/Temp/CF_XMC4700/cleanflight/src/main/flight\pid.h ****     pidf_t  pid[PID_ITEM_COUNT];
 104:D:/XMC/Projekte/Temp/CF_XMC4700/cleanflight/src/main/flight\pid.h **** 
 105:D:/XMC/Projekte/Temp/CF_XMC4700/cleanflight/src/main/flight\pid.h ****     uint8_t dterm_filter_type;              // Filter selection for dterm
 106:D:/XMC/Projekte/Temp/CF_XMC4700/cleanflight/src/main/flight\pid.h ****     uint8_t itermWindupPointPercent;        // Experimental ITerm windup threshold, percent motor s
 107:D:/XMC/Projekte/Temp/CF_XMC4700/cleanflight/src/main/flight\pid.h ****     uint16_t pidSumLimit;
 108:D:/XMC/Projekte/Temp/CF_XMC4700/cleanflight/src/main/flight\pid.h ****     uint16_t pidSumLimitYaw;
 109:D:/XMC/Projekte/Temp/CF_XMC4700/cleanflight/src/main/flight\pid.h ****     uint8_t pidAtMinThrottle;               // Disable/Enable pids on zero throttle. Normally even 
 110:D:/XMC/Projekte/Temp/CF_XMC4700/cleanflight/src/main/flight\pid.h ****     uint8_t levelAngleLimit;                // Max angle in degrees in level mode
 111:D:/XMC/Projekte/Temp/CF_XMC4700/cleanflight/src/main/flight\pid.h **** 
 112:D:/XMC/Projekte/Temp/CF_XMC4700/cleanflight/src/main/flight\pid.h ****     uint8_t horizon_tilt_effect;            // inclination factor for Horizon mode
 113:D:/XMC/Projekte/Temp/CF_XMC4700/cleanflight/src/main/flight\pid.h ****     uint8_t horizon_tilt_expert_mode;       // OFF or ON
 114:D:/XMC/Projekte/Temp/CF_XMC4700/cleanflight/src/main/flight\pid.h **** 
 115:D:/XMC/Projekte/Temp/CF_XMC4700/cleanflight/src/main/flight\pid.h ****     // Betaflight PID controller parameters
 116:D:/XMC/Projekte/Temp/CF_XMC4700/cleanflight/src/main/flight\pid.h ****     uint8_t  antiGravityMode;             // type of anti gravity method
 117:D:/XMC/Projekte/Temp/CF_XMC4700/cleanflight/src/main/flight\pid.h ****     uint16_t itermThrottleThreshold;        // max allowed throttle delta before iterm accelerated 
 118:D:/XMC/Projekte/Temp/CF_XMC4700/cleanflight/src/main/flight\pid.h ****     uint16_t itermAcceleratorGain;          // Iterm Accelerator Gain when itermThrottlethreshold i
 119:D:/XMC/Projekte/Temp/CF_XMC4700/cleanflight/src/main/flight\pid.h ****     uint16_t yawRateAccelLimit;             // yaw accel limiter for deg/sec/ms
 120:D:/XMC/Projekte/Temp/CF_XMC4700/cleanflight/src/main/flight\pid.h ****     uint16_t rateAccelLimit;                // accel limiter roll/pitch deg/sec/ms
 121:D:/XMC/Projekte/Temp/CF_XMC4700/cleanflight/src/main/flight\pid.h ****     uint16_t crash_dthreshold;              // dterm crash value
 122:D:/XMC/Projekte/Temp/CF_XMC4700/cleanflight/src/main/flight\pid.h ****     uint16_t crash_gthreshold;              // gyro crash value
 123:D:/XMC/Projekte/Temp/CF_XMC4700/cleanflight/src/main/flight\pid.h ****     uint16_t crash_setpoint_threshold;      // setpoint must be below this value to detect crash, s
 124:D:/XMC/Projekte/Temp/CF_XMC4700/cleanflight/src/main/flight\pid.h ****     uint16_t crash_time;                    // ms
 125:D:/XMC/Projekte/Temp/CF_XMC4700/cleanflight/src/main/flight\pid.h ****     uint16_t crash_delay;                   // ms
 126:D:/XMC/Projekte/Temp/CF_XMC4700/cleanflight/src/main/flight\pid.h ****     uint8_t crash_recovery_angle;           // degrees
 127:D:/XMC/Projekte/Temp/CF_XMC4700/cleanflight/src/main/flight\pid.h ****     uint8_t crash_recovery_rate;            // degree/second
 128:D:/XMC/Projekte/Temp/CF_XMC4700/cleanflight/src/main/flight\pid.h ****     uint8_t vbatPidCompensation;            // Scale PIDsum to battery voltage
 129:D:/XMC/Projekte/Temp/CF_XMC4700/cleanflight/src/main/flight\pid.h ****     uint8_t feedForwardTransition;          // Feed forward weight transition
 130:D:/XMC/Projekte/Temp/CF_XMC4700/cleanflight/src/main/flight\pid.h ****     uint16_t crash_limit_yaw;               // limits yaw errorRate, so crashes don't cause huge th
 131:D:/XMC/Projekte/Temp/CF_XMC4700/cleanflight/src/main/flight\pid.h ****     uint16_t itermLimit;
 132:D:/XMC/Projekte/Temp/CF_XMC4700/cleanflight/src/main/flight\pid.h ****     uint16_t dterm_lowpass2_hz;             // Extra PT1 Filter on D in hz
 133:D:/XMC/Projekte/Temp/CF_XMC4700/cleanflight/src/main/flight\pid.h ****     uint8_t crash_recovery;                 // off, on, on and beeps when it is in crash recovery m
 134:D:/XMC/Projekte/Temp/CF_XMC4700/cleanflight/src/main/flight\pid.h ****     uint8_t throttle_boost;                 // how much should throttle be boosted during transient
 135:D:/XMC/Projekte/Temp/CF_XMC4700/cleanflight/src/main/flight\pid.h ****     uint8_t throttle_boost_cutoff;          // Which cutoff frequency to use for throttle boost. hi
 136:D:/XMC/Projekte/Temp/CF_XMC4700/cleanflight/src/main/flight\pid.h ****     uint8_t iterm_rotation;                 // rotates iterm to translate world errors to local coo
 137:D:/XMC/Projekte/Temp/CF_XMC4700/cleanflight/src/main/flight\pid.h ****     uint8_t smart_feedforward;              // takes only the larger of P and the D weight feed for
 138:D:/XMC/Projekte/Temp/CF_XMC4700/cleanflight/src/main/flight\pid.h ****     uint8_t iterm_relax_type;               // Specifies type of relax algorithm
 139:D:/XMC/Projekte/Temp/CF_XMC4700/cleanflight/src/main/flight\pid.h ****     uint8_t iterm_relax_cutoff;             // This cutoff frequency specifies a low pass filter wh
 140:D:/XMC/Projekte/Temp/CF_XMC4700/cleanflight/src/main/flight\pid.h ****     uint8_t iterm_relax;                    // Enable iterm suppression during stick input
 141:D:/XMC/Projekte/Temp/CF_XMC4700/cleanflight/src/main/flight\pid.h ****     uint8_t acro_trainer_angle_limit;       // Acro trainer roll/pitch angle limit in degrees
 142:D:/XMC/Projekte/Temp/CF_XMC4700/cleanflight/src/main/flight\pid.h ****     uint8_t acro_trainer_debug_axis;        // The axis for which record debugging values are captu
 143:D:/XMC/Projekte/Temp/CF_XMC4700/cleanflight/src/main/flight\pid.h ****     uint8_t acro_trainer_gain;              // The strength of the limiting. Raising may reduce ove
 144:D:/XMC/Projekte/Temp/CF_XMC4700/cleanflight/src/main/flight\pid.h ****     uint16_t acro_trainer_lookahead_ms;     // The lookahead window in milliseconds used to reduce 
 145:D:/XMC/Projekte/Temp/CF_XMC4700/cleanflight/src/main/flight\pid.h ****     uint8_t abs_control_gain;               // How strongly should the absolute accumulated error b
 146:D:/XMC/Projekte/Temp/CF_XMC4700/cleanflight/src/main/flight\pid.h ****     uint8_t abs_control_limit;              // Limit to the correction
 147:D:/XMC/Projekte/Temp/CF_XMC4700/cleanflight/src/main/flight\pid.h ****     uint8_t abs_control_error_limit;        // Limit to the accumulated error
 148:D:/XMC/Projekte/Temp/CF_XMC4700/cleanflight/src/main/flight\pid.h **** } pidProfile_t;
 149:D:/XMC/Projekte/Temp/CF_XMC4700/cleanflight/src/main/flight\pid.h **** 
 150:D:/XMC/Projekte/Temp/CF_XMC4700/cleanflight/src/main/flight\pid.h **** #ifndef USE_OSD_SLAVE
 151:D:/XMC/Projekte/Temp/CF_XMC4700/cleanflight/src/main/flight\pid.h **** PG_DECLARE_ARRAY(pidProfile_t, MAX_PROFILE_COUNT, pidProfiles);
 152:D:/XMC/Projekte/Temp/CF_XMC4700/cleanflight/src/main/flight\pid.h **** #endif
 153:D:/XMC/Projekte/Temp/CF_XMC4700/cleanflight/src/main/flight\pid.h **** 
 154:D:/XMC/Projekte/Temp/CF_XMC4700/cleanflight/src/main/flight\pid.h **** typedef struct pidConfig_s {
 155:D:/XMC/Projekte/Temp/CF_XMC4700/cleanflight/src/main/flight\pid.h ****     uint8_t pid_process_denom;              // Processing denominator for PID controller vs gyro sa
 156:D:/XMC/Projekte/Temp/CF_XMC4700/cleanflight/src/main/flight\pid.h ****     uint8_t runaway_takeoff_prevention;          // off, on - enables pidsum runaway disarm logic
 157:D:/XMC/Projekte/Temp/CF_XMC4700/cleanflight/src/main/flight\pid.h ****     uint16_t runaway_takeoff_deactivate_delay;   // delay in ms for "in-flight" conditions before d
 158:D:/XMC/Projekte/Temp/CF_XMC4700/cleanflight/src/main/flight\pid.h ****     uint8_t runaway_takeoff_deactivate_throttle; // minimum throttle percent required during deacti
 159:D:/XMC/Projekte/Temp/CF_XMC4700/cleanflight/src/main/flight\pid.h **** } pidConfig_t;
 160:D:/XMC/Projekte/Temp/CF_XMC4700/cleanflight/src/main/flight\pid.h **** 
 161:D:/XMC/Projekte/Temp/CF_XMC4700/cleanflight/src/main/flight\pid.h **** PG_DECLARE(pidConfig_t, pidConfig);
 631              	 .loc 7 161 0
 632              	 .cfi_startproc
 633              	 
 634              	 
 635              	 
 636 0000 80B4     	 push {r7}
 637              	.LCFI66:
 638              	 .cfi_def_cfa_offset 4
 639              	 .cfi_offset 7,-4
 640 0002 00AF     	 add r7,sp,#0
 641              	.LCFI67:
 642              	 .cfi_def_cfa_register 7
 643              	 .loc 7 161 0
 644 0004 024B     	 ldr r3,.L55
 645 0006 1846     	 mov r0,r3
 646 0008 BD46     	 mov sp,r7
 647              	.LCFI68:
 648              	 .cfi_def_cfa_register 13
 649              	 
 650 000a 5DF8047B 	 ldr r7,[sp],#4
 651              	.LCFI69:
 652              	 .cfi_restore 7
 653              	 .cfi_def_cfa_offset 0
 654 000e 7047     	 bx lr
 655              	.L56:
 656              	 .align 2
 657              	.L55:
 658 0010 00000000 	 .word pidConfig_System
 659              	 .cfi_endproc
 660              	.LFE597:
 662              	 .comm inputSource_e,1,1
 663              	 .section .text.customServoMixers,"ax",%progbits
 664              	 .align 2
 665              	 .thumb
 666              	 .thumb_func
 668              	customServoMixers:
 669              	.LFB599:
 670              	 .file 8 "D:/XMC/Projekte/Temp/CF_XMC4700/cleanflight/src/main/flight/servos.h"
   1:D:/XMC/Projekte/Temp/CF_XMC4700/cleanflight/src/main/flight\servos.h **** /*
   2:D:/XMC/Projekte/Temp/CF_XMC4700/cleanflight/src/main/flight\servos.h ****  * This file is part of Cleanflight and Betaflight.
   3:D:/XMC/Projekte/Temp/CF_XMC4700/cleanflight/src/main/flight\servos.h ****  *
   4:D:/XMC/Projekte/Temp/CF_XMC4700/cleanflight/src/main/flight\servos.h ****  * Cleanflight and Betaflight are free software. You can redistribute
   5:D:/XMC/Projekte/Temp/CF_XMC4700/cleanflight/src/main/flight\servos.h ****  * this software and/or modify this software under the terms of the
   6:D:/XMC/Projekte/Temp/CF_XMC4700/cleanflight/src/main/flight\servos.h ****  * GNU General Public License as published by the Free Software
   7:D:/XMC/Projekte/Temp/CF_XMC4700/cleanflight/src/main/flight\servos.h ****  * Foundation, either version 3 of the License, or (at your option)
   8:D:/XMC/Projekte/Temp/CF_XMC4700/cleanflight/src/main/flight\servos.h ****  * any later version.
   9:D:/XMC/Projekte/Temp/CF_XMC4700/cleanflight/src/main/flight\servos.h ****  *
  10:D:/XMC/Projekte/Temp/CF_XMC4700/cleanflight/src/main/flight\servos.h ****  * Cleanflight and Betaflight are distributed in the hope that they
  11:D:/XMC/Projekte/Temp/CF_XMC4700/cleanflight/src/main/flight\servos.h ****  * will be useful, but WITHOUT ANY WARRANTY; without even the implied
  12:D:/XMC/Projekte/Temp/CF_XMC4700/cleanflight/src/main/flight\servos.h ****  * warranty of MERCHANTABILITY or FITNESS FOR A PARTICULAR PURPOSE.
  13:D:/XMC/Projekte/Temp/CF_XMC4700/cleanflight/src/main/flight\servos.h ****  * See the GNU General Public License for more details.
  14:D:/XMC/Projekte/Temp/CF_XMC4700/cleanflight/src/main/flight\servos.h ****  *
  15:D:/XMC/Projekte/Temp/CF_XMC4700/cleanflight/src/main/flight\servos.h ****  * You should have received a copy of the GNU General Public License
  16:D:/XMC/Projekte/Temp/CF_XMC4700/cleanflight/src/main/flight\servos.h ****  * along with this software.
  17:D:/XMC/Projekte/Temp/CF_XMC4700/cleanflight/src/main/flight\servos.h ****  *
  18:D:/XMC/Projekte/Temp/CF_XMC4700/cleanflight/src/main/flight\servos.h ****  * If not, see <http://www.gnu.org/licenses/>.
  19:D:/XMC/Projekte/Temp/CF_XMC4700/cleanflight/src/main/flight\servos.h ****  */
  20:D:/XMC/Projekte/Temp/CF_XMC4700/cleanflight/src/main/flight\servos.h **** 
  21:D:/XMC/Projekte/Temp/CF_XMC4700/cleanflight/src/main/flight\servos.h **** #pragma once
  22:D:/XMC/Projekte/Temp/CF_XMC4700/cleanflight/src/main/flight\servos.h **** 
  23:D:/XMC/Projekte/Temp/CF_XMC4700/cleanflight/src/main/flight\servos.h **** #include "pg/pg.h"
  24:D:/XMC/Projekte/Temp/CF_XMC4700/cleanflight/src/main/flight\servos.h **** #include "drivers/io_types.h"
  25:D:/XMC/Projekte/Temp/CF_XMC4700/cleanflight/src/main/flight\servos.h **** #include "drivers/pwm_output.h"
  26:D:/XMC/Projekte/Temp/CF_XMC4700/cleanflight/src/main/flight\servos.h **** 
  27:D:/XMC/Projekte/Temp/CF_XMC4700/cleanflight/src/main/flight\servos.h **** // These must be consecutive, see 'reversedSources'
  28:D:/XMC/Projekte/Temp/CF_XMC4700/cleanflight/src/main/flight\servos.h **** enum {
  29:D:/XMC/Projekte/Temp/CF_XMC4700/cleanflight/src/main/flight\servos.h ****     INPUT_STABILIZED_ROLL = 0,
  30:D:/XMC/Projekte/Temp/CF_XMC4700/cleanflight/src/main/flight\servos.h ****     INPUT_STABILIZED_PITCH,
  31:D:/XMC/Projekte/Temp/CF_XMC4700/cleanflight/src/main/flight\servos.h ****     INPUT_STABILIZED_YAW,
  32:D:/XMC/Projekte/Temp/CF_XMC4700/cleanflight/src/main/flight\servos.h ****     INPUT_STABILIZED_THROTTLE,
  33:D:/XMC/Projekte/Temp/CF_XMC4700/cleanflight/src/main/flight\servos.h ****     INPUT_RC_ROLL,
  34:D:/XMC/Projekte/Temp/CF_XMC4700/cleanflight/src/main/flight\servos.h ****     INPUT_RC_PITCH,
  35:D:/XMC/Projekte/Temp/CF_XMC4700/cleanflight/src/main/flight\servos.h ****     INPUT_RC_YAW,
  36:D:/XMC/Projekte/Temp/CF_XMC4700/cleanflight/src/main/flight\servos.h ****     INPUT_RC_THROTTLE,
  37:D:/XMC/Projekte/Temp/CF_XMC4700/cleanflight/src/main/flight\servos.h ****     INPUT_RC_AUX1,
  38:D:/XMC/Projekte/Temp/CF_XMC4700/cleanflight/src/main/flight\servos.h ****     INPUT_RC_AUX2,
  39:D:/XMC/Projekte/Temp/CF_XMC4700/cleanflight/src/main/flight\servos.h ****     INPUT_RC_AUX3,
  40:D:/XMC/Projekte/Temp/CF_XMC4700/cleanflight/src/main/flight\servos.h ****     INPUT_RC_AUX4,
  41:D:/XMC/Projekte/Temp/CF_XMC4700/cleanflight/src/main/flight\servos.h ****     INPUT_GIMBAL_PITCH,
  42:D:/XMC/Projekte/Temp/CF_XMC4700/cleanflight/src/main/flight\servos.h ****     INPUT_GIMBAL_ROLL,
  43:D:/XMC/Projekte/Temp/CF_XMC4700/cleanflight/src/main/flight\servos.h ****     INPUT_SOURCE_COUNT
  44:D:/XMC/Projekte/Temp/CF_XMC4700/cleanflight/src/main/flight\servos.h **** } inputSource_e;
  45:D:/XMC/Projekte/Temp/CF_XMC4700/cleanflight/src/main/flight\servos.h **** 
  46:D:/XMC/Projekte/Temp/CF_XMC4700/cleanflight/src/main/flight\servos.h **** // target servo channels
  47:D:/XMC/Projekte/Temp/CF_XMC4700/cleanflight/src/main/flight\servos.h **** typedef enum {
  48:D:/XMC/Projekte/Temp/CF_XMC4700/cleanflight/src/main/flight\servos.h ****     SERVO_GIMBAL_PITCH = 0,
  49:D:/XMC/Projekte/Temp/CF_XMC4700/cleanflight/src/main/flight\servos.h ****     SERVO_GIMBAL_ROLL = 1,
  50:D:/XMC/Projekte/Temp/CF_XMC4700/cleanflight/src/main/flight\servos.h ****     SERVO_FLAPS = 2,
  51:D:/XMC/Projekte/Temp/CF_XMC4700/cleanflight/src/main/flight\servos.h ****     SERVO_FLAPPERON_1 = 3,
  52:D:/XMC/Projekte/Temp/CF_XMC4700/cleanflight/src/main/flight\servos.h ****     SERVO_FLAPPERON_2 = 4,
  53:D:/XMC/Projekte/Temp/CF_XMC4700/cleanflight/src/main/flight\servos.h ****     SERVO_RUDDER = 5,
  54:D:/XMC/Projekte/Temp/CF_XMC4700/cleanflight/src/main/flight\servos.h ****     SERVO_ELEVATOR = 6,
  55:D:/XMC/Projekte/Temp/CF_XMC4700/cleanflight/src/main/flight\servos.h ****     SERVO_THROTTLE = 7, // for internal combustion (IC) planes
  56:D:/XMC/Projekte/Temp/CF_XMC4700/cleanflight/src/main/flight\servos.h **** 
  57:D:/XMC/Projekte/Temp/CF_XMC4700/cleanflight/src/main/flight\servos.h ****     SERVO_BICOPTER_LEFT = 4,
  58:D:/XMC/Projekte/Temp/CF_XMC4700/cleanflight/src/main/flight\servos.h ****     SERVO_BICOPTER_RIGHT = 5,
  59:D:/XMC/Projekte/Temp/CF_XMC4700/cleanflight/src/main/flight\servos.h **** 
  60:D:/XMC/Projekte/Temp/CF_XMC4700/cleanflight/src/main/flight\servos.h ****     SERVO_DUALCOPTER_LEFT = 4,
  61:D:/XMC/Projekte/Temp/CF_XMC4700/cleanflight/src/main/flight\servos.h ****     SERVO_DUALCOPTER_RIGHT = 5,
  62:D:/XMC/Projekte/Temp/CF_XMC4700/cleanflight/src/main/flight\servos.h **** 
  63:D:/XMC/Projekte/Temp/CF_XMC4700/cleanflight/src/main/flight\servos.h ****     SERVO_SINGLECOPTER_1 = 3,
  64:D:/XMC/Projekte/Temp/CF_XMC4700/cleanflight/src/main/flight\servos.h ****     SERVO_SINGLECOPTER_2 = 4,
  65:D:/XMC/Projekte/Temp/CF_XMC4700/cleanflight/src/main/flight\servos.h ****     SERVO_SINGLECOPTER_3 = 5,
  66:D:/XMC/Projekte/Temp/CF_XMC4700/cleanflight/src/main/flight\servos.h ****     SERVO_SINGLECOPTER_4 = 6,
  67:D:/XMC/Projekte/Temp/CF_XMC4700/cleanflight/src/main/flight\servos.h **** 
  68:D:/XMC/Projekte/Temp/CF_XMC4700/cleanflight/src/main/flight\servos.h ****     SERVO_HELI_LEFT = 0,
  69:D:/XMC/Projekte/Temp/CF_XMC4700/cleanflight/src/main/flight\servos.h ****     SERVO_HELI_RIGHT = 1,
  70:D:/XMC/Projekte/Temp/CF_XMC4700/cleanflight/src/main/flight\servos.h ****     SERVO_HELI_TOP = 2,
  71:D:/XMC/Projekte/Temp/CF_XMC4700/cleanflight/src/main/flight\servos.h ****     SERVO_HELI_RUD = 3
  72:D:/XMC/Projekte/Temp/CF_XMC4700/cleanflight/src/main/flight\servos.h **** 
  73:D:/XMC/Projekte/Temp/CF_XMC4700/cleanflight/src/main/flight\servos.h **** } servoIndex_e; // FIXME rename to servoChannel_e
  74:D:/XMC/Projekte/Temp/CF_XMC4700/cleanflight/src/main/flight\servos.h **** 
  75:D:/XMC/Projekte/Temp/CF_XMC4700/cleanflight/src/main/flight\servos.h **** #define SERVO_PLANE_INDEX_MIN SERVO_FLAPS
  76:D:/XMC/Projekte/Temp/CF_XMC4700/cleanflight/src/main/flight\servos.h **** #define SERVO_PLANE_INDEX_MAX SERVO_THROTTLE
  77:D:/XMC/Projekte/Temp/CF_XMC4700/cleanflight/src/main/flight\servos.h **** 
  78:D:/XMC/Projekte/Temp/CF_XMC4700/cleanflight/src/main/flight\servos.h **** #define SERVO_DUALCOPTER_INDEX_MIN SERVO_DUALCOPTER_LEFT
  79:D:/XMC/Projekte/Temp/CF_XMC4700/cleanflight/src/main/flight\servos.h **** #define SERVO_DUALCOPTER_INDEX_MAX SERVO_DUALCOPTER_RIGHT
  80:D:/XMC/Projekte/Temp/CF_XMC4700/cleanflight/src/main/flight\servos.h **** 
  81:D:/XMC/Projekte/Temp/CF_XMC4700/cleanflight/src/main/flight\servos.h **** #define SERVO_SINGLECOPTER_INDEX_MIN SERVO_SINGLECOPTER_1
  82:D:/XMC/Projekte/Temp/CF_XMC4700/cleanflight/src/main/flight\servos.h **** #define SERVO_SINGLECOPTER_INDEX_MAX SERVO_SINGLECOPTER_4
  83:D:/XMC/Projekte/Temp/CF_XMC4700/cleanflight/src/main/flight\servos.h **** 
  84:D:/XMC/Projekte/Temp/CF_XMC4700/cleanflight/src/main/flight\servos.h **** #define SERVO_FLAPPERONS_MIN SERVO_FLAPPERON_1
  85:D:/XMC/Projekte/Temp/CF_XMC4700/cleanflight/src/main/flight\servos.h **** #define SERVO_FLAPPERONS_MAX SERVO_FLAPPERON_2
  86:D:/XMC/Projekte/Temp/CF_XMC4700/cleanflight/src/main/flight\servos.h **** 
  87:D:/XMC/Projekte/Temp/CF_XMC4700/cleanflight/src/main/flight\servos.h **** #define MAX_SERVO_RULES (2 * MAX_SUPPORTED_SERVOS)
  88:D:/XMC/Projekte/Temp/CF_XMC4700/cleanflight/src/main/flight\servos.h **** 
  89:D:/XMC/Projekte/Temp/CF_XMC4700/cleanflight/src/main/flight\servos.h **** typedef struct servoMixer_s {
  90:D:/XMC/Projekte/Temp/CF_XMC4700/cleanflight/src/main/flight\servos.h ****     uint8_t targetChannel;                  // servo that receives the output of the rule
  91:D:/XMC/Projekte/Temp/CF_XMC4700/cleanflight/src/main/flight\servos.h ****     uint8_t inputSource;                    // input channel for this rule
  92:D:/XMC/Projekte/Temp/CF_XMC4700/cleanflight/src/main/flight\servos.h ****     int8_t rate;                            // range [-125;+125] ; can be used to adjust a rate 0-1
  93:D:/XMC/Projekte/Temp/CF_XMC4700/cleanflight/src/main/flight\servos.h ****     uint8_t speed;                          // reduces the speed of the rule, 0=unlimited speed
  94:D:/XMC/Projekte/Temp/CF_XMC4700/cleanflight/src/main/flight\servos.h ****     int8_t min;                             // lower bound of rule range [0;100]% of servo max-min
  95:D:/XMC/Projekte/Temp/CF_XMC4700/cleanflight/src/main/flight\servos.h ****     int8_t max;                             // lower bound of rule range [0;100]% of servo max-min
  96:D:/XMC/Projekte/Temp/CF_XMC4700/cleanflight/src/main/flight\servos.h ****     uint8_t box;                            // active rule if box is enabled, range [0;3], 0=no box
  97:D:/XMC/Projekte/Temp/CF_XMC4700/cleanflight/src/main/flight\servos.h **** } servoMixer_t;
  98:D:/XMC/Projekte/Temp/CF_XMC4700/cleanflight/src/main/flight\servos.h **** 
  99:D:/XMC/Projekte/Temp/CF_XMC4700/cleanflight/src/main/flight\servos.h **** PG_DECLARE_ARRAY(servoMixer_t, MAX_SERVO_RULES, customServoMixers);
 671              	 .loc 8 99 0
 672              	 .cfi_startproc
 673              	 
 674              	 
 675              	 
 676 0000 80B4     	 push {r7}
 677              	.LCFI70:
 678              	 .cfi_def_cfa_offset 4
 679              	 .cfi_offset 7,-4
 680 0002 83B0     	 sub sp,sp,#12
 681              	.LCFI71:
 682              	 .cfi_def_cfa_offset 16
 683 0004 00AF     	 add r7,sp,#0
 684              	.LCFI72:
 685              	 .cfi_def_cfa_register 7
 686 0006 7860     	 str r0,[r7,#4]
 687              	 .loc 8 99 0
 688 0008 7A68     	 ldr r2,[r7,#4]
 689 000a 1346     	 mov r3,r2
 690 000c DB00     	 lsls r3,r3,#3
 691 000e 9B1A     	 subs r3,r3,r2
 692 0010 034A     	 ldr r2,.L59
 693 0012 1344     	 add r3,r3,r2
 694 0014 1846     	 mov r0,r3
 695 0016 0C37     	 adds r7,r7,#12
 696              	.LCFI73:
 697              	 .cfi_def_cfa_offset 4
 698 0018 BD46     	 mov sp,r7
 699              	.LCFI74:
 700              	 .cfi_def_cfa_register 13
 701              	 
 702 001a 5DF8047B 	 ldr r7,[sp],#4
 703              	.LCFI75:
 704              	 .cfi_restore 7
 705              	 .cfi_def_cfa_offset 0
 706 001e 7047     	 bx lr
 707              	.L60:
 708              	 .align 2
 709              	.L59:
 710 0020 00000000 	 .word customServoMixers_SystemArray
 711              	 .cfi_endproc
 712              	.LFE599:
 714              	 .section .text.customServoMixersMutable,"ax",%progbits
 715              	 .align 2
 716              	 .thumb
 717              	 .thumb_func
 719              	customServoMixersMutable:
 720              	.LFB600:
 721              	 .loc 8 99 0
 722              	 .cfi_startproc
 723              	 
 724              	 
 725              	 
 726 0000 80B4     	 push {r7}
 727              	.LCFI76:
 728              	 .cfi_def_cfa_offset 4
 729              	 .cfi_offset 7,-4
 730 0002 83B0     	 sub sp,sp,#12
 731              	.LCFI77:
 732              	 .cfi_def_cfa_offset 16
 733 0004 00AF     	 add r7,sp,#0
 734              	.LCFI78:
 735              	 .cfi_def_cfa_register 7
 736 0006 7860     	 str r0,[r7,#4]
 737              	 .loc 8 99 0
 738 0008 7A68     	 ldr r2,[r7,#4]
 739 000a 1346     	 mov r3,r2
 740 000c DB00     	 lsls r3,r3,#3
 741 000e 9B1A     	 subs r3,r3,r2
 742 0010 034A     	 ldr r2,.L63
 743 0012 1344     	 add r3,r3,r2
 744 0014 1846     	 mov r0,r3
 745 0016 0C37     	 adds r7,r7,#12
 746              	.LCFI79:
 747              	 .cfi_def_cfa_offset 4
 748 0018 BD46     	 mov sp,r7
 749              	.LCFI80:
 750              	 .cfi_def_cfa_register 13
 751              	 
 752 001a 5DF8047B 	 ldr r7,[sp],#4
 753              	.LCFI81:
 754              	 .cfi_restore 7
 755              	 .cfi_def_cfa_offset 0
 756 001e 7047     	 bx lr
 757              	.L64:
 758              	 .align 2
 759              	.L63:
 760 0020 00000000 	 .word customServoMixers_SystemArray
 761              	 .cfi_endproc
 762              	.LFE600:
 764              	 .section .text.customServoMixers_array,"ax",%progbits
 765              	 .align 2
 766              	 .thumb
 767              	 .thumb_func
 769              	customServoMixers_array:
 770              	.LFB601:
 771              	 .loc 8 99 0
 772              	 .cfi_startproc
 773              	 
 774              	 
 775              	 
 776 0000 80B4     	 push {r7}
 777              	.LCFI82:
 778              	 .cfi_def_cfa_offset 4
 779              	 .cfi_offset 7,-4
 780 0002 00AF     	 add r7,sp,#0
 781              	.LCFI83:
 782              	 .cfi_def_cfa_register 7
 783              	 .loc 8 99 0
 784 0004 024B     	 ldr r3,.L67
 785 0006 1846     	 mov r0,r3
 786 0008 BD46     	 mov sp,r7
 787              	.LCFI84:
 788              	 .cfi_def_cfa_register 13
 789              	 
 790 000a 5DF8047B 	 ldr r7,[sp],#4
 791              	.LCFI85:
 792              	 .cfi_restore 7
 793              	 .cfi_def_cfa_offset 0
 794 000e 7047     	 bx lr
 795              	.L68:
 796              	 .align 2
 797              	.L67:
 798 0010 00000000 	 .word customServoMixers_SystemArray
 799              	 .cfi_endproc
 800              	.LFE601:
 802              	 .section .text.servoParams,"ax",%progbits
 803              	 .align 2
 804              	 .thumb
 805              	 .thumb_func
 807              	servoParams:
 808              	.LFB602:
 100:D:/XMC/Projekte/Temp/CF_XMC4700/cleanflight/src/main/flight\servos.h **** 
 101:D:/XMC/Projekte/Temp/CF_XMC4700/cleanflight/src/main/flight\servos.h **** #define MAX_SERVO_SPEED UINT8_MAX
 102:D:/XMC/Projekte/Temp/CF_XMC4700/cleanflight/src/main/flight\servos.h **** #define MAX_SERVO_BOXES 3
 103:D:/XMC/Projekte/Temp/CF_XMC4700/cleanflight/src/main/flight\servos.h **** 
 104:D:/XMC/Projekte/Temp/CF_XMC4700/cleanflight/src/main/flight\servos.h **** // Custom mixer configuration
 105:D:/XMC/Projekte/Temp/CF_XMC4700/cleanflight/src/main/flight\servos.h **** typedef struct mixerRules_s {
 106:D:/XMC/Projekte/Temp/CF_XMC4700/cleanflight/src/main/flight\servos.h ****     uint8_t servoRuleCount;
 107:D:/XMC/Projekte/Temp/CF_XMC4700/cleanflight/src/main/flight\servos.h ****     const servoMixer_t *rule;
 108:D:/XMC/Projekte/Temp/CF_XMC4700/cleanflight/src/main/flight\servos.h **** } mixerRules_t;
 109:D:/XMC/Projekte/Temp/CF_XMC4700/cleanflight/src/main/flight\servos.h **** 
 110:D:/XMC/Projekte/Temp/CF_XMC4700/cleanflight/src/main/flight\servos.h **** extern const mixerRules_t servoMixers[];
 111:D:/XMC/Projekte/Temp/CF_XMC4700/cleanflight/src/main/flight\servos.h **** 
 112:D:/XMC/Projekte/Temp/CF_XMC4700/cleanflight/src/main/flight\servos.h **** typedef struct servoParam_s {
 113:D:/XMC/Projekte/Temp/CF_XMC4700/cleanflight/src/main/flight\servos.h ****     uint32_t reversedSources;               // the direction of servo movement for each input sourc
 114:D:/XMC/Projekte/Temp/CF_XMC4700/cleanflight/src/main/flight\servos.h ****     int16_t min;                            // servo min
 115:D:/XMC/Projekte/Temp/CF_XMC4700/cleanflight/src/main/flight\servos.h ****     int16_t max;                            // servo max
 116:D:/XMC/Projekte/Temp/CF_XMC4700/cleanflight/src/main/flight\servos.h ****     int16_t middle;                         // servo middle
 117:D:/XMC/Projekte/Temp/CF_XMC4700/cleanflight/src/main/flight\servos.h ****     int8_t rate;                            // range [-125;+125] ; can be used to adjust a rate 0-1
 118:D:/XMC/Projekte/Temp/CF_XMC4700/cleanflight/src/main/flight\servos.h ****     int8_t forwardFromChannel;              // RX channel index, 0 based.  See CHANNEL_FORWARDING_D
 119:D:/XMC/Projekte/Temp/CF_XMC4700/cleanflight/src/main/flight\servos.h **** } servoParam_t;
 120:D:/XMC/Projekte/Temp/CF_XMC4700/cleanflight/src/main/flight\servos.h **** 
 121:D:/XMC/Projekte/Temp/CF_XMC4700/cleanflight/src/main/flight\servos.h **** PG_DECLARE_ARRAY(servoParam_t, MAX_SUPPORTED_SERVOS, servoParams);
 809              	 .loc 8 121 0
 810              	 .cfi_startproc
 811              	 
 812              	 
 813              	 
 814 0000 80B4     	 push {r7}
 815              	.LCFI86:
 816              	 .cfi_def_cfa_offset 4
 817              	 .cfi_offset 7,-4
 818 0002 83B0     	 sub sp,sp,#12
 819              	.LCFI87:
 820              	 .cfi_def_cfa_offset 16
 821 0004 00AF     	 add r7,sp,#0
 822              	.LCFI88:
 823              	 .cfi_def_cfa_register 7
 824 0006 7860     	 str r0,[r7,#4]
 825              	 .loc 8 121 0
 826 0008 7A68     	 ldr r2,[r7,#4]
 827 000a 1346     	 mov r3,r2
 828 000c 5B00     	 lsls r3,r3,#1
 829 000e 1344     	 add r3,r3,r2
 830 0010 9B00     	 lsls r3,r3,#2
 831 0012 044A     	 ldr r2,.L71
 832 0014 1344     	 add r3,r3,r2
 833 0016 1846     	 mov r0,r3
 834 0018 0C37     	 adds r7,r7,#12
 835              	.LCFI89:
 836              	 .cfi_def_cfa_offset 4
 837 001a BD46     	 mov sp,r7
 838              	.LCFI90:
 839              	 .cfi_def_cfa_register 13
 840              	 
 841 001c 5DF8047B 	 ldr r7,[sp],#4
 842              	.LCFI91:
 843              	 .cfi_restore 7
 844              	 .cfi_def_cfa_offset 0
 845 0020 7047     	 bx lr
 846              	.L72:
 847 0022 00BF     	 .align 2
 848              	.L71:
 849 0024 00000000 	 .word servoParams_SystemArray
 850              	 .cfi_endproc
 851              	.LFE602:
 853              	 .section .text.servoParamsMutable,"ax",%progbits
 854              	 .align 2
 855              	 .thumb
 856              	 .thumb_func
 858              	servoParamsMutable:
 859              	.LFB603:
 860              	 .loc 8 121 0
 861              	 .cfi_startproc
 862              	 
 863              	 
 864              	 
 865 0000 80B4     	 push {r7}
 866              	.LCFI92:
 867              	 .cfi_def_cfa_offset 4
 868              	 .cfi_offset 7,-4
 869 0002 83B0     	 sub sp,sp,#12
 870              	.LCFI93:
 871              	 .cfi_def_cfa_offset 16
 872 0004 00AF     	 add r7,sp,#0
 873              	.LCFI94:
 874              	 .cfi_def_cfa_register 7
 875 0006 7860     	 str r0,[r7,#4]
 876              	 .loc 8 121 0
 877 0008 7A68     	 ldr r2,[r7,#4]
 878 000a 1346     	 mov r3,r2
 879 000c 5B00     	 lsls r3,r3,#1
 880 000e 1344     	 add r3,r3,r2
 881 0010 9B00     	 lsls r3,r3,#2
 882 0012 044A     	 ldr r2,.L75
 883 0014 1344     	 add r3,r3,r2
 884 0016 1846     	 mov r0,r3
 885 0018 0C37     	 adds r7,r7,#12
 886              	.LCFI95:
 887              	 .cfi_def_cfa_offset 4
 888 001a BD46     	 mov sp,r7
 889              	.LCFI96:
 890              	 .cfi_def_cfa_register 13
 891              	 
 892 001c 5DF8047B 	 ldr r7,[sp],#4
 893              	.LCFI97:
 894              	 .cfi_restore 7
 895              	 .cfi_def_cfa_offset 0
 896 0020 7047     	 bx lr
 897              	.L76:
 898 0022 00BF     	 .align 2
 899              	.L75:
 900 0024 00000000 	 .word servoParams_SystemArray
 901              	 .cfi_endproc
 902              	.LFE603:
 904              	 .comm colors,4,4
 905              	 .comm modeColors,4,4
 906              	 .comm specialColors,11,4
 907              	 .section .text.serialConfig,"ax",%progbits
 908              	 .align 2
 909              	 .thumb
 910              	 .thumb_func
 912              	serialConfig:
 913              	.LFB625:
 914              	 .file 9 "D:/XMC/Projekte/Temp/CF_XMC4700/cleanflight/src/main/io/serial.h"
   1:D:/XMC/Projekte/Temp/CF_XMC4700/cleanflight/src/main/io\serial.h **** /*
   2:D:/XMC/Projekte/Temp/CF_XMC4700/cleanflight/src/main/io\serial.h ****  * This file is part of Cleanflight and Betaflight.
   3:D:/XMC/Projekte/Temp/CF_XMC4700/cleanflight/src/main/io\serial.h ****  *
   4:D:/XMC/Projekte/Temp/CF_XMC4700/cleanflight/src/main/io\serial.h ****  * Cleanflight and Betaflight are free software. You can redistribute
   5:D:/XMC/Projekte/Temp/CF_XMC4700/cleanflight/src/main/io\serial.h ****  * this software and/or modify this software under the terms of the
   6:D:/XMC/Projekte/Temp/CF_XMC4700/cleanflight/src/main/io\serial.h ****  * GNU General Public License as published by the Free Software
   7:D:/XMC/Projekte/Temp/CF_XMC4700/cleanflight/src/main/io\serial.h ****  * Foundation, either version 3 of the License, or (at your option)
   8:D:/XMC/Projekte/Temp/CF_XMC4700/cleanflight/src/main/io\serial.h ****  * any later version.
   9:D:/XMC/Projekte/Temp/CF_XMC4700/cleanflight/src/main/io\serial.h ****  *
  10:D:/XMC/Projekte/Temp/CF_XMC4700/cleanflight/src/main/io\serial.h ****  * Cleanflight and Betaflight are distributed in the hope that they
  11:D:/XMC/Projekte/Temp/CF_XMC4700/cleanflight/src/main/io\serial.h ****  * will be useful, but WITHOUT ANY WARRANTY; without even the implied
  12:D:/XMC/Projekte/Temp/CF_XMC4700/cleanflight/src/main/io\serial.h ****  * warranty of MERCHANTABILITY or FITNESS FOR A PARTICULAR PURPOSE.
  13:D:/XMC/Projekte/Temp/CF_XMC4700/cleanflight/src/main/io\serial.h ****  * See the GNU General Public License for more details.
  14:D:/XMC/Projekte/Temp/CF_XMC4700/cleanflight/src/main/io\serial.h ****  *
  15:D:/XMC/Projekte/Temp/CF_XMC4700/cleanflight/src/main/io\serial.h ****  * You should have received a copy of the GNU General Public License
  16:D:/XMC/Projekte/Temp/CF_XMC4700/cleanflight/src/main/io\serial.h ****  * along with this software.
  17:D:/XMC/Projekte/Temp/CF_XMC4700/cleanflight/src/main/io\serial.h ****  *
  18:D:/XMC/Projekte/Temp/CF_XMC4700/cleanflight/src/main/io\serial.h ****  * If not, see <http://www.gnu.org/licenses/>.
  19:D:/XMC/Projekte/Temp/CF_XMC4700/cleanflight/src/main/io\serial.h ****  */
  20:D:/XMC/Projekte/Temp/CF_XMC4700/cleanflight/src/main/io\serial.h **** 
  21:D:/XMC/Projekte/Temp/CF_XMC4700/cleanflight/src/main/io\serial.h **** #pragma once
  22:D:/XMC/Projekte/Temp/CF_XMC4700/cleanflight/src/main/io\serial.h **** 
  23:D:/XMC/Projekte/Temp/CF_XMC4700/cleanflight/src/main/io\serial.h **** #include <stdint.h>
  24:D:/XMC/Projekte/Temp/CF_XMC4700/cleanflight/src/main/io\serial.h **** #include <stdbool.h>
  25:D:/XMC/Projekte/Temp/CF_XMC4700/cleanflight/src/main/io\serial.h **** 
  26:D:/XMC/Projekte/Temp/CF_XMC4700/cleanflight/src/main/io\serial.h **** #include "pg/pg.h"
  27:D:/XMC/Projekte/Temp/CF_XMC4700/cleanflight/src/main/io\serial.h **** #include "drivers/serial.h"
  28:D:/XMC/Projekte/Temp/CF_XMC4700/cleanflight/src/main/io\serial.h **** 
  29:D:/XMC/Projekte/Temp/CF_XMC4700/cleanflight/src/main/io\serial.h **** typedef enum {
  30:D:/XMC/Projekte/Temp/CF_XMC4700/cleanflight/src/main/io\serial.h ****     PORTSHARING_UNUSED = 0,
  31:D:/XMC/Projekte/Temp/CF_XMC4700/cleanflight/src/main/io\serial.h ****     PORTSHARING_NOT_SHARED,
  32:D:/XMC/Projekte/Temp/CF_XMC4700/cleanflight/src/main/io\serial.h ****     PORTSHARING_SHARED
  33:D:/XMC/Projekte/Temp/CF_XMC4700/cleanflight/src/main/io\serial.h **** } portSharing_e;
  34:D:/XMC/Projekte/Temp/CF_XMC4700/cleanflight/src/main/io\serial.h **** 
  35:D:/XMC/Projekte/Temp/CF_XMC4700/cleanflight/src/main/io\serial.h **** typedef enum {
  36:D:/XMC/Projekte/Temp/CF_XMC4700/cleanflight/src/main/io\serial.h ****     FUNCTION_NONE                = 0,
  37:D:/XMC/Projekte/Temp/CF_XMC4700/cleanflight/src/main/io\serial.h ****     FUNCTION_MSP                 = (1 << 0),  // 1
  38:D:/XMC/Projekte/Temp/CF_XMC4700/cleanflight/src/main/io\serial.h ****     FUNCTION_GPS                 = (1 << 1),  // 2
  39:D:/XMC/Projekte/Temp/CF_XMC4700/cleanflight/src/main/io\serial.h ****     FUNCTION_TELEMETRY_FRSKY_HUB = (1 << 2),  // 4
  40:D:/XMC/Projekte/Temp/CF_XMC4700/cleanflight/src/main/io\serial.h ****     FUNCTION_TELEMETRY_HOTT      = (1 << 3),  // 8
  41:D:/XMC/Projekte/Temp/CF_XMC4700/cleanflight/src/main/io\serial.h ****     FUNCTION_TELEMETRY_LTM       = (1 << 4),  // 16
  42:D:/XMC/Projekte/Temp/CF_XMC4700/cleanflight/src/main/io\serial.h ****     FUNCTION_TELEMETRY_SMARTPORT = (1 << 5),  // 32
  43:D:/XMC/Projekte/Temp/CF_XMC4700/cleanflight/src/main/io\serial.h ****     FUNCTION_RX_SERIAL           = (1 << 6),  // 64
  44:D:/XMC/Projekte/Temp/CF_XMC4700/cleanflight/src/main/io\serial.h ****     FUNCTION_BLACKBOX            = (1 << 7),  // 128
  45:D:/XMC/Projekte/Temp/CF_XMC4700/cleanflight/src/main/io\serial.h ****     FUNCTION_TELEMETRY_MAVLINK   = (1 << 9),  // 512
  46:D:/XMC/Projekte/Temp/CF_XMC4700/cleanflight/src/main/io\serial.h ****     FUNCTION_ESC_SENSOR          = (1 << 10), // 1024
  47:D:/XMC/Projekte/Temp/CF_XMC4700/cleanflight/src/main/io\serial.h ****     FUNCTION_VTX_SMARTAUDIO      = (1 << 11), // 2048
  48:D:/XMC/Projekte/Temp/CF_XMC4700/cleanflight/src/main/io\serial.h ****     FUNCTION_TELEMETRY_IBUS      = (1 << 12), // 4096
  49:D:/XMC/Projekte/Temp/CF_XMC4700/cleanflight/src/main/io\serial.h ****     FUNCTION_VTX_TRAMP           = (1 << 13), // 8192
  50:D:/XMC/Projekte/Temp/CF_XMC4700/cleanflight/src/main/io\serial.h ****     FUNCTION_RCDEVICE            = (1 << 14), // 16384
  51:D:/XMC/Projekte/Temp/CF_XMC4700/cleanflight/src/main/io\serial.h ****     FUNCTION_LIDAR_TF            = (1 << 15), // 32768
  52:D:/XMC/Projekte/Temp/CF_XMC4700/cleanflight/src/main/io\serial.h **** } serialPortFunction_e;
  53:D:/XMC/Projekte/Temp/CF_XMC4700/cleanflight/src/main/io\serial.h **** 
  54:D:/XMC/Projekte/Temp/CF_XMC4700/cleanflight/src/main/io\serial.h **** #define TELEMETRY_SHAREABLE_PORT_FUNCTIONS_MASK (FUNCTION_TELEMETRY_FRSKY_HUB | FUNCTION_TELEMETRY_
  55:D:/XMC/Projekte/Temp/CF_XMC4700/cleanflight/src/main/io\serial.h **** #define TELEMETRY_PORT_FUNCTIONS_MASK (TELEMETRY_SHAREABLE_PORT_FUNCTIONS_MASK | FUNCTION_TELEMETRY
  56:D:/XMC/Projekte/Temp/CF_XMC4700/cleanflight/src/main/io\serial.h **** 
  57:D:/XMC/Projekte/Temp/CF_XMC4700/cleanflight/src/main/io\serial.h **** typedef enum {
  58:D:/XMC/Projekte/Temp/CF_XMC4700/cleanflight/src/main/io\serial.h ****     BAUD_AUTO = 0,
  59:D:/XMC/Projekte/Temp/CF_XMC4700/cleanflight/src/main/io\serial.h ****     BAUD_9600,
  60:D:/XMC/Projekte/Temp/CF_XMC4700/cleanflight/src/main/io\serial.h ****     BAUD_19200,
  61:D:/XMC/Projekte/Temp/CF_XMC4700/cleanflight/src/main/io\serial.h ****     BAUD_38400,
  62:D:/XMC/Projekte/Temp/CF_XMC4700/cleanflight/src/main/io\serial.h ****     BAUD_57600,
  63:D:/XMC/Projekte/Temp/CF_XMC4700/cleanflight/src/main/io\serial.h ****     BAUD_115200,
  64:D:/XMC/Projekte/Temp/CF_XMC4700/cleanflight/src/main/io\serial.h ****     BAUD_230400,
  65:D:/XMC/Projekte/Temp/CF_XMC4700/cleanflight/src/main/io\serial.h ****     BAUD_250000,
  66:D:/XMC/Projekte/Temp/CF_XMC4700/cleanflight/src/main/io\serial.h ****     BAUD_400000,
  67:D:/XMC/Projekte/Temp/CF_XMC4700/cleanflight/src/main/io\serial.h ****     BAUD_460800,
  68:D:/XMC/Projekte/Temp/CF_XMC4700/cleanflight/src/main/io\serial.h ****     BAUD_500000,
  69:D:/XMC/Projekte/Temp/CF_XMC4700/cleanflight/src/main/io\serial.h ****     BAUD_921600,
  70:D:/XMC/Projekte/Temp/CF_XMC4700/cleanflight/src/main/io\serial.h ****     BAUD_1000000,
  71:D:/XMC/Projekte/Temp/CF_XMC4700/cleanflight/src/main/io\serial.h ****     BAUD_1500000,
  72:D:/XMC/Projekte/Temp/CF_XMC4700/cleanflight/src/main/io\serial.h ****     BAUD_2000000,
  73:D:/XMC/Projekte/Temp/CF_XMC4700/cleanflight/src/main/io\serial.h ****     BAUD_2470000
  74:D:/XMC/Projekte/Temp/CF_XMC4700/cleanflight/src/main/io\serial.h **** } baudRate_e;
  75:D:/XMC/Projekte/Temp/CF_XMC4700/cleanflight/src/main/io\serial.h **** 
  76:D:/XMC/Projekte/Temp/CF_XMC4700/cleanflight/src/main/io\serial.h **** extern const uint32_t baudRates[];
  77:D:/XMC/Projekte/Temp/CF_XMC4700/cleanflight/src/main/io\serial.h **** 
  78:D:/XMC/Projekte/Temp/CF_XMC4700/cleanflight/src/main/io\serial.h **** // serial port identifiers are now fixed, these values are used by MSP commands.
  79:D:/XMC/Projekte/Temp/CF_XMC4700/cleanflight/src/main/io\serial.h **** typedef enum {
  80:D:/XMC/Projekte/Temp/CF_XMC4700/cleanflight/src/main/io\serial.h ****     SERIAL_PORT_NONE = -1,
  81:D:/XMC/Projekte/Temp/CF_XMC4700/cleanflight/src/main/io\serial.h ****     SERIAL_PORT_USART1 = 0,
  82:D:/XMC/Projekte/Temp/CF_XMC4700/cleanflight/src/main/io\serial.h ****     SERIAL_PORT_USART2,
  83:D:/XMC/Projekte/Temp/CF_XMC4700/cleanflight/src/main/io\serial.h ****     SERIAL_PORT_USART3,
  84:D:/XMC/Projekte/Temp/CF_XMC4700/cleanflight/src/main/io\serial.h ****     SERIAL_PORT_UART4,
  85:D:/XMC/Projekte/Temp/CF_XMC4700/cleanflight/src/main/io\serial.h ****     SERIAL_PORT_UART5,
  86:D:/XMC/Projekte/Temp/CF_XMC4700/cleanflight/src/main/io\serial.h ****     SERIAL_PORT_USART6,
  87:D:/XMC/Projekte/Temp/CF_XMC4700/cleanflight/src/main/io\serial.h ****     SERIAL_PORT_USART7,
  88:D:/XMC/Projekte/Temp/CF_XMC4700/cleanflight/src/main/io\serial.h ****     SERIAL_PORT_USART8,
  89:D:/XMC/Projekte/Temp/CF_XMC4700/cleanflight/src/main/io\serial.h ****     SERIAL_PORT_USB_VCP = 20,
  90:D:/XMC/Projekte/Temp/CF_XMC4700/cleanflight/src/main/io\serial.h ****     SERIAL_PORT_SOFTSERIAL1 = 30,
  91:D:/XMC/Projekte/Temp/CF_XMC4700/cleanflight/src/main/io\serial.h ****     SERIAL_PORT_SOFTSERIAL2,
  92:D:/XMC/Projekte/Temp/CF_XMC4700/cleanflight/src/main/io\serial.h **** 	SERIAL_PORT_SPIS1 = 40,
  93:D:/XMC/Projekte/Temp/CF_XMC4700/cleanflight/src/main/io\serial.h **** 	SERIAL_PORT_SPIS2,
  94:D:/XMC/Projekte/Temp/CF_XMC4700/cleanflight/src/main/io\serial.h **** 	SERIAL_PORT_SPIS3,
  95:D:/XMC/Projekte/Temp/CF_XMC4700/cleanflight/src/main/io\serial.h **** 	SERIAL_PORT_SPIS4,
  96:D:/XMC/Projekte/Temp/CF_XMC4700/cleanflight/src/main/io\serial.h **** 	SERIAL_PORT_SPIS5,
  97:D:/XMC/Projekte/Temp/CF_XMC4700/cleanflight/src/main/io\serial.h **** 	SERIAL_PORT_SPIS6,
  98:D:/XMC/Projekte/Temp/CF_XMC4700/cleanflight/src/main/io\serial.h **** } serialPortIdentifier_e;
  99:D:/XMC/Projekte/Temp/CF_XMC4700/cleanflight/src/main/io\serial.h **** 
 100:D:/XMC/Projekte/Temp/CF_XMC4700/cleanflight/src/main/io\serial.h **** extern const serialPortIdentifier_e serialPortIdentifiers[SERIAL_PORT_COUNT];
 101:D:/XMC/Projekte/Temp/CF_XMC4700/cleanflight/src/main/io\serial.h **** 
 102:D:/XMC/Projekte/Temp/CF_XMC4700/cleanflight/src/main/io\serial.h **** #define SERIAL_PORT_IDENTIFIER_TO_INDEX(x) (((x) <= SERIAL_PORT_USART8) ? (x) : (RESOURCE_SOFT_OFFS
 103:D:/XMC/Projekte/Temp/CF_XMC4700/cleanflight/src/main/io\serial.h **** 
 104:D:/XMC/Projekte/Temp/CF_XMC4700/cleanflight/src/main/io\serial.h **** #define SERIAL_PORT_IDENTIFIER_TO_UARTDEV(x) ((x) - SERIAL_PORT_USART1 + UARTDEV_1)
 105:D:/XMC/Projekte/Temp/CF_XMC4700/cleanflight/src/main/io\serial.h **** 
 106:D:/XMC/Projekte/Temp/CF_XMC4700/cleanflight/src/main/io\serial.h **** //
 107:D:/XMC/Projekte/Temp/CF_XMC4700/cleanflight/src/main/io\serial.h **** // runtime
 108:D:/XMC/Projekte/Temp/CF_XMC4700/cleanflight/src/main/io\serial.h **** //
 109:D:/XMC/Projekte/Temp/CF_XMC4700/cleanflight/src/main/io\serial.h **** typedef struct serialPortUsage_s {
 110:D:/XMC/Projekte/Temp/CF_XMC4700/cleanflight/src/main/io\serial.h ****     serialPort_t *serialPort;
 111:D:/XMC/Projekte/Temp/CF_XMC4700/cleanflight/src/main/io\serial.h ****     serialPortFunction_e function;
 112:D:/XMC/Projekte/Temp/CF_XMC4700/cleanflight/src/main/io\serial.h ****     serialPortIdentifier_e identifier;
 113:D:/XMC/Projekte/Temp/CF_XMC4700/cleanflight/src/main/io\serial.h **** } serialPortUsage_t;
 114:D:/XMC/Projekte/Temp/CF_XMC4700/cleanflight/src/main/io\serial.h **** 
 115:D:/XMC/Projekte/Temp/CF_XMC4700/cleanflight/src/main/io\serial.h **** serialPort_t *findSharedSerialPort(uint16_t functionMask, serialPortFunction_e sharedWithFunction);
 116:D:/XMC/Projekte/Temp/CF_XMC4700/cleanflight/src/main/io\serial.h **** 
 117:D:/XMC/Projekte/Temp/CF_XMC4700/cleanflight/src/main/io\serial.h **** //
 118:D:/XMC/Projekte/Temp/CF_XMC4700/cleanflight/src/main/io\serial.h **** // configuration
 119:D:/XMC/Projekte/Temp/CF_XMC4700/cleanflight/src/main/io\serial.h **** //
 120:D:/XMC/Projekte/Temp/CF_XMC4700/cleanflight/src/main/io\serial.h **** typedef struct serialPortConfig_s {
 121:D:/XMC/Projekte/Temp/CF_XMC4700/cleanflight/src/main/io\serial.h ****     uint16_t functionMask;
 122:D:/XMC/Projekte/Temp/CF_XMC4700/cleanflight/src/main/io\serial.h ****     serialPortIdentifier_e identifier;
 123:D:/XMC/Projekte/Temp/CF_XMC4700/cleanflight/src/main/io\serial.h ****     uint8_t msp_baudrateIndex;
 124:D:/XMC/Projekte/Temp/CF_XMC4700/cleanflight/src/main/io\serial.h ****     uint8_t gps_baudrateIndex;
 125:D:/XMC/Projekte/Temp/CF_XMC4700/cleanflight/src/main/io\serial.h ****     uint8_t blackbox_baudrateIndex;
 126:D:/XMC/Projekte/Temp/CF_XMC4700/cleanflight/src/main/io\serial.h ****     uint8_t telemetry_baudrateIndex; // not used for all telemetry systems, e.g. HoTT only works at
 127:D:/XMC/Projekte/Temp/CF_XMC4700/cleanflight/src/main/io\serial.h **** } serialPortConfig_t;
 128:D:/XMC/Projekte/Temp/CF_XMC4700/cleanflight/src/main/io\serial.h **** 
 129:D:/XMC/Projekte/Temp/CF_XMC4700/cleanflight/src/main/io\serial.h **** typedef struct serialConfig_s {
 130:D:/XMC/Projekte/Temp/CF_XMC4700/cleanflight/src/main/io\serial.h ****     serialPortConfig_t portConfigs[SERIAL_PORT_COUNT];
 131:D:/XMC/Projekte/Temp/CF_XMC4700/cleanflight/src/main/io\serial.h ****     uint16_t serial_update_rate_hz;
 132:D:/XMC/Projekte/Temp/CF_XMC4700/cleanflight/src/main/io\serial.h ****     uint8_t reboot_character;               // which byte is used to reboot. Default 'R', could be 
 133:D:/XMC/Projekte/Temp/CF_XMC4700/cleanflight/src/main/io\serial.h **** } serialConfig_t;
 134:D:/XMC/Projekte/Temp/CF_XMC4700/cleanflight/src/main/io\serial.h **** 
 135:D:/XMC/Projekte/Temp/CF_XMC4700/cleanflight/src/main/io\serial.h **** PG_DECLARE(serialConfig_t, serialConfig);
 915              	 .loc 9 135 0
 916              	 .cfi_startproc
 917              	 
 918              	 
 919              	 
 920 0000 80B4     	 push {r7}
 921              	.LCFI98:
 922              	 .cfi_def_cfa_offset 4
 923              	 .cfi_offset 7,-4
 924 0002 00AF     	 add r7,sp,#0
 925              	.LCFI99:
 926              	 .cfi_def_cfa_register 7
 927              	 .loc 9 135 0
 928 0004 024B     	 ldr r3,.L79
 929 0006 1846     	 mov r0,r3
 930 0008 BD46     	 mov sp,r7
 931              	.LCFI100:
 932              	 .cfi_def_cfa_register 13
 933              	 
 934 000a 5DF8047B 	 ldr r7,[sp],#4
 935              	.LCFI101:
 936              	 .cfi_restore 7
 937              	 .cfi_def_cfa_offset 0
 938 000e 7047     	 bx lr
 939              	.L80:
 940              	 .align 2
 941              	.L79:
 942 0010 00000000 	 .word serialConfig_System
 943              	 .cfi_endproc
 944              	.LFE625:
 946              	 .section .text.vtxConfig,"ax",%progbits
 947              	 .align 2
 948              	 .thumb
 949              	 .thumb_func
 951              	vtxConfig:
 952              	.LFB629:
 953              	 .file 10 "D:/XMC/Projekte/Temp/CF_XMC4700/cleanflight/src/main/io/vtx_control.h"
   1:D:/XMC/Projekte/Temp/CF_XMC4700/cleanflight/src/main/io\vtx_control.h **** /*
   2:D:/XMC/Projekte/Temp/CF_XMC4700/cleanflight/src/main/io\vtx_control.h ****  * This file is part of Cleanflight and Betaflight.
   3:D:/XMC/Projekte/Temp/CF_XMC4700/cleanflight/src/main/io\vtx_control.h ****  *
   4:D:/XMC/Projekte/Temp/CF_XMC4700/cleanflight/src/main/io\vtx_control.h ****  * Cleanflight and Betaflight are free software. You can redistribute
   5:D:/XMC/Projekte/Temp/CF_XMC4700/cleanflight/src/main/io\vtx_control.h ****  * this software and/or modify this software under the terms of the
   6:D:/XMC/Projekte/Temp/CF_XMC4700/cleanflight/src/main/io\vtx_control.h ****  * GNU General Public License as published by the Free Software
   7:D:/XMC/Projekte/Temp/CF_XMC4700/cleanflight/src/main/io\vtx_control.h ****  * Foundation, either version 3 of the License, or (at your option)
   8:D:/XMC/Projekte/Temp/CF_XMC4700/cleanflight/src/main/io\vtx_control.h ****  * any later version.
   9:D:/XMC/Projekte/Temp/CF_XMC4700/cleanflight/src/main/io\vtx_control.h ****  *
  10:D:/XMC/Projekte/Temp/CF_XMC4700/cleanflight/src/main/io\vtx_control.h ****  * Cleanflight and Betaflight are distributed in the hope that they
  11:D:/XMC/Projekte/Temp/CF_XMC4700/cleanflight/src/main/io\vtx_control.h ****  * will be useful, but WITHOUT ANY WARRANTY; without even the implied
  12:D:/XMC/Projekte/Temp/CF_XMC4700/cleanflight/src/main/io\vtx_control.h ****  * warranty of MERCHANTABILITY or FITNESS FOR A PARTICULAR PURPOSE.
  13:D:/XMC/Projekte/Temp/CF_XMC4700/cleanflight/src/main/io\vtx_control.h ****  * See the GNU General Public License for more details.
  14:D:/XMC/Projekte/Temp/CF_XMC4700/cleanflight/src/main/io\vtx_control.h ****  *
  15:D:/XMC/Projekte/Temp/CF_XMC4700/cleanflight/src/main/io\vtx_control.h ****  * You should have received a copy of the GNU General Public License
  16:D:/XMC/Projekte/Temp/CF_XMC4700/cleanflight/src/main/io\vtx_control.h ****  * along with this software.
  17:D:/XMC/Projekte/Temp/CF_XMC4700/cleanflight/src/main/io\vtx_control.h ****  *
  18:D:/XMC/Projekte/Temp/CF_XMC4700/cleanflight/src/main/io\vtx_control.h ****  * If not, see <http://www.gnu.org/licenses/>.
  19:D:/XMC/Projekte/Temp/CF_XMC4700/cleanflight/src/main/io\vtx_control.h ****  */
  20:D:/XMC/Projekte/Temp/CF_XMC4700/cleanflight/src/main/io\vtx_control.h **** 
  21:D:/XMC/Projekte/Temp/CF_XMC4700/cleanflight/src/main/io\vtx_control.h **** #pragma once
  22:D:/XMC/Projekte/Temp/CF_XMC4700/cleanflight/src/main/io\vtx_control.h **** 
  23:D:/XMC/Projekte/Temp/CF_XMC4700/cleanflight/src/main/io\vtx_control.h **** #include <stdbool.h>
  24:D:/XMC/Projekte/Temp/CF_XMC4700/cleanflight/src/main/io\vtx_control.h **** #include <stdint.h>
  25:D:/XMC/Projekte/Temp/CF_XMC4700/cleanflight/src/main/io\vtx_control.h **** 
  26:D:/XMC/Projekte/Temp/CF_XMC4700/cleanflight/src/main/io\vtx_control.h **** #include "platform.h"
  27:D:/XMC/Projekte/Temp/CF_XMC4700/cleanflight/src/main/io\vtx_control.h **** 
  28:D:/XMC/Projekte/Temp/CF_XMC4700/cleanflight/src/main/io\vtx_control.h **** #include "pg/pg.h"
  29:D:/XMC/Projekte/Temp/CF_XMC4700/cleanflight/src/main/io\vtx_control.h **** #include "fc/rc_modes.h"
  30:D:/XMC/Projekte/Temp/CF_XMC4700/cleanflight/src/main/io\vtx_control.h **** 
  31:D:/XMC/Projekte/Temp/CF_XMC4700/cleanflight/src/main/io\vtx_control.h **** #define MAX_CHANNEL_ACTIVATION_CONDITION_COUNT  10
  32:D:/XMC/Projekte/Temp/CF_XMC4700/cleanflight/src/main/io\vtx_control.h **** 
  33:D:/XMC/Projekte/Temp/CF_XMC4700/cleanflight/src/main/io\vtx_control.h **** typedef struct vtxChannelActivationCondition_s {
  34:D:/XMC/Projekte/Temp/CF_XMC4700/cleanflight/src/main/io\vtx_control.h ****     uint8_t auxChannelIndex;
  35:D:/XMC/Projekte/Temp/CF_XMC4700/cleanflight/src/main/io\vtx_control.h ****     uint8_t band;
  36:D:/XMC/Projekte/Temp/CF_XMC4700/cleanflight/src/main/io\vtx_control.h ****     uint8_t channel;
  37:D:/XMC/Projekte/Temp/CF_XMC4700/cleanflight/src/main/io\vtx_control.h ****     channelRange_t range;
  38:D:/XMC/Projekte/Temp/CF_XMC4700/cleanflight/src/main/io\vtx_control.h **** } vtxChannelActivationCondition_t;
  39:D:/XMC/Projekte/Temp/CF_XMC4700/cleanflight/src/main/io\vtx_control.h **** 
  40:D:/XMC/Projekte/Temp/CF_XMC4700/cleanflight/src/main/io\vtx_control.h **** typedef struct vtxConfig_s {
  41:D:/XMC/Projekte/Temp/CF_XMC4700/cleanflight/src/main/io\vtx_control.h ****     vtxChannelActivationCondition_t vtxChannelActivationConditions[MAX_CHANNEL_ACTIVATION_CONDITION
  42:D:/XMC/Projekte/Temp/CF_XMC4700/cleanflight/src/main/io\vtx_control.h ****     uint8_t halfDuplex;
  43:D:/XMC/Projekte/Temp/CF_XMC4700/cleanflight/src/main/io\vtx_control.h **** } vtxConfig_t;
  44:D:/XMC/Projekte/Temp/CF_XMC4700/cleanflight/src/main/io\vtx_control.h **** 
  45:D:/XMC/Projekte/Temp/CF_XMC4700/cleanflight/src/main/io\vtx_control.h **** PG_DECLARE(vtxConfig_t, vtxConfig);
 954              	 .loc 10 45 0
 955              	 .cfi_startproc
 956              	 
 957              	 
 958              	 
 959 0000 80B4     	 push {r7}
 960              	.LCFI102:
 961              	 .cfi_def_cfa_offset 4
 962              	 .cfi_offset 7,-4
 963 0002 00AF     	 add r7,sp,#0
 964              	.LCFI103:
 965              	 .cfi_def_cfa_register 7
 966              	 .loc 10 45 0
 967 0004 024B     	 ldr r3,.L83
 968 0006 1846     	 mov r0,r3
 969 0008 BD46     	 mov sp,r7
 970              	.LCFI104:
 971              	 .cfi_def_cfa_register 13
 972              	 
 973 000a 5DF8047B 	 ldr r7,[sp],#4
 974              	.LCFI105:
 975              	 .cfi_restore 7
 976              	 .cfi_def_cfa_offset 0
 977 000e 7047     	 bx lr
 978              	.L84:
 979              	 .align 2
 980              	.L83:
 981 0010 00000000 	 .word vtxConfig_System
 982              	 .cfi_endproc
 983              	.LFE629:
 985              	 .section .text.vtxConfigMutable,"ax",%progbits
 986              	 .align 2
 987              	 .thumb
 988              	 .thumb_func
 990              	vtxConfigMutable:
 991              	.LFB630:
 992              	 .loc 10 45 0
 993              	 .cfi_startproc
 994              	 
 995              	 
 996              	 
 997 0000 80B4     	 push {r7}
 998              	.LCFI106:
 999              	 .cfi_def_cfa_offset 4
 1000              	 .cfi_offset 7,-4
 1001 0002 00AF     	 add r7,sp,#0
 1002              	.LCFI107:
 1003              	 .cfi_def_cfa_register 7
 1004              	 .loc 10 45 0
 1005 0004 024B     	 ldr r3,.L87
 1006 0006 1846     	 mov r0,r3
 1007 0008 BD46     	 mov sp,r7
 1008              	.LCFI108:
 1009              	 .cfi_def_cfa_register 13
 1010              	 
 1011 000a 5DF8047B 	 ldr r7,[sp],#4
 1012              	.LCFI109:
 1013              	 .cfi_restore 7
 1014              	 .cfi_def_cfa_offset 0
 1015 000e 7047     	 bx lr
 1016              	.L88:
 1017              	 .align 2
 1018              	.L87:
 1019 0010 00000000 	 .word vtxConfig_System
 1020              	 .cfi_endproc
 1021              	.LFE630:
 1023              	 .section .text.rxConfig,"ax",%progbits
 1024              	 .align 2
 1025              	 .thumb
 1026              	 .thumb_func
 1028              	rxConfig:
 1029              	.LFB657:
 1030              	 .file 11 "D:/XMC/Projekte/Temp/CF_XMC4700/cleanflight/src/main/pg/rx.h"
   1:D:/XMC/Projekte/Temp/CF_XMC4700/cleanflight/src/main/pg\rx.h **** /*
   2:D:/XMC/Projekte/Temp/CF_XMC4700/cleanflight/src/main/pg\rx.h ****  * This file is part of Cleanflight and Betaflight.
   3:D:/XMC/Projekte/Temp/CF_XMC4700/cleanflight/src/main/pg\rx.h ****  *
   4:D:/XMC/Projekte/Temp/CF_XMC4700/cleanflight/src/main/pg\rx.h ****  * Cleanflight and Betaflight are free software. You can redistribute
   5:D:/XMC/Projekte/Temp/CF_XMC4700/cleanflight/src/main/pg\rx.h ****  * this software and/or modify this software under the terms of the
   6:D:/XMC/Projekte/Temp/CF_XMC4700/cleanflight/src/main/pg\rx.h ****  * GNU General Public License as published by the Free Software
   7:D:/XMC/Projekte/Temp/CF_XMC4700/cleanflight/src/main/pg\rx.h ****  * Foundation, either version 3 of the License, or (at your option)
   8:D:/XMC/Projekte/Temp/CF_XMC4700/cleanflight/src/main/pg\rx.h ****  * any later version.
   9:D:/XMC/Projekte/Temp/CF_XMC4700/cleanflight/src/main/pg\rx.h ****  *
  10:D:/XMC/Projekte/Temp/CF_XMC4700/cleanflight/src/main/pg\rx.h ****  * Cleanflight and Betaflight are distributed in the hope that they
  11:D:/XMC/Projekte/Temp/CF_XMC4700/cleanflight/src/main/pg\rx.h ****  * will be useful, but WITHOUT ANY WARRANTY; without even the implied
  12:D:/XMC/Projekte/Temp/CF_XMC4700/cleanflight/src/main/pg\rx.h ****  * warranty of MERCHANTABILITY or FITNESS FOR A PARTICULAR PURPOSE.
  13:D:/XMC/Projekte/Temp/CF_XMC4700/cleanflight/src/main/pg\rx.h ****  * See the GNU General Public License for more details.
  14:D:/XMC/Projekte/Temp/CF_XMC4700/cleanflight/src/main/pg\rx.h ****  *
  15:D:/XMC/Projekte/Temp/CF_XMC4700/cleanflight/src/main/pg\rx.h ****  * You should have received a copy of the GNU General Public License
  16:D:/XMC/Projekte/Temp/CF_XMC4700/cleanflight/src/main/pg\rx.h ****  * along with this software.
  17:D:/XMC/Projekte/Temp/CF_XMC4700/cleanflight/src/main/pg\rx.h ****  *
  18:D:/XMC/Projekte/Temp/CF_XMC4700/cleanflight/src/main/pg\rx.h ****  * If not, see <http://www.gnu.org/licenses/>.
  19:D:/XMC/Projekte/Temp/CF_XMC4700/cleanflight/src/main/pg\rx.h ****  */
  20:D:/XMC/Projekte/Temp/CF_XMC4700/cleanflight/src/main/pg\rx.h **** 
  21:D:/XMC/Projekte/Temp/CF_XMC4700/cleanflight/src/main/pg\rx.h **** #pragma once
  22:D:/XMC/Projekte/Temp/CF_XMC4700/cleanflight/src/main/pg\rx.h **** 
  23:D:/XMC/Projekte/Temp/CF_XMC4700/cleanflight/src/main/pg\rx.h **** #include "drivers/io_types.h"
  24:D:/XMC/Projekte/Temp/CF_XMC4700/cleanflight/src/main/pg\rx.h **** 
  25:D:/XMC/Projekte/Temp/CF_XMC4700/cleanflight/src/main/pg\rx.h **** #include "pg/pg.h"
  26:D:/XMC/Projekte/Temp/CF_XMC4700/cleanflight/src/main/pg\rx.h **** 
  27:D:/XMC/Projekte/Temp/CF_XMC4700/cleanflight/src/main/pg\rx.h **** typedef struct rxConfig_s {
  28:D:/XMC/Projekte/Temp/CF_XMC4700/cleanflight/src/main/pg\rx.h ****     uint8_t rcmap[RX_MAPPABLE_CHANNEL_COUNT];  // mapping of radio channels to internal RPYTA+ orde
  29:D:/XMC/Projekte/Temp/CF_XMC4700/cleanflight/src/main/pg\rx.h ****     uint8_t serialrx_provider;              // type of UART-based receiver (0 = spek 10, 1 = spek 1
  30:D:/XMC/Projekte/Temp/CF_XMC4700/cleanflight/src/main/pg\rx.h ****     uint8_t serialrx_inverted;              // invert the serial RX protocol compared to it's defau
  31:D:/XMC/Projekte/Temp/CF_XMC4700/cleanflight/src/main/pg\rx.h ****     uint8_t halfDuplex;                     // allow rx to operate in half duplex mode on F4, ignor
  32:D:/XMC/Projekte/Temp/CF_XMC4700/cleanflight/src/main/pg\rx.h ****     ioTag_t spektrum_bind_pin_override_ioTag;
  33:D:/XMC/Projekte/Temp/CF_XMC4700/cleanflight/src/main/pg\rx.h ****     ioTag_t spektrum_bind_plug_ioTag;
  34:D:/XMC/Projekte/Temp/CF_XMC4700/cleanflight/src/main/pg\rx.h ****     uint8_t spektrum_sat_bind;              // number of bind pulses for Spektrum satellite receive
  35:D:/XMC/Projekte/Temp/CF_XMC4700/cleanflight/src/main/pg\rx.h ****     uint8_t spektrum_sat_bind_autoreset;    // whenever we will reset (exit) binding mode after har
  36:D:/XMC/Projekte/Temp/CF_XMC4700/cleanflight/src/main/pg\rx.h ****     uint8_t rssi_channel;
  37:D:/XMC/Projekte/Temp/CF_XMC4700/cleanflight/src/main/pg\rx.h ****     uint8_t rssi_scale;
  38:D:/XMC/Projekte/Temp/CF_XMC4700/cleanflight/src/main/pg\rx.h ****     uint8_t rssi_invert;
  39:D:/XMC/Projekte/Temp/CF_XMC4700/cleanflight/src/main/pg\rx.h ****     uint16_t midrc;                         // Some radios have not a neutral point centered on 150
  40:D:/XMC/Projekte/Temp/CF_XMC4700/cleanflight/src/main/pg\rx.h ****     uint16_t mincheck;                      // minimum rc end
  41:D:/XMC/Projekte/Temp/CF_XMC4700/cleanflight/src/main/pg\rx.h ****     uint16_t maxcheck;                      // maximum rc end
  42:D:/XMC/Projekte/Temp/CF_XMC4700/cleanflight/src/main/pg\rx.h ****     uint8_t rcInterpolation;
  43:D:/XMC/Projekte/Temp/CF_XMC4700/cleanflight/src/main/pg\rx.h ****     uint8_t rcInterpolationChannels;
  44:D:/XMC/Projekte/Temp/CF_XMC4700/cleanflight/src/main/pg\rx.h ****     uint8_t rcInterpolationInterval;
  45:D:/XMC/Projekte/Temp/CF_XMC4700/cleanflight/src/main/pg\rx.h ****     uint8_t fpvCamAngleDegrees;             // Camera angle to be scaled into rc commands
  46:D:/XMC/Projekte/Temp/CF_XMC4700/cleanflight/src/main/pg\rx.h ****     uint8_t airModeActivateThreshold;       // Throttle setpoint percent where airmode gets activat
  47:D:/XMC/Projekte/Temp/CF_XMC4700/cleanflight/src/main/pg\rx.h **** 
  48:D:/XMC/Projekte/Temp/CF_XMC4700/cleanflight/src/main/pg\rx.h ****     uint16_t rx_min_usec;
  49:D:/XMC/Projekte/Temp/CF_XMC4700/cleanflight/src/main/pg\rx.h ****     uint16_t rx_max_usec;
  50:D:/XMC/Projekte/Temp/CF_XMC4700/cleanflight/src/main/pg\rx.h ****     uint8_t max_aux_channel;
  51:D:/XMC/Projekte/Temp/CF_XMC4700/cleanflight/src/main/pg\rx.h ****     uint8_t rssi_src_frame_errors;          // true to use frame drop flags in the rx protocol
  52:D:/XMC/Projekte/Temp/CF_XMC4700/cleanflight/src/main/pg\rx.h ****     int8_t rssi_offset;                     // offset applied to the RSSI value before it is return
  53:D:/XMC/Projekte/Temp/CF_XMC4700/cleanflight/src/main/pg\rx.h ****     uint8_t rc_smoothing_type;              // Determines the smoothing algorithm to use: INTERPOLA
  54:D:/XMC/Projekte/Temp/CF_XMC4700/cleanflight/src/main/pg\rx.h ****     uint8_t rc_smoothing_input_cutoff;      // Filter cutoff frequency for the input filter (0 = au
  55:D:/XMC/Projekte/Temp/CF_XMC4700/cleanflight/src/main/pg\rx.h ****     uint8_t rc_smoothing_derivative_cutoff; // Filter cutoff frequency for the setpoint weight deri
  56:D:/XMC/Projekte/Temp/CF_XMC4700/cleanflight/src/main/pg\rx.h ****     uint8_t rc_smoothing_debug_axis;        // Axis to log as debug values when debug_mode = RC_SMO
  57:D:/XMC/Projekte/Temp/CF_XMC4700/cleanflight/src/main/pg\rx.h ****     uint8_t rc_smoothing_input_type;        // Input filter type (0 = PT1, 1 = BIQUAD)
  58:D:/XMC/Projekte/Temp/CF_XMC4700/cleanflight/src/main/pg\rx.h ****     uint8_t rc_smoothing_derivative_type;   // Derivative filter type (0 = OFF, 1 = PT1, 2 = BIQUAD
  59:D:/XMC/Projekte/Temp/CF_XMC4700/cleanflight/src/main/pg\rx.h **** } rxConfig_t;
  60:D:/XMC/Projekte/Temp/CF_XMC4700/cleanflight/src/main/pg\rx.h **** 
  61:D:/XMC/Projekte/Temp/CF_XMC4700/cleanflight/src/main/pg\rx.h **** PG_DECLARE(rxConfig_t, rxConfig);
 1031              	 .loc 11 61 0
 1032              	 .cfi_startproc
 1033              	 
 1034              	 
 1035              	 
 1036 0000 80B4     	 push {r7}
 1037              	.LCFI110:
 1038              	 .cfi_def_cfa_offset 4
 1039              	 .cfi_offset 7,-4
 1040 0002 00AF     	 add r7,sp,#0
 1041              	.LCFI111:
 1042              	 .cfi_def_cfa_register 7
 1043              	 .loc 11 61 0
 1044 0004 024B     	 ldr r3,.L91
 1045 0006 1846     	 mov r0,r3
 1046 0008 BD46     	 mov sp,r7
 1047              	.LCFI112:
 1048              	 .cfi_def_cfa_register 13
 1049              	 
 1050 000a 5DF8047B 	 ldr r7,[sp],#4
 1051              	.LCFI113:
 1052              	 .cfi_restore 7
 1053              	 .cfi_def_cfa_offset 0
 1054 000e 7047     	 bx lr
 1055              	.L92:
 1056              	 .align 2
 1057              	.L91:
 1058 0010 00000000 	 .word rxConfig_System
 1059              	 .cfi_endproc
 1060              	.LFE657:
 1062              	 .section .text.rxConfigMutable,"ax",%progbits
 1063              	 .align 2
 1064              	 .thumb
 1065              	 .thumb_func
 1067              	rxConfigMutable:
 1068              	.LFB658:
 1069              	 .loc 11 61 0
 1070              	 .cfi_startproc
 1071              	 
 1072              	 
 1073              	 
 1074 0000 80B4     	 push {r7}
 1075              	.LCFI114:
 1076              	 .cfi_def_cfa_offset 4
 1077              	 .cfi_offset 7,-4
 1078 0002 00AF     	 add r7,sp,#0
 1079              	.LCFI115:
 1080              	 .cfi_def_cfa_register 7
 1081              	 .loc 11 61 0
 1082 0004 024B     	 ldr r3,.L95
 1083 0006 1846     	 mov r0,r3
 1084 0008 BD46     	 mov sp,r7
 1085              	.LCFI116:
 1086              	 .cfi_def_cfa_register 13
 1087              	 
 1088 000a 5DF8047B 	 ldr r7,[sp],#4
 1089              	.LCFI117:
 1090              	 .cfi_restore 7
 1091              	 .cfi_def_cfa_offset 0
 1092 000e 7047     	 bx lr
 1093              	.L96:
 1094              	 .align 2
 1095              	.L95:
 1096 0010 00000000 	 .word rxConfig_System
 1097              	 .cfi_endproc
 1098              	.LFE658:
 1100              	 .section .text.rxFailsafeChannelConfigs,"ax",%progbits
 1101              	 .align 2
 1102              	 .thumb
 1103              	 .thumb_func
 1105              	rxFailsafeChannelConfigs:
 1106              	.LFB667:
 1107              	 .file 12 "D:/XMC/Projekte/Temp/CF_XMC4700/cleanflight/src/main/rx/rx.h"
   1:D:/XMC/Projekte/Temp/CF_XMC4700/cleanflight/src/main/rx\rx.h **** /*
   2:D:/XMC/Projekte/Temp/CF_XMC4700/cleanflight/src/main/rx\rx.h ****  * This file is part of Cleanflight and Betaflight.
   3:D:/XMC/Projekte/Temp/CF_XMC4700/cleanflight/src/main/rx\rx.h ****  *
   4:D:/XMC/Projekte/Temp/CF_XMC4700/cleanflight/src/main/rx\rx.h ****  * Cleanflight and Betaflight are free software. You can redistribute
   5:D:/XMC/Projekte/Temp/CF_XMC4700/cleanflight/src/main/rx\rx.h ****  * this software and/or modify this software under the terms of the
   6:D:/XMC/Projekte/Temp/CF_XMC4700/cleanflight/src/main/rx\rx.h ****  * GNU General Public License as published by the Free Software
   7:D:/XMC/Projekte/Temp/CF_XMC4700/cleanflight/src/main/rx\rx.h ****  * Foundation, either version 3 of the License, or (at your option)
   8:D:/XMC/Projekte/Temp/CF_XMC4700/cleanflight/src/main/rx\rx.h ****  * any later version.
   9:D:/XMC/Projekte/Temp/CF_XMC4700/cleanflight/src/main/rx\rx.h ****  *
  10:D:/XMC/Projekte/Temp/CF_XMC4700/cleanflight/src/main/rx\rx.h ****  * Cleanflight and Betaflight are distributed in the hope that they
  11:D:/XMC/Projekte/Temp/CF_XMC4700/cleanflight/src/main/rx\rx.h ****  * will be useful, but WITHOUT ANY WARRANTY; without even the implied
  12:D:/XMC/Projekte/Temp/CF_XMC4700/cleanflight/src/main/rx\rx.h ****  * warranty of MERCHANTABILITY or FITNESS FOR A PARTICULAR PURPOSE.
  13:D:/XMC/Projekte/Temp/CF_XMC4700/cleanflight/src/main/rx\rx.h ****  * See the GNU General Public License for more details.
  14:D:/XMC/Projekte/Temp/CF_XMC4700/cleanflight/src/main/rx\rx.h ****  *
  15:D:/XMC/Projekte/Temp/CF_XMC4700/cleanflight/src/main/rx\rx.h ****  * You should have received a copy of the GNU General Public License
  16:D:/XMC/Projekte/Temp/CF_XMC4700/cleanflight/src/main/rx\rx.h ****  * along with this software.
  17:D:/XMC/Projekte/Temp/CF_XMC4700/cleanflight/src/main/rx\rx.h ****  *
  18:D:/XMC/Projekte/Temp/CF_XMC4700/cleanflight/src/main/rx\rx.h ****  * If not, see <http://www.gnu.org/licenses/>.
  19:D:/XMC/Projekte/Temp/CF_XMC4700/cleanflight/src/main/rx\rx.h ****  */
  20:D:/XMC/Projekte/Temp/CF_XMC4700/cleanflight/src/main/rx\rx.h **** 
  21:D:/XMC/Projekte/Temp/CF_XMC4700/cleanflight/src/main/rx\rx.h **** #pragma once
  22:D:/XMC/Projekte/Temp/CF_XMC4700/cleanflight/src/main/rx\rx.h **** 
  23:D:/XMC/Projekte/Temp/CF_XMC4700/cleanflight/src/main/rx\rx.h **** #include "common/time.h"
  24:D:/XMC/Projekte/Temp/CF_XMC4700/cleanflight/src/main/rx\rx.h **** 
  25:D:/XMC/Projekte/Temp/CF_XMC4700/cleanflight/src/main/rx\rx.h **** #include "pg/pg.h"
  26:D:/XMC/Projekte/Temp/CF_XMC4700/cleanflight/src/main/rx\rx.h **** #include "pg/rx.h"
  27:D:/XMC/Projekte/Temp/CF_XMC4700/cleanflight/src/main/rx\rx.h **** 
  28:D:/XMC/Projekte/Temp/CF_XMC4700/cleanflight/src/main/rx\rx.h **** #include "drivers/io_types.h"
  29:D:/XMC/Projekte/Temp/CF_XMC4700/cleanflight/src/main/rx\rx.h **** 
  30:D:/XMC/Projekte/Temp/CF_XMC4700/cleanflight/src/main/rx\rx.h **** #define STICK_CHANNEL_COUNT 4
  31:D:/XMC/Projekte/Temp/CF_XMC4700/cleanflight/src/main/rx\rx.h **** 
  32:D:/XMC/Projekte/Temp/CF_XMC4700/cleanflight/src/main/rx\rx.h **** #define PWM_RANGE_MIN 1000
  33:D:/XMC/Projekte/Temp/CF_XMC4700/cleanflight/src/main/rx\rx.h **** #define PWM_RANGE_MAX 2000
  34:D:/XMC/Projekte/Temp/CF_XMC4700/cleanflight/src/main/rx\rx.h **** #define PWM_RANGE_MIDDLE (PWM_RANGE_MIN + ((PWM_RANGE_MAX - PWM_RANGE_MIN) / 2))
  35:D:/XMC/Projekte/Temp/CF_XMC4700/cleanflight/src/main/rx\rx.h **** 
  36:D:/XMC/Projekte/Temp/CF_XMC4700/cleanflight/src/main/rx\rx.h **** #define PWM_PULSE_MIN   750       // minimum PWM pulse width which is considered valid
  37:D:/XMC/Projekte/Temp/CF_XMC4700/cleanflight/src/main/rx\rx.h **** #define PWM_PULSE_MAX   2250      // maximum PWM pulse width which is considered valid
  38:D:/XMC/Projekte/Temp/CF_XMC4700/cleanflight/src/main/rx\rx.h **** 
  39:D:/XMC/Projekte/Temp/CF_XMC4700/cleanflight/src/main/rx\rx.h **** #define RXFAIL_STEP_TO_CHANNEL_VALUE(step) (PWM_PULSE_MIN + 25 * step)
  40:D:/XMC/Projekte/Temp/CF_XMC4700/cleanflight/src/main/rx\rx.h **** #define CHANNEL_VALUE_TO_RXFAIL_STEP(channelValue) ((constrain(channelValue, PWM_PULSE_MIN, PWM_PUL
  41:D:/XMC/Projekte/Temp/CF_XMC4700/cleanflight/src/main/rx\rx.h **** #define MAX_RXFAIL_RANGE_STEP ((PWM_PULSE_MAX - PWM_PULSE_MIN) / 25)
  42:D:/XMC/Projekte/Temp/CF_XMC4700/cleanflight/src/main/rx\rx.h **** 
  43:D:/XMC/Projekte/Temp/CF_XMC4700/cleanflight/src/main/rx\rx.h **** #define DEFAULT_SERVO_MIN 1000
  44:D:/XMC/Projekte/Temp/CF_XMC4700/cleanflight/src/main/rx\rx.h **** #define DEFAULT_SERVO_MIDDLE 1500
  45:D:/XMC/Projekte/Temp/CF_XMC4700/cleanflight/src/main/rx\rx.h **** #define DEFAULT_SERVO_MAX 2000
  46:D:/XMC/Projekte/Temp/CF_XMC4700/cleanflight/src/main/rx\rx.h **** 
  47:D:/XMC/Projekte/Temp/CF_XMC4700/cleanflight/src/main/rx\rx.h **** typedef enum {
  48:D:/XMC/Projekte/Temp/CF_XMC4700/cleanflight/src/main/rx\rx.h ****     RX_FRAME_PENDING = 0,
  49:D:/XMC/Projekte/Temp/CF_XMC4700/cleanflight/src/main/rx\rx.h ****     RX_FRAME_COMPLETE = (1 << 0),
  50:D:/XMC/Projekte/Temp/CF_XMC4700/cleanflight/src/main/rx\rx.h ****     RX_FRAME_FAILSAFE = (1 << 1),
  51:D:/XMC/Projekte/Temp/CF_XMC4700/cleanflight/src/main/rx\rx.h ****     RX_FRAME_PROCESSING_REQUIRED = (1 << 2),
  52:D:/XMC/Projekte/Temp/CF_XMC4700/cleanflight/src/main/rx\rx.h ****     RX_FRAME_DROPPED = (1 << 3)
  53:D:/XMC/Projekte/Temp/CF_XMC4700/cleanflight/src/main/rx\rx.h **** } rxFrameState_e;
  54:D:/XMC/Projekte/Temp/CF_XMC4700/cleanflight/src/main/rx\rx.h **** 
  55:D:/XMC/Projekte/Temp/CF_XMC4700/cleanflight/src/main/rx\rx.h **** typedef enum {
  56:D:/XMC/Projekte/Temp/CF_XMC4700/cleanflight/src/main/rx\rx.h ****     SERIALRX_SPEKTRUM1024 = 0,
  57:D:/XMC/Projekte/Temp/CF_XMC4700/cleanflight/src/main/rx\rx.h ****     SERIALRX_SPEKTRUM2048 = 1,
  58:D:/XMC/Projekte/Temp/CF_XMC4700/cleanflight/src/main/rx\rx.h ****     SERIALRX_SBUS = 2,
  59:D:/XMC/Projekte/Temp/CF_XMC4700/cleanflight/src/main/rx\rx.h ****     SERIALRX_SUMD = 3,
  60:D:/XMC/Projekte/Temp/CF_XMC4700/cleanflight/src/main/rx\rx.h ****     SERIALRX_SUMH = 4,
  61:D:/XMC/Projekte/Temp/CF_XMC4700/cleanflight/src/main/rx\rx.h ****     SERIALRX_XBUS_MODE_B = 5,
  62:D:/XMC/Projekte/Temp/CF_XMC4700/cleanflight/src/main/rx\rx.h ****     SERIALRX_XBUS_MODE_B_RJ01 = 6,
  63:D:/XMC/Projekte/Temp/CF_XMC4700/cleanflight/src/main/rx\rx.h ****     SERIALRX_IBUS = 7,
  64:D:/XMC/Projekte/Temp/CF_XMC4700/cleanflight/src/main/rx\rx.h ****     SERIALRX_JETIEXBUS = 8,
  65:D:/XMC/Projekte/Temp/CF_XMC4700/cleanflight/src/main/rx\rx.h ****     SERIALRX_CRSF = 9,
  66:D:/XMC/Projekte/Temp/CF_XMC4700/cleanflight/src/main/rx\rx.h ****     SERIALRX_SRXL = 10,
  67:D:/XMC/Projekte/Temp/CF_XMC4700/cleanflight/src/main/rx\rx.h ****     SERIALRX_TARGET_CUSTOM = 11,
  68:D:/XMC/Projekte/Temp/CF_XMC4700/cleanflight/src/main/rx\rx.h ****     SERIALRX_FPORT = 12,
  69:D:/XMC/Projekte/Temp/CF_XMC4700/cleanflight/src/main/rx\rx.h **** } SerialRXType;
  70:D:/XMC/Projekte/Temp/CF_XMC4700/cleanflight/src/main/rx\rx.h **** 
  71:D:/XMC/Projekte/Temp/CF_XMC4700/cleanflight/src/main/rx\rx.h **** #define MAX_SUPPORTED_RC_PPM_CHANNEL_COUNT          12
  72:D:/XMC/Projekte/Temp/CF_XMC4700/cleanflight/src/main/rx\rx.h **** #define MAX_SUPPORTED_RC_PARALLEL_PWM_CHANNEL_COUNT  8
  73:D:/XMC/Projekte/Temp/CF_XMC4700/cleanflight/src/main/rx\rx.h **** #define MAX_SUPPORTED_RC_CHANNEL_COUNT              18
  74:D:/XMC/Projekte/Temp/CF_XMC4700/cleanflight/src/main/rx\rx.h **** 
  75:D:/XMC/Projekte/Temp/CF_XMC4700/cleanflight/src/main/rx\rx.h **** #define NON_AUX_CHANNEL_COUNT 4
  76:D:/XMC/Projekte/Temp/CF_XMC4700/cleanflight/src/main/rx\rx.h **** #define MAX_AUX_CHANNEL_COUNT (MAX_SUPPORTED_RC_CHANNEL_COUNT - NON_AUX_CHANNEL_COUNT)
  77:D:/XMC/Projekte/Temp/CF_XMC4700/cleanflight/src/main/rx\rx.h **** 
  78:D:/XMC/Projekte/Temp/CF_XMC4700/cleanflight/src/main/rx\rx.h **** #if MAX_SUPPORTED_RC_PARALLEL_PWM_CHANNEL_COUNT > MAX_SUPPORTED_RC_PPM_CHANNEL_COUNT
  79:D:/XMC/Projekte/Temp/CF_XMC4700/cleanflight/src/main/rx\rx.h **** #define MAX_SUPPORTED_RX_PARALLEL_PWM_OR_PPM_CHANNEL_COUNT MAX_SUPPORTED_RC_PARALLEL_PWM_CHANNEL_CO
  80:D:/XMC/Projekte/Temp/CF_XMC4700/cleanflight/src/main/rx\rx.h **** #else
  81:D:/XMC/Projekte/Temp/CF_XMC4700/cleanflight/src/main/rx\rx.h **** #define MAX_SUPPORTED_RX_PARALLEL_PWM_OR_PPM_CHANNEL_COUNT MAX_SUPPORTED_RC_PPM_CHANNEL_COUNT
  82:D:/XMC/Projekte/Temp/CF_XMC4700/cleanflight/src/main/rx\rx.h **** #endif
  83:D:/XMC/Projekte/Temp/CF_XMC4700/cleanflight/src/main/rx\rx.h **** 
  84:D:/XMC/Projekte/Temp/CF_XMC4700/cleanflight/src/main/rx\rx.h **** extern const char rcChannelLetters[];
  85:D:/XMC/Projekte/Temp/CF_XMC4700/cleanflight/src/main/rx\rx.h **** 
  86:D:/XMC/Projekte/Temp/CF_XMC4700/cleanflight/src/main/rx\rx.h **** extern int16_t rcData[MAX_SUPPORTED_RC_CHANNEL_COUNT];       // interval [1000;2000]
  87:D:/XMC/Projekte/Temp/CF_XMC4700/cleanflight/src/main/rx\rx.h **** 
  88:D:/XMC/Projekte/Temp/CF_XMC4700/cleanflight/src/main/rx\rx.h **** #define RSSI_SCALE_MIN 1
  89:D:/XMC/Projekte/Temp/CF_XMC4700/cleanflight/src/main/rx\rx.h **** #define RSSI_SCALE_MAX 255
  90:D:/XMC/Projekte/Temp/CF_XMC4700/cleanflight/src/main/rx\rx.h **** 
  91:D:/XMC/Projekte/Temp/CF_XMC4700/cleanflight/src/main/rx\rx.h **** #define RSSI_SCALE_DEFAULT 100
  92:D:/XMC/Projekte/Temp/CF_XMC4700/cleanflight/src/main/rx\rx.h **** 
  93:D:/XMC/Projekte/Temp/CF_XMC4700/cleanflight/src/main/rx\rx.h **** typedef enum {
  94:D:/XMC/Projekte/Temp/CF_XMC4700/cleanflight/src/main/rx\rx.h ****     RX_FAILSAFE_MODE_AUTO = 0,
  95:D:/XMC/Projekte/Temp/CF_XMC4700/cleanflight/src/main/rx\rx.h ****     RX_FAILSAFE_MODE_HOLD,
  96:D:/XMC/Projekte/Temp/CF_XMC4700/cleanflight/src/main/rx\rx.h ****     RX_FAILSAFE_MODE_SET,
  97:D:/XMC/Projekte/Temp/CF_XMC4700/cleanflight/src/main/rx\rx.h ****     RX_FAILSAFE_MODE_INVALID
  98:D:/XMC/Projekte/Temp/CF_XMC4700/cleanflight/src/main/rx\rx.h **** } rxFailsafeChannelMode_e;
  99:D:/XMC/Projekte/Temp/CF_XMC4700/cleanflight/src/main/rx\rx.h **** 
 100:D:/XMC/Projekte/Temp/CF_XMC4700/cleanflight/src/main/rx\rx.h **** #define RX_FAILSAFE_MODE_COUNT 3
 101:D:/XMC/Projekte/Temp/CF_XMC4700/cleanflight/src/main/rx\rx.h **** 
 102:D:/XMC/Projekte/Temp/CF_XMC4700/cleanflight/src/main/rx\rx.h **** typedef enum {
 103:D:/XMC/Projekte/Temp/CF_XMC4700/cleanflight/src/main/rx\rx.h ****     RX_FAILSAFE_TYPE_FLIGHT = 0,
 104:D:/XMC/Projekte/Temp/CF_XMC4700/cleanflight/src/main/rx\rx.h ****     RX_FAILSAFE_TYPE_AUX
 105:D:/XMC/Projekte/Temp/CF_XMC4700/cleanflight/src/main/rx\rx.h **** } rxFailsafeChannelType_e;
 106:D:/XMC/Projekte/Temp/CF_XMC4700/cleanflight/src/main/rx\rx.h **** 
 107:D:/XMC/Projekte/Temp/CF_XMC4700/cleanflight/src/main/rx\rx.h **** #define RX_FAILSAFE_TYPE_COUNT 2
 108:D:/XMC/Projekte/Temp/CF_XMC4700/cleanflight/src/main/rx\rx.h **** 
 109:D:/XMC/Projekte/Temp/CF_XMC4700/cleanflight/src/main/rx\rx.h **** typedef struct rxFailsafeChannelConfig_s {
 110:D:/XMC/Projekte/Temp/CF_XMC4700/cleanflight/src/main/rx\rx.h ****     uint8_t mode; // See rxFailsafeChannelMode_e
 111:D:/XMC/Projekte/Temp/CF_XMC4700/cleanflight/src/main/rx\rx.h ****     uint8_t step;
 112:D:/XMC/Projekte/Temp/CF_XMC4700/cleanflight/src/main/rx\rx.h **** } rxFailsafeChannelConfig_t;
 113:D:/XMC/Projekte/Temp/CF_XMC4700/cleanflight/src/main/rx\rx.h **** 
 114:D:/XMC/Projekte/Temp/CF_XMC4700/cleanflight/src/main/rx\rx.h **** PG_DECLARE_ARRAY(rxFailsafeChannelConfig_t, MAX_SUPPORTED_RC_CHANNEL_COUNT, rxFailsafeChannelConfig
 1108              	 .loc 12 114 0
 1109              	 .cfi_startproc
 1110              	 
 1111              	 
 1112              	 
 1113 0000 80B4     	 push {r7}
 1114              	.LCFI118:
 1115              	 .cfi_def_cfa_offset 4
 1116              	 .cfi_offset 7,-4
 1117 0002 83B0     	 sub sp,sp,#12
 1118              	.LCFI119:
 1119              	 .cfi_def_cfa_offset 16
 1120 0004 00AF     	 add r7,sp,#0
 1121              	.LCFI120:
 1122              	 .cfi_def_cfa_register 7
 1123 0006 7860     	 str r0,[r7,#4]
 1124              	 .loc 12 114 0
 1125 0008 7B68     	 ldr r3,[r7,#4]
 1126 000a 5B00     	 lsls r3,r3,#1
 1127 000c 034A     	 ldr r2,.L99
 1128 000e 1344     	 add r3,r3,r2
 1129 0010 1846     	 mov r0,r3
 1130 0012 0C37     	 adds r7,r7,#12
 1131              	.LCFI121:
 1132              	 .cfi_def_cfa_offset 4
 1133 0014 BD46     	 mov sp,r7
 1134              	.LCFI122:
 1135              	 .cfi_def_cfa_register 13
 1136              	 
 1137 0016 5DF8047B 	 ldr r7,[sp],#4
 1138              	.LCFI123:
 1139              	 .cfi_restore 7
 1140              	 .cfi_def_cfa_offset 0
 1141 001a 7047     	 bx lr
 1142              	.L100:
 1143              	 .align 2
 1144              	.L99:
 1145 001c 00000000 	 .word rxFailsafeChannelConfigs_SystemArray
 1146              	 .cfi_endproc
 1147              	.LFE667:
 1149              	 .section .text.rxFailsafeChannelConfigsMutable,"ax",%progbits
 1150              	 .align 2
 1151              	 .thumb
 1152              	 .thumb_func
 1154              	rxFailsafeChannelConfigsMutable:
 1155              	.LFB668:
 1156              	 .loc 12 114 0
 1157              	 .cfi_startproc
 1158              	 
 1159              	 
 1160              	 
 1161 0000 80B4     	 push {r7}
 1162              	.LCFI124:
 1163              	 .cfi_def_cfa_offset 4
 1164              	 .cfi_offset 7,-4
 1165 0002 83B0     	 sub sp,sp,#12
 1166              	.LCFI125:
 1167              	 .cfi_def_cfa_offset 16
 1168 0004 00AF     	 add r7,sp,#0
 1169              	.LCFI126:
 1170              	 .cfi_def_cfa_register 7
 1171 0006 7860     	 str r0,[r7,#4]
 1172              	 .loc 12 114 0
 1173 0008 7B68     	 ldr r3,[r7,#4]
 1174 000a 5B00     	 lsls r3,r3,#1
 1175 000c 034A     	 ldr r2,.L103
 1176 000e 1344     	 add r3,r3,r2
 1177 0010 1846     	 mov r0,r3
 1178 0012 0C37     	 adds r7,r7,#12
 1179              	.LCFI127:
 1180              	 .cfi_def_cfa_offset 4
 1181 0014 BD46     	 mov sp,r7
 1182              	.LCFI128:
 1183              	 .cfi_def_cfa_register 13
 1184              	 
 1185 0016 5DF8047B 	 ldr r7,[sp],#4
 1186              	.LCFI129:
 1187              	 .cfi_restore 7
 1188              	 .cfi_def_cfa_offset 0
 1189 001a 7047     	 bx lr
 1190              	.L104:
 1191              	 .align 2
 1192              	.L103:
 1193 001c 00000000 	 .word rxFailsafeChannelConfigs_SystemArray
 1194              	 .cfi_endproc
 1195              	.LFE668:
 1197              	 .section .text.rxChannelRangeConfigs,"ax",%progbits
 1198              	 .align 2
 1199              	 .thumb
 1200              	 .thumb_func
 1202              	rxChannelRangeConfigs:
 1203              	.LFB670:
 115:D:/XMC/Projekte/Temp/CF_XMC4700/cleanflight/src/main/rx\rx.h **** 
 116:D:/XMC/Projekte/Temp/CF_XMC4700/cleanflight/src/main/rx\rx.h **** typedef struct rxChannelRangeConfig_s {
 117:D:/XMC/Projekte/Temp/CF_XMC4700/cleanflight/src/main/rx\rx.h ****     uint16_t min;
 118:D:/XMC/Projekte/Temp/CF_XMC4700/cleanflight/src/main/rx\rx.h ****     uint16_t max;
 119:D:/XMC/Projekte/Temp/CF_XMC4700/cleanflight/src/main/rx\rx.h **** } rxChannelRangeConfig_t;
 120:D:/XMC/Projekte/Temp/CF_XMC4700/cleanflight/src/main/rx\rx.h **** 
 121:D:/XMC/Projekte/Temp/CF_XMC4700/cleanflight/src/main/rx\rx.h **** PG_DECLARE_ARRAY(rxChannelRangeConfig_t, NON_AUX_CHANNEL_COUNT, rxChannelRangeConfigs);
 1204              	 .loc 12 121 0
 1205              	 .cfi_startproc
 1206              	 
 1207              	 
 1208              	 
 1209 0000 80B4     	 push {r7}
 1210              	.LCFI130:
 1211              	 .cfi_def_cfa_offset 4
 1212              	 .cfi_offset 7,-4
 1213 0002 83B0     	 sub sp,sp,#12
 1214              	.LCFI131:
 1215              	 .cfi_def_cfa_offset 16
 1216 0004 00AF     	 add r7,sp,#0
 1217              	.LCFI132:
 1218              	 .cfi_def_cfa_register 7
 1219 0006 7860     	 str r0,[r7,#4]
 1220              	 .loc 12 121 0
 1221 0008 7B68     	 ldr r3,[r7,#4]
 1222 000a 9B00     	 lsls r3,r3,#2
 1223 000c 034A     	 ldr r2,.L107
 1224 000e 1344     	 add r3,r3,r2
 1225 0010 1846     	 mov r0,r3
 1226 0012 0C37     	 adds r7,r7,#12
 1227              	.LCFI133:
 1228              	 .cfi_def_cfa_offset 4
 1229 0014 BD46     	 mov sp,r7
 1230              	.LCFI134:
 1231              	 .cfi_def_cfa_register 13
 1232              	 
 1233 0016 5DF8047B 	 ldr r7,[sp],#4
 1234              	.LCFI135:
 1235              	 .cfi_restore 7
 1236              	 .cfi_def_cfa_offset 0
 1237 001a 7047     	 bx lr
 1238              	.L108:
 1239              	 .align 2
 1240              	.L107:
 1241 001c 00000000 	 .word rxChannelRangeConfigs_SystemArray
 1242              	 .cfi_endproc
 1243              	.LFE670:
 1245              	 .section .text.rxChannelRangeConfigsMutable,"ax",%progbits
 1246              	 .align 2
 1247              	 .thumb
 1248              	 .thumb_func
 1250              	rxChannelRangeConfigsMutable:
 1251              	.LFB671:
 1252              	 .loc 12 121 0
 1253              	 .cfi_startproc
 1254              	 
 1255              	 
 1256              	 
 1257 0000 80B4     	 push {r7}
 1258              	.LCFI136:
 1259              	 .cfi_def_cfa_offset 4
 1260              	 .cfi_offset 7,-4
 1261 0002 83B0     	 sub sp,sp,#12
 1262              	.LCFI137:
 1263              	 .cfi_def_cfa_offset 16
 1264 0004 00AF     	 add r7,sp,#0
 1265              	.LCFI138:
 1266              	 .cfi_def_cfa_register 7
 1267 0006 7860     	 str r0,[r7,#4]
 1268              	 .loc 12 121 0
 1269 0008 7B68     	 ldr r3,[r7,#4]
 1270 000a 9B00     	 lsls r3,r3,#2
 1271 000c 034A     	 ldr r2,.L111
 1272 000e 1344     	 add r3,r3,r2
 1273 0010 1846     	 mov r0,r3
 1274 0012 0C37     	 adds r7,r7,#12
 1275              	.LCFI139:
 1276              	 .cfi_def_cfa_offset 4
 1277 0014 BD46     	 mov sp,r7
 1278              	.LCFI140:
 1279              	 .cfi_def_cfa_register 13
 1280              	 
 1281 0016 5DF8047B 	 ldr r7,[sp],#4
 1282              	.LCFI141:
 1283              	 .cfi_restore 7
 1284              	 .cfi_def_cfa_offset 0
 1285 001a 7047     	 bx lr
 1286              	.L112:
 1287              	 .align 2
 1288              	.L111:
 1289 001c 00000000 	 .word rxChannelRangeConfigs_SystemArray
 1290              	 .cfi_endproc
 1291              	.LFE671:
 1293              	 .section .bss.cliPort,"aw",%nobits
 1294              	 .align 2
 1297              	cliPort:
 1298 0000 00000000 	 .space 4
 1299              	 .section .bss.cliWriter,"aw",%nobits
 1300              	 .align 2
 1303              	cliWriter:
 1304 0000 00000000 	 .space 4
 1305              	 .section .bss.cliWriteBuffer,"aw",%nobits
 1306              	 .align 2
 1309              	cliWriteBuffer:
 1310 0000 00000000 	 .space 74
 1310      00000000 
 1310      00000000 
 1310      00000000 
 1310      00000000 
 1311 004a 0000     	 .section .bss.cliBuffer,"aw",%nobits
 1312              	 .align 2
 1315              	cliBuffer:
 1316 0000 00000000 	 .space 256
 1316      00000000 
 1316      00000000 
 1316      00000000 
 1316      00000000 
 1317              	 .section .bss.bufferIndex,"aw",%nobits
 1318              	 .align 2
 1321              	bufferIndex:
 1322 0000 00000000 	 .space 4
 1323              	 .section .bss.configIsInCopy,"aw",%nobits
 1326              	configIsInCopy:
 1327 0000 00       	 .space 1
 1328              	 .section .data.pidProfileIndexToUse,"aw",%progbits
 1331              	pidProfileIndexToUse:
 1332 0000 FF       	 .byte -1
 1333              	 .section .data.rateProfileIndexToUse,"aw",%progbits
 1336              	rateProfileIndexToUse:
 1337 0000 FF       	 .byte -1
 1338              	 .section .bss.boardInformationUpdated,"aw",%nobits
 1341              	boardInformationUpdated:
 1342 0000 00       	 .space 1
 1343              	 .section .bss.signatureUpdated,"aw",%nobits
 1346              	signatureUpdated:
 1347 0000 00       	 .space 1
 1348              	 .section .rodata
 1349              	 .align 2
 1350              	.LC0:
 1351 0000 2D00     	 .ascii "-\000"
 1352              	 .section .rodata.emptyName,"a",%progbits
 1353              	 .align 2
 1356              	emptyName:
 1357 0000 00000000 	 .word .LC0
 1358              	 .section .rodata
 1359 0002 0000     	 .align 2
 1360              	.LC1:
 1361 0004 00       	 .ascii "\000"
 1362              	 .section .rodata.emptyString,"a",%progbits
 1363              	 .align 2
 1366              	emptyString:
 1367 0000 04000000 	 .word .LC1
 1368              	 .section .rodata
 1369 0005 000000   	 .align 2
 1370              	.LC2:
 1371 0008 54524900 	 .ascii "TRI\000"
 1372              	 .align 2
 1373              	.LC3:
 1374 000c 51554144 	 .ascii "QUADP\000"
 1374      5000
 1375 0012 0000     	 .align 2
 1376              	.LC4:
 1377 0014 51554144 	 .ascii "QUADX\000"
 1377      5800
 1378 001a 0000     	 .align 2
 1379              	.LC5:
 1380 001c 424900   	 .ascii "BI\000"
 1381 001f 00       	 .align 2
 1382              	.LC6:
 1383 0020 47494D42 	 .ascii "GIMBAL\000"
 1383      414C00
 1384 0027 00       	 .align 2
 1385              	.LC7:
 1386 0028 593600   	 .ascii "Y6\000"
 1387 002b 00       	 .align 2
 1388              	.LC8:
 1389 002c 48455836 	 .ascii "HEX6\000"
 1389      00
 1390 0031 000000   	 .align 2
 1391              	.LC9:
 1392 0034 464C5949 	 .ascii "FLYING_WING\000"
 1392      4E475F57 
 1392      494E4700 
 1393              	 .align 2
 1394              	.LC10:
 1395 0040 593400   	 .ascii "Y4\000"
 1396 0043 00       	 .align 2
 1397              	.LC11:
 1398 0044 48455836 	 .ascii "HEX6X\000"
 1398      5800
 1399 004a 0000     	 .align 2
 1400              	.LC12:
 1401 004c 4F43544F 	 .ascii "OCTOX8\000"
 1401      583800
 1402 0053 00       	 .align 2
 1403              	.LC13:
 1404 0054 4F43544F 	 .ascii "OCTOFLATP\000"
 1404      464C4154 
 1404      5000
 1405 005e 0000     	 .align 2
 1406              	.LC14:
 1407 0060 4F43544F 	 .ascii "OCTOFLATX\000"
 1407      464C4154 
 1407      5800
 1408 006a 0000     	 .align 2
 1409              	.LC15:
 1410 006c 41495250 	 .ascii "AIRPLANE\000"
 1410      4C414E45 
 1410      00
 1411 0075 000000   	 .align 2
 1412              	.LC16:
 1413 0078 48454C49 	 .ascii "HELI_120_CCPM\000"
 1413      5F313230 
 1413      5F434350 
 1413      4D00
 1414 0086 0000     	 .align 2
 1415              	.LC17:
 1416 0088 48454C49 	 .ascii "HELI_90_DEG\000"
 1416      5F39305F 
 1416      44454700 
 1417              	 .align 2
 1418              	.LC18:
 1419 0094 56544149 	 .ascii "VTAIL4\000"
 1419      4C3400
 1420 009b 00       	 .align 2
 1421              	.LC19:
 1422 009c 48455836 	 .ascii "HEX6H\000"
 1422      4800
 1423 00a2 0000     	 .align 2
 1424              	.LC20:
 1425 00a4 52585F54 	 .ascii "RX_TO_SERVO\000"
 1425      4F5F5345 
 1425      52564F00 
 1426              	 .align 2
 1427              	.LC21:
 1428 00b0 4455414C 	 .ascii "DUALCOPTER\000"
 1428      434F5054 
 1428      455200
 1429 00bb 00       	 .align 2
 1430              	.LC22:
 1431 00bc 53494E47 	 .ascii "SINGLECOPTER\000"
 1431      4C45434F 
 1431      50544552 
 1431      00
 1432 00c9 000000   	 .align 2
 1433              	.LC23:
 1434 00cc 41544149 	 .ascii "ATAIL4\000"
 1434      4C3400
 1435 00d3 00       	 .align 2
 1436              	.LC24:
 1437 00d4 43555354 	 .ascii "CUSTOM\000"
 1437      4F4D00
 1438 00db 00       	 .align 2
 1439              	.LC25:
 1440 00dc 43555354 	 .ascii "CUSTOMAIRPLANE\000"
 1440      4F4D4149 
 1440      52504C41 
 1440      4E4500
 1441 00eb 00       	 .align 2
 1442              	.LC26:
 1443 00ec 43555354 	 .ascii "CUSTOMTRI\000"
 1443      4F4D5452 
 1443      4900
 1444 00f6 0000     	 .align 2
 1445              	.LC27:
 1446 00f8 51554144 	 .ascii "QUADX1234\000"
 1446      58313233 
 1446      3400
 1447              	 .section .rodata.mixerNames,"a",%progbits
 1448              	 .align 2
 1451              	mixerNames:
 1452 0000 08000000 	 .word .LC2
 1453 0004 0C000000 	 .word .LC3
 1454 0008 14000000 	 .word .LC4
 1455 000c 1C000000 	 .word .LC5
 1456 0010 20000000 	 .word .LC6
 1457 0014 28000000 	 .word .LC7
 1458 0018 2C000000 	 .word .LC8
 1459 001c 34000000 	 .word .LC9
 1460 0020 40000000 	 .word .LC10
 1461 0024 44000000 	 .word .LC11
 1462 0028 4C000000 	 .word .LC12
 1463 002c 54000000 	 .word .LC13
 1464 0030 60000000 	 .word .LC14
 1465 0034 6C000000 	 .word .LC15
 1466 0038 78000000 	 .word .LC16
 1467 003c 88000000 	 .word .LC17
 1468 0040 94000000 	 .word .LC18
 1469 0044 9C000000 	 .word .LC19
 1470 0048 A4000000 	 .word .LC20
 1471 004c B0000000 	 .word .LC21
 1472 0050 BC000000 	 .word .LC22
 1473 0054 CC000000 	 .word .LC23
 1474 0058 D4000000 	 .word .LC24
 1475 005c DC000000 	 .word .LC25
 1476 0060 EC000000 	 .word .LC26
 1477 0064 F8000000 	 .word .LC27
 1478 0068 00000000 	 .word 0
 1479              	 .section .rodata
 1480 0102 0000     	 .align 2
 1481              	.LC28:
 1482 0104 52585F50 	 .ascii "RX_PPM\000"
 1482      504D00
 1483 010b 00       	 .align 2
 1484              	.LC29:
 1485 010c 494E464C 	 .ascii "INFLIGHT_ACC_CAL\000"
 1485      49474854 
 1485      5F414343 
 1485      5F43414C 
 1485      00
 1486 011d 000000   	 .align 2
 1487              	.LC30:
 1488 0120 52585F53 	 .ascii "RX_SERIAL\000"
 1488      45524941 
 1488      4C00
 1489 012a 0000     	 .align 2
 1490              	.LC31:
 1491 012c 4D4F544F 	 .ascii "MOTOR_STOP\000"
 1491      525F5354 
 1491      4F5000
 1492 0137 00       	 .align 2
 1493              	.LC32:
 1494 0138 53455256 	 .ascii "SERVO_TILT\000"
 1494      4F5F5449 
 1494      4C5400
 1495 0143 00       	 .align 2
 1496              	.LC33:
 1497 0144 534F4654 	 .ascii "SOFTSERIAL\000"
 1497      53455249 
 1497      414C00
 1498 014f 00       	 .align 2
 1499              	.LC34:
 1500 0150 47505300 	 .ascii "GPS\000"
 1501              	 .align 2
 1502              	.LC35:
 1503 0154 52414E47 	 .ascii "RANGEFINDER\000"
 1503      4546494E 
 1503      44455200 
 1504              	 .align 2
 1505              	.LC36:
 1506 0160 54454C45 	 .ascii "TELEMETRY\000"
 1506      4D455452 
 1506      5900
 1507 016a 0000     	 .align 2
 1508              	.LC37:
 1509 016c 334400   	 .ascii "3D\000"
 1510 016f 00       	 .align 2
 1511              	.LC38:
 1512 0170 52585F50 	 .ascii "RX_PARALLEL_PWM\000"
 1512      4152414C 
 1512      4C454C5F 
 1512      50574D00 
 1513              	 .align 2
 1514              	.LC39:
 1515 0180 52585F4D 	 .ascii "RX_MSP\000"
 1515      535000
 1516 0187 00       	 .align 2
 1517              	.LC40:
 1518 0188 52535349 	 .ascii "RSSI_ADC\000"
 1518      5F414443 
 1518      00
 1519 0191 000000   	 .align 2
 1520              	.LC41:
 1521 0194 4C45445F 	 .ascii "LED_STRIP\000"
 1521      53545249 
 1521      5000
 1522 019e 0000     	 .align 2
 1523              	.LC42:
 1524 01a0 44495350 	 .ascii "DISPLAY\000"
 1524      4C415900 
 1525              	 .align 2
 1526              	.LC43:
 1527 01a8 4F534400 	 .ascii "OSD\000"
 1528              	 .align 2
 1529              	.LC44:
 1530 01ac 4348414E 	 .ascii "CHANNEL_FORWARDING\000"
 1530      4E454C5F 
 1530      464F5257 
 1530      41524449 
 1530      4E4700
 1531 01bf 00       	 .align 2
 1532              	.LC45:
 1533 01c0 5452414E 	 .ascii "TRANSPONDER\000"
 1533      53504F4E 
 1533      44455200 
 1534              	 .align 2
 1535              	.LC46:
 1536 01cc 4149524D 	 .ascii "AIRMODE\000"
 1536      4F444500 
 1537              	 .align 2
 1538              	.LC47:
 1539 01d4 52585F53 	 .ascii "RX_SPI\000"
 1539      504900
 1540 01db 00       	 .align 2
 1541              	.LC48:
 1542 01dc 534F4654 	 .ascii "SOFTSPI\000"
 1542      53504900 
 1543              	 .align 2
 1544              	.LC49:
 1545 01e4 4553435F 	 .ascii "ESC_SENSOR\000"
 1545      53454E53 
 1545      4F5200
 1546 01ef 00       	 .align 2
 1547              	.LC50:
 1548 01f0 414E5449 	 .ascii "ANTI_GRAVITY\000"
 1548      5F475241 
 1548      56495459 
 1548      00
 1549 01fd 000000   	 .align 2
 1550              	.LC51:
 1551 0200 44594E41 	 .ascii "DYNAMIC_FILTER\000"
 1551      4D49435F 
 1551      46494C54 
 1551      455200
 1552              	 .section .rodata.featureNames,"a",%progbits
 1553              	 .align 2
 1556              	featureNames:
 1557 0000 04010000 	 .word .LC28
 1558 0004 04000000 	 .word .LC1
 1559 0008 0C010000 	 .word .LC29
 1560 000c 20010000 	 .word .LC30
 1561 0010 2C010000 	 .word .LC31
 1562 0014 38010000 	 .word .LC32
 1563 0018 44010000 	 .word .LC33
 1564 001c 50010000 	 .word .LC34
 1565 0020 04000000 	 .word .LC1
 1566 0024 54010000 	 .word .LC35
 1567 0028 60010000 	 .word .LC36
 1568 002c 04000000 	 .word .LC1
 1569 0030 6C010000 	 .word .LC37
 1570 0034 70010000 	 .word .LC38
 1571 0038 80010000 	 .word .LC39
 1572 003c 88010000 	 .word .LC40
 1573 0040 94010000 	 .word .LC41
 1574 0044 A0010000 	 .word .LC42
 1575 0048 A8010000 	 .word .LC43
 1576 004c 04000000 	 .word .LC1
 1577 0050 AC010000 	 .word .LC44
 1578 0054 C0010000 	 .word .LC45
 1579 0058 CC010000 	 .word .LC46
 1580 005c 04000000 	 .word .LC1
 1581 0060 04000000 	 .word .LC1
 1582 0064 D4010000 	 .word .LC47
 1583 0068 DC010000 	 .word .LC48
 1584 006c E4010000 	 .word .LC49
 1585 0070 F0010000 	 .word .LC50
 1586 0074 00020000 	 .word .LC51
 1587 0078 00000000 	 .word 0
 1588              	 .section .rodata.rxFailsafeModeCharacters,"a",%progbits
 1589              	 .align 2
 1592              	rxFailsafeModeCharacters:
 1593 0000 61687300 	 .ascii "ahs\000"
 1594              	 .section .rodata.rxFailsafeModesTable,"a",%progbits
 1595              	 .align 2
 1598              	rxFailsafeModesTable:
 1599 0000 00       	 .byte 0
 1600 0001 01       	 .byte 1
 1601 0002 03       	 .byte 3
 1602 0003 03       	 .byte 3
 1603 0004 01       	 .byte 1
 1604 0005 02       	 .byte 2
 1605 0006 0000     	 .section .rodata
 1606 020f 00       	 .align 2
 1607              	.LC52:
 1608 0210 4759524F 	 .ascii "GYRO\000"
 1608      00
 1609 0215 000000   	 .align 2
 1610              	.LC53:
 1611 0218 41434300 	 .ascii "ACC\000"
 1612              	 .align 2
 1613              	.LC54:
 1614 021c 4241524F 	 .ascii "BARO\000"
 1614      00
 1615 0221 000000   	 .align 2
 1616              	.LC55:
 1617 0224 4D414700 	 .ascii "MAG\000"
 1618              	 .align 2
 1619              	.LC56:
 1620 0228 4750532B 	 .ascii "GPS+MAG\000"
 1620      4D414700 
 1621              	 .section .rodata.sensorTypeNames,"a",%progbits
 1622              	 .align 2
 1625              	sensorTypeNames:
 1626 0000 10020000 	 .word .LC52
 1627 0004 18020000 	 .word .LC53
 1628 0008 1C020000 	 .word .LC54
 1629 000c 24020000 	 .word .LC55
 1630 0010 54010000 	 .word .LC35
 1631 0014 50010000 	 .word .LC34
 1632 0018 28020000 	 .word .LC56
 1633 001c 00000000 	 .word 0
 1634              	 .section .data.sensorHardwareNames,"aw",%progbits
 1635              	 .align 2
 1638              	sensorHardwareNames:
 1639 0000 00000000 	 .word lookupTableGyroHardware
 1640 0004 00000000 	 .word lookupTableAccHardware
 1641 0008 00000000 	 .word lookupTableBaroHardware
 1642 000c 00000000 	 .word lookupTableMagHardware
 1643 0010 00000000 	 .word lookupTableRangefinderHardware
 1644              	 .section .text.backupPgConfig,"ax",%progbits
 1645              	 .align 2
 1646              	 .thumb
 1647              	 .thumb_func
 1649              	backupPgConfig:
 1650              	.LFB687:
 1651              	 .file 13 "../cleanflight/src/main/interface/cli.c"
   1:../cleanflight/src/main/interface/cli.c **** /*
   2:../cleanflight/src/main/interface/cli.c ****  * This file is part of Cleanflight and Betaflight.
   3:../cleanflight/src/main/interface/cli.c ****  *
   4:../cleanflight/src/main/interface/cli.c ****  * Cleanflight and Betaflight are free software. You can redistribute
   5:../cleanflight/src/main/interface/cli.c ****  * this software and/or modify this software under the terms of the
   6:../cleanflight/src/main/interface/cli.c ****  * GNU General Public License as published by the Free Software
   7:../cleanflight/src/main/interface/cli.c ****  * Foundation, either version 3 of the License, or (at your option)
   8:../cleanflight/src/main/interface/cli.c ****  * any later version.
   9:../cleanflight/src/main/interface/cli.c ****  *
  10:../cleanflight/src/main/interface/cli.c ****  * Cleanflight and Betaflight are distributed in the hope that they
  11:../cleanflight/src/main/interface/cli.c ****  * will be useful, but WITHOUT ANY WARRANTY; without even the implied
  12:../cleanflight/src/main/interface/cli.c ****  * warranty of MERCHANTABILITY or FITNESS FOR A PARTICULAR PURPOSE.
  13:../cleanflight/src/main/interface/cli.c ****  * See the GNU General Public License for more details.
  14:../cleanflight/src/main/interface/cli.c **** *
  15:../cleanflight/src/main/interface/cli.c ****  * You should have received a copy of the GNU General Public License
  16:../cleanflight/src/main/interface/cli.c ****  * along with this software.
  17:../cleanflight/src/main/interface/cli.c ****  *
  18:../cleanflight/src/main/interface/cli.c ****  * If not, see <http://www.gnu.org/licenses/>.
  19:../cleanflight/src/main/interface/cli.c ****  */
  20:../cleanflight/src/main/interface/cli.c **** 
  21:../cleanflight/src/main/interface/cli.c **** #include <stdbool.h>
  22:../cleanflight/src/main/interface/cli.c **** #include <stdint.h>
  23:../cleanflight/src/main/interface/cli.c **** #include <stdlib.h>
  24:../cleanflight/src/main/interface/cli.c **** #include <stdarg.h>
  25:../cleanflight/src/main/interface/cli.c **** #include <string.h>
  26:../cleanflight/src/main/interface/cli.c **** #include <math.h>
  27:../cleanflight/src/main/interface/cli.c **** #include <ctype.h>
  28:../cleanflight/src/main/interface/cli.c **** 
  29:../cleanflight/src/main/interface/cli.c **** #include "platform.h"
  30:../cleanflight/src/main/interface/cli.c **** 
  31:../cleanflight/src/main/interface/cli.c **** // FIXME remove this for targets that don't need a CLI.  Perhaps use a no-op macro when USE_CLI is 
  32:../cleanflight/src/main/interface/cli.c **** // signal that we're in cli mode
  33:../cleanflight/src/main/interface/cli.c **** uint8_t cliMode = 0;
  34:../cleanflight/src/main/interface/cli.c **** #ifndef EEPROM_IN_RAM
  35:../cleanflight/src/main/interface/cli.c **** extern uint8_t __config_start;   // configured via linker script when building binaries.
  36:../cleanflight/src/main/interface/cli.c **** extern uint8_t __config_end;
  37:../cleanflight/src/main/interface/cli.c **** #endif
  38:../cleanflight/src/main/interface/cli.c **** 
  39:../cleanflight/src/main/interface/cli.c **** #ifdef USE_CLI
  40:../cleanflight/src/main/interface/cli.c **** 
  41:../cleanflight/src/main/interface/cli.c **** #include "blackbox/blackbox.h"
  42:../cleanflight/src/main/interface/cli.c **** 
  43:../cleanflight/src/main/interface/cli.c **** #include "build/build_config.h"
  44:../cleanflight/src/main/interface/cli.c **** #include "build/debug.h"
  45:../cleanflight/src/main/interface/cli.c **** #include "build/version.h"
  46:../cleanflight/src/main/interface/cli.c **** 
  47:../cleanflight/src/main/interface/cli.c **** #include "cms/cms.h"
  48:../cleanflight/src/main/interface/cli.c **** 
  49:../cleanflight/src/main/interface/cli.c **** #include "common/axis.h"
  50:../cleanflight/src/main/interface/cli.c **** #include "common/color.h"
  51:../cleanflight/src/main/interface/cli.c **** #include "common/maths.h"
  52:../cleanflight/src/main/interface/cli.c **** #include "common/printf.h"
  53:../cleanflight/src/main/interface/cli.c **** #include "common/strtol.h"
  54:../cleanflight/src/main/interface/cli.c **** #include "common/time.h"
  55:../cleanflight/src/main/interface/cli.c **** #include "common/typeconversion.h"
  56:../cleanflight/src/main/interface/cli.c **** #include "common/utils.h"
  57:../cleanflight/src/main/interface/cli.c **** 
  58:../cleanflight/src/main/interface/cli.c **** #include "config/config_eeprom.h"
  59:../cleanflight/src/main/interface/cli.c **** #include "config/feature.h"
  60:../cleanflight/src/main/interface/cli.c **** 
  61:../cleanflight/src/main/interface/cli.c **** #include "drivers/accgyro/accgyro.h"
  62:../cleanflight/src/main/interface/cli.c **** #include "drivers/adc.h"
  63:../cleanflight/src/main/interface/cli.c **** #include "drivers/buf_writer.h"
  64:../cleanflight/src/main/interface/cli.c **** #include "drivers/bus_spi.h"
  65:../cleanflight/src/main/interface/cli.c **** #include "drivers/camera_control.h"
  66:../cleanflight/src/main/interface/cli.c **** #include "drivers/compass/compass.h"
  67:../cleanflight/src/main/interface/cli.c **** #include "drivers/display.h"
  68:../cleanflight/src/main/interface/cli.c **** #include "drivers/dma.h"
  69:../cleanflight/src/main/interface/cli.c **** #include "drivers/flash.h"
  70:../cleanflight/src/main/interface/cli.c **** #include "drivers/inverter.h"
  71:../cleanflight/src/main/interface/cli.c **** #include "drivers/io.h"
  72:../cleanflight/src/main/interface/cli.c **** #include "drivers/io_impl.h"
  73:../cleanflight/src/main/interface/cli.c **** #include "drivers/light_led.h"
  74:../cleanflight/src/main/interface/cli.c **** #include "drivers/rangefinder/rangefinder_hcsr04.h"
  75:../cleanflight/src/main/interface/cli.c **** #include "drivers/sdcard.h"
  76:../cleanflight/src/main/interface/cli.c **** #include "drivers/sensor.h"
  77:../cleanflight/src/main/interface/cli.c **** #include "drivers/serial.h"
  78:../cleanflight/src/main/interface/cli.c **** #include "drivers/serial_escserial.h"
  79:../cleanflight/src/main/interface/cli.c **** #include "drivers/sound_beeper.h"
  80:../cleanflight/src/main/interface/cli.c **** #include "drivers/stack_check.h"
  81:../cleanflight/src/main/interface/cli.c **** #include "drivers/system.h"
  82:../cleanflight/src/main/interface/cli.c **** #include "drivers/time.h"
  83:../cleanflight/src/main/interface/cli.c **** #include "drivers/timer.h"
  84:../cleanflight/src/main/interface/cli.c **** #include "drivers/transponder_ir.h"
  85:../cleanflight/src/main/interface/cli.c **** #include "drivers/usb_msc.h"
  86:../cleanflight/src/main/interface/cli.c **** #include "drivers/vtx_common.h"
  87:../cleanflight/src/main/interface/cli.c **** 
  88:../cleanflight/src/main/interface/cli.c **** #include "fc/board_info.h"
  89:../cleanflight/src/main/interface/cli.c **** #include "fc/config.h"
  90:../cleanflight/src/main/interface/cli.c **** #include "fc/controlrate_profile.h"
  91:../cleanflight/src/main/interface/cli.c **** #include "fc/fc_core.h"
  92:../cleanflight/src/main/interface/cli.c **** #include "fc/fc_rc.h"
  93:../cleanflight/src/main/interface/cli.c **** #include "fc/rc_adjustments.h"
  94:../cleanflight/src/main/interface/cli.c **** #include "fc/rc_controls.h"
  95:../cleanflight/src/main/interface/cli.c **** #include "fc/runtime_config.h"
  96:../cleanflight/src/main/interface/cli.c **** 
  97:../cleanflight/src/main/interface/cli.c **** #include "flight/failsafe.h"
  98:../cleanflight/src/main/interface/cli.c **** #include "flight/imu.h"
  99:../cleanflight/src/main/interface/cli.c **** #include "flight/mixer.h"
 100:../cleanflight/src/main/interface/cli.c **** #include "flight/pid.h"
 101:../cleanflight/src/main/interface/cli.c **** #include "flight/position.h"
 102:../cleanflight/src/main/interface/cli.c **** #include "flight/servos.h"
 103:../cleanflight/src/main/interface/cli.c **** 
 104:../cleanflight/src/main/interface/cli.c **** #include "interface/cli.h"
 105:../cleanflight/src/main/interface/cli.c **** #include "interface/msp.h"
 106:../cleanflight/src/main/interface/cli.c **** #include "interface/msp_box.h"
 107:../cleanflight/src/main/interface/cli.c **** #include "interface/msp_protocol.h"
 108:../cleanflight/src/main/interface/cli.c **** #include "interface/settings.h"
 109:../cleanflight/src/main/interface/cli.c **** 
 110:../cleanflight/src/main/interface/cli.c **** #include "io/asyncfatfs/asyncfatfs.h"
 111:../cleanflight/src/main/interface/cli.c **** #include "io/beeper.h"
 112:../cleanflight/src/main/interface/cli.c **** #include "io/flashfs.h"
 113:../cleanflight/src/main/interface/cli.c **** #include "io/gimbal.h"
 114:../cleanflight/src/main/interface/cli.c **** #include "io/gps.h"
 115:../cleanflight/src/main/interface/cli.c **** #include "io/ledstrip.h"
 116:../cleanflight/src/main/interface/cli.c **** #include "io/osd.h"
 117:../cleanflight/src/main/interface/cli.c **** #include "io/serial.h"
 118:../cleanflight/src/main/interface/cli.c **** #include "io/transponder_ir.h"
 119:../cleanflight/src/main/interface/cli.c **** #include "io/usb_msc.h"
 120:../cleanflight/src/main/interface/cli.c **** #include "io/vtx_control.h"
 121:../cleanflight/src/main/interface/cli.c **** #include "io/vtx.h"
 122:../cleanflight/src/main/interface/cli.c **** 
 123:../cleanflight/src/main/interface/cli.c **** #include "pg/adc.h"
 124:../cleanflight/src/main/interface/cli.c **** #include "pg/beeper.h"
 125:../cleanflight/src/main/interface/cli.c **** #include "pg/beeper_dev.h"
 126:../cleanflight/src/main/interface/cli.c **** #include "pg/board.h"
 127:../cleanflight/src/main/interface/cli.c **** #include "pg/bus_i2c.h"
 128:../cleanflight/src/main/interface/cli.c **** #include "pg/bus_spi.h"
 129:../cleanflight/src/main/interface/cli.c **** #include "pg/max7456.h"
 130:../cleanflight/src/main/interface/cli.c **** #include "pg/pinio.h"
 131:../cleanflight/src/main/interface/cli.c **** #include "pg/pg.h"
 132:../cleanflight/src/main/interface/cli.c **** #include "pg/pg_ids.h"
 133:../cleanflight/src/main/interface/cli.c **** #include "pg/rx.h"
 134:../cleanflight/src/main/interface/cli.c **** #include "pg/rx_spi.h"
 135:../cleanflight/src/main/interface/cli.c **** #include "pg/rx_pwm.h"
 136:../cleanflight/src/main/interface/cli.c **** #include "pg/timerio.h"
 137:../cleanflight/src/main/interface/cli.c **** #include "pg/usb.h"
 138:../cleanflight/src/main/interface/cli.c **** 
 139:../cleanflight/src/main/interface/cli.c **** #include "rx/rx.h"
 140:../cleanflight/src/main/interface/cli.c **** #include "rx/spektrum.h"
 141:../cleanflight/src/main/interface/cli.c **** #include "rx/cc2500_frsky_common.h"
 142:../cleanflight/src/main/interface/cli.c **** #include "rx/cc2500_frsky_x.h"
 143:../cleanflight/src/main/interface/cli.c **** 
 144:../cleanflight/src/main/interface/cli.c **** #include "scheduler/scheduler.h"
 145:../cleanflight/src/main/interface/cli.c **** 
 146:../cleanflight/src/main/interface/cli.c **** #include "sensors/acceleration.h"
 147:../cleanflight/src/main/interface/cli.c **** #include "sensors/adcinternal.h"
 148:../cleanflight/src/main/interface/cli.c **** #include "sensors/barometer.h"
 149:../cleanflight/src/main/interface/cli.c **** #include "sensors/battery.h"
 150:../cleanflight/src/main/interface/cli.c **** #include "sensors/boardalignment.h"
 151:../cleanflight/src/main/interface/cli.c **** #include "sensors/compass.h"
 152:../cleanflight/src/main/interface/cli.c **** #include "sensors/esc_sensor.h"
 153:../cleanflight/src/main/interface/cli.c **** #include "sensors/gyro.h"
 154:../cleanflight/src/main/interface/cli.c **** #include "sensors/sensors.h"
 155:../cleanflight/src/main/interface/cli.c **** 
 156:../cleanflight/src/main/interface/cli.c **** #include "telemetry/frsky_hub.h"
 157:../cleanflight/src/main/interface/cli.c **** #include "telemetry/telemetry.h"
 158:../cleanflight/src/main/interface/cli.c **** 
 159:../cleanflight/src/main/interface/cli.c **** 
 160:../cleanflight/src/main/interface/cli.c **** static serialPort_t *cliPort;
 161:../cleanflight/src/main/interface/cli.c **** 
 162:../cleanflight/src/main/interface/cli.c **** #ifdef STM32F1
 163:../cleanflight/src/main/interface/cli.c **** #define CLI_IN_BUFFER_SIZE 128
 164:../cleanflight/src/main/interface/cli.c **** #else
 165:../cleanflight/src/main/interface/cli.c **** // Space required to set array parameters
 166:../cleanflight/src/main/interface/cli.c **** #define CLI_IN_BUFFER_SIZE 256
 167:../cleanflight/src/main/interface/cli.c **** #endif
 168:../cleanflight/src/main/interface/cli.c **** #define CLI_OUT_BUFFER_SIZE 64
 169:../cleanflight/src/main/interface/cli.c **** 
 170:../cleanflight/src/main/interface/cli.c **** static bufWriter_t *cliWriter;
 171:../cleanflight/src/main/interface/cli.c **** static uint8_t cliWriteBuffer[sizeof(*cliWriter) + CLI_OUT_BUFFER_SIZE];
 172:../cleanflight/src/main/interface/cli.c **** 
 173:../cleanflight/src/main/interface/cli.c **** static char cliBuffer[CLI_IN_BUFFER_SIZE];
 174:../cleanflight/src/main/interface/cli.c **** static uint32_t bufferIndex = 0;
 175:../cleanflight/src/main/interface/cli.c **** 
 176:../cleanflight/src/main/interface/cli.c **** static bool configIsInCopy = false;
 177:../cleanflight/src/main/interface/cli.c **** 
 178:../cleanflight/src/main/interface/cli.c **** #define CURRENT_PROFILE_INDEX -1
 179:../cleanflight/src/main/interface/cli.c **** static int8_t pidProfileIndexToUse = CURRENT_PROFILE_INDEX;
 180:../cleanflight/src/main/interface/cli.c **** static int8_t rateProfileIndexToUse = CURRENT_PROFILE_INDEX;
 181:../cleanflight/src/main/interface/cli.c **** 
 182:../cleanflight/src/main/interface/cli.c **** #if defined(USE_BOARD_INFO)
 183:../cleanflight/src/main/interface/cli.c **** static bool boardInformationUpdated = false;
 184:../cleanflight/src/main/interface/cli.c **** #if defined(USE_SIGNATURE)
 185:../cleanflight/src/main/interface/cli.c **** static bool signatureUpdated = false;
 186:../cleanflight/src/main/interface/cli.c **** #endif
 187:../cleanflight/src/main/interface/cli.c **** #endif // USE_BOARD_INFO
 188:../cleanflight/src/main/interface/cli.c **** 
 189:../cleanflight/src/main/interface/cli.c **** static const char* const emptyName = "-";
 190:../cleanflight/src/main/interface/cli.c **** static const char* const emptyString = "";
 191:../cleanflight/src/main/interface/cli.c **** 
 192:../cleanflight/src/main/interface/cli.c **** #ifndef USE_QUAD_MIXER_ONLY
 193:../cleanflight/src/main/interface/cli.c **** // sync this with mixerMode_e
 194:../cleanflight/src/main/interface/cli.c **** static const char * const mixerNames[] = {
 195:../cleanflight/src/main/interface/cli.c ****     "TRI", "QUADP", "QUADX", "BI",
 196:../cleanflight/src/main/interface/cli.c ****     "GIMBAL", "Y6", "HEX6",
 197:../cleanflight/src/main/interface/cli.c ****     "FLYING_WING", "Y4", "HEX6X", "OCTOX8", "OCTOFLATP", "OCTOFLATX",
 198:../cleanflight/src/main/interface/cli.c ****     "AIRPLANE", "HELI_120_CCPM", "HELI_90_DEG", "VTAIL4",
 199:../cleanflight/src/main/interface/cli.c ****     "HEX6H", "RX_TO_SERVO", "DUALCOPTER", "SINGLECOPTER",
 200:../cleanflight/src/main/interface/cli.c ****     "ATAIL4", "CUSTOM", "CUSTOMAIRPLANE", "CUSTOMTRI", "QUADX1234", NULL
 201:../cleanflight/src/main/interface/cli.c **** };
 202:../cleanflight/src/main/interface/cli.c **** #endif
 203:../cleanflight/src/main/interface/cli.c **** 
 204:../cleanflight/src/main/interface/cli.c **** // sync this with features_e
 205:../cleanflight/src/main/interface/cli.c **** static const char * const featureNames[] = {
 206:../cleanflight/src/main/interface/cli.c ****     "RX_PPM", "", "INFLIGHT_ACC_CAL", "RX_SERIAL", "MOTOR_STOP",
 207:../cleanflight/src/main/interface/cli.c ****     "SERVO_TILT", "SOFTSERIAL", "GPS", "",
 208:../cleanflight/src/main/interface/cli.c ****     "RANGEFINDER", "TELEMETRY", "", "3D", "RX_PARALLEL_PWM",
 209:../cleanflight/src/main/interface/cli.c ****     "RX_MSP", "RSSI_ADC", "LED_STRIP", "DISPLAY", "OSD",
 210:../cleanflight/src/main/interface/cli.c ****     "", "CHANNEL_FORWARDING", "TRANSPONDER", "AIRMODE",
 211:../cleanflight/src/main/interface/cli.c ****     "", "", "RX_SPI", "SOFTSPI", "ESC_SENSOR", "ANTI_GRAVITY", "DYNAMIC_FILTER", NULL
 212:../cleanflight/src/main/interface/cli.c **** };
 213:../cleanflight/src/main/interface/cli.c **** 
 214:../cleanflight/src/main/interface/cli.c **** // sync this with rxFailsafeChannelMode_e
 215:../cleanflight/src/main/interface/cli.c **** static const char rxFailsafeModeCharacters[] = "ahs";
 216:../cleanflight/src/main/interface/cli.c **** 
 217:../cleanflight/src/main/interface/cli.c **** static const rxFailsafeChannelMode_e rxFailsafeModesTable[RX_FAILSAFE_TYPE_COUNT][RX_FAILSAFE_MODE_
 218:../cleanflight/src/main/interface/cli.c ****     { RX_FAILSAFE_MODE_AUTO, RX_FAILSAFE_MODE_HOLD, RX_FAILSAFE_MODE_INVALID },
 219:../cleanflight/src/main/interface/cli.c ****     { RX_FAILSAFE_MODE_INVALID, RX_FAILSAFE_MODE_HOLD, RX_FAILSAFE_MODE_SET }
 220:../cleanflight/src/main/interface/cli.c **** };
 221:../cleanflight/src/main/interface/cli.c **** 
 222:../cleanflight/src/main/interface/cli.c **** #if defined(USE_SENSOR_NAMES)
 223:../cleanflight/src/main/interface/cli.c **** // sync this with sensors_e
 224:../cleanflight/src/main/interface/cli.c **** static const char * const sensorTypeNames[] = {
 225:../cleanflight/src/main/interface/cli.c ****     "GYRO", "ACC", "BARO", "MAG", "RANGEFINDER", "GPS", "GPS+MAG", NULL
 226:../cleanflight/src/main/interface/cli.c **** };
 227:../cleanflight/src/main/interface/cli.c **** 
 228:../cleanflight/src/main/interface/cli.c **** #define SENSOR_NAMES_MASK (SENSOR_GYRO | SENSOR_ACC | SENSOR_BARO | SENSOR_MAG | SENSOR_RANGEFINDER
 229:../cleanflight/src/main/interface/cli.c **** 
 230:../cleanflight/src/main/interface/cli.c **** static const char * const *sensorHardwareNames[] = {
 231:../cleanflight/src/main/interface/cli.c ****     lookupTableGyroHardware, lookupTableAccHardware, lookupTableBaroHardware, lookupTableMagHardwar
 232:../cleanflight/src/main/interface/cli.c **** };
 233:../cleanflight/src/main/interface/cli.c **** #endif // USE_SENSOR_NAMES
 234:../cleanflight/src/main/interface/cli.c **** 
 235:../cleanflight/src/main/interface/cli.c **** char *strcasestr(const char *haystack, const char *needle);
 236:../cleanflight/src/main/interface/cli.c **** 
 237:../cleanflight/src/main/interface/cli.c **** static void backupPgConfig(const pgRegistry_t *pg)
 238:../cleanflight/src/main/interface/cli.c **** {
 1652              	 .loc 13 238 0
 1653              	 .cfi_startproc
 1654              	 
 1655              	 
 1656 0000 80B5     	 push {r7,lr}
 1657              	.LCFI142:
 1658              	 .cfi_def_cfa_offset 8
 1659              	 .cfi_offset 7,-8
 1660              	 .cfi_offset 14,-4
 1661 0002 82B0     	 sub sp,sp,#8
 1662              	.LCFI143:
 1663              	 .cfi_def_cfa_offset 16
 1664 0004 00AF     	 add r7,sp,#0
 1665              	.LCFI144:
 1666              	 .cfi_def_cfa_register 7
 1667 0006 7860     	 str r0,[r7,#4]
 239:../cleanflight/src/main/interface/cli.c ****     memcpy(pg->copy, pg->address, pg->size);
 1668              	 .loc 13 239 0
 1669 0008 7B68     	 ldr r3,[r7,#4]
 1670 000a 9968     	 ldr r1,[r3,#8]
 1671 000c 7B68     	 ldr r3,[r7,#4]
 1672 000e 5A68     	 ldr r2,[r3,#4]
 1673 0010 7B68     	 ldr r3,[r7,#4]
 1674 0012 5B88     	 ldrh r3,[r3,#2]
 1675 0014 9BB2     	 uxth r3,r3
 1676 0016 0846     	 mov r0,r1
 1677 0018 1146     	 mov r1,r2
 1678 001a 1A46     	 mov r2,r3
 1679 001c FFF7FEFF 	 bl memcpy
 240:../cleanflight/src/main/interface/cli.c **** }
 1680              	 .loc 13 240 0
 1681 0020 0837     	 adds r7,r7,#8
 1682              	.LCFI145:
 1683              	 .cfi_def_cfa_offset 8
 1684 0022 BD46     	 mov sp,r7
 1685              	.LCFI146:
 1686              	 .cfi_def_cfa_register 13
 1687              	 
 1688 0024 80BD     	 pop {r7,pc}
 1689              	 .cfi_endproc
 1690              	.LFE687:
 1692 0026 00BF     	 .section .text.restorePgConfig,"ax",%progbits
 1693              	 .align 2
 1694              	 .thumb
 1695              	 .thumb_func
 1697              	restorePgConfig:
 1698              	.LFB688:
 241:../cleanflight/src/main/interface/cli.c **** 
 242:../cleanflight/src/main/interface/cli.c **** static void restorePgConfig(const pgRegistry_t *pg)
 243:../cleanflight/src/main/interface/cli.c **** {
 1699              	 .loc 13 243 0
 1700              	 .cfi_startproc
 1701              	 
 1702              	 
 1703 0000 80B5     	 push {r7,lr}
 1704              	.LCFI147:
 1705              	 .cfi_def_cfa_offset 8
 1706              	 .cfi_offset 7,-8
 1707              	 .cfi_offset 14,-4
 1708 0002 82B0     	 sub sp,sp,#8
 1709              	.LCFI148:
 1710              	 .cfi_def_cfa_offset 16
 1711 0004 00AF     	 add r7,sp,#0
 1712              	.LCFI149:
 1713              	 .cfi_def_cfa_register 7
 1714 0006 7860     	 str r0,[r7,#4]
 244:../cleanflight/src/main/interface/cli.c ****     memcpy(pg->address, pg->copy, pg->size);
 1715              	 .loc 13 244 0
 1716 0008 7B68     	 ldr r3,[r7,#4]
 1717 000a 5968     	 ldr r1,[r3,#4]
 1718 000c 7B68     	 ldr r3,[r7,#4]
 1719 000e 9A68     	 ldr r2,[r3,#8]
 1720 0010 7B68     	 ldr r3,[r7,#4]
 1721 0012 5B88     	 ldrh r3,[r3,#2]
 1722 0014 9BB2     	 uxth r3,r3
 1723 0016 0846     	 mov r0,r1
 1724 0018 1146     	 mov r1,r2
 1725 001a 1A46     	 mov r2,r3
 1726 001c FFF7FEFF 	 bl memcpy
 245:../cleanflight/src/main/interface/cli.c **** }
 1727              	 .loc 13 245 0
 1728 0020 0837     	 adds r7,r7,#8
 1729              	.LCFI150:
 1730              	 .cfi_def_cfa_offset 8
 1731 0022 BD46     	 mov sp,r7
 1732              	.LCFI151:
 1733              	 .cfi_def_cfa_register 13
 1734              	 
 1735 0024 80BD     	 pop {r7,pc}
 1736              	 .cfi_endproc
 1737              	.LFE688:
 1739 0026 00BF     	 .section .text.backupConfigs,"ax",%progbits
 1740              	 .align 2
 1741              	 .thumb
 1742              	 .thumb_func
 1744              	backupConfigs:
 1745              	.LFB689:
 246:../cleanflight/src/main/interface/cli.c **** 
 247:../cleanflight/src/main/interface/cli.c **** static void backupConfigs(void)
 248:../cleanflight/src/main/interface/cli.c **** {
 1746              	 .loc 13 248 0
 1747              	 .cfi_startproc
 1748              	 
 1749              	 
 1750 0000 80B5     	 push {r7,lr}
 1751              	.LCFI152:
 1752              	 .cfi_def_cfa_offset 8
 1753              	 .cfi_offset 7,-8
 1754              	 .cfi_offset 14,-4
 1755 0002 82B0     	 sub sp,sp,#8
 1756              	.LCFI153:
 1757              	 .cfi_def_cfa_offset 16
 1758 0004 00AF     	 add r7,sp,#0
 1759              	.LCFI154:
 1760              	 .cfi_def_cfa_register 7
 1761              	.LBB2:
 249:../cleanflight/src/main/interface/cli.c ****     // make copies of configs to do differencing
 250:../cleanflight/src/main/interface/cli.c ****     PG_FOREACH(pg) {
 1762              	 .loc 13 250 0
 1763 0006 094B     	 ldr r3,.L118
 1764 0008 7B60     	 str r3,[r7,#4]
 1765 000a 05E0     	 b .L116
 1766              	.L117:
 251:../cleanflight/src/main/interface/cli.c ****         backupPgConfig(pg);
 1767              	 .loc 13 251 0 discriminator 3
 1768 000c 7868     	 ldr r0,[r7,#4]
 1769 000e FFF7FEFF 	 bl backupPgConfig
 250:../cleanflight/src/main/interface/cli.c ****         backupPgConfig(pg);
 1770              	 .loc 13 250 0 discriminator 3
 1771 0012 7B68     	 ldr r3,[r7,#4]
 1772 0014 1433     	 adds r3,r3,#20
 1773 0016 7B60     	 str r3,[r7,#4]
 1774              	.L116:
 250:../cleanflight/src/main/interface/cli.c ****         backupPgConfig(pg);
 1775              	 .loc 13 250 0 is_stmt 0 discriminator 1
 1776 0018 7B68     	 ldr r3,[r7,#4]
 1777 001a 054A     	 ldr r2,.L118+4
 1778 001c 9342     	 cmp r3,r2
 1779 001e F5D3     	 bcc .L117
 1780              	.LBE2:
 252:../cleanflight/src/main/interface/cli.c ****     }
 253:../cleanflight/src/main/interface/cli.c **** 
 254:../cleanflight/src/main/interface/cli.c ****     configIsInCopy = true;
 1781              	 .loc 13 254 0 is_stmt 1
 1782 0020 044B     	 ldr r3,.L118+8
 1783 0022 0122     	 movs r2,#1
 1784 0024 1A70     	 strb r2,[r3]
 255:../cleanflight/src/main/interface/cli.c **** }
 1785              	 .loc 13 255 0
 1786 0026 0837     	 adds r7,r7,#8
 1787              	.LCFI155:
 1788              	 .cfi_def_cfa_offset 8
 1789 0028 BD46     	 mov sp,r7
 1790              	.LCFI156:
 1791              	 .cfi_def_cfa_register 13
 1792              	 
 1793 002a 80BD     	 pop {r7,pc}
 1794              	.L119:
 1795              	 .align 2
 1796              	.L118:
 1797 002c 00000000 	 .word __pg_registry_start
 1798 0030 00000000 	 .word __pg_registry_end
 1799 0034 00000000 	 .word configIsInCopy
 1800              	 .cfi_endproc
 1801              	.LFE689:
 1803              	 .section .text.restoreConfigs,"ax",%progbits
 1804              	 .align 2
 1805              	 .thumb
 1806              	 .thumb_func
 1808              	restoreConfigs:
 1809              	.LFB690:
 256:../cleanflight/src/main/interface/cli.c **** 
 257:../cleanflight/src/main/interface/cli.c **** static void restoreConfigs(void)
 258:../cleanflight/src/main/interface/cli.c **** {
 1810              	 .loc 13 258 0
 1811              	 .cfi_startproc
 1812              	 
 1813              	 
 1814 0000 80B5     	 push {r7,lr}
 1815              	.LCFI157:
 1816              	 .cfi_def_cfa_offset 8
 1817              	 .cfi_offset 7,-8
 1818              	 .cfi_offset 14,-4
 1819 0002 82B0     	 sub sp,sp,#8
 1820              	.LCFI158:
 1821              	 .cfi_def_cfa_offset 16
 1822 0004 00AF     	 add r7,sp,#0
 1823              	.LCFI159:
 1824              	 .cfi_def_cfa_register 7
 1825              	.LBB3:
 259:../cleanflight/src/main/interface/cli.c ****     PG_FOREACH(pg) {
 1826              	 .loc 13 259 0
 1827 0006 094B     	 ldr r3,.L123
 1828 0008 7B60     	 str r3,[r7,#4]
 1829 000a 05E0     	 b .L121
 1830              	.L122:
 260:../cleanflight/src/main/interface/cli.c ****         restorePgConfig(pg);
 1831              	 .loc 13 260 0 discriminator 3
 1832 000c 7868     	 ldr r0,[r7,#4]
 1833 000e FFF7FEFF 	 bl restorePgConfig
 259:../cleanflight/src/main/interface/cli.c ****     PG_FOREACH(pg) {
 1834              	 .loc 13 259 0 discriminator 3
 1835 0012 7B68     	 ldr r3,[r7,#4]
 1836 0014 1433     	 adds r3,r3,#20
 1837 0016 7B60     	 str r3,[r7,#4]
 1838              	.L121:
 259:../cleanflight/src/main/interface/cli.c ****     PG_FOREACH(pg) {
 1839              	 .loc 13 259 0 is_stmt 0 discriminator 1
 1840 0018 7B68     	 ldr r3,[r7,#4]
 1841 001a 054A     	 ldr r2,.L123+4
 1842 001c 9342     	 cmp r3,r2
 1843 001e F5D3     	 bcc .L122
 1844              	.LBE3:
 261:../cleanflight/src/main/interface/cli.c ****     }
 262:../cleanflight/src/main/interface/cli.c **** 
 263:../cleanflight/src/main/interface/cli.c ****     configIsInCopy = false;
 1845              	 .loc 13 263 0 is_stmt 1
 1846 0020 044B     	 ldr r3,.L123+8
 1847 0022 0022     	 movs r2,#0
 1848 0024 1A70     	 strb r2,[r3]
 264:../cleanflight/src/main/interface/cli.c **** }
 1849              	 .loc 13 264 0
 1850 0026 0837     	 adds r7,r7,#8
 1851              	.LCFI160:
 1852              	 .cfi_def_cfa_offset 8
 1853 0028 BD46     	 mov sp,r7
 1854              	.LCFI161:
 1855              	 .cfi_def_cfa_register 13
 1856              	 
 1857 002a 80BD     	 pop {r7,pc}
 1858              	.L124:
 1859              	 .align 2
 1860              	.L123:
 1861 002c 00000000 	 .word __pg_registry_start
 1862 0030 00000000 	 .word __pg_registry_end
 1863 0034 00000000 	 .word configIsInCopy
 1864              	 .cfi_endproc
 1865              	.LFE690:
 1867              	 .section .text.backupAndResetConfigs,"ax",%progbits
 1868              	 .align 2
 1869              	 .thumb
 1870              	 .thumb_func
 1872              	backupAndResetConfigs:
 1873              	.LFB691:
 265:../cleanflight/src/main/interface/cli.c **** 
 266:../cleanflight/src/main/interface/cli.c **** static void backupAndResetConfigs(void)
 267:../cleanflight/src/main/interface/cli.c **** {
 1874              	 .loc 13 267 0
 1875              	 .cfi_startproc
 1876              	 
 1877              	 
 1878 0000 80B5     	 push {r7,lr}
 1879              	.LCFI162:
 1880              	 .cfi_def_cfa_offset 8
 1881              	 .cfi_offset 7,-8
 1882              	 .cfi_offset 14,-4
 1883 0002 00AF     	 add r7,sp,#0
 1884              	.LCFI163:
 1885              	 .cfi_def_cfa_register 7
 268:../cleanflight/src/main/interface/cli.c ****     backupConfigs();
 1886              	 .loc 13 268 0
 1887 0004 FFF7FEFF 	 bl backupConfigs
 269:../cleanflight/src/main/interface/cli.c ****     // reset all configs to defaults to do differencing
 270:../cleanflight/src/main/interface/cli.c ****     resetConfigs();
 1888              	 .loc 13 270 0
 1889 0008 FFF7FEFF 	 bl resetConfigs
 271:../cleanflight/src/main/interface/cli.c **** }
 1890              	 .loc 13 271 0
 1891 000c 80BD     	 pop {r7,pc}
 1892              	 .cfi_endproc
 1893              	.LFE691:
 1895 000e 00BF     	 .section .text.cliPrint,"ax",%progbits
 1896              	 .align 2
 1897              	 .thumb
 1898              	 .thumb_func
 1900              	cliPrint:
 1901              	.LFB692:
 272:../cleanflight/src/main/interface/cli.c **** 
 273:../cleanflight/src/main/interface/cli.c **** static void cliPrint(const char *str)
 274:../cleanflight/src/main/interface/cli.c **** {
 1902              	 .loc 13 274 0
 1903              	 .cfi_startproc
 1904              	 
 1905              	 
 1906 0000 80B5     	 push {r7,lr}
 1907              	.LCFI164:
 1908              	 .cfi_def_cfa_offset 8
 1909              	 .cfi_offset 7,-8
 1910              	 .cfi_offset 14,-4
 1911 0002 82B0     	 sub sp,sp,#8
 1912              	.LCFI165:
 1913              	 .cfi_def_cfa_offset 16
 1914 0004 00AF     	 add r7,sp,#0
 1915              	.LCFI166:
 1916              	 .cfi_def_cfa_register 7
 1917 0006 7860     	 str r0,[r7,#4]
 275:../cleanflight/src/main/interface/cli.c ****     while (*str) {
 1918              	 .loc 13 275 0
 1919 0008 09E0     	 b .L127
 1920              	.L128:
 276:../cleanflight/src/main/interface/cli.c ****         bufWriterAppend(cliWriter, *str++);
 1921              	 .loc 13 276 0
 1922 000a 0B4B     	 ldr r3,.L129
 1923 000c 1968     	 ldr r1,[r3]
 1924 000e 7B68     	 ldr r3,[r7,#4]
 1925 0010 5A1C     	 adds r2,r3,#1
 1926 0012 7A60     	 str r2,[r7,#4]
 1927 0014 1B78     	 ldrb r3,[r3]
 1928 0016 0846     	 mov r0,r1
 1929 0018 1946     	 mov r1,r3
 1930 001a FFF7FEFF 	 bl bufWriterAppend
 1931              	.L127:
 275:../cleanflight/src/main/interface/cli.c ****     while (*str) {
 1932              	 .loc 13 275 0
 1933 001e 7B68     	 ldr r3,[r7,#4]
 1934 0020 1B78     	 ldrb r3,[r3]
 1935 0022 002B     	 cmp r3,#0
 1936 0024 F1D1     	 bne .L128
 277:../cleanflight/src/main/interface/cli.c ****     }
 278:../cleanflight/src/main/interface/cli.c ****     bufWriterFlush(cliWriter);
 1937              	 .loc 13 278 0
 1938 0026 044B     	 ldr r3,.L129
 1939 0028 1B68     	 ldr r3,[r3]
 1940 002a 1846     	 mov r0,r3
 1941 002c FFF7FEFF 	 bl bufWriterFlush
 279:../cleanflight/src/main/interface/cli.c **** }
 1942              	 .loc 13 279 0
 1943 0030 0837     	 adds r7,r7,#8
 1944              	.LCFI167:
 1945              	 .cfi_def_cfa_offset 8
 1946 0032 BD46     	 mov sp,r7
 1947              	.LCFI168:
 1948              	 .cfi_def_cfa_register 13
 1949              	 
 1950 0034 80BD     	 pop {r7,pc}
 1951              	.L130:
 1952 0036 00BF     	 .align 2
 1953              	.L129:
 1954 0038 00000000 	 .word cliWriter
 1955              	 .cfi_endproc
 1956              	.LFE692:
 1958              	 .section .rodata
 1959              	 .align 2
 1960              	.LC57:
 1961 0230 0D0A00   	 .ascii "\015\012\000"
 1962              	 .section .text.cliPrintLinefeed,"ax",%progbits
 1963              	 .align 2
 1964              	 .thumb
 1965              	 .thumb_func
 1967              	cliPrintLinefeed:
 1968              	.LFB693:
 280:../cleanflight/src/main/interface/cli.c **** 
 281:../cleanflight/src/main/interface/cli.c **** static void cliPrintLinefeed(void)
 282:../cleanflight/src/main/interface/cli.c **** {
 1969              	 .loc 13 282 0
 1970              	 .cfi_startproc
 1971              	 
 1972              	 
 1973 0000 80B5     	 push {r7,lr}
 1974              	.LCFI169:
 1975              	 .cfi_def_cfa_offset 8
 1976              	 .cfi_offset 7,-8
 1977              	 .cfi_offset 14,-4
 1978 0002 00AF     	 add r7,sp,#0
 1979              	.LCFI170:
 1980              	 .cfi_def_cfa_register 7
 283:../cleanflight/src/main/interface/cli.c ****     cliPrint("\r\n");
 1981              	 .loc 13 283 0
 1982 0004 0148     	 ldr r0,.L132
 1983 0006 FFF7FEFF 	 bl cliPrint
 284:../cleanflight/src/main/interface/cli.c **** }
 1984              	 .loc 13 284 0
 1985 000a 80BD     	 pop {r7,pc}
 1986              	.L133:
 1987              	 .align 2
 1988              	.L132:
 1989 000c 30020000 	 .word .LC57
 1990              	 .cfi_endproc
 1991              	.LFE693:
 1993              	 .section .text.cliPrintLine,"ax",%progbits
 1994              	 .align 2
 1995              	 .thumb
 1996              	 .thumb_func
 1998              	cliPrintLine:
 1999              	.LFB694:
 285:../cleanflight/src/main/interface/cli.c **** 
 286:../cleanflight/src/main/interface/cli.c **** static void cliPrintLine(const char *str)
 287:../cleanflight/src/main/interface/cli.c **** {
 2000              	 .loc 13 287 0
 2001              	 .cfi_startproc
 2002              	 
 2003              	 
 2004 0000 80B5     	 push {r7,lr}
 2005              	.LCFI171:
 2006              	 .cfi_def_cfa_offset 8
 2007              	 .cfi_offset 7,-8
 2008              	 .cfi_offset 14,-4
 2009 0002 82B0     	 sub sp,sp,#8
 2010              	.LCFI172:
 2011              	 .cfi_def_cfa_offset 16
 2012 0004 00AF     	 add r7,sp,#0
 2013              	.LCFI173:
 2014              	 .cfi_def_cfa_register 7
 2015 0006 7860     	 str r0,[r7,#4]
 288:../cleanflight/src/main/interface/cli.c ****     cliPrint(str);
 2016              	 .loc 13 288 0
 2017 0008 7868     	 ldr r0,[r7,#4]
 2018 000a FFF7FEFF 	 bl cliPrint
 289:../cleanflight/src/main/interface/cli.c ****     cliPrintLinefeed();
 2019              	 .loc 13 289 0
 2020 000e FFF7FEFF 	 bl cliPrintLinefeed
 290:../cleanflight/src/main/interface/cli.c **** }
 2021              	 .loc 13 290 0
 2022 0012 0837     	 adds r7,r7,#8
 2023              	.LCFI174:
 2024              	 .cfi_def_cfa_offset 8
 2025 0014 BD46     	 mov sp,r7
 2026              	.LCFI175:
 2027              	 .cfi_def_cfa_register 13
 2028              	 
 2029 0016 80BD     	 pop {r7,pc}
 2030              	 .cfi_endproc
 2031              	.LFE694:
 2033              	 .section .rodata
 2034 0233 00       	 .align 2
 2035              	.LC58:
 2036 0234 0D0A2320 	 .ascii "\015\012# \000"
 2036      00
 2037              	 .section .text.cliPrintHashLine,"ax",%progbits
 2038              	 .align 2
 2039              	 .thumb
 2040              	 .thumb_func
 2042              	cliPrintHashLine:
 2043              	.LFB695:
 291:../cleanflight/src/main/interface/cli.c **** 
 292:../cleanflight/src/main/interface/cli.c **** #ifdef MINIMAL_CLI
 293:../cleanflight/src/main/interface/cli.c **** #define cliPrintHashLine(str)
 294:../cleanflight/src/main/interface/cli.c **** #else
 295:../cleanflight/src/main/interface/cli.c **** static void cliPrintHashLine(const char *str)
 296:../cleanflight/src/main/interface/cli.c **** {
 2044              	 .loc 13 296 0
 2045              	 .cfi_startproc
 2046              	 
 2047              	 
 2048 0000 80B5     	 push {r7,lr}
 2049              	.LCFI176:
 2050              	 .cfi_def_cfa_offset 8
 2051              	 .cfi_offset 7,-8
 2052              	 .cfi_offset 14,-4
 2053 0002 82B0     	 sub sp,sp,#8
 2054              	.LCFI177:
 2055              	 .cfi_def_cfa_offset 16
 2056 0004 00AF     	 add r7,sp,#0
 2057              	.LCFI178:
 2058              	 .cfi_def_cfa_register 7
 2059 0006 7860     	 str r0,[r7,#4]
 297:../cleanflight/src/main/interface/cli.c ****     cliPrint("\r\n# ");
 2060              	 .loc 13 297 0
 2061 0008 0448     	 ldr r0,.L136
 2062 000a FFF7FEFF 	 bl cliPrint
 298:../cleanflight/src/main/interface/cli.c ****     cliPrintLine(str);
 2063              	 .loc 13 298 0
 2064 000e 7868     	 ldr r0,[r7,#4]
 2065 0010 FFF7FEFF 	 bl cliPrintLine
 299:../cleanflight/src/main/interface/cli.c **** }
 2066              	 .loc 13 299 0
 2067 0014 0837     	 adds r7,r7,#8
 2068              	.LCFI179:
 2069              	 .cfi_def_cfa_offset 8
 2070 0016 BD46     	 mov sp,r7
 2071              	.LCFI180:
 2072              	 .cfi_def_cfa_register 13
 2073              	 
 2074 0018 80BD     	 pop {r7,pc}
 2075              	.L137:
 2076 001a 00BF     	 .align 2
 2077              	.L136:
 2078 001c 34020000 	 .word .LC58
 2079              	 .cfi_endproc
 2080              	.LFE695:
 2082              	 .section .text.cliPutp,"ax",%progbits
 2083              	 .align 2
 2084              	 .thumb
 2085              	 .thumb_func
 2087              	cliPutp:
 2088              	.LFB696:
 300:../cleanflight/src/main/interface/cli.c **** #endif
 301:../cleanflight/src/main/interface/cli.c **** 
 302:../cleanflight/src/main/interface/cli.c **** static void cliPutp(void *p, char ch)
 303:../cleanflight/src/main/interface/cli.c **** {
 2089              	 .loc 13 303 0
 2090              	 .cfi_startproc
 2091              	 
 2092              	 
 2093 0000 80B5     	 push {r7,lr}
 2094              	.LCFI181:
 2095              	 .cfi_def_cfa_offset 8
 2096              	 .cfi_offset 7,-8
 2097              	 .cfi_offset 14,-4
 2098 0002 82B0     	 sub sp,sp,#8
 2099              	.LCFI182:
 2100              	 .cfi_def_cfa_offset 16
 2101 0004 00AF     	 add r7,sp,#0
 2102              	.LCFI183:
 2103              	 .cfi_def_cfa_register 7
 2104 0006 7860     	 str r0,[r7,#4]
 2105 0008 0B46     	 mov r3,r1
 2106 000a FB70     	 strb r3,[r7,#3]
 304:../cleanflight/src/main/interface/cli.c ****     bufWriterAppend(p, ch);
 2107              	 .loc 13 304 0
 2108 000c FB78     	 ldrb r3,[r7,#3]
 2109 000e 7868     	 ldr r0,[r7,#4]
 2110 0010 1946     	 mov r1,r3
 2111 0012 FFF7FEFF 	 bl bufWriterAppend
 305:../cleanflight/src/main/interface/cli.c **** }
 2112              	 .loc 13 305 0
 2113 0016 0837     	 adds r7,r7,#8
 2114              	.LCFI184:
 2115              	 .cfi_def_cfa_offset 8
 2116 0018 BD46     	 mov sp,r7
 2117              	.LCFI185:
 2118              	 .cfi_def_cfa_register 13
 2119              	 
 2120 001a 80BD     	 pop {r7,pc}
 2121              	 .cfi_endproc
 2122              	.LFE696:
 2124              	 .section .text.cliPrintfva,"ax",%progbits
 2125              	 .align 2
 2126              	 .thumb
 2127              	 .thumb_func
 2129              	cliPrintfva:
 2130              	.LFB697:
 306:../cleanflight/src/main/interface/cli.c **** 
 307:../cleanflight/src/main/interface/cli.c **** typedef enum {
 308:../cleanflight/src/main/interface/cli.c ****     DUMP_MASTER = (1 << 0),
 309:../cleanflight/src/main/interface/cli.c ****     DUMP_PROFILE = (1 << 1),
 310:../cleanflight/src/main/interface/cli.c ****     DUMP_RATES = (1 << 2),
 311:../cleanflight/src/main/interface/cli.c ****     DUMP_ALL = (1 << 3),
 312:../cleanflight/src/main/interface/cli.c ****     DO_DIFF = (1 << 4),
 313:../cleanflight/src/main/interface/cli.c ****     SHOW_DEFAULTS = (1 << 5),
 314:../cleanflight/src/main/interface/cli.c ****     HIDE_UNUSED = (1 << 6)
 315:../cleanflight/src/main/interface/cli.c **** } dumpFlags_e;
 316:../cleanflight/src/main/interface/cli.c **** 
 317:../cleanflight/src/main/interface/cli.c **** static void cliPrintfva(const char *format, va_list va)
 318:../cleanflight/src/main/interface/cli.c **** {
 2131              	 .loc 13 318 0
 2132              	 .cfi_startproc
 2133              	 
 2134              	 
 2135 0000 80B5     	 push {r7,lr}
 2136              	.LCFI186:
 2137              	 .cfi_def_cfa_offset 8
 2138              	 .cfi_offset 7,-8
 2139              	 .cfi_offset 14,-4
 2140 0002 82B0     	 sub sp,sp,#8
 2141              	.LCFI187:
 2142              	 .cfi_def_cfa_offset 16
 2143 0004 00AF     	 add r7,sp,#0
 2144              	.LCFI188:
 2145              	 .cfi_def_cfa_register 7
 2146 0006 7860     	 str r0,[r7,#4]
 2147 0008 3960     	 str r1,[r7]
 319:../cleanflight/src/main/interface/cli.c ****     tfp_format(cliWriter, cliPutp, format, va);
 2148              	 .loc 13 319 0
 2149 000a 084B     	 ldr r3,.L140
 2150 000c 1B68     	 ldr r3,[r3]
 2151 000e 1846     	 mov r0,r3
 2152 0010 0749     	 ldr r1,.L140+4
 2153 0012 7A68     	 ldr r2,[r7,#4]
 2154 0014 3B68     	 ldr r3,[r7]
 2155 0016 FFF7FEFF 	 bl tfp_format
 320:../cleanflight/src/main/interface/cli.c ****     bufWriterFlush(cliWriter);
 2156              	 .loc 13 320 0
 2157 001a 044B     	 ldr r3,.L140
 2158 001c 1B68     	 ldr r3,[r3]
 2159 001e 1846     	 mov r0,r3
 2160 0020 FFF7FEFF 	 bl bufWriterFlush
 321:../cleanflight/src/main/interface/cli.c **** }
 2161              	 .loc 13 321 0
 2162 0024 0837     	 adds r7,r7,#8
 2163              	.LCFI189:
 2164              	 .cfi_def_cfa_offset 8
 2165 0026 BD46     	 mov sp,r7
 2166              	.LCFI190:
 2167              	 .cfi_def_cfa_register 13
 2168              	 
 2169 0028 80BD     	 pop {r7,pc}
 2170              	.L141:
 2171 002a 00BF     	 .align 2
 2172              	.L140:
 2173 002c 00000000 	 .word cliWriter
 2174 0030 00000000 	 .word cliPutp
 2175              	 .cfi_endproc
 2176              	.LFE697:
 2178              	 .section .text.cliDumpPrintLinef,"ax",%progbits
 2179              	 .align 2
 2180              	 .thumb
 2181              	 .thumb_func
 2183              	cliDumpPrintLinef:
 2184              	.LFB698:
 322:../cleanflight/src/main/interface/cli.c **** 
 323:../cleanflight/src/main/interface/cli.c **** static bool cliDumpPrintLinef(uint8_t dumpMask, bool equalsDefault, const char *format, ...)
 324:../cleanflight/src/main/interface/cli.c **** {
 2185              	 .loc 13 324 0
 2186              	 .cfi_startproc
 2187              	 
 2188              	 
 2189 0000 0CB4     	 push {r2,r3}
 2190              	.LCFI191:
 2191              	 .cfi_def_cfa_offset 8
 2192              	 .cfi_offset 2,-8
 2193              	 .cfi_offset 3,-4
 2194 0002 80B5     	 push {r7,lr}
 2195              	.LCFI192:
 2196              	 .cfi_def_cfa_offset 16
 2197              	 .cfi_offset 7,-16
 2198              	 .cfi_offset 14,-12
 2199 0004 84B0     	 sub sp,sp,#16
 2200              	.LCFI193:
 2201              	 .cfi_def_cfa_offset 32
 2202 0006 00AF     	 add r7,sp,#0
 2203              	.LCFI194:
 2204              	 .cfi_def_cfa_register 7
 2205 0008 0346     	 mov r3,r0
 2206 000a 0A46     	 mov r2,r1
 2207 000c FB71     	 strb r3,[r7,#7]
 2208 000e 1346     	 mov r3,r2
 2209 0010 BB71     	 strb r3,[r7,#6]
 325:../cleanflight/src/main/interface/cli.c ****     if (!((dumpMask & DO_DIFF) && equalsDefault)) {
 2210              	 .loc 13 325 0
 2211 0012 FB79     	 ldrb r3,[r7,#7]
 2212 0014 03F01003 	 and r3,r3,#16
 2213 0018 002B     	 cmp r3,#0
 2214 001a 05D0     	 beq .L143
 2215              	 .loc 13 325 0 is_stmt 0 discriminator 1
 2216 001c BB79     	 ldrb r3,[r7,#6]
 2217 001e 83F00103 	 eor r3,r3,#1
 2218 0022 DBB2     	 uxtb r3,r3
 2219 0024 002B     	 cmp r3,#0
 2220 0026 0AD0     	 beq .L144
 2221              	.L143:
 2222              	.LBB4:
 326:../cleanflight/src/main/interface/cli.c ****         va_list va;
 327:../cleanflight/src/main/interface/cli.c ****         va_start(va, format);
 2223              	 .loc 13 327 0 is_stmt 1
 2224 0028 07F11C03 	 add r3,r7,#28
 2225 002c FB60     	 str r3,[r7,#12]
 328:../cleanflight/src/main/interface/cli.c ****         cliPrintfva(format, va);
 2226              	 .loc 13 328 0
 2227 002e B869     	 ldr r0,[r7,#24]
 2228 0030 F968     	 ldr r1,[r7,#12]
 2229 0032 FFF7FEFF 	 bl cliPrintfva
 329:../cleanflight/src/main/interface/cli.c ****         va_end(va);
 330:../cleanflight/src/main/interface/cli.c ****         cliPrintLinefeed();
 2230              	 .loc 13 330 0
 2231 0036 FFF7FEFF 	 bl cliPrintLinefeed
 331:../cleanflight/src/main/interface/cli.c ****         return true;
 2232              	 .loc 13 331 0
 2233 003a 0123     	 movs r3,#1
 2234 003c 00E0     	 b .L145
 2235              	.L144:
 2236              	.LBE4:
 332:../cleanflight/src/main/interface/cli.c ****     } else {
 333:../cleanflight/src/main/interface/cli.c ****         return false;
 2237              	 .loc 13 333 0
 2238 003e 0023     	 movs r3,#0
 2239              	.L145:
 334:../cleanflight/src/main/interface/cli.c ****     }
 335:../cleanflight/src/main/interface/cli.c **** }
 2240              	 .loc 13 335 0 discriminator 1
 2241 0040 1846     	 mov r0,r3
 2242 0042 1037     	 adds r7,r7,#16
 2243              	.LCFI195:
 2244              	 .cfi_def_cfa_offset 16
 2245 0044 BD46     	 mov sp,r7
 2246              	.LCFI196:
 2247              	 .cfi_def_cfa_register 13
 2248              	 
 2249 0046 BDE88040 	 pop {r7,lr}
 2250              	.LCFI197:
 2251              	 .cfi_restore 14
 2252              	 .cfi_restore 7
 2253              	 .cfi_def_cfa_offset 8
 2254 004a 02B0     	 add sp,sp,#8
 2255              	.LCFI198:
 2256              	 .cfi_restore 3
 2257              	 .cfi_restore 2
 2258              	 .cfi_def_cfa_offset 0
 2259 004c 7047     	 bx lr
 2260              	 .cfi_endproc
 2261              	.LFE698:
 2263 004e 00BF     	 .section .text.cliWrite,"ax",%progbits
 2264              	 .align 2
 2265              	 .thumb
 2266              	 .thumb_func
 2268              	cliWrite:
 2269              	.LFB699:
 336:../cleanflight/src/main/interface/cli.c **** 
 337:../cleanflight/src/main/interface/cli.c **** static void cliWrite(uint8_t ch)
 338:../cleanflight/src/main/interface/cli.c **** {
 2270              	 .loc 13 338 0
 2271              	 .cfi_startproc
 2272              	 
 2273              	 
 2274 0000 80B5     	 push {r7,lr}
 2275              	.LCFI199:
 2276              	 .cfi_def_cfa_offset 8
 2277              	 .cfi_offset 7,-8
 2278              	 .cfi_offset 14,-4
 2279 0002 82B0     	 sub sp,sp,#8
 2280              	.LCFI200:
 2281              	 .cfi_def_cfa_offset 16
 2282 0004 00AF     	 add r7,sp,#0
 2283              	.LCFI201:
 2284              	 .cfi_def_cfa_register 7
 2285 0006 0346     	 mov r3,r0
 2286 0008 FB71     	 strb r3,[r7,#7]
 339:../cleanflight/src/main/interface/cli.c ****     bufWriterAppend(cliWriter, ch);
 2287              	 .loc 13 339 0
 2288 000a 054B     	 ldr r3,.L147
 2289 000c 1A68     	 ldr r2,[r3]
 2290 000e FB79     	 ldrb r3,[r7,#7]
 2291 0010 1046     	 mov r0,r2
 2292 0012 1946     	 mov r1,r3
 2293 0014 FFF7FEFF 	 bl bufWriterAppend
 340:../cleanflight/src/main/interface/cli.c **** }
 2294              	 .loc 13 340 0
 2295 0018 0837     	 adds r7,r7,#8
 2296              	.LCFI202:
 2297              	 .cfi_def_cfa_offset 8
 2298 001a BD46     	 mov sp,r7
 2299              	.LCFI203:
 2300              	 .cfi_def_cfa_register 13
 2301              	 
 2302 001c 80BD     	 pop {r7,pc}
 2303              	.L148:
 2304 001e 00BF     	 .align 2
 2305              	.L147:
 2306 0020 00000000 	 .word cliWriter
 2307              	 .cfi_endproc
 2308              	.LFE699:
 2310              	 .section .text.cliDefaultPrintLinef,"ax",%progbits
 2311              	 .align 2
 2312              	 .thumb
 2313              	 .thumb_func
 2315              	cliDefaultPrintLinef:
 2316              	.LFB700:
 341:../cleanflight/src/main/interface/cli.c **** 
 342:../cleanflight/src/main/interface/cli.c **** static bool cliDefaultPrintLinef(uint8_t dumpMask, bool equalsDefault, const char *format, ...)
 343:../cleanflight/src/main/interface/cli.c **** {
 2317              	 .loc 13 343 0
 2318              	 .cfi_startproc
 2319              	 
 2320              	 
 2321 0000 0CB4     	 push {r2,r3}
 2322              	.LCFI204:
 2323              	 .cfi_def_cfa_offset 8
 2324              	 .cfi_offset 2,-8
 2325              	 .cfi_offset 3,-4
 2326 0002 80B5     	 push {r7,lr}
 2327              	.LCFI205:
 2328              	 .cfi_def_cfa_offset 16
 2329              	 .cfi_offset 7,-16
 2330              	 .cfi_offset 14,-12
 2331 0004 84B0     	 sub sp,sp,#16
 2332              	.LCFI206:
 2333              	 .cfi_def_cfa_offset 32
 2334 0006 00AF     	 add r7,sp,#0
 2335              	.LCFI207:
 2336              	 .cfi_def_cfa_register 7
 2337 0008 0346     	 mov r3,r0
 2338 000a 0A46     	 mov r2,r1
 2339 000c FB71     	 strb r3,[r7,#7]
 2340 000e 1346     	 mov r3,r2
 2341 0010 BB71     	 strb r3,[r7,#6]
 344:../cleanflight/src/main/interface/cli.c ****     if ((dumpMask & SHOW_DEFAULTS) && !equalsDefault) {
 2342              	 .loc 13 344 0
 2343 0012 FB79     	 ldrb r3,[r7,#7]
 2344 0014 03F02003 	 and r3,r3,#32
 2345 0018 002B     	 cmp r3,#0
 2346 001a 13D0     	 beq .L150
 2347              	 .loc 13 344 0 is_stmt 0 discriminator 1
 2348 001c BB79     	 ldrb r3,[r7,#6]
 2349 001e 83F00103 	 eor r3,r3,#1
 2350 0022 DBB2     	 uxtb r3,r3
 2351 0024 002B     	 cmp r3,#0
 2352 0026 0DD0     	 beq .L150
 2353              	.LBB5:
 345:../cleanflight/src/main/interface/cli.c ****         cliWrite('#');
 2354              	 .loc 13 345 0 is_stmt 1
 2355 0028 2320     	 movs r0,#35
 2356 002a FFF7FEFF 	 bl cliWrite
 346:../cleanflight/src/main/interface/cli.c **** 
 347:../cleanflight/src/main/interface/cli.c ****         va_list va;
 348:../cleanflight/src/main/interface/cli.c ****         va_start(va, format);
 2357              	 .loc 13 348 0
 2358 002e 07F11C03 	 add r3,r7,#28
 2359 0032 FB60     	 str r3,[r7,#12]
 349:../cleanflight/src/main/interface/cli.c ****         cliPrintfva(format, va);
 2360              	 .loc 13 349 0
 2361 0034 B869     	 ldr r0,[r7,#24]
 2362 0036 F968     	 ldr r1,[r7,#12]
 2363 0038 FFF7FEFF 	 bl cliPrintfva
 350:../cleanflight/src/main/interface/cli.c ****         va_end(va);
 351:../cleanflight/src/main/interface/cli.c ****         cliPrintLinefeed();
 2364              	 .loc 13 351 0
 2365 003c FFF7FEFF 	 bl cliPrintLinefeed
 352:../cleanflight/src/main/interface/cli.c ****         return true;
 2366              	 .loc 13 352 0
 2367 0040 0123     	 movs r3,#1
 2368 0042 00E0     	 b .L151
 2369              	.L150:
 2370              	.LBE5:
 353:../cleanflight/src/main/interface/cli.c ****     } else {
 354:../cleanflight/src/main/interface/cli.c ****         return false;
 2371              	 .loc 13 354 0
 2372 0044 0023     	 movs r3,#0
 2373              	.L151:
 355:../cleanflight/src/main/interface/cli.c ****     }
 356:../cleanflight/src/main/interface/cli.c **** }
 2374              	 .loc 13 356 0 discriminator 1
 2375 0046 1846     	 mov r0,r3
 2376 0048 1037     	 adds r7,r7,#16
 2377              	.LCFI208:
 2378              	 .cfi_def_cfa_offset 16
 2379 004a BD46     	 mov sp,r7
 2380              	.LCFI209:
 2381              	 .cfi_def_cfa_register 13
 2382              	 
 2383 004c BDE88040 	 pop {r7,lr}
 2384              	.LCFI210:
 2385              	 .cfi_restore 14
 2386              	 .cfi_restore 7
 2387              	 .cfi_def_cfa_offset 8
 2388 0050 02B0     	 add sp,sp,#8
 2389              	.LCFI211:
 2390              	 .cfi_restore 3
 2391              	 .cfi_restore 2
 2392              	 .cfi_def_cfa_offset 0
 2393 0052 7047     	 bx lr
 2394              	 .cfi_endproc
 2395              	.LFE700:
 2397              	 .section .text.cliPrintf,"ax",%progbits
 2398              	 .align 2
 2399              	 .thumb
 2400              	 .thumb_func
 2402              	cliPrintf:
 2403              	.LFB701:
 357:../cleanflight/src/main/interface/cli.c **** 
 358:../cleanflight/src/main/interface/cli.c **** static void cliPrintf(const char *format, ...)
 359:../cleanflight/src/main/interface/cli.c **** {
 2404              	 .loc 13 359 0
 2405              	 .cfi_startproc
 2406              	 
 2407              	 
 2408 0000 0FB4     	 push {r0,r1,r2,r3}
 2409              	.LCFI212:
 2410              	 .cfi_def_cfa_offset 16
 2411              	 .cfi_offset 0,-16
 2412              	 .cfi_offset 1,-12
 2413              	 .cfi_offset 2,-8
 2414              	 .cfi_offset 3,-4
 2415 0002 80B5     	 push {r7,lr}
 2416              	.LCFI213:
 2417              	 .cfi_def_cfa_offset 24
 2418              	 .cfi_offset 7,-24
 2419              	 .cfi_offset 14,-20
 2420 0004 82B0     	 sub sp,sp,#8
 2421              	.LCFI214:
 2422              	 .cfi_def_cfa_offset 32
 2423 0006 00AF     	 add r7,sp,#0
 2424              	.LCFI215:
 2425              	 .cfi_def_cfa_register 7
 360:../cleanflight/src/main/interface/cli.c ****     va_list va;
 361:../cleanflight/src/main/interface/cli.c ****     va_start(va, format);
 2426              	 .loc 13 361 0
 2427 0008 07F11403 	 add r3,r7,#20
 2428 000c 7B60     	 str r3,[r7,#4]
 362:../cleanflight/src/main/interface/cli.c ****     cliPrintfva(format, va);
 2429              	 .loc 13 362 0
 2430 000e 3869     	 ldr r0,[r7,#16]
 2431 0010 7968     	 ldr r1,[r7,#4]
 2432 0012 FFF7FEFF 	 bl cliPrintfva
 363:../cleanflight/src/main/interface/cli.c ****     va_end(va);
 364:../cleanflight/src/main/interface/cli.c **** }
 2433              	 .loc 13 364 0
 2434 0016 0837     	 adds r7,r7,#8
 2435              	.LCFI216:
 2436              	 .cfi_def_cfa_offset 24
 2437 0018 BD46     	 mov sp,r7
 2438              	.LCFI217:
 2439              	 .cfi_def_cfa_register 13
 2440              	 
 2441 001a BDE88040 	 pop {r7,lr}
 2442              	.LCFI218:
 2443              	 .cfi_restore 14
 2444              	 .cfi_restore 7
 2445              	 .cfi_def_cfa_offset 16
 2446 001e 04B0     	 add sp,sp,#16
 2447              	.LCFI219:
 2448              	 .cfi_restore 3
 2449              	 .cfi_restore 2
 2450              	 .cfi_restore 1
 2451              	 .cfi_restore 0
 2452              	 .cfi_def_cfa_offset 0
 2453 0020 7047     	 bx lr
 2454              	 .cfi_endproc
 2455              	.LFE701:
 2457 0022 00BF     	 .section .text.cliPrintLinef,"ax",%progbits
 2458              	 .align 2
 2459              	 .thumb
 2460              	 .thumb_func
 2462              	cliPrintLinef:
 2463              	.LFB702:
 365:../cleanflight/src/main/interface/cli.c **** 
 366:../cleanflight/src/main/interface/cli.c **** 
 367:../cleanflight/src/main/interface/cli.c **** static void cliPrintLinef(const char *format, ...)
 368:../cleanflight/src/main/interface/cli.c **** {
 2464              	 .loc 13 368 0
 2465              	 .cfi_startproc
 2466              	 
 2467              	 
 2468 0000 0FB4     	 push {r0,r1,r2,r3}
 2469              	.LCFI220:
 2470              	 .cfi_def_cfa_offset 16
 2471              	 .cfi_offset 0,-16
 2472              	 .cfi_offset 1,-12
 2473              	 .cfi_offset 2,-8
 2474              	 .cfi_offset 3,-4
 2475 0002 80B5     	 push {r7,lr}
 2476              	.LCFI221:
 2477              	 .cfi_def_cfa_offset 24
 2478              	 .cfi_offset 7,-24
 2479              	 .cfi_offset 14,-20
 2480 0004 82B0     	 sub sp,sp,#8
 2481              	.LCFI222:
 2482              	 .cfi_def_cfa_offset 32
 2483 0006 00AF     	 add r7,sp,#0
 2484              	.LCFI223:
 2485              	 .cfi_def_cfa_register 7
 369:../cleanflight/src/main/interface/cli.c ****     va_list va;
 370:../cleanflight/src/main/interface/cli.c ****     va_start(va, format);
 2486              	 .loc 13 370 0
 2487 0008 07F11403 	 add r3,r7,#20
 2488 000c 7B60     	 str r3,[r7,#4]
 371:../cleanflight/src/main/interface/cli.c ****     cliPrintfva(format, va);
 2489              	 .loc 13 371 0
 2490 000e 3869     	 ldr r0,[r7,#16]
 2491 0010 7968     	 ldr r1,[r7,#4]
 2492 0012 FFF7FEFF 	 bl cliPrintfva
 372:../cleanflight/src/main/interface/cli.c ****     va_end(va);
 373:../cleanflight/src/main/interface/cli.c ****     cliPrintLinefeed();
 2493              	 .loc 13 373 0
 2494 0016 FFF7FEFF 	 bl cliPrintLinefeed
 374:../cleanflight/src/main/interface/cli.c **** }
 2495              	 .loc 13 374 0
 2496 001a 0837     	 adds r7,r7,#8
 2497              	.LCFI224:
 2498              	 .cfi_def_cfa_offset 24
 2499 001c BD46     	 mov sp,r7
 2500              	.LCFI225:
 2501              	 .cfi_def_cfa_register 13
 2502              	 
 2503 001e BDE88040 	 pop {r7,lr}
 2504              	.LCFI226:
 2505              	 .cfi_restore 14
 2506              	 .cfi_restore 7
 2507              	 .cfi_def_cfa_offset 16
 2508 0022 04B0     	 add sp,sp,#16
 2509              	.LCFI227:
 2510              	 .cfi_restore 3
 2511              	 .cfi_restore 2
 2512              	 .cfi_restore 1
 2513              	 .cfi_restore 0
 2514              	 .cfi_def_cfa_offset 0
 2515 0024 7047     	 bx lr
 2516              	 .cfi_endproc
 2517              	.LFE702:
 2519 0026 00BF     	 .section .rodata
 2520 0239 000000   	 .align 2
 2521              	.LC59:
 2522 023c 23232345 	 .ascii "###ERROR### \000"
 2522      52524F52 
 2522      23232320 
 2522      00
 2523              	 .section .text.cliPrintErrorLinef,"ax",%progbits
 2524              	 .align 2
 2525              	 .thumb
 2526              	 .thumb_func
 2528              	cliPrintErrorLinef:
 2529              	.LFB703:
 375:../cleanflight/src/main/interface/cli.c **** 
 376:../cleanflight/src/main/interface/cli.c **** static void cliPrintErrorLinef(const char *format, ...)
 377:../cleanflight/src/main/interface/cli.c **** {
 2530              	 .loc 13 377 0
 2531              	 .cfi_startproc
 2532              	 
 2533              	 
 2534 0000 0FB4     	 push {r0,r1,r2,r3}
 2535              	.LCFI228:
 2536              	 .cfi_def_cfa_offset 16
 2537              	 .cfi_offset 0,-16
 2538              	 .cfi_offset 1,-12
 2539              	 .cfi_offset 2,-8
 2540              	 .cfi_offset 3,-4
 2541 0002 80B5     	 push {r7,lr}
 2542              	.LCFI229:
 2543              	 .cfi_def_cfa_offset 24
 2544              	 .cfi_offset 7,-24
 2545              	 .cfi_offset 14,-20
 2546 0004 82B0     	 sub sp,sp,#8
 2547              	.LCFI230:
 2548              	 .cfi_def_cfa_offset 32
 2549 0006 00AF     	 add r7,sp,#0
 2550              	.LCFI231:
 2551              	 .cfi_def_cfa_register 7
 378:../cleanflight/src/main/interface/cli.c ****     cliPrint("###ERROR### ");
 2552              	 .loc 13 378 0
 2553 0008 0848     	 ldr r0,.L155
 2554 000a FFF7FEFF 	 bl cliPrint
 379:../cleanflight/src/main/interface/cli.c ****     va_list va;
 380:../cleanflight/src/main/interface/cli.c ****     va_start(va, format);
 2555              	 .loc 13 380 0
 2556 000e 07F11403 	 add r3,r7,#20
 2557 0012 7B60     	 str r3,[r7,#4]
 381:../cleanflight/src/main/interface/cli.c ****     cliPrintfva(format, va);
 2558              	 .loc 13 381 0
 2559 0014 3869     	 ldr r0,[r7,#16]
 2560 0016 7968     	 ldr r1,[r7,#4]
 2561 0018 FFF7FEFF 	 bl cliPrintfva
 382:../cleanflight/src/main/interface/cli.c ****     va_end(va);
 383:../cleanflight/src/main/interface/cli.c ****     cliPrintLinefeed();
 2562              	 .loc 13 383 0
 2563 001c FFF7FEFF 	 bl cliPrintLinefeed
 384:../cleanflight/src/main/interface/cli.c **** }
 2564              	 .loc 13 384 0
 2565 0020 0837     	 adds r7,r7,#8
 2566              	.LCFI232:
 2567              	 .cfi_def_cfa_offset 24
 2568 0022 BD46     	 mov sp,r7
 2569              	.LCFI233:
 2570              	 .cfi_def_cfa_register 13
 2571              	 
 2572 0024 BDE88040 	 pop {r7,lr}
 2573              	.LCFI234:
 2574              	 .cfi_restore 14
 2575              	 .cfi_restore 7
 2576              	 .cfi_def_cfa_offset 16
 2577 0028 04B0     	 add sp,sp,#16
 2578              	.LCFI235:
 2579              	 .cfi_restore 3
 2580              	 .cfi_restore 2
 2581              	 .cfi_restore 1
 2582              	 .cfi_restore 0
 2583              	 .cfi_def_cfa_offset 0
 2584 002a 7047     	 bx lr
 2585              	.L156:
 2586              	 .align 2
 2587              	.L155:
 2588 002c 3C020000 	 .word .LC59
 2589              	 .cfi_endproc
 2590              	.LFE703:
 2592              	 .section .rodata
 2593 0249 000000   	 .align 2
 2594              	.LC60:
 2595 024c 256400   	 .ascii "%d\000"
 2596 024f 00       	 .align 2
 2597              	.LC61:
 2598 0250 2C00     	 .ascii ",\000"
 2599 0252 0000     	 .align 2
 2600              	.LC62:
 2601 0254 20256420 	 .ascii " %d %d\000"
 2601      256400
 2602 025b 00       	 .align 2
 2603              	.LC63:
 2604 025c 4F4E00   	 .ascii "ON\000"
 2605 025f 00       	 .align 2
 2606              	.LC64:
 2607 0260 4F464600 	 .ascii "OFF\000"
