   1              	 .syntax unified
   2              	 .cpu cortex-m4
   3              	 .eabi_attribute 27,3
   4              	 .fpu fpv4-sp-d16
   5              	 .eabi_attribute 20,1
   6              	 .eabi_attribute 21,1
   7              	 .eabi_attribute 23,3
   8              	 .eabi_attribute 24,1
   9              	 .eabi_attribute 25,1
  10              	 .eabi_attribute 26,1
  11              	 .eabi_attribute 30,6
  12              	 .eabi_attribute 34,1
  13              	 .eabi_attribute 18,4
  14              	 .thumb
  15              	 .file "msp.c"
  16              	 .text
  17              	.Ltext0:
  18              	 .cfi_sections .debug_frame
  19              	 .section .text.blackboxConfig,"ax",%progbits
  20              	 .align 2
  21              	 .thumb
  22              	 .thumb_func
  24              	blackboxConfig:
  25              	.LFB527:
  26              	 .file 1 "D:/XMC/Projekte/Temp/CF_XMC4700/cleanflight/src/main/blackbox/blackbox.h"
   1:D:/XMC/Projekte/Temp/CF_XMC4700/cleanflight/src/main/blackbox\blackbox.h **** /*
   2:D:/XMC/Projekte/Temp/CF_XMC4700/cleanflight/src/main/blackbox\blackbox.h ****  * This file is part of Cleanflight and Betaflight.
   3:D:/XMC/Projekte/Temp/CF_XMC4700/cleanflight/src/main/blackbox\blackbox.h ****  *
   4:D:/XMC/Projekte/Temp/CF_XMC4700/cleanflight/src/main/blackbox\blackbox.h ****  * Cleanflight and Betaflight are free software. You can redistribute
   5:D:/XMC/Projekte/Temp/CF_XMC4700/cleanflight/src/main/blackbox\blackbox.h ****  * this software and/or modify this software under the terms of the
   6:D:/XMC/Projekte/Temp/CF_XMC4700/cleanflight/src/main/blackbox\blackbox.h ****  * GNU General Public License as published by the Free Software
   7:D:/XMC/Projekte/Temp/CF_XMC4700/cleanflight/src/main/blackbox\blackbox.h ****  * Foundation, either version 3 of the License, or (at your option)
   8:D:/XMC/Projekte/Temp/CF_XMC4700/cleanflight/src/main/blackbox\blackbox.h ****  * any later version.
   9:D:/XMC/Projekte/Temp/CF_XMC4700/cleanflight/src/main/blackbox\blackbox.h ****  *
  10:D:/XMC/Projekte/Temp/CF_XMC4700/cleanflight/src/main/blackbox\blackbox.h ****  * Cleanflight and Betaflight are distributed in the hope that they
  11:D:/XMC/Projekte/Temp/CF_XMC4700/cleanflight/src/main/blackbox\blackbox.h ****  * will be useful, but WITHOUT ANY WARRANTY; without even the implied
  12:D:/XMC/Projekte/Temp/CF_XMC4700/cleanflight/src/main/blackbox\blackbox.h ****  * warranty of MERCHANTABILITY or FITNESS FOR A PARTICULAR PURPOSE.
  13:D:/XMC/Projekte/Temp/CF_XMC4700/cleanflight/src/main/blackbox\blackbox.h ****  * See the GNU General Public License for more details.
  14:D:/XMC/Projekte/Temp/CF_XMC4700/cleanflight/src/main/blackbox\blackbox.h ****  *
  15:D:/XMC/Projekte/Temp/CF_XMC4700/cleanflight/src/main/blackbox\blackbox.h ****  * You should have received a copy of the GNU General Public License
  16:D:/XMC/Projekte/Temp/CF_XMC4700/cleanflight/src/main/blackbox\blackbox.h ****  * along with this software.
  17:D:/XMC/Projekte/Temp/CF_XMC4700/cleanflight/src/main/blackbox\blackbox.h ****  *
  18:D:/XMC/Projekte/Temp/CF_XMC4700/cleanflight/src/main/blackbox\blackbox.h ****  * If not, see <http://www.gnu.org/licenses/>.
  19:D:/XMC/Projekte/Temp/CF_XMC4700/cleanflight/src/main/blackbox\blackbox.h ****  */
  20:D:/XMC/Projekte/Temp/CF_XMC4700/cleanflight/src/main/blackbox\blackbox.h **** 
  21:D:/XMC/Projekte/Temp/CF_XMC4700/cleanflight/src/main/blackbox\blackbox.h **** #pragma once
  22:D:/XMC/Projekte/Temp/CF_XMC4700/cleanflight/src/main/blackbox\blackbox.h **** 
  23:D:/XMC/Projekte/Temp/CF_XMC4700/cleanflight/src/main/blackbox\blackbox.h **** #include "platform.h"
  24:D:/XMC/Projekte/Temp/CF_XMC4700/cleanflight/src/main/blackbox\blackbox.h **** #include "build/build_config.h"
  25:D:/XMC/Projekte/Temp/CF_XMC4700/cleanflight/src/main/blackbox\blackbox.h **** #include "common/time.h"
  26:D:/XMC/Projekte/Temp/CF_XMC4700/cleanflight/src/main/blackbox\blackbox.h **** #include "pg/pg.h"
  27:D:/XMC/Projekte/Temp/CF_XMC4700/cleanflight/src/main/blackbox\blackbox.h **** 
  28:D:/XMC/Projekte/Temp/CF_XMC4700/cleanflight/src/main/blackbox\blackbox.h **** typedef enum BlackboxDevice {
  29:D:/XMC/Projekte/Temp/CF_XMC4700/cleanflight/src/main/blackbox\blackbox.h ****     BLACKBOX_DEVICE_NONE = 0,
  30:D:/XMC/Projekte/Temp/CF_XMC4700/cleanflight/src/main/blackbox\blackbox.h **** #ifdef USE_FLASHFS
  31:D:/XMC/Projekte/Temp/CF_XMC4700/cleanflight/src/main/blackbox\blackbox.h ****     BLACKBOX_DEVICE_FLASH = 1,
  32:D:/XMC/Projekte/Temp/CF_XMC4700/cleanflight/src/main/blackbox\blackbox.h **** #endif
  33:D:/XMC/Projekte/Temp/CF_XMC4700/cleanflight/src/main/blackbox\blackbox.h **** #ifdef USE_SDCARD
  34:D:/XMC/Projekte/Temp/CF_XMC4700/cleanflight/src/main/blackbox\blackbox.h ****     BLACKBOX_DEVICE_SDCARD = 2,
  35:D:/XMC/Projekte/Temp/CF_XMC4700/cleanflight/src/main/blackbox\blackbox.h **** #endif
  36:D:/XMC/Projekte/Temp/CF_XMC4700/cleanflight/src/main/blackbox\blackbox.h ****     BLACKBOX_DEVICE_SERIAL = 3
  37:D:/XMC/Projekte/Temp/CF_XMC4700/cleanflight/src/main/blackbox\blackbox.h **** } BlackboxDevice_e;
  38:D:/XMC/Projekte/Temp/CF_XMC4700/cleanflight/src/main/blackbox\blackbox.h **** 
  39:D:/XMC/Projekte/Temp/CF_XMC4700/cleanflight/src/main/blackbox\blackbox.h **** typedef enum BlackboxMode {
  40:D:/XMC/Projekte/Temp/CF_XMC4700/cleanflight/src/main/blackbox\blackbox.h ****     BLACKBOX_MODE_NORMAL = 0,
  41:D:/XMC/Projekte/Temp/CF_XMC4700/cleanflight/src/main/blackbox\blackbox.h ****     BLACKBOX_MODE_MOTOR_TEST,
  42:D:/XMC/Projekte/Temp/CF_XMC4700/cleanflight/src/main/blackbox\blackbox.h ****     BLACKBOX_MODE_ALWAYS_ON
  43:D:/XMC/Projekte/Temp/CF_XMC4700/cleanflight/src/main/blackbox\blackbox.h **** } BlackboxMode;
  44:D:/XMC/Projekte/Temp/CF_XMC4700/cleanflight/src/main/blackbox\blackbox.h **** 
  45:D:/XMC/Projekte/Temp/CF_XMC4700/cleanflight/src/main/blackbox\blackbox.h **** typedef enum FlightLogEvent {
  46:D:/XMC/Projekte/Temp/CF_XMC4700/cleanflight/src/main/blackbox\blackbox.h ****     FLIGHT_LOG_EVENT_SYNC_BEEP = 0,
  47:D:/XMC/Projekte/Temp/CF_XMC4700/cleanflight/src/main/blackbox\blackbox.h ****     FLIGHT_LOG_EVENT_INFLIGHT_ADJUSTMENT = 13,
  48:D:/XMC/Projekte/Temp/CF_XMC4700/cleanflight/src/main/blackbox\blackbox.h ****     FLIGHT_LOG_EVENT_LOGGING_RESUME = 14,
  49:D:/XMC/Projekte/Temp/CF_XMC4700/cleanflight/src/main/blackbox\blackbox.h ****     FLIGHT_LOG_EVENT_FLIGHTMODE = 30, // Add new event type for flight mode status.
  50:D:/XMC/Projekte/Temp/CF_XMC4700/cleanflight/src/main/blackbox\blackbox.h ****     FLIGHT_LOG_EVENT_LOG_END = 255
  51:D:/XMC/Projekte/Temp/CF_XMC4700/cleanflight/src/main/blackbox\blackbox.h **** } FlightLogEvent;
  52:D:/XMC/Projekte/Temp/CF_XMC4700/cleanflight/src/main/blackbox\blackbox.h **** 
  53:D:/XMC/Projekte/Temp/CF_XMC4700/cleanflight/src/main/blackbox\blackbox.h **** typedef struct blackboxConfig_s {
  54:D:/XMC/Projekte/Temp/CF_XMC4700/cleanflight/src/main/blackbox\blackbox.h ****     uint16_t p_ratio; // I-frame interval / P-frame interval
  55:D:/XMC/Projekte/Temp/CF_XMC4700/cleanflight/src/main/blackbox\blackbox.h ****     uint8_t device;
  56:D:/XMC/Projekte/Temp/CF_XMC4700/cleanflight/src/main/blackbox\blackbox.h ****     uint8_t record_acc;
  57:D:/XMC/Projekte/Temp/CF_XMC4700/cleanflight/src/main/blackbox\blackbox.h ****     uint8_t mode;
  58:D:/XMC/Projekte/Temp/CF_XMC4700/cleanflight/src/main/blackbox\blackbox.h **** } blackboxConfig_t;
  59:D:/XMC/Projekte/Temp/CF_XMC4700/cleanflight/src/main/blackbox\blackbox.h **** 
  60:D:/XMC/Projekte/Temp/CF_XMC4700/cleanflight/src/main/blackbox\blackbox.h **** PG_DECLARE(blackboxConfig_t, blackboxConfig);
  27              	 .loc 1 60 0
  28              	 .cfi_startproc
  29              	 
  30              	 
  31              	 
  32 0000 80B4     	 push {r7}
  33              	.LCFI0:
  34              	 .cfi_def_cfa_offset 4
  35              	 .cfi_offset 7,-4
  36 0002 00AF     	 add r7,sp,#0
  37              	.LCFI1:
  38              	 .cfi_def_cfa_register 7
  39              	 .loc 1 60 0
  40 0004 024B     	 ldr r3,.L3
  41 0006 1846     	 mov r0,r3
  42 0008 BD46     	 mov sp,r7
  43              	.LCFI2:
  44              	 .cfi_def_cfa_register 13
  45              	 
  46 000a 5DF8047B 	 ldr r7,[sp],#4
  47              	.LCFI3:
  48              	 .cfi_restore 7
  49              	 .cfi_def_cfa_offset 0
  50 000e 7047     	 bx lr
  51              	.L4:
  52              	 .align 2
  53              	.L3:
  54 0010 00000000 	 .word blackboxConfig_System
  55              	 .cfi_endproc
  56              	.LFE527:
  58              	 .section .text.blackboxConfigMutable,"ax",%progbits
  59              	 .align 2
  60              	 .thumb
  61              	 .thumb_func
  63              	blackboxConfigMutable:
  64              	.LFB528:
  65              	 .loc 1 60 0
  66              	 .cfi_startproc
  67              	 
  68              	 
  69              	 
  70 0000 80B4     	 push {r7}
  71              	.LCFI4:
  72              	 .cfi_def_cfa_offset 4
  73              	 .cfi_offset 7,-4
  74 0002 00AF     	 add r7,sp,#0
  75              	.LCFI5:
  76              	 .cfi_def_cfa_register 7
  77              	 .loc 1 60 0
  78 0004 024B     	 ldr r3,.L7
  79 0006 1846     	 mov r0,r3
  80 0008 BD46     	 mov sp,r7
  81              	.LCFI6:
  82              	 .cfi_def_cfa_register 13
  83              	 
  84 000a 5DF8047B 	 ldr r7,[sp],#4
  85              	.LCFI7:
  86              	 .cfi_restore 7
  87              	 .cfi_def_cfa_offset 0
  88 000e 7047     	 bx lr
  89              	.L8:
  90              	 .align 2
  91              	.L7:
  92 0010 00000000 	 .word blackboxConfig_System
  93              	 .cfi_endproc
  94              	.LFE528:
  96              	 .section .text.constrain,"ax",%progbits
  97              	 .align 2
  98              	 .thumb
  99              	 .thumb_func
 101              	constrain:
 102              	.LFB529:
 103              	 .file 2 "D:/XMC/Projekte/Temp/CF_XMC4700/cleanflight/src/main/common/maths.h"
   1:D:/XMC/Projekte/Temp/CF_XMC4700/cleanflight/src/main/common\maths.h **** /*
   2:D:/XMC/Projekte/Temp/CF_XMC4700/cleanflight/src/main/common\maths.h ****  * This file is part of Cleanflight and Betaflight.
   3:D:/XMC/Projekte/Temp/CF_XMC4700/cleanflight/src/main/common\maths.h ****  *
   4:D:/XMC/Projekte/Temp/CF_XMC4700/cleanflight/src/main/common\maths.h ****  * Cleanflight and Betaflight are free software. You can redistribute
   5:D:/XMC/Projekte/Temp/CF_XMC4700/cleanflight/src/main/common\maths.h ****  * this software and/or modify this software under the terms of the
   6:D:/XMC/Projekte/Temp/CF_XMC4700/cleanflight/src/main/common\maths.h ****  * GNU General Public License as published by the Free Software
   7:D:/XMC/Projekte/Temp/CF_XMC4700/cleanflight/src/main/common\maths.h ****  * Foundation, either version 3 of the License, or (at your option)
   8:D:/XMC/Projekte/Temp/CF_XMC4700/cleanflight/src/main/common\maths.h ****  * any later version.
   9:D:/XMC/Projekte/Temp/CF_XMC4700/cleanflight/src/main/common\maths.h ****  *
  10:D:/XMC/Projekte/Temp/CF_XMC4700/cleanflight/src/main/common\maths.h ****  * Cleanflight and Betaflight are distributed in the hope that they
  11:D:/XMC/Projekte/Temp/CF_XMC4700/cleanflight/src/main/common\maths.h ****  * will be useful, but WITHOUT ANY WARRANTY; without even the implied
  12:D:/XMC/Projekte/Temp/CF_XMC4700/cleanflight/src/main/common\maths.h ****  * warranty of MERCHANTABILITY or FITNESS FOR A PARTICULAR PURPOSE.
  13:D:/XMC/Projekte/Temp/CF_XMC4700/cleanflight/src/main/common\maths.h ****  * See the GNU General Public License for more details.
  14:D:/XMC/Projekte/Temp/CF_XMC4700/cleanflight/src/main/common\maths.h ****  *
  15:D:/XMC/Projekte/Temp/CF_XMC4700/cleanflight/src/main/common\maths.h ****  * You should have received a copy of the GNU General Public License
  16:D:/XMC/Projekte/Temp/CF_XMC4700/cleanflight/src/main/common\maths.h ****  * along with this software.
  17:D:/XMC/Projekte/Temp/CF_XMC4700/cleanflight/src/main/common\maths.h ****  *
  18:D:/XMC/Projekte/Temp/CF_XMC4700/cleanflight/src/main/common\maths.h ****  * If not, see <http://www.gnu.org/licenses/>.
  19:D:/XMC/Projekte/Temp/CF_XMC4700/cleanflight/src/main/common\maths.h ****  */
  20:D:/XMC/Projekte/Temp/CF_XMC4700/cleanflight/src/main/common\maths.h **** 
  21:D:/XMC/Projekte/Temp/CF_XMC4700/cleanflight/src/main/common\maths.h **** #pragma once
  22:D:/XMC/Projekte/Temp/CF_XMC4700/cleanflight/src/main/common\maths.h **** 
  23:D:/XMC/Projekte/Temp/CF_XMC4700/cleanflight/src/main/common\maths.h **** #include <stdint.h>
  24:D:/XMC/Projekte/Temp/CF_XMC4700/cleanflight/src/main/common\maths.h **** 
  25:D:/XMC/Projekte/Temp/CF_XMC4700/cleanflight/src/main/common\maths.h **** #ifndef sq
  26:D:/XMC/Projekte/Temp/CF_XMC4700/cleanflight/src/main/common\maths.h **** #define sq(x) ((x)*(x))
  27:D:/XMC/Projekte/Temp/CF_XMC4700/cleanflight/src/main/common\maths.h **** #endif
  28:D:/XMC/Projekte/Temp/CF_XMC4700/cleanflight/src/main/common\maths.h **** #define power3(x) ((x)*(x)*(x))
  29:D:/XMC/Projekte/Temp/CF_XMC4700/cleanflight/src/main/common\maths.h **** 
  30:D:/XMC/Projekte/Temp/CF_XMC4700/cleanflight/src/main/common\maths.h **** // Undefine this for use libc sinf/cosf. Keep this defined to use fast sin/cos approximations
  31:D:/XMC/Projekte/Temp/CF_XMC4700/cleanflight/src/main/common\maths.h **** #define FAST_MATH             // order 9 approximation
  32:D:/XMC/Projekte/Temp/CF_XMC4700/cleanflight/src/main/common\maths.h **** #define VERY_FAST_MATH      // order 7 approximation
  33:D:/XMC/Projekte/Temp/CF_XMC4700/cleanflight/src/main/common\maths.h **** 
  34:D:/XMC/Projekte/Temp/CF_XMC4700/cleanflight/src/main/common\maths.h **** // Use floating point M_PI instead explicitly.
  35:D:/XMC/Projekte/Temp/CF_XMC4700/cleanflight/src/main/common\maths.h **** #define M_PIf       3.14159265358979323846f
  36:D:/XMC/Projekte/Temp/CF_XMC4700/cleanflight/src/main/common\maths.h **** 
  37:D:/XMC/Projekte/Temp/CF_XMC4700/cleanflight/src/main/common\maths.h **** #define RAD    (M_PIf / 180.0f)
  38:D:/XMC/Projekte/Temp/CF_XMC4700/cleanflight/src/main/common\maths.h **** #define DEGREES_TO_DECIDEGREES(angle) ((angle) * 10)
  39:D:/XMC/Projekte/Temp/CF_XMC4700/cleanflight/src/main/common\maths.h **** #define DECIDEGREES_TO_DEGREES(angle) ((angle) / 10)
  40:D:/XMC/Projekte/Temp/CF_XMC4700/cleanflight/src/main/common\maths.h **** #define DECIDEGREES_TO_RADIANS(angle) ((angle) / 10.0f * 0.0174532925f)
  41:D:/XMC/Projekte/Temp/CF_XMC4700/cleanflight/src/main/common\maths.h **** #define DEGREES_TO_RADIANS(angle) ((angle) * 0.0174532925f)
  42:D:/XMC/Projekte/Temp/CF_XMC4700/cleanflight/src/main/common\maths.h **** 
  43:D:/XMC/Projekte/Temp/CF_XMC4700/cleanflight/src/main/common\maths.h **** #define CM_S_TO_KM_H(centimetersPerSecond) ((centimetersPerSecond) * 36 / 1000)
  44:D:/XMC/Projekte/Temp/CF_XMC4700/cleanflight/src/main/common\maths.h **** #define CM_S_TO_MPH(centimetersPerSecond) ((centimetersPerSecond) * 10000 / 5080 / 88)
  45:D:/XMC/Projekte/Temp/CF_XMC4700/cleanflight/src/main/common\maths.h **** 
  46:D:/XMC/Projekte/Temp/CF_XMC4700/cleanflight/src/main/common\maths.h **** #define MIN(a,b) \
  47:D:/XMC/Projekte/Temp/CF_XMC4700/cleanflight/src/main/common\maths.h ****   __extension__ ({ __typeof__ (a) _a = (a); \
  48:D:/XMC/Projekte/Temp/CF_XMC4700/cleanflight/src/main/common\maths.h ****   __typeof__ (b) _b = (b); \
  49:D:/XMC/Projekte/Temp/CF_XMC4700/cleanflight/src/main/common\maths.h ****   _a < _b ? _a : _b; })
  50:D:/XMC/Projekte/Temp/CF_XMC4700/cleanflight/src/main/common\maths.h **** #define MAX(a,b) \
  51:D:/XMC/Projekte/Temp/CF_XMC4700/cleanflight/src/main/common\maths.h ****   __extension__ ({ __typeof__ (a) _a = (a); \
  52:D:/XMC/Projekte/Temp/CF_XMC4700/cleanflight/src/main/common\maths.h ****   __typeof__ (b) _b = (b); \
  53:D:/XMC/Projekte/Temp/CF_XMC4700/cleanflight/src/main/common\maths.h ****   _a > _b ? _a : _b; })
  54:D:/XMC/Projekte/Temp/CF_XMC4700/cleanflight/src/main/common\maths.h **** #define ABS(x) \
  55:D:/XMC/Projekte/Temp/CF_XMC4700/cleanflight/src/main/common\maths.h ****   __extension__ ({ __typeof__ (x) _x = (x); \
  56:D:/XMC/Projekte/Temp/CF_XMC4700/cleanflight/src/main/common\maths.h ****   _x > 0 ? _x : -_x; })
  57:D:/XMC/Projekte/Temp/CF_XMC4700/cleanflight/src/main/common\maths.h **** 
  58:D:/XMC/Projekte/Temp/CF_XMC4700/cleanflight/src/main/common\maths.h **** #define Q12 (1 << 12)
  59:D:/XMC/Projekte/Temp/CF_XMC4700/cleanflight/src/main/common\maths.h **** 
  60:D:/XMC/Projekte/Temp/CF_XMC4700/cleanflight/src/main/common\maths.h **** #define HZ_TO_INTERVAL_US(x) (1000000 / (x))
  61:D:/XMC/Projekte/Temp/CF_XMC4700/cleanflight/src/main/common\maths.h **** 
  62:D:/XMC/Projekte/Temp/CF_XMC4700/cleanflight/src/main/common\maths.h **** typedef int32_t fix12_t;
  63:D:/XMC/Projekte/Temp/CF_XMC4700/cleanflight/src/main/common\maths.h **** 
  64:D:/XMC/Projekte/Temp/CF_XMC4700/cleanflight/src/main/common\maths.h **** typedef struct stdev_s
  65:D:/XMC/Projekte/Temp/CF_XMC4700/cleanflight/src/main/common\maths.h **** {
  66:D:/XMC/Projekte/Temp/CF_XMC4700/cleanflight/src/main/common\maths.h ****     float m_oldM, m_newM, m_oldS, m_newS;
  67:D:/XMC/Projekte/Temp/CF_XMC4700/cleanflight/src/main/common\maths.h ****     int m_n;
  68:D:/XMC/Projekte/Temp/CF_XMC4700/cleanflight/src/main/common\maths.h **** } stdev_t;
  69:D:/XMC/Projekte/Temp/CF_XMC4700/cleanflight/src/main/common\maths.h **** 
  70:D:/XMC/Projekte/Temp/CF_XMC4700/cleanflight/src/main/common\maths.h **** // Floating point 3 vector.
  71:D:/XMC/Projekte/Temp/CF_XMC4700/cleanflight/src/main/common\maths.h **** typedef struct fp_vector {
  72:D:/XMC/Projekte/Temp/CF_XMC4700/cleanflight/src/main/common\maths.h ****     float X;
  73:D:/XMC/Projekte/Temp/CF_XMC4700/cleanflight/src/main/common\maths.h ****     float Y;
  74:D:/XMC/Projekte/Temp/CF_XMC4700/cleanflight/src/main/common\maths.h ****     float Z;
  75:D:/XMC/Projekte/Temp/CF_XMC4700/cleanflight/src/main/common\maths.h **** } t_fp_vector_def;
  76:D:/XMC/Projekte/Temp/CF_XMC4700/cleanflight/src/main/common\maths.h **** 
  77:D:/XMC/Projekte/Temp/CF_XMC4700/cleanflight/src/main/common\maths.h **** typedef union u_fp_vector {
  78:D:/XMC/Projekte/Temp/CF_XMC4700/cleanflight/src/main/common\maths.h ****     float A[3];
  79:D:/XMC/Projekte/Temp/CF_XMC4700/cleanflight/src/main/common\maths.h ****     t_fp_vector_def V;
  80:D:/XMC/Projekte/Temp/CF_XMC4700/cleanflight/src/main/common\maths.h **** } t_fp_vector;
  81:D:/XMC/Projekte/Temp/CF_XMC4700/cleanflight/src/main/common\maths.h **** 
  82:D:/XMC/Projekte/Temp/CF_XMC4700/cleanflight/src/main/common\maths.h **** // Floating point Euler angles.
  83:D:/XMC/Projekte/Temp/CF_XMC4700/cleanflight/src/main/common\maths.h **** // Be carefull, could be either of degrees or radians.
  84:D:/XMC/Projekte/Temp/CF_XMC4700/cleanflight/src/main/common\maths.h **** typedef struct fp_angles {
  85:D:/XMC/Projekte/Temp/CF_XMC4700/cleanflight/src/main/common\maths.h ****     float roll;
  86:D:/XMC/Projekte/Temp/CF_XMC4700/cleanflight/src/main/common\maths.h ****     float pitch;
  87:D:/XMC/Projekte/Temp/CF_XMC4700/cleanflight/src/main/common\maths.h ****     float yaw;
  88:D:/XMC/Projekte/Temp/CF_XMC4700/cleanflight/src/main/common\maths.h **** } fp_angles_def;
  89:D:/XMC/Projekte/Temp/CF_XMC4700/cleanflight/src/main/common\maths.h **** 
  90:D:/XMC/Projekte/Temp/CF_XMC4700/cleanflight/src/main/common\maths.h **** typedef union {
  91:D:/XMC/Projekte/Temp/CF_XMC4700/cleanflight/src/main/common\maths.h ****     float raw[3];
  92:D:/XMC/Projekte/Temp/CF_XMC4700/cleanflight/src/main/common\maths.h ****     fp_angles_def angles;
  93:D:/XMC/Projekte/Temp/CF_XMC4700/cleanflight/src/main/common\maths.h **** } fp_angles_t;
  94:D:/XMC/Projekte/Temp/CF_XMC4700/cleanflight/src/main/common\maths.h **** 
  95:D:/XMC/Projekte/Temp/CF_XMC4700/cleanflight/src/main/common\maths.h **** int gcd(int num, int denom);
  96:D:/XMC/Projekte/Temp/CF_XMC4700/cleanflight/src/main/common\maths.h **** float powerf(float base, int exp);
  97:D:/XMC/Projekte/Temp/CF_XMC4700/cleanflight/src/main/common\maths.h **** int32_t applyDeadband(int32_t value, int32_t deadband);
  98:D:/XMC/Projekte/Temp/CF_XMC4700/cleanflight/src/main/common\maths.h **** float fapplyDeadband(float value, float deadband);
  99:D:/XMC/Projekte/Temp/CF_XMC4700/cleanflight/src/main/common\maths.h **** 
 100:D:/XMC/Projekte/Temp/CF_XMC4700/cleanflight/src/main/common\maths.h **** void devClear(stdev_t *dev);
 101:D:/XMC/Projekte/Temp/CF_XMC4700/cleanflight/src/main/common\maths.h **** void devPush(stdev_t *dev, float x);
 102:D:/XMC/Projekte/Temp/CF_XMC4700/cleanflight/src/main/common\maths.h **** float devVariance(stdev_t *dev);
 103:D:/XMC/Projekte/Temp/CF_XMC4700/cleanflight/src/main/common\maths.h **** float devStandardDeviation(stdev_t *dev);
 104:D:/XMC/Projekte/Temp/CF_XMC4700/cleanflight/src/main/common\maths.h **** float degreesToRadians(int16_t degrees);
 105:D:/XMC/Projekte/Temp/CF_XMC4700/cleanflight/src/main/common\maths.h **** 
 106:D:/XMC/Projekte/Temp/CF_XMC4700/cleanflight/src/main/common\maths.h **** int scaleRange(int x, int srcFrom, int srcTo, int destFrom, int destTo);
 107:D:/XMC/Projekte/Temp/CF_XMC4700/cleanflight/src/main/common\maths.h **** float scaleRangef(float x, float srcFrom, float srcTo, float destFrom, float destTo);
 108:D:/XMC/Projekte/Temp/CF_XMC4700/cleanflight/src/main/common\maths.h **** 
 109:D:/XMC/Projekte/Temp/CF_XMC4700/cleanflight/src/main/common\maths.h **** void normalizeV(struct fp_vector *src, struct fp_vector *dest);
 110:D:/XMC/Projekte/Temp/CF_XMC4700/cleanflight/src/main/common\maths.h **** 
 111:D:/XMC/Projekte/Temp/CF_XMC4700/cleanflight/src/main/common\maths.h **** void rotateV(struct fp_vector *v, fp_angles_t *delta);
 112:D:/XMC/Projekte/Temp/CF_XMC4700/cleanflight/src/main/common\maths.h **** void buildRotationMatrix(fp_angles_t *delta, float matrix[3][3]);
 113:D:/XMC/Projekte/Temp/CF_XMC4700/cleanflight/src/main/common\maths.h **** 
 114:D:/XMC/Projekte/Temp/CF_XMC4700/cleanflight/src/main/common\maths.h **** int32_t quickMedianFilter3(int32_t * v);
 115:D:/XMC/Projekte/Temp/CF_XMC4700/cleanflight/src/main/common\maths.h **** int32_t quickMedianFilter5(int32_t * v);
 116:D:/XMC/Projekte/Temp/CF_XMC4700/cleanflight/src/main/common\maths.h **** int32_t quickMedianFilter7(int32_t * v);
 117:D:/XMC/Projekte/Temp/CF_XMC4700/cleanflight/src/main/common\maths.h **** int32_t quickMedianFilter9(int32_t * v);
 118:D:/XMC/Projekte/Temp/CF_XMC4700/cleanflight/src/main/common\maths.h **** 
 119:D:/XMC/Projekte/Temp/CF_XMC4700/cleanflight/src/main/common\maths.h **** float quickMedianFilter3f(float * v);
 120:D:/XMC/Projekte/Temp/CF_XMC4700/cleanflight/src/main/common\maths.h **** float quickMedianFilter5f(float * v);
 121:D:/XMC/Projekte/Temp/CF_XMC4700/cleanflight/src/main/common\maths.h **** float quickMedianFilter7f(float * v);
 122:D:/XMC/Projekte/Temp/CF_XMC4700/cleanflight/src/main/common\maths.h **** float quickMedianFilter9f(float * v);
 123:D:/XMC/Projekte/Temp/CF_XMC4700/cleanflight/src/main/common\maths.h **** 
 124:D:/XMC/Projekte/Temp/CF_XMC4700/cleanflight/src/main/common\maths.h **** #if defined(FAST_MATH) || defined(VERY_FAST_MATH)
 125:D:/XMC/Projekte/Temp/CF_XMC4700/cleanflight/src/main/common\maths.h **** float sin_approx(float x);
 126:D:/XMC/Projekte/Temp/CF_XMC4700/cleanflight/src/main/common\maths.h **** float cos_approx(float x);
 127:D:/XMC/Projekte/Temp/CF_XMC4700/cleanflight/src/main/common\maths.h **** float atan2_approx(float y, float x);
 128:D:/XMC/Projekte/Temp/CF_XMC4700/cleanflight/src/main/common\maths.h **** float acos_approx(float x);
 129:D:/XMC/Projekte/Temp/CF_XMC4700/cleanflight/src/main/common\maths.h **** #define tan_approx(x)       (sin_approx(x) / cos_approx(x))
 130:D:/XMC/Projekte/Temp/CF_XMC4700/cleanflight/src/main/common\maths.h **** float exp_approx(float val);
 131:D:/XMC/Projekte/Temp/CF_XMC4700/cleanflight/src/main/common\maths.h **** float log_approx(float val);
 132:D:/XMC/Projekte/Temp/CF_XMC4700/cleanflight/src/main/common\maths.h **** float pow_approx(float a, float b);
 133:D:/XMC/Projekte/Temp/CF_XMC4700/cleanflight/src/main/common\maths.h **** #else
 134:D:/XMC/Projekte/Temp/CF_XMC4700/cleanflight/src/main/common\maths.h **** #define sin_approx(x)   sinf(x)
 135:D:/XMC/Projekte/Temp/CF_XMC4700/cleanflight/src/main/common\maths.h **** #define cos_approx(x)   cosf(x)
 136:D:/XMC/Projekte/Temp/CF_XMC4700/cleanflight/src/main/common\maths.h **** #define atan2_approx(y,x)   atan2f(y,x)
 137:D:/XMC/Projekte/Temp/CF_XMC4700/cleanflight/src/main/common\maths.h **** #define acos_approx(x)      acosf(x)
 138:D:/XMC/Projekte/Temp/CF_XMC4700/cleanflight/src/main/common\maths.h **** #define tan_approx(x)       tanf(x)
 139:D:/XMC/Projekte/Temp/CF_XMC4700/cleanflight/src/main/common\maths.h **** #define exp_approx(x)       expf(x)
 140:D:/XMC/Projekte/Temp/CF_XMC4700/cleanflight/src/main/common\maths.h **** #define log_approx(x)       logf(x)
 141:D:/XMC/Projekte/Temp/CF_XMC4700/cleanflight/src/main/common\maths.h **** #define pow_approx(a, b)    powf(b, a)
 142:D:/XMC/Projekte/Temp/CF_XMC4700/cleanflight/src/main/common\maths.h **** #endif
 143:D:/XMC/Projekte/Temp/CF_XMC4700/cleanflight/src/main/common\maths.h **** 
 144:D:/XMC/Projekte/Temp/CF_XMC4700/cleanflight/src/main/common\maths.h **** void arraySubInt32(int32_t *dest, int32_t *array1, int32_t *array2, int count);
 145:D:/XMC/Projekte/Temp/CF_XMC4700/cleanflight/src/main/common\maths.h **** 
 146:D:/XMC/Projekte/Temp/CF_XMC4700/cleanflight/src/main/common\maths.h **** int16_t qPercent(fix12_t q);
 147:D:/XMC/Projekte/Temp/CF_XMC4700/cleanflight/src/main/common\maths.h **** int16_t qMultiply(fix12_t q, int16_t input);
 148:D:/XMC/Projekte/Temp/CF_XMC4700/cleanflight/src/main/common\maths.h **** fix12_t qConstruct(int16_t num, int16_t den);
 149:D:/XMC/Projekte/Temp/CF_XMC4700/cleanflight/src/main/common\maths.h **** 
 150:D:/XMC/Projekte/Temp/CF_XMC4700/cleanflight/src/main/common\maths.h **** static inline int constrain(int amt, int low, int high)
 151:D:/XMC/Projekte/Temp/CF_XMC4700/cleanflight/src/main/common\maths.h **** {
 104              	 .loc 2 151 0
 105              	 .cfi_startproc
 106              	 
 107              	 
 108              	 
 109 0000 80B4     	 push {r7}
 110              	.LCFI8:
 111              	 .cfi_def_cfa_offset 4
 112              	 .cfi_offset 7,-4
 113 0002 85B0     	 sub sp,sp,#20
 114              	.LCFI9:
 115              	 .cfi_def_cfa_offset 24
 116 0004 00AF     	 add r7,sp,#0
 117              	.LCFI10:
 118              	 .cfi_def_cfa_register 7
 119 0006 F860     	 str r0,[r7,#12]
 120 0008 B960     	 str r1,[r7,#8]
 121 000a 7A60     	 str r2,[r7,#4]
 152:D:/XMC/Projekte/Temp/CF_XMC4700/cleanflight/src/main/common\maths.h ****     if (amt < low)
 122              	 .loc 2 152 0
 123 000c FA68     	 ldr r2,[r7,#12]
 124 000e BB68     	 ldr r3,[r7,#8]
 125 0010 9A42     	 cmp r2,r3
 126 0012 01DA     	 bge .L10
 153:D:/XMC/Projekte/Temp/CF_XMC4700/cleanflight/src/main/common\maths.h ****         return low;
 127              	 .loc 2 153 0
 128 0014 BB68     	 ldr r3,[r7,#8]
 129 0016 06E0     	 b .L11
 130              	.L10:
 154:D:/XMC/Projekte/Temp/CF_XMC4700/cleanflight/src/main/common\maths.h ****     else if (amt > high)
 131              	 .loc 2 154 0
 132 0018 FA68     	 ldr r2,[r7,#12]
 133 001a 7B68     	 ldr r3,[r7,#4]
 134 001c 9A42     	 cmp r2,r3
 135 001e 01DD     	 ble .L12
 155:D:/XMC/Projekte/Temp/CF_XMC4700/cleanflight/src/main/common\maths.h ****         return high;
 136              	 .loc 2 155 0
 137 0020 7B68     	 ldr r3,[r7,#4]
 138 0022 00E0     	 b .L11
 139              	.L12:
 156:D:/XMC/Projekte/Temp/CF_XMC4700/cleanflight/src/main/common\maths.h ****     else
 157:D:/XMC/Projekte/Temp/CF_XMC4700/cleanflight/src/main/common\maths.h ****         return amt;
 140              	 .loc 2 157 0
 141 0024 FB68     	 ldr r3,[r7,#12]
 142              	.L11:
 158:D:/XMC/Projekte/Temp/CF_XMC4700/cleanflight/src/main/common\maths.h **** }
 143              	 .loc 2 158 0
 144 0026 1846     	 mov r0,r3
 145 0028 1437     	 adds r7,r7,#20
 146              	.LCFI11:
 147              	 .cfi_def_cfa_offset 4
 148 002a BD46     	 mov sp,r7
 149              	.LCFI12:
 150              	 .cfi_def_cfa_register 13
 151              	 
 152 002c 5DF8047B 	 ldr r7,[sp],#4
 153              	.LCFI13:
 154              	 .cfi_restore 7
 155              	 .cfi_def_cfa_offset 0
 156 0030 7047     	 bx lr
 157              	 .cfi_endproc
 158              	.LFE529:
 160 0032 00BF     	 .section .text.gyroConfig,"ax",%progbits
 161              	 .align 2
 162              	 .thumb
 163              	 .thumb_func
 165              	gyroConfig:
 166              	.LFB533:
 167              	 .file 3 "D:/XMC/Projekte/Temp/CF_XMC4700/cleanflight/src/main/sensors/gyro.h"
   1:D:/XMC/Projekte/Temp/CF_XMC4700/cleanflight/src/main/sensors\gyro.h **** /*
   2:D:/XMC/Projekte/Temp/CF_XMC4700/cleanflight/src/main/sensors\gyro.h ****  * This file is part of Cleanflight and Betaflight.
   3:D:/XMC/Projekte/Temp/CF_XMC4700/cleanflight/src/main/sensors\gyro.h ****  *
   4:D:/XMC/Projekte/Temp/CF_XMC4700/cleanflight/src/main/sensors\gyro.h ****  * Cleanflight and Betaflight are free software. You can redistribute
   5:D:/XMC/Projekte/Temp/CF_XMC4700/cleanflight/src/main/sensors\gyro.h ****  * this software and/or modify this software under the terms of the
   6:D:/XMC/Projekte/Temp/CF_XMC4700/cleanflight/src/main/sensors\gyro.h ****  * GNU General Public License as published by the Free Software
   7:D:/XMC/Projekte/Temp/CF_XMC4700/cleanflight/src/main/sensors\gyro.h ****  * Foundation, either version 3 of the License, or (at your option)
   8:D:/XMC/Projekte/Temp/CF_XMC4700/cleanflight/src/main/sensors\gyro.h ****  * any later version.
   9:D:/XMC/Projekte/Temp/CF_XMC4700/cleanflight/src/main/sensors\gyro.h ****  *
  10:D:/XMC/Projekte/Temp/CF_XMC4700/cleanflight/src/main/sensors\gyro.h ****  * Cleanflight and Betaflight are distributed in the hope that they
  11:D:/XMC/Projekte/Temp/CF_XMC4700/cleanflight/src/main/sensors\gyro.h ****  * will be useful, but WITHOUT ANY WARRANTY; without even the implied
  12:D:/XMC/Projekte/Temp/CF_XMC4700/cleanflight/src/main/sensors\gyro.h ****  * warranty of MERCHANTABILITY or FITNESS FOR A PARTICULAR PURPOSE.
  13:D:/XMC/Projekte/Temp/CF_XMC4700/cleanflight/src/main/sensors\gyro.h ****  * See the GNU General Public License for more details.
  14:D:/XMC/Projekte/Temp/CF_XMC4700/cleanflight/src/main/sensors\gyro.h ****  *
  15:D:/XMC/Projekte/Temp/CF_XMC4700/cleanflight/src/main/sensors\gyro.h ****  * You should have received a copy of the GNU General Public License
  16:D:/XMC/Projekte/Temp/CF_XMC4700/cleanflight/src/main/sensors\gyro.h ****  * along with this software.
  17:D:/XMC/Projekte/Temp/CF_XMC4700/cleanflight/src/main/sensors\gyro.h ****  *
  18:D:/XMC/Projekte/Temp/CF_XMC4700/cleanflight/src/main/sensors\gyro.h ****  * If not, see <http://www.gnu.org/licenses/>.
  19:D:/XMC/Projekte/Temp/CF_XMC4700/cleanflight/src/main/sensors\gyro.h ****  */
  20:D:/XMC/Projekte/Temp/CF_XMC4700/cleanflight/src/main/sensors\gyro.h **** 
  21:D:/XMC/Projekte/Temp/CF_XMC4700/cleanflight/src/main/sensors\gyro.h **** #pragma once
  22:D:/XMC/Projekte/Temp/CF_XMC4700/cleanflight/src/main/sensors\gyro.h **** 
  23:D:/XMC/Projekte/Temp/CF_XMC4700/cleanflight/src/main/sensors\gyro.h **** #include "common/axis.h"
  24:D:/XMC/Projekte/Temp/CF_XMC4700/cleanflight/src/main/sensors\gyro.h **** #include "common/time.h"
  25:D:/XMC/Projekte/Temp/CF_XMC4700/cleanflight/src/main/sensors\gyro.h **** #include "pg/pg.h"
  26:D:/XMC/Projekte/Temp/CF_XMC4700/cleanflight/src/main/sensors\gyro.h **** #include "drivers/bus.h"
  27:D:/XMC/Projekte/Temp/CF_XMC4700/cleanflight/src/main/sensors\gyro.h **** #include "drivers/sensor.h"
  28:D:/XMC/Projekte/Temp/CF_XMC4700/cleanflight/src/main/sensors\gyro.h **** 
  29:D:/XMC/Projekte/Temp/CF_XMC4700/cleanflight/src/main/sensors\gyro.h **** typedef enum {
  30:D:/XMC/Projekte/Temp/CF_XMC4700/cleanflight/src/main/sensors\gyro.h ****     GYRO_NONE = 0,
  31:D:/XMC/Projekte/Temp/CF_XMC4700/cleanflight/src/main/sensors\gyro.h ****     GYRO_DEFAULT,
  32:D:/XMC/Projekte/Temp/CF_XMC4700/cleanflight/src/main/sensors\gyro.h ****     GYRO_MPU6050,
  33:D:/XMC/Projekte/Temp/CF_XMC4700/cleanflight/src/main/sensors\gyro.h ****     GYRO_L3G4200D,
  34:D:/XMC/Projekte/Temp/CF_XMC4700/cleanflight/src/main/sensors\gyro.h ****     GYRO_MPU3050,
  35:D:/XMC/Projekte/Temp/CF_XMC4700/cleanflight/src/main/sensors\gyro.h ****     GYRO_L3GD20,
  36:D:/XMC/Projekte/Temp/CF_XMC4700/cleanflight/src/main/sensors\gyro.h ****     GYRO_MPU6000,
  37:D:/XMC/Projekte/Temp/CF_XMC4700/cleanflight/src/main/sensors\gyro.h ****     GYRO_MPU6500,
  38:D:/XMC/Projekte/Temp/CF_XMC4700/cleanflight/src/main/sensors\gyro.h ****     GYRO_MPU9250,
  39:D:/XMC/Projekte/Temp/CF_XMC4700/cleanflight/src/main/sensors\gyro.h ****     GYRO_ICM20601,
  40:D:/XMC/Projekte/Temp/CF_XMC4700/cleanflight/src/main/sensors\gyro.h ****     GYRO_ICM20602,
  41:D:/XMC/Projekte/Temp/CF_XMC4700/cleanflight/src/main/sensors\gyro.h ****     GYRO_ICM20608G,
  42:D:/XMC/Projekte/Temp/CF_XMC4700/cleanflight/src/main/sensors\gyro.h ****     GYRO_ICM20649,
  43:D:/XMC/Projekte/Temp/CF_XMC4700/cleanflight/src/main/sensors\gyro.h ****     GYRO_ICM20689,
  44:D:/XMC/Projekte/Temp/CF_XMC4700/cleanflight/src/main/sensors\gyro.h ****     GYRO_BMI160,
  45:D:/XMC/Projekte/Temp/CF_XMC4700/cleanflight/src/main/sensors\gyro.h ****     GYRO_FAKE
  46:D:/XMC/Projekte/Temp/CF_XMC4700/cleanflight/src/main/sensors\gyro.h **** } gyroSensor_e;
  47:D:/XMC/Projekte/Temp/CF_XMC4700/cleanflight/src/main/sensors\gyro.h **** 
  48:D:/XMC/Projekte/Temp/CF_XMC4700/cleanflight/src/main/sensors\gyro.h **** typedef struct gyro_s {
  49:D:/XMC/Projekte/Temp/CF_XMC4700/cleanflight/src/main/sensors\gyro.h ****     uint32_t targetLooptime;
  50:D:/XMC/Projekte/Temp/CF_XMC4700/cleanflight/src/main/sensors\gyro.h ****     float gyroADCf[XYZ_AXIS_COUNT];
  51:D:/XMC/Projekte/Temp/CF_XMC4700/cleanflight/src/main/sensors\gyro.h **** } gyro_t;
  52:D:/XMC/Projekte/Temp/CF_XMC4700/cleanflight/src/main/sensors\gyro.h **** 
  53:D:/XMC/Projekte/Temp/CF_XMC4700/cleanflight/src/main/sensors\gyro.h **** extern gyro_t gyro;
  54:D:/XMC/Projekte/Temp/CF_XMC4700/cleanflight/src/main/sensors\gyro.h **** 
  55:D:/XMC/Projekte/Temp/CF_XMC4700/cleanflight/src/main/sensors\gyro.h **** typedef enum {
  56:D:/XMC/Projekte/Temp/CF_XMC4700/cleanflight/src/main/sensors\gyro.h ****     GYRO_OVERFLOW_CHECK_NONE = 0,
  57:D:/XMC/Projekte/Temp/CF_XMC4700/cleanflight/src/main/sensors\gyro.h ****     GYRO_OVERFLOW_CHECK_YAW,
  58:D:/XMC/Projekte/Temp/CF_XMC4700/cleanflight/src/main/sensors\gyro.h ****     GYRO_OVERFLOW_CHECK_ALL_AXES
  59:D:/XMC/Projekte/Temp/CF_XMC4700/cleanflight/src/main/sensors\gyro.h **** } gyroOverflowCheck_e;
  60:D:/XMC/Projekte/Temp/CF_XMC4700/cleanflight/src/main/sensors\gyro.h **** 
  61:D:/XMC/Projekte/Temp/CF_XMC4700/cleanflight/src/main/sensors\gyro.h **** #define GYRO_CONFIG_USE_GYRO_1      0
  62:D:/XMC/Projekte/Temp/CF_XMC4700/cleanflight/src/main/sensors\gyro.h **** #define GYRO_CONFIG_USE_GYRO_2      1
  63:D:/XMC/Projekte/Temp/CF_XMC4700/cleanflight/src/main/sensors\gyro.h **** #define GYRO_CONFIG_USE_GYRO_BOTH   2
  64:D:/XMC/Projekte/Temp/CF_XMC4700/cleanflight/src/main/sensors\gyro.h **** 
  65:D:/XMC/Projekte/Temp/CF_XMC4700/cleanflight/src/main/sensors\gyro.h **** typedef enum {
  66:D:/XMC/Projekte/Temp/CF_XMC4700/cleanflight/src/main/sensors\gyro.h ****     FILTER_LOWPASS = 0,
  67:D:/XMC/Projekte/Temp/CF_XMC4700/cleanflight/src/main/sensors\gyro.h ****     FILTER_LOWPASS2
  68:D:/XMC/Projekte/Temp/CF_XMC4700/cleanflight/src/main/sensors\gyro.h **** } filterSlots;
  69:D:/XMC/Projekte/Temp/CF_XMC4700/cleanflight/src/main/sensors\gyro.h **** 
  70:D:/XMC/Projekte/Temp/CF_XMC4700/cleanflight/src/main/sensors\gyro.h **** typedef struct gyroConfig_s {
  71:D:/XMC/Projekte/Temp/CF_XMC4700/cleanflight/src/main/sensors\gyro.h ****     uint8_t  gyro_align;                       // gyro alignment
  72:D:/XMC/Projekte/Temp/CF_XMC4700/cleanflight/src/main/sensors\gyro.h ****     uint8_t  gyroMovementCalibrationThreshold; // people keep forgetting that moving model while in
  73:D:/XMC/Projekte/Temp/CF_XMC4700/cleanflight/src/main/sensors\gyro.h ****     uint8_t  gyro_sync_denom;                  // Gyro sample divider
  74:D:/XMC/Projekte/Temp/CF_XMC4700/cleanflight/src/main/sensors\gyro.h ****     uint8_t  gyro_hardware_lpf;                // gyro DLPF setting
  75:D:/XMC/Projekte/Temp/CF_XMC4700/cleanflight/src/main/sensors\gyro.h ****     uint8_t  gyro_32khz_hardware_lpf;          // gyro 32khz DLPF setting
  76:D:/XMC/Projekte/Temp/CF_XMC4700/cleanflight/src/main/sensors\gyro.h **** 
  77:D:/XMC/Projekte/Temp/CF_XMC4700/cleanflight/src/main/sensors\gyro.h ****     uint8_t  gyro_high_fsr;
  78:D:/XMC/Projekte/Temp/CF_XMC4700/cleanflight/src/main/sensors\gyro.h ****     uint8_t  gyro_use_32khz;
  79:D:/XMC/Projekte/Temp/CF_XMC4700/cleanflight/src/main/sensors\gyro.h ****     uint8_t  gyro_to_use;
  80:D:/XMC/Projekte/Temp/CF_XMC4700/cleanflight/src/main/sensors\gyro.h **** 
  81:D:/XMC/Projekte/Temp/CF_XMC4700/cleanflight/src/main/sensors\gyro.h ****     uint16_t gyro_lowpass_hz;
  82:D:/XMC/Projekte/Temp/CF_XMC4700/cleanflight/src/main/sensors\gyro.h ****     uint16_t gyro_lowpass2_hz;
  83:D:/XMC/Projekte/Temp/CF_XMC4700/cleanflight/src/main/sensors\gyro.h **** 
  84:D:/XMC/Projekte/Temp/CF_XMC4700/cleanflight/src/main/sensors\gyro.h ****     uint16_t gyro_soft_notch_hz_1;
  85:D:/XMC/Projekte/Temp/CF_XMC4700/cleanflight/src/main/sensors\gyro.h ****     uint16_t gyro_soft_notch_cutoff_1;
  86:D:/XMC/Projekte/Temp/CF_XMC4700/cleanflight/src/main/sensors\gyro.h ****     uint16_t gyro_soft_notch_hz_2;
  87:D:/XMC/Projekte/Temp/CF_XMC4700/cleanflight/src/main/sensors\gyro.h ****     uint16_t gyro_soft_notch_cutoff_2;
  88:D:/XMC/Projekte/Temp/CF_XMC4700/cleanflight/src/main/sensors\gyro.h ****     int16_t  gyro_offset_yaw;
  89:D:/XMC/Projekte/Temp/CF_XMC4700/cleanflight/src/main/sensors\gyro.h ****     uint8_t  checkOverflow;
  90:D:/XMC/Projekte/Temp/CF_XMC4700/cleanflight/src/main/sensors\gyro.h **** 
  91:D:/XMC/Projekte/Temp/CF_XMC4700/cleanflight/src/main/sensors\gyro.h ****     // Lowpass primary/secondary
  92:D:/XMC/Projekte/Temp/CF_XMC4700/cleanflight/src/main/sensors\gyro.h ****     uint8_t  gyro_lowpass_type;
  93:D:/XMC/Projekte/Temp/CF_XMC4700/cleanflight/src/main/sensors\gyro.h ****     uint8_t  gyro_lowpass2_type;
  94:D:/XMC/Projekte/Temp/CF_XMC4700/cleanflight/src/main/sensors\gyro.h **** 
  95:D:/XMC/Projekte/Temp/CF_XMC4700/cleanflight/src/main/sensors\gyro.h ****     uint8_t  yaw_spin_recovery;
  96:D:/XMC/Projekte/Temp/CF_XMC4700/cleanflight/src/main/sensors\gyro.h ****     int16_t  yaw_spin_threshold;
  97:D:/XMC/Projekte/Temp/CF_XMC4700/cleanflight/src/main/sensors\gyro.h **** 
  98:D:/XMC/Projekte/Temp/CF_XMC4700/cleanflight/src/main/sensors\gyro.h ****     uint16_t gyroCalibrationDuration;  // Gyro calibration duration in 1/100 second
  99:D:/XMC/Projekte/Temp/CF_XMC4700/cleanflight/src/main/sensors\gyro.h ****     uint8_t dyn_notch_quality; // bandpass quality factor, 100 for steep sided bandpass
 100:D:/XMC/Projekte/Temp/CF_XMC4700/cleanflight/src/main/sensors\gyro.h ****     uint8_t dyn_notch_width_percent;
 101:D:/XMC/Projekte/Temp/CF_XMC4700/cleanflight/src/main/sensors\gyro.h **** } gyroConfig_t;
 102:D:/XMC/Projekte/Temp/CF_XMC4700/cleanflight/src/main/sensors\gyro.h **** 
 103:D:/XMC/Projekte/Temp/CF_XMC4700/cleanflight/src/main/sensors\gyro.h **** PG_DECLARE(gyroConfig_t, gyroConfig);
 168              	 .loc 3 103 0
 169              	 .cfi_startproc
 170              	 
 171              	 
 172              	 
 173 0000 80B4     	 push {r7}
 174              	.LCFI14:
 175              	 .cfi_def_cfa_offset 4
 176              	 .cfi_offset 7,-4
 177 0002 00AF     	 add r7,sp,#0
 178              	.LCFI15:
 179              	 .cfi_def_cfa_register 7
 180              	 .loc 3 103 0
 181 0004 024B     	 ldr r3,.L15
 182 0006 1846     	 mov r0,r3
 183 0008 BD46     	 mov sp,r7
 184              	.LCFI16:
 185              	 .cfi_def_cfa_register 13
 186              	 
 187 000a 5DF8047B 	 ldr r7,[sp],#4
 188              	.LCFI17:
 189              	 .cfi_restore 7
 190              	 .cfi_def_cfa_offset 0
 191 000e 7047     	 bx lr
 192              	.L16:
 193              	 .align 2
 194              	.L15:
 195 0010 00000000 	 .word gyroConfig_System
 196              	 .cfi_endproc
 197              	.LFE533:
 199              	 .section .text.gyroConfigMutable,"ax",%progbits
 200              	 .align 2
 201              	 .thumb
 202              	 .thumb_func
 204              	gyroConfigMutable:
 205              	.LFB534:
 206              	 .loc 3 103 0
 207              	 .cfi_startproc
 208              	 
 209              	 
 210              	 
 211 0000 80B4     	 push {r7}
 212              	.LCFI18:
 213              	 .cfi_def_cfa_offset 4
 214              	 .cfi_offset 7,-4
 215 0002 00AF     	 add r7,sp,#0
 216              	.LCFI19:
 217              	 .cfi_def_cfa_register 7
 218              	 .loc 3 103 0
 219 0004 024B     	 ldr r3,.L19
 220 0006 1846     	 mov r0,r3
 221 0008 BD46     	 mov sp,r7
 222              	.LCFI20:
 223              	 .cfi_def_cfa_register 13
 224              	 
 225 000a 5DF8047B 	 ldr r7,[sp],#4
 226              	.LCFI21:
 227              	 .cfi_restore 7
 228              	 .cfi_def_cfa_offset 0
 229 000e 7047     	 bx lr
 230              	.L20:
 231              	 .align 2
 232              	.L19:
 233 0010 00000000 	 .word gyroConfig_System
 234              	 .cfi_endproc
 235              	.LFE534:
 237              	 .section .text.pilotConfig,"ax",%progbits
 238              	 .align 2
 239              	 .thumb
 240              	 .thumb_func
 242              	pilotConfig:
 243              	.LFB549:
 244              	 .file 4 "D:/XMC/Projekte/Temp/CF_XMC4700/cleanflight/src/main/fc/config.h"
   1:D:/XMC/Projekte/Temp/CF_XMC4700/cleanflight/src/main/fc\config.h **** /*
   2:D:/XMC/Projekte/Temp/CF_XMC4700/cleanflight/src/main/fc\config.h ****  * This file is part of Cleanflight and Betaflight.
   3:D:/XMC/Projekte/Temp/CF_XMC4700/cleanflight/src/main/fc\config.h ****  *
   4:D:/XMC/Projekte/Temp/CF_XMC4700/cleanflight/src/main/fc\config.h ****  * Cleanflight and Betaflight are free software. You can redistribute
   5:D:/XMC/Projekte/Temp/CF_XMC4700/cleanflight/src/main/fc\config.h ****  * this software and/or modify this software under the terms of the
   6:D:/XMC/Projekte/Temp/CF_XMC4700/cleanflight/src/main/fc\config.h ****  * GNU General Public License as published by the Free Software
   7:D:/XMC/Projekte/Temp/CF_XMC4700/cleanflight/src/main/fc\config.h ****  * Foundation, either version 3 of the License, or (at your option)
   8:D:/XMC/Projekte/Temp/CF_XMC4700/cleanflight/src/main/fc\config.h ****  * any later version.
   9:D:/XMC/Projekte/Temp/CF_XMC4700/cleanflight/src/main/fc\config.h ****  *
  10:D:/XMC/Projekte/Temp/CF_XMC4700/cleanflight/src/main/fc\config.h ****  * Cleanflight and Betaflight are distributed in the hope that they
  11:D:/XMC/Projekte/Temp/CF_XMC4700/cleanflight/src/main/fc\config.h ****  * will be useful, but WITHOUT ANY WARRANTY; without even the implied
  12:D:/XMC/Projekte/Temp/CF_XMC4700/cleanflight/src/main/fc\config.h ****  * warranty of MERCHANTABILITY or FITNESS FOR A PARTICULAR PURPOSE.
  13:D:/XMC/Projekte/Temp/CF_XMC4700/cleanflight/src/main/fc\config.h ****  * See the GNU General Public License for more details.
  14:D:/XMC/Projekte/Temp/CF_XMC4700/cleanflight/src/main/fc\config.h ****  *
  15:D:/XMC/Projekte/Temp/CF_XMC4700/cleanflight/src/main/fc\config.h ****  * You should have received a copy of the GNU General Public License
  16:D:/XMC/Projekte/Temp/CF_XMC4700/cleanflight/src/main/fc\config.h ****  * along with this software.
  17:D:/XMC/Projekte/Temp/CF_XMC4700/cleanflight/src/main/fc\config.h ****  *
  18:D:/XMC/Projekte/Temp/CF_XMC4700/cleanflight/src/main/fc\config.h ****  * If not, see <http://www.gnu.org/licenses/>.
  19:D:/XMC/Projekte/Temp/CF_XMC4700/cleanflight/src/main/fc\config.h ****  */
  20:D:/XMC/Projekte/Temp/CF_XMC4700/cleanflight/src/main/fc\config.h **** 
  21:D:/XMC/Projekte/Temp/CF_XMC4700/cleanflight/src/main/fc\config.h **** #pragma once
  22:D:/XMC/Projekte/Temp/CF_XMC4700/cleanflight/src/main/fc\config.h **** 
  23:D:/XMC/Projekte/Temp/CF_XMC4700/cleanflight/src/main/fc\config.h **** #include <stdint.h>
  24:D:/XMC/Projekte/Temp/CF_XMC4700/cleanflight/src/main/fc\config.h **** #include <stdbool.h>
  25:D:/XMC/Projekte/Temp/CF_XMC4700/cleanflight/src/main/fc\config.h **** 
  26:D:/XMC/Projekte/Temp/CF_XMC4700/cleanflight/src/main/fc\config.h **** #include "pg/pg.h"
  27:D:/XMC/Projekte/Temp/CF_XMC4700/cleanflight/src/main/fc\config.h **** 
  28:D:/XMC/Projekte/Temp/CF_XMC4700/cleanflight/src/main/fc\config.h **** #define MAX_NAME_LENGTH 16u
  29:D:/XMC/Projekte/Temp/CF_XMC4700/cleanflight/src/main/fc\config.h **** 
  30:D:/XMC/Projekte/Temp/CF_XMC4700/cleanflight/src/main/fc\config.h **** typedef struct pilotConfig_s {
  31:D:/XMC/Projekte/Temp/CF_XMC4700/cleanflight/src/main/fc\config.h ****     char name[MAX_NAME_LENGTH + 1];
  32:D:/XMC/Projekte/Temp/CF_XMC4700/cleanflight/src/main/fc\config.h **** } pilotConfig_t;
  33:D:/XMC/Projekte/Temp/CF_XMC4700/cleanflight/src/main/fc\config.h **** 
  34:D:/XMC/Projekte/Temp/CF_XMC4700/cleanflight/src/main/fc\config.h **** PG_DECLARE(pilotConfig_t, pilotConfig);
 245              	 .loc 4 34 0
 246              	 .cfi_startproc
 247              	 
 248              	 
 249              	 
 250 0000 80B4     	 push {r7}
 251              	.LCFI22:
 252              	 .cfi_def_cfa_offset 4
 253              	 .cfi_offset 7,-4
 254 0002 00AF     	 add r7,sp,#0
 255              	.LCFI23:
 256              	 .cfi_def_cfa_register 7
 257              	 .loc 4 34 0
 258 0004 024B     	 ldr r3,.L23
 259 0006 1846     	 mov r0,r3
 260 0008 BD46     	 mov sp,r7
 261              	.LCFI24:
 262              	 .cfi_def_cfa_register 13
 263              	 
 264 000a 5DF8047B 	 ldr r7,[sp],#4
 265              	.LCFI25:
 266              	 .cfi_restore 7
 267              	 .cfi_def_cfa_offset 0
 268 000e 7047     	 bx lr
 269              	.L24:
 270              	 .align 2
 271              	.L23:
 272 0010 00000000 	 .word pilotConfig_System
 273              	 .cfi_endproc
 274              	.LFE549:
 276              	 .section .text.pilotConfigMutable,"ax",%progbits
 277              	 .align 2
 278              	 .thumb
 279              	 .thumb_func
 281              	pilotConfigMutable:
 282              	.LFB550:
 283              	 .loc 4 34 0
 284              	 .cfi_startproc
 285              	 
 286              	 
 287              	 
 288 0000 80B4     	 push {r7}
 289              	.LCFI26:
 290              	 .cfi_def_cfa_offset 4
 291              	 .cfi_offset 7,-4
 292 0002 00AF     	 add r7,sp,#0
 293              	.LCFI27:
 294              	 .cfi_def_cfa_register 7
 295              	 .loc 4 34 0
 296 0004 024B     	 ldr r3,.L27
 297 0006 1846     	 mov r0,r3
 298 0008 BD46     	 mov sp,r7
 299              	.LCFI28:
 300              	 .cfi_def_cfa_register 13
 301              	 
 302 000a 5DF8047B 	 ldr r7,[sp],#4
 303              	.LCFI29:
 304              	 .cfi_restore 7
 305              	 .cfi_def_cfa_offset 0
 306 000e 7047     	 bx lr
 307              	.L28:
 308              	 .align 2
 309              	.L27:
 310 0010 00000000 	 .word pilotConfig_System
 311              	 .cfi_endproc
 312              	.LFE550:
 314              	 .section .text.systemConfig,"ax",%progbits
 315              	 .align 2
 316              	 .thumb
 317              	 .thumb_func
 319              	systemConfig:
 320              	.LFB551:
  35:D:/XMC/Projekte/Temp/CF_XMC4700/cleanflight/src/main/fc\config.h **** 
  36:D:/XMC/Projekte/Temp/CF_XMC4700/cleanflight/src/main/fc\config.h **** typedef struct systemConfig_s {
  37:D:/XMC/Projekte/Temp/CF_XMC4700/cleanflight/src/main/fc\config.h ****     uint8_t pidProfileIndex;
  38:D:/XMC/Projekte/Temp/CF_XMC4700/cleanflight/src/main/fc\config.h ****     uint8_t activeRateProfile;
  39:D:/XMC/Projekte/Temp/CF_XMC4700/cleanflight/src/main/fc\config.h ****     uint8_t debug_mode;
  40:D:/XMC/Projekte/Temp/CF_XMC4700/cleanflight/src/main/fc\config.h ****     uint8_t task_statistics;
  41:D:/XMC/Projekte/Temp/CF_XMC4700/cleanflight/src/main/fc\config.h ****     uint8_t rateProfile6PosSwitch;
  42:D:/XMC/Projekte/Temp/CF_XMC4700/cleanflight/src/main/fc\config.h ****     uint8_t cpu_overclock;
  43:D:/XMC/Projekte/Temp/CF_XMC4700/cleanflight/src/main/fc\config.h ****     uint8_t powerOnArmingGraceTime; // in seconds
  44:D:/XMC/Projekte/Temp/CF_XMC4700/cleanflight/src/main/fc\config.h ****     char boardIdentifier[sizeof(TARGET_BOARD_IDENTIFIER) + 1];
  45:D:/XMC/Projekte/Temp/CF_XMC4700/cleanflight/src/main/fc\config.h **** } systemConfig_t;
  46:D:/XMC/Projekte/Temp/CF_XMC4700/cleanflight/src/main/fc\config.h **** 
  47:D:/XMC/Projekte/Temp/CF_XMC4700/cleanflight/src/main/fc\config.h **** PG_DECLARE(systemConfig_t, systemConfig);
 321              	 .loc 4 47 0
 322              	 .cfi_startproc
 323              	 
 324              	 
 325              	 
 326 0000 80B4     	 push {r7}
 327              	.LCFI30:
 328              	 .cfi_def_cfa_offset 4
 329              	 .cfi_offset 7,-4
 330 0002 00AF     	 add r7,sp,#0
 331              	.LCFI31:
 332              	 .cfi_def_cfa_register 7
 333              	 .loc 4 47 0
 334 0004 024B     	 ldr r3,.L31
 335 0006 1846     	 mov r0,r3
 336 0008 BD46     	 mov sp,r7
 337              	.LCFI32:
 338              	 .cfi_def_cfa_register 13
 339              	 
 340 000a 5DF8047B 	 ldr r7,[sp],#4
 341              	.LCFI33:
 342              	 .cfi_restore 7
 343              	 .cfi_def_cfa_offset 0
 344 000e 7047     	 bx lr
 345              	.L32:
 346              	 .align 2
 347              	.L31:
 348 0010 00000000 	 .word systemConfig_System
 349              	 .cfi_endproc
 350              	.LFE551:
 352              	 .section .text.modeActivationConditions,"ax",%progbits
 353              	 .align 2
 354              	 .thumb
 355              	 .thumb_func
 357              	modeActivationConditions:
 358              	.LFB558:
 359              	 .file 5 "D:/XMC/Projekte/Temp/CF_XMC4700/cleanflight/src/main/fc/rc_modes.h"
   1:D:/XMC/Projekte/Temp/CF_XMC4700/cleanflight/src/main/fc\rc_modes.h **** /*
   2:D:/XMC/Projekte/Temp/CF_XMC4700/cleanflight/src/main/fc\rc_modes.h ****  * This file is part of Cleanflight and Betaflight.
   3:D:/XMC/Projekte/Temp/CF_XMC4700/cleanflight/src/main/fc\rc_modes.h ****  *
   4:D:/XMC/Projekte/Temp/CF_XMC4700/cleanflight/src/main/fc\rc_modes.h ****  * Cleanflight and Betaflight are free software. You can redistribute
   5:D:/XMC/Projekte/Temp/CF_XMC4700/cleanflight/src/main/fc\rc_modes.h ****  * this software and/or modify this software under the terms of the
   6:D:/XMC/Projekte/Temp/CF_XMC4700/cleanflight/src/main/fc\rc_modes.h ****  * GNU General Public License as published by the Free Software
   7:D:/XMC/Projekte/Temp/CF_XMC4700/cleanflight/src/main/fc\rc_modes.h ****  * Foundation, either version 3 of the License, or (at your option)
   8:D:/XMC/Projekte/Temp/CF_XMC4700/cleanflight/src/main/fc\rc_modes.h ****  * any later version.
   9:D:/XMC/Projekte/Temp/CF_XMC4700/cleanflight/src/main/fc\rc_modes.h ****  *
  10:D:/XMC/Projekte/Temp/CF_XMC4700/cleanflight/src/main/fc\rc_modes.h ****  * Cleanflight and Betaflight are distributed in the hope that they
  11:D:/XMC/Projekte/Temp/CF_XMC4700/cleanflight/src/main/fc\rc_modes.h ****  * will be useful, but WITHOUT ANY WARRANTY; without even the implied
  12:D:/XMC/Projekte/Temp/CF_XMC4700/cleanflight/src/main/fc\rc_modes.h ****  * warranty of MERCHANTABILITY or FITNESS FOR A PARTICULAR PURPOSE.
  13:D:/XMC/Projekte/Temp/CF_XMC4700/cleanflight/src/main/fc\rc_modes.h ****  * See the GNU General Public License for more details.
  14:D:/XMC/Projekte/Temp/CF_XMC4700/cleanflight/src/main/fc\rc_modes.h ****  *
  15:D:/XMC/Projekte/Temp/CF_XMC4700/cleanflight/src/main/fc\rc_modes.h ****  * You should have received a copy of the GNU General Public License
  16:D:/XMC/Projekte/Temp/CF_XMC4700/cleanflight/src/main/fc\rc_modes.h ****  * along with this software.
  17:D:/XMC/Projekte/Temp/CF_XMC4700/cleanflight/src/main/fc\rc_modes.h ****  *
  18:D:/XMC/Projekte/Temp/CF_XMC4700/cleanflight/src/main/fc\rc_modes.h ****  * If not, see <http://www.gnu.org/licenses/>.
  19:D:/XMC/Projekte/Temp/CF_XMC4700/cleanflight/src/main/fc\rc_modes.h ****  */
  20:D:/XMC/Projekte/Temp/CF_XMC4700/cleanflight/src/main/fc\rc_modes.h **** 
  21:D:/XMC/Projekte/Temp/CF_XMC4700/cleanflight/src/main/fc\rc_modes.h **** #pragma once
  22:D:/XMC/Projekte/Temp/CF_XMC4700/cleanflight/src/main/fc\rc_modes.h **** 
  23:D:/XMC/Projekte/Temp/CF_XMC4700/cleanflight/src/main/fc\rc_modes.h **** #include <stdbool.h>
  24:D:/XMC/Projekte/Temp/CF_XMC4700/cleanflight/src/main/fc\rc_modes.h **** 
  25:D:/XMC/Projekte/Temp/CF_XMC4700/cleanflight/src/main/fc\rc_modes.h **** #include "pg/pg.h"
  26:D:/XMC/Projekte/Temp/CF_XMC4700/cleanflight/src/main/fc\rc_modes.h **** 
  27:D:/XMC/Projekte/Temp/CF_XMC4700/cleanflight/src/main/fc\rc_modes.h **** #define BOXID_NONE 255
  28:D:/XMC/Projekte/Temp/CF_XMC4700/cleanflight/src/main/fc\rc_modes.h **** 
  29:D:/XMC/Projekte/Temp/CF_XMC4700/cleanflight/src/main/fc\rc_modes.h **** typedef enum {
  30:D:/XMC/Projekte/Temp/CF_XMC4700/cleanflight/src/main/fc\rc_modes.h ****     // ARM flag
  31:D:/XMC/Projekte/Temp/CF_XMC4700/cleanflight/src/main/fc\rc_modes.h ****     BOXARM = 0,
  32:D:/XMC/Projekte/Temp/CF_XMC4700/cleanflight/src/main/fc\rc_modes.h ****     // FLIGHT_MODE
  33:D:/XMC/Projekte/Temp/CF_XMC4700/cleanflight/src/main/fc\rc_modes.h ****     BOXANGLE,
  34:D:/XMC/Projekte/Temp/CF_XMC4700/cleanflight/src/main/fc\rc_modes.h ****     BOXHORIZON,
  35:D:/XMC/Projekte/Temp/CF_XMC4700/cleanflight/src/main/fc\rc_modes.h ****     BOXMAG,
  36:D:/XMC/Projekte/Temp/CF_XMC4700/cleanflight/src/main/fc\rc_modes.h ****     BOXBARO,
  37:D:/XMC/Projekte/Temp/CF_XMC4700/cleanflight/src/main/fc\rc_modes.h ****     BOXGPSHOME,
  38:D:/XMC/Projekte/Temp/CF_XMC4700/cleanflight/src/main/fc\rc_modes.h ****     BOXGPSHOLD,
  39:D:/XMC/Projekte/Temp/CF_XMC4700/cleanflight/src/main/fc\rc_modes.h ****     BOXHEADFREE,
  40:D:/XMC/Projekte/Temp/CF_XMC4700/cleanflight/src/main/fc\rc_modes.h ****     BOXPASSTHRU,
  41:D:/XMC/Projekte/Temp/CF_XMC4700/cleanflight/src/main/fc\rc_modes.h ****     BOXFAILSAFE,
  42:D:/XMC/Projekte/Temp/CF_XMC4700/cleanflight/src/main/fc\rc_modes.h ****     BOXGPSRESCUE,
  43:D:/XMC/Projekte/Temp/CF_XMC4700/cleanflight/src/main/fc\rc_modes.h ****     BOXID_FLIGHTMODE_LAST = BOXGPSRESCUE,
  44:D:/XMC/Projekte/Temp/CF_XMC4700/cleanflight/src/main/fc\rc_modes.h **** 
  45:D:/XMC/Projekte/Temp/CF_XMC4700/cleanflight/src/main/fc\rc_modes.h **** // When new flight modes are added, the parameter group version for 'modeActivationConditions' in s
  46:D:/XMC/Projekte/Temp/CF_XMC4700/cleanflight/src/main/fc\rc_modes.h **** 
  47:D:/XMC/Projekte/Temp/CF_XMC4700/cleanflight/src/main/fc\rc_modes.h ****     // RCMODE flags
  48:D:/XMC/Projekte/Temp/CF_XMC4700/cleanflight/src/main/fc\rc_modes.h ****     BOXANTIGRAVITY,
  49:D:/XMC/Projekte/Temp/CF_XMC4700/cleanflight/src/main/fc\rc_modes.h ****     BOXHEADADJ,
  50:D:/XMC/Projekte/Temp/CF_XMC4700/cleanflight/src/main/fc\rc_modes.h ****     BOXCAMSTAB,
  51:D:/XMC/Projekte/Temp/CF_XMC4700/cleanflight/src/main/fc\rc_modes.h ****     BOXBEEPERON,
  52:D:/XMC/Projekte/Temp/CF_XMC4700/cleanflight/src/main/fc\rc_modes.h ****     BOXLEDLOW,
  53:D:/XMC/Projekte/Temp/CF_XMC4700/cleanflight/src/main/fc\rc_modes.h ****     BOXCALIB,
  54:D:/XMC/Projekte/Temp/CF_XMC4700/cleanflight/src/main/fc\rc_modes.h ****     BOXOSD,
  55:D:/XMC/Projekte/Temp/CF_XMC4700/cleanflight/src/main/fc\rc_modes.h ****     BOXTELEMETRY,
  56:D:/XMC/Projekte/Temp/CF_XMC4700/cleanflight/src/main/fc\rc_modes.h ****     BOXSERVO1,
  57:D:/XMC/Projekte/Temp/CF_XMC4700/cleanflight/src/main/fc\rc_modes.h ****     BOXSERVO2,
  58:D:/XMC/Projekte/Temp/CF_XMC4700/cleanflight/src/main/fc\rc_modes.h ****     BOXSERVO3,
  59:D:/XMC/Projekte/Temp/CF_XMC4700/cleanflight/src/main/fc\rc_modes.h ****     BOXBLACKBOX,
  60:D:/XMC/Projekte/Temp/CF_XMC4700/cleanflight/src/main/fc\rc_modes.h ****     BOXAIRMODE,
  61:D:/XMC/Projekte/Temp/CF_XMC4700/cleanflight/src/main/fc\rc_modes.h ****     BOX3D,
  62:D:/XMC/Projekte/Temp/CF_XMC4700/cleanflight/src/main/fc\rc_modes.h ****     BOXFPVANGLEMIX,
  63:D:/XMC/Projekte/Temp/CF_XMC4700/cleanflight/src/main/fc\rc_modes.h ****     BOXBLACKBOXERASE,
  64:D:/XMC/Projekte/Temp/CF_XMC4700/cleanflight/src/main/fc\rc_modes.h ****     BOXCAMERA1,
  65:D:/XMC/Projekte/Temp/CF_XMC4700/cleanflight/src/main/fc\rc_modes.h ****     BOXCAMERA2,
  66:D:/XMC/Projekte/Temp/CF_XMC4700/cleanflight/src/main/fc\rc_modes.h ****     BOXCAMERA3,
  67:D:/XMC/Projekte/Temp/CF_XMC4700/cleanflight/src/main/fc\rc_modes.h ****     BOXFLIPOVERAFTERCRASH,
  68:D:/XMC/Projekte/Temp/CF_XMC4700/cleanflight/src/main/fc\rc_modes.h ****     BOXPREARM,
  69:D:/XMC/Projekte/Temp/CF_XMC4700/cleanflight/src/main/fc\rc_modes.h ****     BOXBEEPGPSCOUNT,
  70:D:/XMC/Projekte/Temp/CF_XMC4700/cleanflight/src/main/fc\rc_modes.h ****     BOXVTXPITMODE,
  71:D:/XMC/Projekte/Temp/CF_XMC4700/cleanflight/src/main/fc\rc_modes.h ****     BOXPARALYZE,
  72:D:/XMC/Projekte/Temp/CF_XMC4700/cleanflight/src/main/fc\rc_modes.h ****     BOXUSER1,
  73:D:/XMC/Projekte/Temp/CF_XMC4700/cleanflight/src/main/fc\rc_modes.h ****     BOXUSER2,
  74:D:/XMC/Projekte/Temp/CF_XMC4700/cleanflight/src/main/fc\rc_modes.h ****     BOXUSER3,
  75:D:/XMC/Projekte/Temp/CF_XMC4700/cleanflight/src/main/fc\rc_modes.h ****     BOXUSER4,
  76:D:/XMC/Projekte/Temp/CF_XMC4700/cleanflight/src/main/fc\rc_modes.h ****     BOXPIDAUDIO,
  77:D:/XMC/Projekte/Temp/CF_XMC4700/cleanflight/src/main/fc\rc_modes.h ****     BOXACROTRAINER,
  78:D:/XMC/Projekte/Temp/CF_XMC4700/cleanflight/src/main/fc\rc_modes.h ****     CHECKBOX_ITEM_COUNT
  79:D:/XMC/Projekte/Temp/CF_XMC4700/cleanflight/src/main/fc\rc_modes.h **** } boxId_e;
  80:D:/XMC/Projekte/Temp/CF_XMC4700/cleanflight/src/main/fc\rc_modes.h **** 
  81:D:/XMC/Projekte/Temp/CF_XMC4700/cleanflight/src/main/fc\rc_modes.h **** typedef enum {
  82:D:/XMC/Projekte/Temp/CF_XMC4700/cleanflight/src/main/fc\rc_modes.h ****     MODELOGIC_OR = 0,
  83:D:/XMC/Projekte/Temp/CF_XMC4700/cleanflight/src/main/fc\rc_modes.h ****     MODELOGIC_AND
  84:D:/XMC/Projekte/Temp/CF_XMC4700/cleanflight/src/main/fc\rc_modes.h **** } modeLogic_e;
  85:D:/XMC/Projekte/Temp/CF_XMC4700/cleanflight/src/main/fc\rc_modes.h **** 
  86:D:/XMC/Projekte/Temp/CF_XMC4700/cleanflight/src/main/fc\rc_modes.h **** // type to hold enough bits for CHECKBOX_ITEM_COUNT. Struct used for value-like behavior
  87:D:/XMC/Projekte/Temp/CF_XMC4700/cleanflight/src/main/fc\rc_modes.h **** typedef struct boxBitmask_s { uint32_t bits[(CHECKBOX_ITEM_COUNT + 31) / 32]; } boxBitmask_t;
  88:D:/XMC/Projekte/Temp/CF_XMC4700/cleanflight/src/main/fc\rc_modes.h **** 
  89:D:/XMC/Projekte/Temp/CF_XMC4700/cleanflight/src/main/fc\rc_modes.h **** #define MAX_MODE_ACTIVATION_CONDITION_COUNT 20
  90:D:/XMC/Projekte/Temp/CF_XMC4700/cleanflight/src/main/fc\rc_modes.h **** 
  91:D:/XMC/Projekte/Temp/CF_XMC4700/cleanflight/src/main/fc\rc_modes.h **** #define CHANNEL_RANGE_MIN 900
  92:D:/XMC/Projekte/Temp/CF_XMC4700/cleanflight/src/main/fc\rc_modes.h **** #define CHANNEL_RANGE_MAX 2100
  93:D:/XMC/Projekte/Temp/CF_XMC4700/cleanflight/src/main/fc\rc_modes.h **** 
  94:D:/XMC/Projekte/Temp/CF_XMC4700/cleanflight/src/main/fc\rc_modes.h **** #define MODE_STEP_TO_CHANNEL_VALUE(step) (CHANNEL_RANGE_MIN + 25 * step)
  95:D:/XMC/Projekte/Temp/CF_XMC4700/cleanflight/src/main/fc\rc_modes.h **** #define CHANNEL_VALUE_TO_STEP(channelValue) ((constrain(channelValue, CHANNEL_RANGE_MIN, CHANNEL_RA
  96:D:/XMC/Projekte/Temp/CF_XMC4700/cleanflight/src/main/fc\rc_modes.h **** 
  97:D:/XMC/Projekte/Temp/CF_XMC4700/cleanflight/src/main/fc\rc_modes.h **** #define MIN_MODE_RANGE_STEP 0
  98:D:/XMC/Projekte/Temp/CF_XMC4700/cleanflight/src/main/fc\rc_modes.h **** #define MAX_MODE_RANGE_STEP ((CHANNEL_RANGE_MAX - CHANNEL_RANGE_MIN) / 25)
  99:D:/XMC/Projekte/Temp/CF_XMC4700/cleanflight/src/main/fc\rc_modes.h **** 
 100:D:/XMC/Projekte/Temp/CF_XMC4700/cleanflight/src/main/fc\rc_modes.h **** // steps are 25 apart
 101:D:/XMC/Projekte/Temp/CF_XMC4700/cleanflight/src/main/fc\rc_modes.h **** // a value of 0 corresponds to a channel value of 900 or less
 102:D:/XMC/Projekte/Temp/CF_XMC4700/cleanflight/src/main/fc\rc_modes.h **** // a value of 48 corresponds to a channel value of 2100 or more
 103:D:/XMC/Projekte/Temp/CF_XMC4700/cleanflight/src/main/fc\rc_modes.h **** // 48 steps between 900 and 2100
 104:D:/XMC/Projekte/Temp/CF_XMC4700/cleanflight/src/main/fc\rc_modes.h **** typedef struct channelRange_s {
 105:D:/XMC/Projekte/Temp/CF_XMC4700/cleanflight/src/main/fc\rc_modes.h ****     uint8_t startStep;
 106:D:/XMC/Projekte/Temp/CF_XMC4700/cleanflight/src/main/fc\rc_modes.h ****     uint8_t endStep;
 107:D:/XMC/Projekte/Temp/CF_XMC4700/cleanflight/src/main/fc\rc_modes.h **** } channelRange_t;
 108:D:/XMC/Projekte/Temp/CF_XMC4700/cleanflight/src/main/fc\rc_modes.h **** 
 109:D:/XMC/Projekte/Temp/CF_XMC4700/cleanflight/src/main/fc\rc_modes.h **** typedef struct modeActivationCondition_s {
 110:D:/XMC/Projekte/Temp/CF_XMC4700/cleanflight/src/main/fc\rc_modes.h ****     boxId_e modeId;
 111:D:/XMC/Projekte/Temp/CF_XMC4700/cleanflight/src/main/fc\rc_modes.h ****     uint8_t auxChannelIndex;
 112:D:/XMC/Projekte/Temp/CF_XMC4700/cleanflight/src/main/fc\rc_modes.h ****     channelRange_t range;
 113:D:/XMC/Projekte/Temp/CF_XMC4700/cleanflight/src/main/fc\rc_modes.h ****     modeLogic_e modeLogic;
 114:D:/XMC/Projekte/Temp/CF_XMC4700/cleanflight/src/main/fc\rc_modes.h ****     boxId_e linkedTo;
 115:D:/XMC/Projekte/Temp/CF_XMC4700/cleanflight/src/main/fc\rc_modes.h **** } modeActivationCondition_t;
 116:D:/XMC/Projekte/Temp/CF_XMC4700/cleanflight/src/main/fc\rc_modes.h **** 
 117:D:/XMC/Projekte/Temp/CF_XMC4700/cleanflight/src/main/fc\rc_modes.h **** PG_DECLARE_ARRAY(modeActivationCondition_t, MAX_MODE_ACTIVATION_CONDITION_COUNT, modeActivationCond
 360              	 .loc 5 117 0
 361              	 .cfi_startproc
 362              	 
 363              	 
 364              	 
 365 0000 80B4     	 push {r7}
 366              	.LCFI34:
 367              	 .cfi_def_cfa_offset 4
 368              	 .cfi_offset 7,-4
 369 0002 83B0     	 sub sp,sp,#12
 370              	.LCFI35:
 371              	 .cfi_def_cfa_offset 16
 372 0004 00AF     	 add r7,sp,#0
 373              	.LCFI36:
 374              	 .cfi_def_cfa_register 7
 375 0006 7860     	 str r0,[r7,#4]
 376              	 .loc 5 117 0
 377 0008 7A68     	 ldr r2,[r7,#4]
 378 000a 1346     	 mov r3,r2
 379 000c 5B00     	 lsls r3,r3,#1
 380 000e 1344     	 add r3,r3,r2
 381 0010 5B00     	 lsls r3,r3,#1
 382 0012 044A     	 ldr r2,.L35
 383 0014 1344     	 add r3,r3,r2
 384 0016 1846     	 mov r0,r3
 385 0018 0C37     	 adds r7,r7,#12
 386              	.LCFI37:
 387              	 .cfi_def_cfa_offset 4
 388 001a BD46     	 mov sp,r7
 389              	.LCFI38:
 390              	 .cfi_def_cfa_register 13
 391              	 
 392 001c 5DF8047B 	 ldr r7,[sp],#4
 393              	.LCFI39:
 394              	 .cfi_restore 7
 395              	 .cfi_def_cfa_offset 0
 396 0020 7047     	 bx lr
 397              	.L36:
 398 0022 00BF     	 .align 2
 399              	.L35:
 400 0024 00000000 	 .word modeActivationConditions_SystemArray
 401              	 .cfi_endproc
 402              	.LFE558:
 404              	 .section .text.modeActivationConditionsMutable,"ax",%progbits
 405              	 .align 2
 406              	 .thumb
 407              	 .thumb_func
 409              	modeActivationConditionsMutable:
 410              	.LFB559:
 411              	 .loc 5 117 0
 412              	 .cfi_startproc
 413              	 
 414              	 
 415              	 
 416 0000 80B4     	 push {r7}
 417              	.LCFI40:
 418              	 .cfi_def_cfa_offset 4
 419              	 .cfi_offset 7,-4
 420 0002 83B0     	 sub sp,sp,#12
 421              	.LCFI41:
 422              	 .cfi_def_cfa_offset 16
 423 0004 00AF     	 add r7,sp,#0
 424              	.LCFI42:
 425              	 .cfi_def_cfa_register 7
 426 0006 7860     	 str r0,[r7,#4]
 427              	 .loc 5 117 0
 428 0008 7A68     	 ldr r2,[r7,#4]
 429 000a 1346     	 mov r3,r2
 430 000c 5B00     	 lsls r3,r3,#1
 431 000e 1344     	 add r3,r3,r2
 432 0010 5B00     	 lsls r3,r3,#1
 433 0012 044A     	 ldr r2,.L39
 434 0014 1344     	 add r3,r3,r2
 435 0016 1846     	 mov r0,r3
 436 0018 0C37     	 adds r7,r7,#12
 437              	.LCFI43:
 438              	 .cfi_def_cfa_offset 4
 439 001a BD46     	 mov sp,r7
 440              	.LCFI44:
 441              	 .cfi_def_cfa_register 13
 442              	 
 443 001c 5DF8047B 	 ldr r7,[sp],#4
 444              	.LCFI45:
 445              	 .cfi_restore 7
 446              	 .cfi_def_cfa_offset 0
 447 0020 7047     	 bx lr
 448              	.L40:
 449 0022 00BF     	 .align 2
 450              	.L39:
 451 0024 00000000 	 .word modeActivationConditions_SystemArray
 452              	 .cfi_endproc
 453              	.LFE559:
 455              	 .section .text.adjustmentRanges,"ax",%progbits
 456              	 .align 2
 457              	 .thumb
 458              	 .thumb_func
 460              	adjustmentRanges:
 461              	.LFB561:
 462              	 .file 6 "D:/XMC/Projekte/Temp/CF_XMC4700/cleanflight/src/main/fc/rc_adjustments.h"
   1:D:/XMC/Projekte/Temp/CF_XMC4700/cleanflight/src/main/fc\rc_adjustments.h **** /*
   2:D:/XMC/Projekte/Temp/CF_XMC4700/cleanflight/src/main/fc\rc_adjustments.h ****  * This file is part of Cleanflight and Betaflight.
   3:D:/XMC/Projekte/Temp/CF_XMC4700/cleanflight/src/main/fc\rc_adjustments.h ****  *
   4:D:/XMC/Projekte/Temp/CF_XMC4700/cleanflight/src/main/fc\rc_adjustments.h ****  * Cleanflight and Betaflight are free software. You can redistribute
   5:D:/XMC/Projekte/Temp/CF_XMC4700/cleanflight/src/main/fc\rc_adjustments.h ****  * this software and/or modify this software under the terms of the
   6:D:/XMC/Projekte/Temp/CF_XMC4700/cleanflight/src/main/fc\rc_adjustments.h ****  * GNU General Public License as published by the Free Software
   7:D:/XMC/Projekte/Temp/CF_XMC4700/cleanflight/src/main/fc\rc_adjustments.h ****  * Foundation, either version 3 of the License, or (at your option)
   8:D:/XMC/Projekte/Temp/CF_XMC4700/cleanflight/src/main/fc\rc_adjustments.h ****  * any later version.
   9:D:/XMC/Projekte/Temp/CF_XMC4700/cleanflight/src/main/fc\rc_adjustments.h ****  *
  10:D:/XMC/Projekte/Temp/CF_XMC4700/cleanflight/src/main/fc\rc_adjustments.h ****  * Cleanflight and Betaflight are distributed in the hope that they
  11:D:/XMC/Projekte/Temp/CF_XMC4700/cleanflight/src/main/fc\rc_adjustments.h ****  * will be useful, but WITHOUT ANY WARRANTY; without even the implied
  12:D:/XMC/Projekte/Temp/CF_XMC4700/cleanflight/src/main/fc\rc_adjustments.h ****  * warranty of MERCHANTABILITY or FITNESS FOR A PARTICULAR PURPOSE.
  13:D:/XMC/Projekte/Temp/CF_XMC4700/cleanflight/src/main/fc\rc_adjustments.h ****  * See the GNU General Public License for more details.
  14:D:/XMC/Projekte/Temp/CF_XMC4700/cleanflight/src/main/fc\rc_adjustments.h ****  *
  15:D:/XMC/Projekte/Temp/CF_XMC4700/cleanflight/src/main/fc\rc_adjustments.h ****  * You should have received a copy of the GNU General Public License
  16:D:/XMC/Projekte/Temp/CF_XMC4700/cleanflight/src/main/fc\rc_adjustments.h ****  * along with this software.
  17:D:/XMC/Projekte/Temp/CF_XMC4700/cleanflight/src/main/fc\rc_adjustments.h ****  *
  18:D:/XMC/Projekte/Temp/CF_XMC4700/cleanflight/src/main/fc\rc_adjustments.h ****  * If not, see <http://www.gnu.org/licenses/>.
  19:D:/XMC/Projekte/Temp/CF_XMC4700/cleanflight/src/main/fc\rc_adjustments.h ****  */
  20:D:/XMC/Projekte/Temp/CF_XMC4700/cleanflight/src/main/fc\rc_adjustments.h **** 
  21:D:/XMC/Projekte/Temp/CF_XMC4700/cleanflight/src/main/fc\rc_adjustments.h **** #pragma once
  22:D:/XMC/Projekte/Temp/CF_XMC4700/cleanflight/src/main/fc\rc_adjustments.h **** 
  23:D:/XMC/Projekte/Temp/CF_XMC4700/cleanflight/src/main/fc\rc_adjustments.h **** #include <stdbool.h>
  24:D:/XMC/Projekte/Temp/CF_XMC4700/cleanflight/src/main/fc\rc_adjustments.h **** #include "pg/pg.h"
  25:D:/XMC/Projekte/Temp/CF_XMC4700/cleanflight/src/main/fc\rc_adjustments.h **** #include "fc/rc_modes.h"
  26:D:/XMC/Projekte/Temp/CF_XMC4700/cleanflight/src/main/fc\rc_adjustments.h **** 
  27:D:/XMC/Projekte/Temp/CF_XMC4700/cleanflight/src/main/fc\rc_adjustments.h **** typedef enum {
  28:D:/XMC/Projekte/Temp/CF_XMC4700/cleanflight/src/main/fc\rc_adjustments.h ****     ADJUSTMENT_NONE = 0,
  29:D:/XMC/Projekte/Temp/CF_XMC4700/cleanflight/src/main/fc\rc_adjustments.h ****     ADJUSTMENT_RC_RATE,
  30:D:/XMC/Projekte/Temp/CF_XMC4700/cleanflight/src/main/fc\rc_adjustments.h ****     ADJUSTMENT_RC_EXPO,
  31:D:/XMC/Projekte/Temp/CF_XMC4700/cleanflight/src/main/fc\rc_adjustments.h ****     ADJUSTMENT_THROTTLE_EXPO,
  32:D:/XMC/Projekte/Temp/CF_XMC4700/cleanflight/src/main/fc\rc_adjustments.h ****     ADJUSTMENT_PITCH_ROLL_RATE,
  33:D:/XMC/Projekte/Temp/CF_XMC4700/cleanflight/src/main/fc\rc_adjustments.h ****     ADJUSTMENT_YAW_RATE,
  34:D:/XMC/Projekte/Temp/CF_XMC4700/cleanflight/src/main/fc\rc_adjustments.h ****     ADJUSTMENT_PITCH_ROLL_P,
  35:D:/XMC/Projekte/Temp/CF_XMC4700/cleanflight/src/main/fc\rc_adjustments.h ****     ADJUSTMENT_PITCH_ROLL_I,
  36:D:/XMC/Projekte/Temp/CF_XMC4700/cleanflight/src/main/fc\rc_adjustments.h ****     ADJUSTMENT_PITCH_ROLL_D,
  37:D:/XMC/Projekte/Temp/CF_XMC4700/cleanflight/src/main/fc\rc_adjustments.h ****     ADJUSTMENT_YAW_P,
  38:D:/XMC/Projekte/Temp/CF_XMC4700/cleanflight/src/main/fc\rc_adjustments.h ****     ADJUSTMENT_YAW_I,
  39:D:/XMC/Projekte/Temp/CF_XMC4700/cleanflight/src/main/fc\rc_adjustments.h ****     ADJUSTMENT_YAW_D,
  40:D:/XMC/Projekte/Temp/CF_XMC4700/cleanflight/src/main/fc\rc_adjustments.h ****     ADJUSTMENT_RATE_PROFILE,
  41:D:/XMC/Projekte/Temp/CF_XMC4700/cleanflight/src/main/fc\rc_adjustments.h ****     ADJUSTMENT_PITCH_RATE,
  42:D:/XMC/Projekte/Temp/CF_XMC4700/cleanflight/src/main/fc\rc_adjustments.h ****     ADJUSTMENT_ROLL_RATE,
  43:D:/XMC/Projekte/Temp/CF_XMC4700/cleanflight/src/main/fc\rc_adjustments.h ****     ADJUSTMENT_PITCH_P,
  44:D:/XMC/Projekte/Temp/CF_XMC4700/cleanflight/src/main/fc\rc_adjustments.h ****     ADJUSTMENT_PITCH_I,
  45:D:/XMC/Projekte/Temp/CF_XMC4700/cleanflight/src/main/fc\rc_adjustments.h ****     ADJUSTMENT_PITCH_D,
  46:D:/XMC/Projekte/Temp/CF_XMC4700/cleanflight/src/main/fc\rc_adjustments.h ****     ADJUSTMENT_ROLL_P,
  47:D:/XMC/Projekte/Temp/CF_XMC4700/cleanflight/src/main/fc\rc_adjustments.h ****     ADJUSTMENT_ROLL_I,
  48:D:/XMC/Projekte/Temp/CF_XMC4700/cleanflight/src/main/fc\rc_adjustments.h ****     ADJUSTMENT_ROLL_D,
  49:D:/XMC/Projekte/Temp/CF_XMC4700/cleanflight/src/main/fc\rc_adjustments.h ****     ADJUSTMENT_RC_RATE_YAW,
  50:D:/XMC/Projekte/Temp/CF_XMC4700/cleanflight/src/main/fc\rc_adjustments.h ****     ADJUSTMENT_PITCH_ROLL_F,
  51:D:/XMC/Projekte/Temp/CF_XMC4700/cleanflight/src/main/fc\rc_adjustments.h ****     ADJUSTMENT_FEEDFORWARD_TRANSITION,
  52:D:/XMC/Projekte/Temp/CF_XMC4700/cleanflight/src/main/fc\rc_adjustments.h ****     ADJUSTMENT_HORIZON_STRENGTH,
  53:D:/XMC/Projekte/Temp/CF_XMC4700/cleanflight/src/main/fc\rc_adjustments.h ****     ADJUSTMENT_ROLL_RC_RATE,
  54:D:/XMC/Projekte/Temp/CF_XMC4700/cleanflight/src/main/fc\rc_adjustments.h ****     ADJUSTMENT_PITCH_RC_RATE,
  55:D:/XMC/Projekte/Temp/CF_XMC4700/cleanflight/src/main/fc\rc_adjustments.h ****     ADJUSTMENT_ROLL_RC_EXPO,
  56:D:/XMC/Projekte/Temp/CF_XMC4700/cleanflight/src/main/fc\rc_adjustments.h ****     ADJUSTMENT_PITCH_RC_EXPO,
  57:D:/XMC/Projekte/Temp/CF_XMC4700/cleanflight/src/main/fc\rc_adjustments.h ****     ADJUSTMENT_PID_AUDIO,
  58:D:/XMC/Projekte/Temp/CF_XMC4700/cleanflight/src/main/fc\rc_adjustments.h ****     ADJUSTMENT_PITCH_F,
  59:D:/XMC/Projekte/Temp/CF_XMC4700/cleanflight/src/main/fc\rc_adjustments.h ****     ADJUSTMENT_ROLL_F,
  60:D:/XMC/Projekte/Temp/CF_XMC4700/cleanflight/src/main/fc\rc_adjustments.h ****     ADJUSTMENT_YAW_F,
  61:D:/XMC/Projekte/Temp/CF_XMC4700/cleanflight/src/main/fc\rc_adjustments.h ****     ADJUSTMENT_FUNCTION_COUNT
  62:D:/XMC/Projekte/Temp/CF_XMC4700/cleanflight/src/main/fc\rc_adjustments.h **** } adjustmentFunction_e;
  63:D:/XMC/Projekte/Temp/CF_XMC4700/cleanflight/src/main/fc\rc_adjustments.h **** 
  64:D:/XMC/Projekte/Temp/CF_XMC4700/cleanflight/src/main/fc\rc_adjustments.h **** typedef enum {
  65:D:/XMC/Projekte/Temp/CF_XMC4700/cleanflight/src/main/fc\rc_adjustments.h ****     ADJUSTMENT_MODE_STEP,
  66:D:/XMC/Projekte/Temp/CF_XMC4700/cleanflight/src/main/fc\rc_adjustments.h ****     ADJUSTMENT_MODE_SELECT
  67:D:/XMC/Projekte/Temp/CF_XMC4700/cleanflight/src/main/fc\rc_adjustments.h **** } adjustmentMode_e;
  68:D:/XMC/Projekte/Temp/CF_XMC4700/cleanflight/src/main/fc\rc_adjustments.h **** 
  69:D:/XMC/Projekte/Temp/CF_XMC4700/cleanflight/src/main/fc\rc_adjustments.h **** typedef union adjustmentConfig_u {
  70:D:/XMC/Projekte/Temp/CF_XMC4700/cleanflight/src/main/fc\rc_adjustments.h ****     uint8_t step;
  71:D:/XMC/Projekte/Temp/CF_XMC4700/cleanflight/src/main/fc\rc_adjustments.h ****     uint8_t switchPositions;
  72:D:/XMC/Projekte/Temp/CF_XMC4700/cleanflight/src/main/fc\rc_adjustments.h **** } adjustmentData_t;
  73:D:/XMC/Projekte/Temp/CF_XMC4700/cleanflight/src/main/fc\rc_adjustments.h **** 
  74:D:/XMC/Projekte/Temp/CF_XMC4700/cleanflight/src/main/fc\rc_adjustments.h **** typedef struct adjustmentConfig_s {
  75:D:/XMC/Projekte/Temp/CF_XMC4700/cleanflight/src/main/fc\rc_adjustments.h ****     adjustmentFunction_e adjustmentFunction;
  76:D:/XMC/Projekte/Temp/CF_XMC4700/cleanflight/src/main/fc\rc_adjustments.h ****     adjustmentMode_e mode;
  77:D:/XMC/Projekte/Temp/CF_XMC4700/cleanflight/src/main/fc\rc_adjustments.h ****     adjustmentData_t data;
  78:D:/XMC/Projekte/Temp/CF_XMC4700/cleanflight/src/main/fc\rc_adjustments.h **** } adjustmentConfig_t;
  79:D:/XMC/Projekte/Temp/CF_XMC4700/cleanflight/src/main/fc\rc_adjustments.h **** 
  80:D:/XMC/Projekte/Temp/CF_XMC4700/cleanflight/src/main/fc\rc_adjustments.h **** #define MAX_ADJUSTMENT_RANGE_COUNT 15
  81:D:/XMC/Projekte/Temp/CF_XMC4700/cleanflight/src/main/fc\rc_adjustments.h **** 
  82:D:/XMC/Projekte/Temp/CF_XMC4700/cleanflight/src/main/fc\rc_adjustments.h **** typedef struct adjustmentRange_s {
  83:D:/XMC/Projekte/Temp/CF_XMC4700/cleanflight/src/main/fc\rc_adjustments.h ****     // when aux channel is in range...
  84:D:/XMC/Projekte/Temp/CF_XMC4700/cleanflight/src/main/fc\rc_adjustments.h ****     uint8_t auxChannelIndex;
  85:D:/XMC/Projekte/Temp/CF_XMC4700/cleanflight/src/main/fc\rc_adjustments.h ****     channelRange_t range;
  86:D:/XMC/Projekte/Temp/CF_XMC4700/cleanflight/src/main/fc\rc_adjustments.h **** 
  87:D:/XMC/Projekte/Temp/CF_XMC4700/cleanflight/src/main/fc\rc_adjustments.h ****     // ..then apply the adjustment function to the auxSwitchChannel ...
  88:D:/XMC/Projekte/Temp/CF_XMC4700/cleanflight/src/main/fc\rc_adjustments.h ****     uint8_t adjustmentFunction;
  89:D:/XMC/Projekte/Temp/CF_XMC4700/cleanflight/src/main/fc\rc_adjustments.h ****     uint8_t auxSwitchChannelIndex;
  90:D:/XMC/Projekte/Temp/CF_XMC4700/cleanflight/src/main/fc\rc_adjustments.h **** 
  91:D:/XMC/Projekte/Temp/CF_XMC4700/cleanflight/src/main/fc\rc_adjustments.h ****     // ... via slot
  92:D:/XMC/Projekte/Temp/CF_XMC4700/cleanflight/src/main/fc\rc_adjustments.h ****     uint8_t adjustmentIndex;
  93:D:/XMC/Projekte/Temp/CF_XMC4700/cleanflight/src/main/fc\rc_adjustments.h ****     uint16_t adjustmentCenter;
  94:D:/XMC/Projekte/Temp/CF_XMC4700/cleanflight/src/main/fc\rc_adjustments.h ****     uint16_t adjustmentScale;
  95:D:/XMC/Projekte/Temp/CF_XMC4700/cleanflight/src/main/fc\rc_adjustments.h **** } adjustmentRange_t;
  96:D:/XMC/Projekte/Temp/CF_XMC4700/cleanflight/src/main/fc\rc_adjustments.h **** 
  97:D:/XMC/Projekte/Temp/CF_XMC4700/cleanflight/src/main/fc\rc_adjustments.h **** PG_DECLARE_ARRAY(adjustmentRange_t, MAX_ADJUSTMENT_RANGE_COUNT, adjustmentRanges);
 463              	 .loc 6 97 0
 464              	 .cfi_startproc
 465              	 
 466              	 
 467              	 
 468 0000 80B4     	 push {r7}
 469              	.LCFI46:
 470              	 .cfi_def_cfa_offset 4
 471              	 .cfi_offset 7,-4
 472 0002 83B0     	 sub sp,sp,#12
 473              	.LCFI47:
 474              	 .cfi_def_cfa_offset 16
 475 0004 00AF     	 add r7,sp,#0
 476              	.LCFI48:
 477              	 .cfi_def_cfa_register 7
 478 0006 7860     	 str r0,[r7,#4]
 479              	 .loc 6 97 0
 480 0008 7A68     	 ldr r2,[r7,#4]
 481 000a 1346     	 mov r3,r2
 482 000c 9B00     	 lsls r3,r3,#2
 483 000e 1344     	 add r3,r3,r2
 484 0010 5B00     	 lsls r3,r3,#1
 485 0012 044A     	 ldr r2,.L43
 486 0014 1344     	 add r3,r3,r2
 487 0016 1846     	 mov r0,r3
 488 0018 0C37     	 adds r7,r7,#12
 489              	.LCFI49:
 490              	 .cfi_def_cfa_offset 4
 491 001a BD46     	 mov sp,r7
 492              	.LCFI50:
 493              	 .cfi_def_cfa_register 13
 494              	 
 495 001c 5DF8047B 	 ldr r7,[sp],#4
 496              	.LCFI51:
 497              	 .cfi_restore 7
 498              	 .cfi_def_cfa_offset 0
 499 0020 7047     	 bx lr
 500              	.L44:
 501 0022 00BF     	 .align 2
 502              	.L43:
 503 0024 00000000 	 .word adjustmentRanges_SystemArray
 504              	 .cfi_endproc
 505              	.LFE561:
 507              	 .section .text.adjustmentRangesMutable,"ax",%progbits
 508              	 .align 2
 509              	 .thumb
 510              	 .thumb_func
 512              	adjustmentRangesMutable:
 513              	.LFB562:
 514              	 .loc 6 97 0
 515              	 .cfi_startproc
 516              	 
 517              	 
 518              	 
 519 0000 80B4     	 push {r7}
 520              	.LCFI52:
 521              	 .cfi_def_cfa_offset 4
 522              	 .cfi_offset 7,-4
 523 0002 83B0     	 sub sp,sp,#12
 524              	.LCFI53:
 525              	 .cfi_def_cfa_offset 16
 526 0004 00AF     	 add r7,sp,#0
 527              	.LCFI54:
 528              	 .cfi_def_cfa_register 7
 529 0006 7860     	 str r0,[r7,#4]
 530              	 .loc 6 97 0
 531 0008 7A68     	 ldr r2,[r7,#4]
 532 000a 1346     	 mov r3,r2
 533 000c 9B00     	 lsls r3,r3,#2
 534 000e 1344     	 add r3,r3,r2
 535 0010 5B00     	 lsls r3,r3,#1
 536 0012 044A     	 ldr r2,.L47
 537 0014 1344     	 add r3,r3,r2
 538 0016 1846     	 mov r0,r3
 539 0018 0C37     	 adds r7,r7,#12
 540              	.LCFI55:
 541              	 .cfi_def_cfa_offset 4
 542 001a BD46     	 mov sp,r7
 543              	.LCFI56:
 544              	 .cfi_def_cfa_register 13
 545              	 
 546 001c 5DF8047B 	 ldr r7,[sp],#4
 547              	.LCFI57:
 548              	 .cfi_restore 7
 549              	 .cfi_def_cfa_offset 0
 550 0020 7047     	 bx lr
 551              	.L48:
 552 0022 00BF     	 .align 2
 553              	.L47:
 554 0024 00000000 	 .word adjustmentRanges_SystemArray
 555              	 .cfi_endproc
 556              	.LFE562:
 558              	 .section .text.rcControlsConfig,"ax",%progbits
 559              	 .align 2
 560              	 .thumb
 561              	 .thumb_func
 563              	rcControlsConfig:
 564              	.LFB564:
 565              	 .file 7 "D:/XMC/Projekte/Temp/CF_XMC4700/cleanflight/src/main/fc/rc_controls.h"
   1:D:/XMC/Projekte/Temp/CF_XMC4700/cleanflight/src/main/fc\rc_controls.h **** /*
   2:D:/XMC/Projekte/Temp/CF_XMC4700/cleanflight/src/main/fc\rc_controls.h ****  * This file is part of Cleanflight and Betaflight.
   3:D:/XMC/Projekte/Temp/CF_XMC4700/cleanflight/src/main/fc\rc_controls.h ****  *
   4:D:/XMC/Projekte/Temp/CF_XMC4700/cleanflight/src/main/fc\rc_controls.h ****  * Cleanflight and Betaflight are free software. You can redistribute
   5:D:/XMC/Projekte/Temp/CF_XMC4700/cleanflight/src/main/fc\rc_controls.h ****  * this software and/or modify this software under the terms of the
   6:D:/XMC/Projekte/Temp/CF_XMC4700/cleanflight/src/main/fc\rc_controls.h ****  * GNU General Public License as published by the Free Software
   7:D:/XMC/Projekte/Temp/CF_XMC4700/cleanflight/src/main/fc\rc_controls.h ****  * Foundation, either version 3 of the License, or (at your option)
   8:D:/XMC/Projekte/Temp/CF_XMC4700/cleanflight/src/main/fc\rc_controls.h ****  * any later version.
   9:D:/XMC/Projekte/Temp/CF_XMC4700/cleanflight/src/main/fc\rc_controls.h ****  *
  10:D:/XMC/Projekte/Temp/CF_XMC4700/cleanflight/src/main/fc\rc_controls.h ****  * Cleanflight and Betaflight are distributed in the hope that they
  11:D:/XMC/Projekte/Temp/CF_XMC4700/cleanflight/src/main/fc\rc_controls.h ****  * will be useful, but WITHOUT ANY WARRANTY; without even the implied
  12:D:/XMC/Projekte/Temp/CF_XMC4700/cleanflight/src/main/fc\rc_controls.h ****  * warranty of MERCHANTABILITY or FITNESS FOR A PARTICULAR PURPOSE.
  13:D:/XMC/Projekte/Temp/CF_XMC4700/cleanflight/src/main/fc\rc_controls.h ****  * See the GNU General Public License for more details.
  14:D:/XMC/Projekte/Temp/CF_XMC4700/cleanflight/src/main/fc\rc_controls.h ****  *
  15:D:/XMC/Projekte/Temp/CF_XMC4700/cleanflight/src/main/fc\rc_controls.h ****  * You should have received a copy of the GNU General Public License
  16:D:/XMC/Projekte/Temp/CF_XMC4700/cleanflight/src/main/fc\rc_controls.h ****  * along with this software.
  17:D:/XMC/Projekte/Temp/CF_XMC4700/cleanflight/src/main/fc\rc_controls.h ****  *
  18:D:/XMC/Projekte/Temp/CF_XMC4700/cleanflight/src/main/fc\rc_controls.h ****  * If not, see <http://www.gnu.org/licenses/>.
  19:D:/XMC/Projekte/Temp/CF_XMC4700/cleanflight/src/main/fc\rc_controls.h ****  */
  20:D:/XMC/Projekte/Temp/CF_XMC4700/cleanflight/src/main/fc\rc_controls.h **** 
  21:D:/XMC/Projekte/Temp/CF_XMC4700/cleanflight/src/main/fc\rc_controls.h **** #pragma once
  22:D:/XMC/Projekte/Temp/CF_XMC4700/cleanflight/src/main/fc\rc_controls.h **** 
  23:D:/XMC/Projekte/Temp/CF_XMC4700/cleanflight/src/main/fc\rc_controls.h **** #include <stdbool.h>
  24:D:/XMC/Projekte/Temp/CF_XMC4700/cleanflight/src/main/fc\rc_controls.h **** 
  25:D:/XMC/Projekte/Temp/CF_XMC4700/cleanflight/src/main/fc\rc_controls.h **** #include "common/filter.h"
  26:D:/XMC/Projekte/Temp/CF_XMC4700/cleanflight/src/main/fc\rc_controls.h **** #include "pg/pg.h"
  27:D:/XMC/Projekte/Temp/CF_XMC4700/cleanflight/src/main/fc\rc_controls.h **** 
  28:D:/XMC/Projekte/Temp/CF_XMC4700/cleanflight/src/main/fc\rc_controls.h **** typedef enum rc_alias {
  29:D:/XMC/Projekte/Temp/CF_XMC4700/cleanflight/src/main/fc\rc_controls.h ****     ROLL = 0,
  30:D:/XMC/Projekte/Temp/CF_XMC4700/cleanflight/src/main/fc\rc_controls.h ****     PITCH,
  31:D:/XMC/Projekte/Temp/CF_XMC4700/cleanflight/src/main/fc\rc_controls.h ****     YAW,
  32:D:/XMC/Projekte/Temp/CF_XMC4700/cleanflight/src/main/fc\rc_controls.h ****     THROTTLE,
  33:D:/XMC/Projekte/Temp/CF_XMC4700/cleanflight/src/main/fc\rc_controls.h ****     AUX1,
  34:D:/XMC/Projekte/Temp/CF_XMC4700/cleanflight/src/main/fc\rc_controls.h ****     AUX2,
  35:D:/XMC/Projekte/Temp/CF_XMC4700/cleanflight/src/main/fc\rc_controls.h ****     AUX3,
  36:D:/XMC/Projekte/Temp/CF_XMC4700/cleanflight/src/main/fc\rc_controls.h ****     AUX4,
  37:D:/XMC/Projekte/Temp/CF_XMC4700/cleanflight/src/main/fc\rc_controls.h ****     AUX5,
  38:D:/XMC/Projekte/Temp/CF_XMC4700/cleanflight/src/main/fc\rc_controls.h ****     AUX6,
  39:D:/XMC/Projekte/Temp/CF_XMC4700/cleanflight/src/main/fc\rc_controls.h ****     AUX7,
  40:D:/XMC/Projekte/Temp/CF_XMC4700/cleanflight/src/main/fc\rc_controls.h ****     AUX8
  41:D:/XMC/Projekte/Temp/CF_XMC4700/cleanflight/src/main/fc\rc_controls.h **** } rc_alias_e;
  42:D:/XMC/Projekte/Temp/CF_XMC4700/cleanflight/src/main/fc\rc_controls.h **** 
  43:D:/XMC/Projekte/Temp/CF_XMC4700/cleanflight/src/main/fc\rc_controls.h **** #define PRIMARY_CHANNEL_COUNT (THROTTLE + 1)
  44:D:/XMC/Projekte/Temp/CF_XMC4700/cleanflight/src/main/fc\rc_controls.h **** 
  45:D:/XMC/Projekte/Temp/CF_XMC4700/cleanflight/src/main/fc\rc_controls.h **** typedef enum {
  46:D:/XMC/Projekte/Temp/CF_XMC4700/cleanflight/src/main/fc\rc_controls.h ****     THROTTLE_LOW = 0,
  47:D:/XMC/Projekte/Temp/CF_XMC4700/cleanflight/src/main/fc\rc_controls.h ****     THROTTLE_HIGH
  48:D:/XMC/Projekte/Temp/CF_XMC4700/cleanflight/src/main/fc\rc_controls.h **** } throttleStatus_e;
  49:D:/XMC/Projekte/Temp/CF_XMC4700/cleanflight/src/main/fc\rc_controls.h **** 
  50:D:/XMC/Projekte/Temp/CF_XMC4700/cleanflight/src/main/fc\rc_controls.h **** #define AIRMODEDEADBAND 12
  51:D:/XMC/Projekte/Temp/CF_XMC4700/cleanflight/src/main/fc\rc_controls.h **** 
  52:D:/XMC/Projekte/Temp/CF_XMC4700/cleanflight/src/main/fc\rc_controls.h **** typedef enum {
  53:D:/XMC/Projekte/Temp/CF_XMC4700/cleanflight/src/main/fc\rc_controls.h ****     NOT_CENTERED = 0,
  54:D:/XMC/Projekte/Temp/CF_XMC4700/cleanflight/src/main/fc\rc_controls.h ****     CENTERED
  55:D:/XMC/Projekte/Temp/CF_XMC4700/cleanflight/src/main/fc\rc_controls.h **** } rollPitchStatus_e;
  56:D:/XMC/Projekte/Temp/CF_XMC4700/cleanflight/src/main/fc\rc_controls.h **** 
  57:D:/XMC/Projekte/Temp/CF_XMC4700/cleanflight/src/main/fc\rc_controls.h **** typedef enum {
  58:D:/XMC/Projekte/Temp/CF_XMC4700/cleanflight/src/main/fc\rc_controls.h ****     RC_SMOOTHING_OFF = 0,
  59:D:/XMC/Projekte/Temp/CF_XMC4700/cleanflight/src/main/fc\rc_controls.h ****     RC_SMOOTHING_DEFAULT,
  60:D:/XMC/Projekte/Temp/CF_XMC4700/cleanflight/src/main/fc\rc_controls.h ****     RC_SMOOTHING_AUTO,
  61:D:/XMC/Projekte/Temp/CF_XMC4700/cleanflight/src/main/fc\rc_controls.h ****     RC_SMOOTHING_MANUAL
  62:D:/XMC/Projekte/Temp/CF_XMC4700/cleanflight/src/main/fc\rc_controls.h **** } rcSmoothing_t;
  63:D:/XMC/Projekte/Temp/CF_XMC4700/cleanflight/src/main/fc\rc_controls.h **** 
  64:D:/XMC/Projekte/Temp/CF_XMC4700/cleanflight/src/main/fc\rc_controls.h **** typedef enum {
  65:D:/XMC/Projekte/Temp/CF_XMC4700/cleanflight/src/main/fc\rc_controls.h ****     RC_SMOOTHING_TYPE_INTERPOLATION,
  66:D:/XMC/Projekte/Temp/CF_XMC4700/cleanflight/src/main/fc\rc_controls.h ****     RC_SMOOTHING_TYPE_FILTER
  67:D:/XMC/Projekte/Temp/CF_XMC4700/cleanflight/src/main/fc\rc_controls.h **** } rcSmoothingType_e;
  68:D:/XMC/Projekte/Temp/CF_XMC4700/cleanflight/src/main/fc\rc_controls.h **** 
  69:D:/XMC/Projekte/Temp/CF_XMC4700/cleanflight/src/main/fc\rc_controls.h **** typedef enum {
  70:D:/XMC/Projekte/Temp/CF_XMC4700/cleanflight/src/main/fc\rc_controls.h ****     RC_SMOOTHING_INPUT_PT1,
  71:D:/XMC/Projekte/Temp/CF_XMC4700/cleanflight/src/main/fc\rc_controls.h ****     RC_SMOOTHING_INPUT_BIQUAD
  72:D:/XMC/Projekte/Temp/CF_XMC4700/cleanflight/src/main/fc\rc_controls.h **** } rcSmoothingInputFilter_e;
  73:D:/XMC/Projekte/Temp/CF_XMC4700/cleanflight/src/main/fc\rc_controls.h **** 
  74:D:/XMC/Projekte/Temp/CF_XMC4700/cleanflight/src/main/fc\rc_controls.h **** typedef enum {
  75:D:/XMC/Projekte/Temp/CF_XMC4700/cleanflight/src/main/fc\rc_controls.h ****     RC_SMOOTHING_DERIVATIVE_OFF,
  76:D:/XMC/Projekte/Temp/CF_XMC4700/cleanflight/src/main/fc\rc_controls.h ****     RC_SMOOTHING_DERIVATIVE_PT1,
  77:D:/XMC/Projekte/Temp/CF_XMC4700/cleanflight/src/main/fc\rc_controls.h ****     RC_SMOOTHING_DERIVATIVE_BIQUAD
  78:D:/XMC/Projekte/Temp/CF_XMC4700/cleanflight/src/main/fc\rc_controls.h **** } rcSmoothingDerivativeFilter_e;
  79:D:/XMC/Projekte/Temp/CF_XMC4700/cleanflight/src/main/fc\rc_controls.h **** 
  80:D:/XMC/Projekte/Temp/CF_XMC4700/cleanflight/src/main/fc\rc_controls.h **** typedef enum {
  81:D:/XMC/Projekte/Temp/CF_XMC4700/cleanflight/src/main/fc\rc_controls.h ****     RC_SMOOTHING_VALUE_INPUT_ACTIVE,
  82:D:/XMC/Projekte/Temp/CF_XMC4700/cleanflight/src/main/fc\rc_controls.h ****     RC_SMOOTHING_VALUE_DERIVATIVE_ACTIVE,
  83:D:/XMC/Projekte/Temp/CF_XMC4700/cleanflight/src/main/fc\rc_controls.h ****     RC_SMOOTHING_VALUE_AVERAGE_FRAME
  84:D:/XMC/Projekte/Temp/CF_XMC4700/cleanflight/src/main/fc\rc_controls.h **** } rcSmoothingInfoType_e;
  85:D:/XMC/Projekte/Temp/CF_XMC4700/cleanflight/src/main/fc\rc_controls.h **** 
  86:D:/XMC/Projekte/Temp/CF_XMC4700/cleanflight/src/main/fc\rc_controls.h **** #define ROL_LO (1 << (2 * ROLL))
  87:D:/XMC/Projekte/Temp/CF_XMC4700/cleanflight/src/main/fc\rc_controls.h **** #define ROL_CE (3 << (2 * ROLL))
  88:D:/XMC/Projekte/Temp/CF_XMC4700/cleanflight/src/main/fc\rc_controls.h **** #define ROL_HI (2 << (2 * ROLL))
  89:D:/XMC/Projekte/Temp/CF_XMC4700/cleanflight/src/main/fc\rc_controls.h **** #define PIT_LO (1 << (2 * PITCH))
  90:D:/XMC/Projekte/Temp/CF_XMC4700/cleanflight/src/main/fc\rc_controls.h **** #define PIT_CE (3 << (2 * PITCH))
  91:D:/XMC/Projekte/Temp/CF_XMC4700/cleanflight/src/main/fc\rc_controls.h **** #define PIT_HI (2 << (2 * PITCH))
  92:D:/XMC/Projekte/Temp/CF_XMC4700/cleanflight/src/main/fc\rc_controls.h **** #define YAW_LO (1 << (2 * YAW))
  93:D:/XMC/Projekte/Temp/CF_XMC4700/cleanflight/src/main/fc\rc_controls.h **** #define YAW_CE (3 << (2 * YAW))
  94:D:/XMC/Projekte/Temp/CF_XMC4700/cleanflight/src/main/fc\rc_controls.h **** #define YAW_HI (2 << (2 * YAW))
  95:D:/XMC/Projekte/Temp/CF_XMC4700/cleanflight/src/main/fc\rc_controls.h **** #define THR_LO (1 << (2 * THROTTLE))
  96:D:/XMC/Projekte/Temp/CF_XMC4700/cleanflight/src/main/fc\rc_controls.h **** #define THR_CE (3 << (2 * THROTTLE))
  97:D:/XMC/Projekte/Temp/CF_XMC4700/cleanflight/src/main/fc\rc_controls.h **** #define THR_HI (2 << (2 * THROTTLE))
  98:D:/XMC/Projekte/Temp/CF_XMC4700/cleanflight/src/main/fc\rc_controls.h **** 
  99:D:/XMC/Projekte/Temp/CF_XMC4700/cleanflight/src/main/fc\rc_controls.h **** #define CONTROL_RATE_CONFIG_RC_EXPO_MAX  100
 100:D:/XMC/Projekte/Temp/CF_XMC4700/cleanflight/src/main/fc\rc_controls.h **** 
 101:D:/XMC/Projekte/Temp/CF_XMC4700/cleanflight/src/main/fc\rc_controls.h **** #define CONTROL_RATE_CONFIG_RC_RATES_MAX  255
 102:D:/XMC/Projekte/Temp/CF_XMC4700/cleanflight/src/main/fc\rc_controls.h **** 
 103:D:/XMC/Projekte/Temp/CF_XMC4700/cleanflight/src/main/fc\rc_controls.h **** // (Super) rates are constrained to [0, 100] for Betaflight rates, so values higher than 100 won't 
 104:D:/XMC/Projekte/Temp/CF_XMC4700/cleanflight/src/main/fc\rc_controls.h **** #define CONTROL_RATE_CONFIG_RATE_MAX  255
 105:D:/XMC/Projekte/Temp/CF_XMC4700/cleanflight/src/main/fc\rc_controls.h **** 
 106:D:/XMC/Projekte/Temp/CF_XMC4700/cleanflight/src/main/fc\rc_controls.h **** #define CONTROL_RATE_CONFIG_TPA_MAX              100
 107:D:/XMC/Projekte/Temp/CF_XMC4700/cleanflight/src/main/fc\rc_controls.h **** 
 108:D:/XMC/Projekte/Temp/CF_XMC4700/cleanflight/src/main/fc\rc_controls.h **** extern float rcCommand[4];
 109:D:/XMC/Projekte/Temp/CF_XMC4700/cleanflight/src/main/fc\rc_controls.h **** 
 110:D:/XMC/Projekte/Temp/CF_XMC4700/cleanflight/src/main/fc\rc_controls.h **** typedef struct rcSmoothingFilterTraining_s {
 111:D:/XMC/Projekte/Temp/CF_XMC4700/cleanflight/src/main/fc\rc_controls.h ****     float sum;
 112:D:/XMC/Projekte/Temp/CF_XMC4700/cleanflight/src/main/fc\rc_controls.h ****     int count;
 113:D:/XMC/Projekte/Temp/CF_XMC4700/cleanflight/src/main/fc\rc_controls.h ****     uint16_t min;
 114:D:/XMC/Projekte/Temp/CF_XMC4700/cleanflight/src/main/fc\rc_controls.h ****     uint16_t max;
 115:D:/XMC/Projekte/Temp/CF_XMC4700/cleanflight/src/main/fc\rc_controls.h **** } rcSmoothingFilterTraining_t;
 116:D:/XMC/Projekte/Temp/CF_XMC4700/cleanflight/src/main/fc\rc_controls.h **** 
 117:D:/XMC/Projekte/Temp/CF_XMC4700/cleanflight/src/main/fc\rc_controls.h **** typedef union rcSmoothingFilterTypes_u {
 118:D:/XMC/Projekte/Temp/CF_XMC4700/cleanflight/src/main/fc\rc_controls.h ****     pt1Filter_t pt1Filter;
 119:D:/XMC/Projekte/Temp/CF_XMC4700/cleanflight/src/main/fc\rc_controls.h ****     biquadFilter_t biquadFilter;
 120:D:/XMC/Projekte/Temp/CF_XMC4700/cleanflight/src/main/fc\rc_controls.h **** } rcSmoothingFilterTypes_t;
 121:D:/XMC/Projekte/Temp/CF_XMC4700/cleanflight/src/main/fc\rc_controls.h **** 
 122:D:/XMC/Projekte/Temp/CF_XMC4700/cleanflight/src/main/fc\rc_controls.h **** typedef struct rcSmoothingFilter_s {
 123:D:/XMC/Projekte/Temp/CF_XMC4700/cleanflight/src/main/fc\rc_controls.h ****     bool filterInitialized;
 124:D:/XMC/Projekte/Temp/CF_XMC4700/cleanflight/src/main/fc\rc_controls.h ****     rcSmoothingFilterTypes_t filter[4];
 125:D:/XMC/Projekte/Temp/CF_XMC4700/cleanflight/src/main/fc\rc_controls.h ****     uint16_t inputCutoffFrequency;
 126:D:/XMC/Projekte/Temp/CF_XMC4700/cleanflight/src/main/fc\rc_controls.h ****     uint16_t derivativeCutoffFrequency;
 127:D:/XMC/Projekte/Temp/CF_XMC4700/cleanflight/src/main/fc\rc_controls.h ****     int averageFrameTimeUs;
 128:D:/XMC/Projekte/Temp/CF_XMC4700/cleanflight/src/main/fc\rc_controls.h ****     rcSmoothingFilterTraining_t training;
 129:D:/XMC/Projekte/Temp/CF_XMC4700/cleanflight/src/main/fc\rc_controls.h **** } rcSmoothingFilter_t;
 130:D:/XMC/Projekte/Temp/CF_XMC4700/cleanflight/src/main/fc\rc_controls.h **** 
 131:D:/XMC/Projekte/Temp/CF_XMC4700/cleanflight/src/main/fc\rc_controls.h **** typedef struct rcControlsConfig_s {
 132:D:/XMC/Projekte/Temp/CF_XMC4700/cleanflight/src/main/fc\rc_controls.h ****     uint8_t deadband;                       // introduce a deadband around the stick center for pit
 133:D:/XMC/Projekte/Temp/CF_XMC4700/cleanflight/src/main/fc\rc_controls.h ****     uint8_t yaw_deadband;                   // introduce a deadband around the stick center for yaw
 134:D:/XMC/Projekte/Temp/CF_XMC4700/cleanflight/src/main/fc\rc_controls.h ****     uint8_t alt_hold_deadband;              // defines the neutral zone of throttle stick during al
 135:D:/XMC/Projekte/Temp/CF_XMC4700/cleanflight/src/main/fc\rc_controls.h ****     uint8_t alt_hold_fast_change;           // when disabled, turn off the althold when throttle st
 136:D:/XMC/Projekte/Temp/CF_XMC4700/cleanflight/src/main/fc\rc_controls.h ****     bool yaw_control_reversed;            // invert control direction of yaw
 137:D:/XMC/Projekte/Temp/CF_XMC4700/cleanflight/src/main/fc\rc_controls.h **** } rcControlsConfig_t;
 138:D:/XMC/Projekte/Temp/CF_XMC4700/cleanflight/src/main/fc\rc_controls.h **** 
 139:D:/XMC/Projekte/Temp/CF_XMC4700/cleanflight/src/main/fc\rc_controls.h **** PG_DECLARE(rcControlsConfig_t, rcControlsConfig);
 566              	 .loc 7 139 0
 567              	 .cfi_startproc
 568              	 
 569              	 
 570              	 
 571 0000 80B4     	 push {r7}
 572              	.LCFI58:
 573              	 .cfi_def_cfa_offset 4
 574              	 .cfi_offset 7,-4
 575 0002 00AF     	 add r7,sp,#0
 576              	.LCFI59:
 577              	 .cfi_def_cfa_register 7
 578              	 .loc 7 139 0
 579 0004 024B     	 ldr r3,.L51
 580 0006 1846     	 mov r0,r3
 581 0008 BD46     	 mov sp,r7
 582              	.LCFI60:
 583              	 .cfi_def_cfa_register 13
 584              	 
 585 000a 5DF8047B 	 ldr r7,[sp],#4
 586              	.LCFI61:
 587              	 .cfi_restore 7
 588              	 .cfi_def_cfa_offset 0
 589 000e 7047     	 bx lr
 590              	.L52:
 591              	 .align 2
 592              	.L51:
 593 0010 00000000 	 .word rcControlsConfig_System
 594              	 .cfi_endproc
 595              	.LFE564:
 597              	 .section .text.rcControlsConfigMutable,"ax",%progbits
 598              	 .align 2
 599              	 .thumb
 600              	 .thumb_func
 602              	rcControlsConfigMutable:
 603              	.LFB565:
 604              	 .loc 7 139 0
 605              	 .cfi_startproc
 606              	 
 607              	 
 608              	 
 609 0000 80B4     	 push {r7}
 610              	.LCFI62:
 611              	 .cfi_def_cfa_offset 4
 612              	 .cfi_offset 7,-4
 613 0002 00AF     	 add r7,sp,#0
 614              	.LCFI63:
 615              	 .cfi_def_cfa_register 7
 616              	 .loc 7 139 0
 617 0004 024B     	 ldr r3,.L55
 618 0006 1846     	 mov r0,r3
 619 0008 BD46     	 mov sp,r7
 620              	.LCFI64:
 621              	 .cfi_def_cfa_register 13
 622              	 
 623 000a 5DF8047B 	 ldr r7,[sp],#4
 624              	.LCFI65:
 625              	 .cfi_restore 7
 626              	 .cfi_def_cfa_offset 0
 627 000e 7047     	 bx lr
 628              	.L56:
 629              	 .align 2
 630              	.L55:
 631 0010 00000000 	 .word rcControlsConfig_System
 632              	 .cfi_endproc
 633              	.LFE565:
 635              	 .section .text.flight3DConfig,"ax",%progbits
 636              	 .align 2
 637              	 .thumb
 638              	 .thumb_func
 640              	flight3DConfig:
 641              	.LFB566:
 140:D:/XMC/Projekte/Temp/CF_XMC4700/cleanflight/src/main/fc\rc_controls.h **** 
 141:D:/XMC/Projekte/Temp/CF_XMC4700/cleanflight/src/main/fc\rc_controls.h **** typedef struct flight3DConfig_s {
 142:D:/XMC/Projekte/Temp/CF_XMC4700/cleanflight/src/main/fc\rc_controls.h ****     uint16_t deadband3d_low;                // min 3d value
 143:D:/XMC/Projekte/Temp/CF_XMC4700/cleanflight/src/main/fc\rc_controls.h ****     uint16_t deadband3d_high;               // max 3d value
 144:D:/XMC/Projekte/Temp/CF_XMC4700/cleanflight/src/main/fc\rc_controls.h ****     uint16_t neutral3d;                     // center 3d value
 145:D:/XMC/Projekte/Temp/CF_XMC4700/cleanflight/src/main/fc\rc_controls.h ****     uint16_t deadband3d_throttle;           // default throttle deadband from MIDRC
 146:D:/XMC/Projekte/Temp/CF_XMC4700/cleanflight/src/main/fc\rc_controls.h ****     uint16_t limit3d_low;                   // pwm output value for max negative thrust
 147:D:/XMC/Projekte/Temp/CF_XMC4700/cleanflight/src/main/fc\rc_controls.h ****     uint16_t limit3d_high;                  // pwm output value for max positive thrust
 148:D:/XMC/Projekte/Temp/CF_XMC4700/cleanflight/src/main/fc\rc_controls.h ****     uint8_t switched_mode3d;                // enable '3D Switched Mode'
 149:D:/XMC/Projekte/Temp/CF_XMC4700/cleanflight/src/main/fc\rc_controls.h **** } flight3DConfig_t;
 150:D:/XMC/Projekte/Temp/CF_XMC4700/cleanflight/src/main/fc\rc_controls.h **** 
 151:D:/XMC/Projekte/Temp/CF_XMC4700/cleanflight/src/main/fc\rc_controls.h **** PG_DECLARE(flight3DConfig_t, flight3DConfig);
 642              	 .loc 7 151 0
 643              	 .cfi_startproc
 644              	 
 645              	 
 646              	 
 647 0000 80B4     	 push {r7}
 648              	.LCFI66:
 649              	 .cfi_def_cfa_offset 4
 650              	 .cfi_offset 7,-4
 651 0002 00AF     	 add r7,sp,#0
 652              	.LCFI67:
 653              	 .cfi_def_cfa_register 7
 654              	 .loc 7 151 0
 655 0004 024B     	 ldr r3,.L59
 656 0006 1846     	 mov r0,r3
 657 0008 BD46     	 mov sp,r7
 658              	.LCFI68:
 659              	 .cfi_def_cfa_register 13
 660              	 
 661 000a 5DF8047B 	 ldr r7,[sp],#4
 662              	.LCFI69:
 663              	 .cfi_restore 7
 664              	 .cfi_def_cfa_offset 0
 665 000e 7047     	 bx lr
 666              	.L60:
 667              	 .align 2
 668              	.L59:
 669 0010 00000000 	 .word flight3DConfig_System
 670              	 .cfi_endproc
 671              	.LFE566:
 673              	 .section .text.flight3DConfigMutable,"ax",%progbits
 674              	 .align 2
 675              	 .thumb
 676              	 .thumb_func
 678              	flight3DConfigMutable:
 679              	.LFB567:
 680              	 .loc 7 151 0
 681              	 .cfi_startproc
 682              	 
 683              	 
 684              	 
 685 0000 80B4     	 push {r7}
 686              	.LCFI70:
 687              	 .cfi_def_cfa_offset 4
 688              	 .cfi_offset 7,-4
 689 0002 00AF     	 add r7,sp,#0
 690              	.LCFI71:
 691              	 .cfi_def_cfa_register 7
 692              	 .loc 7 151 0
 693 0004 024B     	 ldr r3,.L63
 694 0006 1846     	 mov r0,r3
 695 0008 BD46     	 mov sp,r7
 696              	.LCFI72:
 697              	 .cfi_def_cfa_register 13
 698              	 
 699 000a 5DF8047B 	 ldr r7,[sp],#4
 700              	.LCFI73:
 701              	 .cfi_restore 7
 702              	 .cfi_def_cfa_offset 0
 703 000e 7047     	 bx lr
 704              	.L64:
 705              	 .align 2
 706              	.L63:
 707 0010 00000000 	 .word flight3DConfig_System
 708              	 .cfi_endproc
 709              	.LFE567:
 711              	 .section .text.armingConfig,"ax",%progbits
 712              	 .align 2
 713              	 .thumb
 714              	 .thumb_func
 716              	armingConfig:
 717              	.LFB568:
 152:D:/XMC/Projekte/Temp/CF_XMC4700/cleanflight/src/main/fc\rc_controls.h **** 
 153:D:/XMC/Projekte/Temp/CF_XMC4700/cleanflight/src/main/fc\rc_controls.h **** typedef struct armingConfig_s {
 154:D:/XMC/Projekte/Temp/CF_XMC4700/cleanflight/src/main/fc\rc_controls.h ****     uint8_t gyro_cal_on_first_arm;          // allow disarm/arm on throttle down + roll left/right
 155:D:/XMC/Projekte/Temp/CF_XMC4700/cleanflight/src/main/fc\rc_controls.h ****     uint8_t auto_disarm_delay;              // allow automatically disarming multicopters after aut
 156:D:/XMC/Projekte/Temp/CF_XMC4700/cleanflight/src/main/fc\rc_controls.h **** } armingConfig_t;
 157:D:/XMC/Projekte/Temp/CF_XMC4700/cleanflight/src/main/fc\rc_controls.h **** 
 158:D:/XMC/Projekte/Temp/CF_XMC4700/cleanflight/src/main/fc\rc_controls.h **** PG_DECLARE(armingConfig_t, armingConfig);
 718              	 .loc 7 158 0
 719              	 .cfi_startproc
 720              	 
 721              	 
 722              	 
 723 0000 80B4     	 push {r7}
 724              	.LCFI74:
 725              	 .cfi_def_cfa_offset 4
 726              	 .cfi_offset 7,-4
 727 0002 00AF     	 add r7,sp,#0
 728              	.LCFI75:
 729              	 .cfi_def_cfa_register 7
 730              	 .loc 7 158 0
 731 0004 024B     	 ldr r3,.L67
 732 0006 1846     	 mov r0,r3
 733 0008 BD46     	 mov sp,r7
 734              	.LCFI76:
 735              	 .cfi_def_cfa_register 13
 736              	 
 737 000a 5DF8047B 	 ldr r7,[sp],#4
 738              	.LCFI77:
 739              	 .cfi_restore 7
 740              	 .cfi_def_cfa_offset 0
 741 000e 7047     	 bx lr
 742              	.L68:
 743              	 .align 2
 744              	.L67:
 745 0010 00000000 	 .word armingConfig_System
 746              	 .cfi_endproc
 747              	.LFE568:
 749              	 .section .text.armingConfigMutable,"ax",%progbits
 750              	 .align 2
 751              	 .thumb
 752              	 .thumb_func
 754              	armingConfigMutable:
 755              	.LFB569:
 756              	 .loc 7 158 0
 757              	 .cfi_startproc
 758              	 
 759              	 
 760              	 
 761 0000 80B4     	 push {r7}
 762              	.LCFI78:
 763              	 .cfi_def_cfa_offset 4
 764              	 .cfi_offset 7,-4
 765 0002 00AF     	 add r7,sp,#0
 766              	.LCFI79:
 767              	 .cfi_def_cfa_register 7
 768              	 .loc 7 158 0
 769 0004 024B     	 ldr r3,.L71
 770 0006 1846     	 mov r0,r3
 771 0008 BD46     	 mov sp,r7
 772              	.LCFI80:
 773              	 .cfi_def_cfa_register 13
 774              	 
 775 000a 5DF8047B 	 ldr r7,[sp],#4
 776              	.LCFI81:
 777              	 .cfi_restore 7
 778              	 .cfi_def_cfa_offset 0
 779 000e 7047     	 bx lr
 780              	.L72:
 781              	 .align 2
 782              	.L71:
 783 0010 00000000 	 .word armingConfig_System
 784              	 .cfi_endproc
 785              	.LFE569:
 787              	 .section .text.failsafeConfig,"ax",%progbits
 788              	 .align 2
 789              	 .thumb
 790              	 .thumb_func
 792              	failsafeConfig:
 793              	.LFB570:
 794              	 .file 8 "D:/XMC/Projekte/Temp/CF_XMC4700/cleanflight/src/main/flight/failsafe.h"
   1:D:/XMC/Projekte/Temp/CF_XMC4700/cleanflight/src/main/flight\failsafe.h **** /*
   2:D:/XMC/Projekte/Temp/CF_XMC4700/cleanflight/src/main/flight\failsafe.h ****  * This file is part of Cleanflight and Betaflight.
   3:D:/XMC/Projekte/Temp/CF_XMC4700/cleanflight/src/main/flight\failsafe.h ****  *
   4:D:/XMC/Projekte/Temp/CF_XMC4700/cleanflight/src/main/flight\failsafe.h ****  * Cleanflight and Betaflight are free software. You can redistribute
   5:D:/XMC/Projekte/Temp/CF_XMC4700/cleanflight/src/main/flight\failsafe.h ****  * this software and/or modify this software under the terms of the
   6:D:/XMC/Projekte/Temp/CF_XMC4700/cleanflight/src/main/flight\failsafe.h ****  * GNU General Public License as published by the Free Software
   7:D:/XMC/Projekte/Temp/CF_XMC4700/cleanflight/src/main/flight\failsafe.h ****  * Foundation, either version 3 of the License, or (at your option)
   8:D:/XMC/Projekte/Temp/CF_XMC4700/cleanflight/src/main/flight\failsafe.h ****  * any later version.
   9:D:/XMC/Projekte/Temp/CF_XMC4700/cleanflight/src/main/flight\failsafe.h ****  *
  10:D:/XMC/Projekte/Temp/CF_XMC4700/cleanflight/src/main/flight\failsafe.h ****  * Cleanflight and Betaflight are distributed in the hope that they
  11:D:/XMC/Projekte/Temp/CF_XMC4700/cleanflight/src/main/flight\failsafe.h ****  * will be useful, but WITHOUT ANY WARRANTY; without even the implied
  12:D:/XMC/Projekte/Temp/CF_XMC4700/cleanflight/src/main/flight\failsafe.h ****  * warranty of MERCHANTABILITY or FITNESS FOR A PARTICULAR PURPOSE.
  13:D:/XMC/Projekte/Temp/CF_XMC4700/cleanflight/src/main/flight\failsafe.h ****  * See the GNU General Public License for more details.
  14:D:/XMC/Projekte/Temp/CF_XMC4700/cleanflight/src/main/flight\failsafe.h ****  *
  15:D:/XMC/Projekte/Temp/CF_XMC4700/cleanflight/src/main/flight\failsafe.h ****  * You should have received a copy of the GNU General Public License
  16:D:/XMC/Projekte/Temp/CF_XMC4700/cleanflight/src/main/flight\failsafe.h ****  * along with this software.
  17:D:/XMC/Projekte/Temp/CF_XMC4700/cleanflight/src/main/flight\failsafe.h ****  *
  18:D:/XMC/Projekte/Temp/CF_XMC4700/cleanflight/src/main/flight\failsafe.h ****  * If not, see <http://www.gnu.org/licenses/>.
  19:D:/XMC/Projekte/Temp/CF_XMC4700/cleanflight/src/main/flight\failsafe.h ****  */
  20:D:/XMC/Projekte/Temp/CF_XMC4700/cleanflight/src/main/flight\failsafe.h **** 
  21:D:/XMC/Projekte/Temp/CF_XMC4700/cleanflight/src/main/flight\failsafe.h **** #pragma once
  22:D:/XMC/Projekte/Temp/CF_XMC4700/cleanflight/src/main/flight\failsafe.h **** 
  23:D:/XMC/Projekte/Temp/CF_XMC4700/cleanflight/src/main/flight\failsafe.h **** #include "pg/pg.h"
  24:D:/XMC/Projekte/Temp/CF_XMC4700/cleanflight/src/main/flight\failsafe.h **** 
  25:D:/XMC/Projekte/Temp/CF_XMC4700/cleanflight/src/main/flight\failsafe.h **** #define FAILSAFE_POWER_ON_DELAY_US (1000 * 1000 * 5)
  26:D:/XMC/Projekte/Temp/CF_XMC4700/cleanflight/src/main/flight\failsafe.h **** #define MILLIS_PER_TENTH_SECOND      100
  27:D:/XMC/Projekte/Temp/CF_XMC4700/cleanflight/src/main/flight\failsafe.h **** #define MILLIS_PER_SECOND           1000
  28:D:/XMC/Projekte/Temp/CF_XMC4700/cleanflight/src/main/flight\failsafe.h **** #define PERIOD_OF_1_SECONDS            1 * MILLIS_PER_SECOND
  29:D:/XMC/Projekte/Temp/CF_XMC4700/cleanflight/src/main/flight\failsafe.h **** #define PERIOD_OF_3_SECONDS            3 * MILLIS_PER_SECOND
  30:D:/XMC/Projekte/Temp/CF_XMC4700/cleanflight/src/main/flight\failsafe.h **** #define PERIOD_OF_30_SECONDS          30 * MILLIS_PER_SECOND
  31:D:/XMC/Projekte/Temp/CF_XMC4700/cleanflight/src/main/flight\failsafe.h **** #define PERIOD_RXDATA_FAILURE        200    // millis
  32:D:/XMC/Projekte/Temp/CF_XMC4700/cleanflight/src/main/flight\failsafe.h **** #define PERIOD_RXDATA_RECOVERY       200    // millis
  33:D:/XMC/Projekte/Temp/CF_XMC4700/cleanflight/src/main/flight\failsafe.h **** 
  34:D:/XMC/Projekte/Temp/CF_XMC4700/cleanflight/src/main/flight\failsafe.h **** 
  35:D:/XMC/Projekte/Temp/CF_XMC4700/cleanflight/src/main/flight\failsafe.h **** typedef struct failsafeConfig_s {
  36:D:/XMC/Projekte/Temp/CF_XMC4700/cleanflight/src/main/flight\failsafe.h ****     uint16_t failsafe_throttle;             // Throttle level used for landing - specify value betw
  37:D:/XMC/Projekte/Temp/CF_XMC4700/cleanflight/src/main/flight\failsafe.h ****     uint16_t failsafe_throttle_low_delay;   // Time throttle stick must have been below 'min_check'
  38:D:/XMC/Projekte/Temp/CF_XMC4700/cleanflight/src/main/flight\failsafe.h ****     uint8_t failsafe_delay;                 // Guard time for failsafe activation after signal lost
  39:D:/XMC/Projekte/Temp/CF_XMC4700/cleanflight/src/main/flight\failsafe.h ****     uint8_t failsafe_off_delay;             // Time for Landing before motors stop in 0.1sec. 1 ste
  40:D:/XMC/Projekte/Temp/CF_XMC4700/cleanflight/src/main/flight\failsafe.h ****     uint8_t failsafe_switch_mode;           // failsafe switch action is 0: stage1 (identical to rc
  41:D:/XMC/Projekte/Temp/CF_XMC4700/cleanflight/src/main/flight\failsafe.h ****     uint8_t failsafe_procedure;             // selected full failsafe procedure is 0: auto-landing,
  42:D:/XMC/Projekte/Temp/CF_XMC4700/cleanflight/src/main/flight\failsafe.h **** } failsafeConfig_t;
  43:D:/XMC/Projekte/Temp/CF_XMC4700/cleanflight/src/main/flight\failsafe.h **** 
  44:D:/XMC/Projekte/Temp/CF_XMC4700/cleanflight/src/main/flight\failsafe.h **** PG_DECLARE(failsafeConfig_t, failsafeConfig);
 795              	 .loc 8 44 0
 796              	 .cfi_startproc
 797              	 
 798              	 
 799              	 
 800 0000 80B4     	 push {r7}
 801              	.LCFI82:
 802              	 .cfi_def_cfa_offset 4
 803              	 .cfi_offset 7,-4
 804 0002 00AF     	 add r7,sp,#0
 805              	.LCFI83:
 806              	 .cfi_def_cfa_register 7
 807              	 .loc 8 44 0
 808 0004 024B     	 ldr r3,.L75
 809 0006 1846     	 mov r0,r3
 810 0008 BD46     	 mov sp,r7
 811              	.LCFI84:
 812              	 .cfi_def_cfa_register 13
 813              	 
 814 000a 5DF8047B 	 ldr r7,[sp],#4
 815              	.LCFI85:
 816              	 .cfi_restore 7
 817              	 .cfi_def_cfa_offset 0
 818 000e 7047     	 bx lr
 819              	.L76:
 820              	 .align 2
 821              	.L75:
 822 0010 00000000 	 .word failsafeConfig_System
 823              	 .cfi_endproc
 824              	.LFE570:
 826              	 .section .text.failsafeConfigMutable,"ax",%progbits
 827              	 .align 2
 828              	 .thumb
 829              	 .thumb_func
 831              	failsafeConfigMutable:
 832              	.LFB571:
 833              	 .loc 8 44 0
 834              	 .cfi_startproc
 835              	 
 836              	 
 837              	 
 838 0000 80B4     	 push {r7}
 839              	.LCFI86:
 840              	 .cfi_def_cfa_offset 4
 841              	 .cfi_offset 7,-4
 842 0002 00AF     	 add r7,sp,#0
 843              	.LCFI87:
 844              	 .cfi_def_cfa_register 7
 845              	 .loc 8 44 0
 846 0004 024B     	 ldr r3,.L79
 847 0006 1846     	 mov r0,r3
 848 0008 BD46     	 mov sp,r7
 849              	.LCFI88:
 850              	 .cfi_def_cfa_register 13
 851              	 
 852 000a 5DF8047B 	 ldr r7,[sp],#4
 853              	.LCFI89:
 854              	 .cfi_restore 7
 855              	 .cfi_def_cfa_offset 0
 856 000e 7047     	 bx lr
 857              	.L80:
 858              	 .align 2
 859              	.L79:
 860 0010 00000000 	 .word failsafeConfig_System
 861              	 .cfi_endproc
 862              	.LFE571:
 864              	 .section .text.imuConfig,"ax",%progbits
 865              	 .align 2
 866              	 .thumb
 867              	 .thumb_func
 869              	imuConfig:
 870              	.LFB572:
 871              	 .file 9 "D:/XMC/Projekte/Temp/CF_XMC4700/cleanflight/src/main/flight/imu.h"
   1:D:/XMC/Projekte/Temp/CF_XMC4700/cleanflight/src/main/flight\imu.h **** /*
   2:D:/XMC/Projekte/Temp/CF_XMC4700/cleanflight/src/main/flight\imu.h ****  * This file is part of Cleanflight and Betaflight.
   3:D:/XMC/Projekte/Temp/CF_XMC4700/cleanflight/src/main/flight\imu.h ****  *
   4:D:/XMC/Projekte/Temp/CF_XMC4700/cleanflight/src/main/flight\imu.h ****  * Cleanflight and Betaflight are free software. You can redistribute
   5:D:/XMC/Projekte/Temp/CF_XMC4700/cleanflight/src/main/flight\imu.h ****  * this software and/or modify this software under the terms of the
   6:D:/XMC/Projekte/Temp/CF_XMC4700/cleanflight/src/main/flight\imu.h ****  * GNU General Public License as published by the Free Software
   7:D:/XMC/Projekte/Temp/CF_XMC4700/cleanflight/src/main/flight\imu.h ****  * Foundation, either version 3 of the License, or (at your option)
   8:D:/XMC/Projekte/Temp/CF_XMC4700/cleanflight/src/main/flight\imu.h ****  * any later version.
   9:D:/XMC/Projekte/Temp/CF_XMC4700/cleanflight/src/main/flight\imu.h ****  *
  10:D:/XMC/Projekte/Temp/CF_XMC4700/cleanflight/src/main/flight\imu.h ****  * Cleanflight and Betaflight are distributed in the hope that they
  11:D:/XMC/Projekte/Temp/CF_XMC4700/cleanflight/src/main/flight\imu.h ****  * will be useful, but WITHOUT ANY WARRANTY; without even the implied
  12:D:/XMC/Projekte/Temp/CF_XMC4700/cleanflight/src/main/flight\imu.h ****  * warranty of MERCHANTABILITY or FITNESS FOR A PARTICULAR PURPOSE.
  13:D:/XMC/Projekte/Temp/CF_XMC4700/cleanflight/src/main/flight\imu.h ****  * See the GNU General Public License for more details.
  14:D:/XMC/Projekte/Temp/CF_XMC4700/cleanflight/src/main/flight\imu.h ****  *
  15:D:/XMC/Projekte/Temp/CF_XMC4700/cleanflight/src/main/flight\imu.h ****  * You should have received a copy of the GNU General Public License
  16:D:/XMC/Projekte/Temp/CF_XMC4700/cleanflight/src/main/flight\imu.h ****  * along with this software.
  17:D:/XMC/Projekte/Temp/CF_XMC4700/cleanflight/src/main/flight\imu.h ****  *
  18:D:/XMC/Projekte/Temp/CF_XMC4700/cleanflight/src/main/flight\imu.h ****  * If not, see <http://www.gnu.org/licenses/>.
  19:D:/XMC/Projekte/Temp/CF_XMC4700/cleanflight/src/main/flight\imu.h ****  */
  20:D:/XMC/Projekte/Temp/CF_XMC4700/cleanflight/src/main/flight\imu.h **** 
  21:D:/XMC/Projekte/Temp/CF_XMC4700/cleanflight/src/main/flight\imu.h **** #pragma once
  22:D:/XMC/Projekte/Temp/CF_XMC4700/cleanflight/src/main/flight\imu.h **** 
  23:D:/XMC/Projekte/Temp/CF_XMC4700/cleanflight/src/main/flight\imu.h **** #include "common/axis.h"
  24:D:/XMC/Projekte/Temp/CF_XMC4700/cleanflight/src/main/flight\imu.h **** #include "common/time.h"
  25:D:/XMC/Projekte/Temp/CF_XMC4700/cleanflight/src/main/flight\imu.h **** #include "common/maths.h"
  26:D:/XMC/Projekte/Temp/CF_XMC4700/cleanflight/src/main/flight\imu.h **** #include "pg/pg.h"
  27:D:/XMC/Projekte/Temp/CF_XMC4700/cleanflight/src/main/flight\imu.h **** 
  28:D:/XMC/Projekte/Temp/CF_XMC4700/cleanflight/src/main/flight\imu.h **** // Exported symbols
  29:D:/XMC/Projekte/Temp/CF_XMC4700/cleanflight/src/main/flight\imu.h **** extern uint32_t accTimeSum;
  30:D:/XMC/Projekte/Temp/CF_XMC4700/cleanflight/src/main/flight\imu.h **** extern int accSumCount;
  31:D:/XMC/Projekte/Temp/CF_XMC4700/cleanflight/src/main/flight\imu.h **** extern float accVelScale;
  32:D:/XMC/Projekte/Temp/CF_XMC4700/cleanflight/src/main/flight\imu.h **** extern int32_t accSum[XYZ_AXIS_COUNT];
  33:D:/XMC/Projekte/Temp/CF_XMC4700/cleanflight/src/main/flight\imu.h **** extern bool canUseGPSHeading;
  34:D:/XMC/Projekte/Temp/CF_XMC4700/cleanflight/src/main/flight\imu.h **** extern float accAverage[XYZ_AXIS_COUNT];
  35:D:/XMC/Projekte/Temp/CF_XMC4700/cleanflight/src/main/flight\imu.h **** 
  36:D:/XMC/Projekte/Temp/CF_XMC4700/cleanflight/src/main/flight\imu.h **** typedef struct {
  37:D:/XMC/Projekte/Temp/CF_XMC4700/cleanflight/src/main/flight\imu.h ****     float w,x,y,z;
  38:D:/XMC/Projekte/Temp/CF_XMC4700/cleanflight/src/main/flight\imu.h **** } quaternion;
  39:D:/XMC/Projekte/Temp/CF_XMC4700/cleanflight/src/main/flight\imu.h **** #define QUATERNION_INITIALIZE  {.w=1, .x=0, .y=0,.z=0}
  40:D:/XMC/Projekte/Temp/CF_XMC4700/cleanflight/src/main/flight\imu.h **** 
  41:D:/XMC/Projekte/Temp/CF_XMC4700/cleanflight/src/main/flight\imu.h **** typedef struct {
  42:D:/XMC/Projekte/Temp/CF_XMC4700/cleanflight/src/main/flight\imu.h ****     float ww,wx,wy,wz,xx,xy,xz,yy,yz,zz;
  43:D:/XMC/Projekte/Temp/CF_XMC4700/cleanflight/src/main/flight\imu.h **** } quaternionProducts;
  44:D:/XMC/Projekte/Temp/CF_XMC4700/cleanflight/src/main/flight\imu.h **** #define QUATERNION_PRODUCTS_INITIALIZE  {.ww=1, .wx=0, .wy=0, .wz=0, .xx=0, .xy=0, .xz=0, .yy=0, .y
  45:D:/XMC/Projekte/Temp/CF_XMC4700/cleanflight/src/main/flight\imu.h **** 
  46:D:/XMC/Projekte/Temp/CF_XMC4700/cleanflight/src/main/flight\imu.h **** typedef union {
  47:D:/XMC/Projekte/Temp/CF_XMC4700/cleanflight/src/main/flight\imu.h ****     int16_t raw[XYZ_AXIS_COUNT];
  48:D:/XMC/Projekte/Temp/CF_XMC4700/cleanflight/src/main/flight\imu.h ****     struct {
  49:D:/XMC/Projekte/Temp/CF_XMC4700/cleanflight/src/main/flight\imu.h ****         // absolute angle inclination in multiple of 0.1 degree    180 deg = 1800
  50:D:/XMC/Projekte/Temp/CF_XMC4700/cleanflight/src/main/flight\imu.h ****         int16_t roll;
  51:D:/XMC/Projekte/Temp/CF_XMC4700/cleanflight/src/main/flight\imu.h ****         int16_t pitch;
  52:D:/XMC/Projekte/Temp/CF_XMC4700/cleanflight/src/main/flight\imu.h ****         int16_t yaw;
  53:D:/XMC/Projekte/Temp/CF_XMC4700/cleanflight/src/main/flight\imu.h ****     } values;
  54:D:/XMC/Projekte/Temp/CF_XMC4700/cleanflight/src/main/flight\imu.h **** } attitudeEulerAngles_t;
  55:D:/XMC/Projekte/Temp/CF_XMC4700/cleanflight/src/main/flight\imu.h **** #define EULER_INITIALIZE  { { 0, 0, 0 } }
  56:D:/XMC/Projekte/Temp/CF_XMC4700/cleanflight/src/main/flight\imu.h **** 
  57:D:/XMC/Projekte/Temp/CF_XMC4700/cleanflight/src/main/flight\imu.h **** extern attitudeEulerAngles_t attitude;
  58:D:/XMC/Projekte/Temp/CF_XMC4700/cleanflight/src/main/flight\imu.h **** 
  59:D:/XMC/Projekte/Temp/CF_XMC4700/cleanflight/src/main/flight\imu.h **** typedef struct accDeadband_s {
  60:D:/XMC/Projekte/Temp/CF_XMC4700/cleanflight/src/main/flight\imu.h ****     uint8_t xy;                 // set the acc deadband for xy-Axis
  61:D:/XMC/Projekte/Temp/CF_XMC4700/cleanflight/src/main/flight\imu.h ****     uint8_t z;                  // set the acc deadband for z-Axis, this ignores small acceleration
  62:D:/XMC/Projekte/Temp/CF_XMC4700/cleanflight/src/main/flight\imu.h **** } accDeadband_t;
  63:D:/XMC/Projekte/Temp/CF_XMC4700/cleanflight/src/main/flight\imu.h **** 
  64:D:/XMC/Projekte/Temp/CF_XMC4700/cleanflight/src/main/flight\imu.h **** typedef struct imuConfig_s {
  65:D:/XMC/Projekte/Temp/CF_XMC4700/cleanflight/src/main/flight\imu.h ****     uint16_t dcm_kp;                        // DCM filter proportional gain ( x 10000)
  66:D:/XMC/Projekte/Temp/CF_XMC4700/cleanflight/src/main/flight\imu.h ****     uint16_t dcm_ki;                        // DCM filter integral gain ( x 10000)
  67:D:/XMC/Projekte/Temp/CF_XMC4700/cleanflight/src/main/flight\imu.h ****     uint8_t small_angle;
  68:D:/XMC/Projekte/Temp/CF_XMC4700/cleanflight/src/main/flight\imu.h ****     uint8_t acc_unarmedcal;                 // turn automatic acc compensation on/off
  69:D:/XMC/Projekte/Temp/CF_XMC4700/cleanflight/src/main/flight\imu.h ****     accDeadband_t accDeadband;
  70:D:/XMC/Projekte/Temp/CF_XMC4700/cleanflight/src/main/flight\imu.h **** } imuConfig_t;
  71:D:/XMC/Projekte/Temp/CF_XMC4700/cleanflight/src/main/flight\imu.h **** 
  72:D:/XMC/Projekte/Temp/CF_XMC4700/cleanflight/src/main/flight\imu.h **** PG_DECLARE(imuConfig_t, imuConfig);
 872              	 .loc 9 72 0
 873              	 .cfi_startproc
 874              	 
 875              	 
 876              	 
 877 0000 80B4     	 push {r7}
 878              	.LCFI90:
 879              	 .cfi_def_cfa_offset 4
 880              	 .cfi_offset 7,-4
 881 0002 00AF     	 add r7,sp,#0
 882              	.LCFI91:
 883              	 .cfi_def_cfa_register 7
 884              	 .loc 9 72 0
 885 0004 024B     	 ldr r3,.L83
 886 0006 1846     	 mov r0,r3
 887 0008 BD46     	 mov sp,r7
 888              	.LCFI92:
 889              	 .cfi_def_cfa_register 13
 890              	 
 891 000a 5DF8047B 	 ldr r7,[sp],#4
 892              	.LCFI93:
 893              	 .cfi_restore 7
 894              	 .cfi_def_cfa_offset 0
 895 000e 7047     	 bx lr
 896              	.L84:
 897              	 .align 2
 898              	.L83:
 899 0010 00000000 	 .word imuConfig_System
 900              	 .cfi_endproc
 901              	.LFE572:
 903              	 .section .text.imuConfigMutable,"ax",%progbits
 904              	 .align 2
 905              	 .thumb
 906              	 .thumb_func
 908              	imuConfigMutable:
 909              	.LFB573:
 910              	 .loc 9 72 0
 911              	 .cfi_startproc
 912              	 
 913              	 
 914              	 
 915 0000 80B4     	 push {r7}
 916              	.LCFI94:
 917              	 .cfi_def_cfa_offset 4
 918              	 .cfi_offset 7,-4
 919 0002 00AF     	 add r7,sp,#0
 920              	.LCFI95:
 921              	 .cfi_def_cfa_register 7
 922              	 .loc 9 72 0
 923 0004 024B     	 ldr r3,.L87
 924 0006 1846     	 mov r0,r3
 925 0008 BD46     	 mov sp,r7
 926              	.LCFI96:
 927              	 .cfi_def_cfa_register 13
 928              	 
 929 000a 5DF8047B 	 ldr r7,[sp],#4
 930              	.LCFI97:
 931              	 .cfi_restore 7
 932              	 .cfi_def_cfa_offset 0
 933 000e 7047     	 bx lr
 934              	.L88:
 935              	 .align 2
 936              	.L87:
 937 0010 00000000 	 .word imuConfig_System
 938              	 .cfi_endproc
 939              	.LFE573:
 941              	 .section .text.mixerConfig,"ax",%progbits
 942              	 .align 2
 943              	 .thumb
 944              	 .thumb_func
 946              	mixerConfig:
 947              	.LFB577:
 948              	 .file 10 "D:/XMC/Projekte/Temp/CF_XMC4700/cleanflight/src/main/flight/mixer.h"
   1:D:/XMC/Projekte/Temp/CF_XMC4700/cleanflight/src/main/flight\mixer.h **** /*
   2:D:/XMC/Projekte/Temp/CF_XMC4700/cleanflight/src/main/flight\mixer.h ****  * This file is part of Cleanflight and Betaflight.
   3:D:/XMC/Projekte/Temp/CF_XMC4700/cleanflight/src/main/flight\mixer.h ****  *
   4:D:/XMC/Projekte/Temp/CF_XMC4700/cleanflight/src/main/flight\mixer.h ****  * Cleanflight and Betaflight are free software. You can redistribute
   5:D:/XMC/Projekte/Temp/CF_XMC4700/cleanflight/src/main/flight\mixer.h ****  * this software and/or modify this software under the terms of the
   6:D:/XMC/Projekte/Temp/CF_XMC4700/cleanflight/src/main/flight\mixer.h ****  * GNU General Public License as published by the Free Software
   7:D:/XMC/Projekte/Temp/CF_XMC4700/cleanflight/src/main/flight\mixer.h ****  * Foundation, either version 3 of the License, or (at your option)
   8:D:/XMC/Projekte/Temp/CF_XMC4700/cleanflight/src/main/flight\mixer.h ****  * any later version.
   9:D:/XMC/Projekte/Temp/CF_XMC4700/cleanflight/src/main/flight\mixer.h ****  *
  10:D:/XMC/Projekte/Temp/CF_XMC4700/cleanflight/src/main/flight\mixer.h ****  * Cleanflight and Betaflight are distributed in the hope that they
  11:D:/XMC/Projekte/Temp/CF_XMC4700/cleanflight/src/main/flight\mixer.h ****  * will be useful, but WITHOUT ANY WARRANTY; without even the implied
  12:D:/XMC/Projekte/Temp/CF_XMC4700/cleanflight/src/main/flight\mixer.h ****  * warranty of MERCHANTABILITY or FITNESS FOR A PARTICULAR PURPOSE.
  13:D:/XMC/Projekte/Temp/CF_XMC4700/cleanflight/src/main/flight\mixer.h ****  * See the GNU General Public License for more details.
  14:D:/XMC/Projekte/Temp/CF_XMC4700/cleanflight/src/main/flight\mixer.h ****  *
  15:D:/XMC/Projekte/Temp/CF_XMC4700/cleanflight/src/main/flight\mixer.h ****  * You should have received a copy of the GNU General Public License
  16:D:/XMC/Projekte/Temp/CF_XMC4700/cleanflight/src/main/flight\mixer.h ****  * along with this software.
  17:D:/XMC/Projekte/Temp/CF_XMC4700/cleanflight/src/main/flight\mixer.h ****  *
  18:D:/XMC/Projekte/Temp/CF_XMC4700/cleanflight/src/main/flight\mixer.h ****  * If not, see <http://www.gnu.org/licenses/>.
  19:D:/XMC/Projekte/Temp/CF_XMC4700/cleanflight/src/main/flight\mixer.h ****  */
  20:D:/XMC/Projekte/Temp/CF_XMC4700/cleanflight/src/main/flight\mixer.h **** 
  21:D:/XMC/Projekte/Temp/CF_XMC4700/cleanflight/src/main/flight\mixer.h **** #pragma once
  22:D:/XMC/Projekte/Temp/CF_XMC4700/cleanflight/src/main/flight\mixer.h **** 
  23:D:/XMC/Projekte/Temp/CF_XMC4700/cleanflight/src/main/flight\mixer.h **** #include "platform.h"
  24:D:/XMC/Projekte/Temp/CF_XMC4700/cleanflight/src/main/flight\mixer.h **** 
  25:D:/XMC/Projekte/Temp/CF_XMC4700/cleanflight/src/main/flight\mixer.h **** #include "common/time.h"
  26:D:/XMC/Projekte/Temp/CF_XMC4700/cleanflight/src/main/flight\mixer.h **** #include "pg/pg.h"
  27:D:/XMC/Projekte/Temp/CF_XMC4700/cleanflight/src/main/flight\mixer.h **** #include "drivers/pwm_output_counts.h"
  28:D:/XMC/Projekte/Temp/CF_XMC4700/cleanflight/src/main/flight\mixer.h **** #include "drivers/io_types.h"
  29:D:/XMC/Projekte/Temp/CF_XMC4700/cleanflight/src/main/flight\mixer.h **** #include "drivers/pwm_output.h"
  30:D:/XMC/Projekte/Temp/CF_XMC4700/cleanflight/src/main/flight\mixer.h **** 
  31:D:/XMC/Projekte/Temp/CF_XMC4700/cleanflight/src/main/flight\mixer.h **** #define QUAD_MOTOR_COUNT 4
  32:D:/XMC/Projekte/Temp/CF_XMC4700/cleanflight/src/main/flight\mixer.h **** #define BRUSHED_MOTORS_PWM_RATE 16000
  33:D:/XMC/Projekte/Temp/CF_XMC4700/cleanflight/src/main/flight\mixer.h **** #define BRUSHLESS_MOTORS_PWM_RATE 480
  34:D:/XMC/Projekte/Temp/CF_XMC4700/cleanflight/src/main/flight\mixer.h **** 
  35:D:/XMC/Projekte/Temp/CF_XMC4700/cleanflight/src/main/flight\mixer.h **** // Digital protocol has fixed values
  36:D:/XMC/Projekte/Temp/CF_XMC4700/cleanflight/src/main/flight\mixer.h **** #define DSHOT_DISARM_COMMAND      0
  37:D:/XMC/Projekte/Temp/CF_XMC4700/cleanflight/src/main/flight\mixer.h **** #define DSHOT_MIN_THROTTLE       48
  38:D:/XMC/Projekte/Temp/CF_XMC4700/cleanflight/src/main/flight\mixer.h **** #define DSHOT_MAX_THROTTLE     2047
  39:D:/XMC/Projekte/Temp/CF_XMC4700/cleanflight/src/main/flight\mixer.h **** #define DSHOT_3D_DEADBAND_LOW  1047
  40:D:/XMC/Projekte/Temp/CF_XMC4700/cleanflight/src/main/flight\mixer.h **** #define DSHOT_3D_DEADBAND_HIGH 1048
  41:D:/XMC/Projekte/Temp/CF_XMC4700/cleanflight/src/main/flight\mixer.h **** 
  42:D:/XMC/Projekte/Temp/CF_XMC4700/cleanflight/src/main/flight\mixer.h **** // Note: this is called MultiType/MULTITYPE_* in baseflight.
  43:D:/XMC/Projekte/Temp/CF_XMC4700/cleanflight/src/main/flight\mixer.h **** typedef enum mixerMode
  44:D:/XMC/Projekte/Temp/CF_XMC4700/cleanflight/src/main/flight\mixer.h **** {
  45:D:/XMC/Projekte/Temp/CF_XMC4700/cleanflight/src/main/flight\mixer.h ****     MIXER_TRI = 1,
  46:D:/XMC/Projekte/Temp/CF_XMC4700/cleanflight/src/main/flight\mixer.h ****     MIXER_QUADP = 2,
  47:D:/XMC/Projekte/Temp/CF_XMC4700/cleanflight/src/main/flight\mixer.h ****     MIXER_QUADX = 3,
  48:D:/XMC/Projekte/Temp/CF_XMC4700/cleanflight/src/main/flight\mixer.h ****     MIXER_BICOPTER = 4,
  49:D:/XMC/Projekte/Temp/CF_XMC4700/cleanflight/src/main/flight\mixer.h ****     MIXER_GIMBAL = 5,
  50:D:/XMC/Projekte/Temp/CF_XMC4700/cleanflight/src/main/flight\mixer.h ****     MIXER_Y6 = 6,
  51:D:/XMC/Projekte/Temp/CF_XMC4700/cleanflight/src/main/flight\mixer.h ****     MIXER_HEX6 = 7,
  52:D:/XMC/Projekte/Temp/CF_XMC4700/cleanflight/src/main/flight\mixer.h ****     MIXER_FLYING_WING = 8,
  53:D:/XMC/Projekte/Temp/CF_XMC4700/cleanflight/src/main/flight\mixer.h ****     MIXER_Y4 = 9,
  54:D:/XMC/Projekte/Temp/CF_XMC4700/cleanflight/src/main/flight\mixer.h ****     MIXER_HEX6X = 10,
  55:D:/XMC/Projekte/Temp/CF_XMC4700/cleanflight/src/main/flight\mixer.h ****     MIXER_OCTOX8 = 11,
  56:D:/XMC/Projekte/Temp/CF_XMC4700/cleanflight/src/main/flight\mixer.h ****     MIXER_OCTOFLATP = 12,
  57:D:/XMC/Projekte/Temp/CF_XMC4700/cleanflight/src/main/flight\mixer.h ****     MIXER_OCTOFLATX = 13,
  58:D:/XMC/Projekte/Temp/CF_XMC4700/cleanflight/src/main/flight\mixer.h ****     MIXER_AIRPLANE = 14,        // airplane / singlecopter / dualcopter (not yet properly supported
  59:D:/XMC/Projekte/Temp/CF_XMC4700/cleanflight/src/main/flight\mixer.h ****     MIXER_HELI_120_CCPM = 15,
  60:D:/XMC/Projekte/Temp/CF_XMC4700/cleanflight/src/main/flight\mixer.h ****     MIXER_HELI_90_DEG = 16,
  61:D:/XMC/Projekte/Temp/CF_XMC4700/cleanflight/src/main/flight\mixer.h ****     MIXER_VTAIL4 = 17,
  62:D:/XMC/Projekte/Temp/CF_XMC4700/cleanflight/src/main/flight\mixer.h ****     MIXER_HEX6H = 18,
  63:D:/XMC/Projekte/Temp/CF_XMC4700/cleanflight/src/main/flight\mixer.h ****     MIXER_RX_TO_SERVO = 19,    // PPM -> servo relay
  64:D:/XMC/Projekte/Temp/CF_XMC4700/cleanflight/src/main/flight\mixer.h ****     MIXER_DUALCOPTER = 20,
  65:D:/XMC/Projekte/Temp/CF_XMC4700/cleanflight/src/main/flight\mixer.h ****     MIXER_SINGLECOPTER = 21,
  66:D:/XMC/Projekte/Temp/CF_XMC4700/cleanflight/src/main/flight\mixer.h ****     MIXER_ATAIL4 = 22,
  67:D:/XMC/Projekte/Temp/CF_XMC4700/cleanflight/src/main/flight\mixer.h ****     MIXER_CUSTOM = 23,
  68:D:/XMC/Projekte/Temp/CF_XMC4700/cleanflight/src/main/flight\mixer.h ****     MIXER_CUSTOM_AIRPLANE = 24,
  69:D:/XMC/Projekte/Temp/CF_XMC4700/cleanflight/src/main/flight\mixer.h ****     MIXER_CUSTOM_TRI = 25,
  70:D:/XMC/Projekte/Temp/CF_XMC4700/cleanflight/src/main/flight\mixer.h ****     MIXER_QUADX_1234 = 26
  71:D:/XMC/Projekte/Temp/CF_XMC4700/cleanflight/src/main/flight\mixer.h **** } mixerMode_e;
  72:D:/XMC/Projekte/Temp/CF_XMC4700/cleanflight/src/main/flight\mixer.h **** 
  73:D:/XMC/Projekte/Temp/CF_XMC4700/cleanflight/src/main/flight\mixer.h **** // Custom mixer data per motor
  74:D:/XMC/Projekte/Temp/CF_XMC4700/cleanflight/src/main/flight\mixer.h **** typedef struct motorMixer_s {
  75:D:/XMC/Projekte/Temp/CF_XMC4700/cleanflight/src/main/flight\mixer.h ****     float throttle;
  76:D:/XMC/Projekte/Temp/CF_XMC4700/cleanflight/src/main/flight\mixer.h ****     float roll;
  77:D:/XMC/Projekte/Temp/CF_XMC4700/cleanflight/src/main/flight\mixer.h ****     float pitch;
  78:D:/XMC/Projekte/Temp/CF_XMC4700/cleanflight/src/main/flight\mixer.h ****     float yaw;
  79:D:/XMC/Projekte/Temp/CF_XMC4700/cleanflight/src/main/flight\mixer.h **** } motorMixer_t;
  80:D:/XMC/Projekte/Temp/CF_XMC4700/cleanflight/src/main/flight\mixer.h **** 
  81:D:/XMC/Projekte/Temp/CF_XMC4700/cleanflight/src/main/flight\mixer.h **** PG_DECLARE_ARRAY(motorMixer_t, MAX_SUPPORTED_MOTORS, customMotorMixer);
  82:D:/XMC/Projekte/Temp/CF_XMC4700/cleanflight/src/main/flight\mixer.h **** 
  83:D:/XMC/Projekte/Temp/CF_XMC4700/cleanflight/src/main/flight\mixer.h **** // Custom mixer configuration
  84:D:/XMC/Projekte/Temp/CF_XMC4700/cleanflight/src/main/flight\mixer.h **** typedef struct mixer_s {
  85:D:/XMC/Projekte/Temp/CF_XMC4700/cleanflight/src/main/flight\mixer.h ****     uint8_t motorCount;
  86:D:/XMC/Projekte/Temp/CF_XMC4700/cleanflight/src/main/flight\mixer.h ****     uint8_t useServo;
  87:D:/XMC/Projekte/Temp/CF_XMC4700/cleanflight/src/main/flight\mixer.h ****     const motorMixer_t *motor;
  88:D:/XMC/Projekte/Temp/CF_XMC4700/cleanflight/src/main/flight\mixer.h **** } mixer_t;
  89:D:/XMC/Projekte/Temp/CF_XMC4700/cleanflight/src/main/flight\mixer.h **** 
  90:D:/XMC/Projekte/Temp/CF_XMC4700/cleanflight/src/main/flight\mixer.h **** typedef struct mixerConfig_s {
  91:D:/XMC/Projekte/Temp/CF_XMC4700/cleanflight/src/main/flight\mixer.h ****     uint8_t mixerMode;
  92:D:/XMC/Projekte/Temp/CF_XMC4700/cleanflight/src/main/flight\mixer.h ****     bool yaw_motors_reversed;
  93:D:/XMC/Projekte/Temp/CF_XMC4700/cleanflight/src/main/flight\mixer.h ****     uint8_t crashflip_motor_percent;
  94:D:/XMC/Projekte/Temp/CF_XMC4700/cleanflight/src/main/flight\mixer.h **** } mixerConfig_t;
  95:D:/XMC/Projekte/Temp/CF_XMC4700/cleanflight/src/main/flight\mixer.h **** 
  96:D:/XMC/Projekte/Temp/CF_XMC4700/cleanflight/src/main/flight\mixer.h **** PG_DECLARE(mixerConfig_t, mixerConfig);
 949              	 .loc 10 96 0
 950              	 .cfi_startproc
 951              	 
 952              	 
 953              	 
 954 0000 80B4     	 push {r7}
 955              	.LCFI98:
 956              	 .cfi_def_cfa_offset 4
 957              	 .cfi_offset 7,-4
 958 0002 00AF     	 add r7,sp,#0
 959              	.LCFI99:
 960              	 .cfi_def_cfa_register 7
 961              	 .loc 10 96 0
 962 0004 024B     	 ldr r3,.L91
 963 0006 1846     	 mov r0,r3
 964 0008 BD46     	 mov sp,r7
 965              	.LCFI100:
 966              	 .cfi_def_cfa_register 13
 967              	 
 968 000a 5DF8047B 	 ldr r7,[sp],#4
 969              	.LCFI101:
 970              	 .cfi_restore 7
 971              	 .cfi_def_cfa_offset 0
 972 000e 7047     	 bx lr
 973              	.L92:
 974              	 .align 2
 975              	.L91:
 976 0010 00000000 	 .word mixerConfig_System
 977              	 .cfi_endproc
 978              	.LFE577:
 980              	 .section .text.mixerConfigMutable,"ax",%progbits
 981              	 .align 2
 982              	 .thumb
 983              	 .thumb_func
 985              	mixerConfigMutable:
 986              	.LFB578:
 987              	 .loc 10 96 0
 988              	 .cfi_startproc
 989              	 
 990              	 
 991              	 
 992 0000 80B4     	 push {r7}
 993              	.LCFI102:
 994              	 .cfi_def_cfa_offset 4
 995              	 .cfi_offset 7,-4
 996 0002 00AF     	 add r7,sp,#0
 997              	.LCFI103:
 998              	 .cfi_def_cfa_register 7
 999              	 .loc 10 96 0
 1000 0004 024B     	 ldr r3,.L95
 1001 0006 1846     	 mov r0,r3
 1002 0008 BD46     	 mov sp,r7
 1003              	.LCFI104:
 1004              	 .cfi_def_cfa_register 13
 1005              	 
 1006 000a 5DF8047B 	 ldr r7,[sp],#4
 1007              	.LCFI105:
 1008              	 .cfi_restore 7
 1009              	 .cfi_def_cfa_offset 0
 1010 000e 7047     	 bx lr
 1011              	.L96:
 1012              	 .align 2
 1013              	.L95:
 1014 0010 00000000 	 .word mixerConfig_System
 1015              	 .cfi_endproc
 1016              	.LFE578:
 1018              	 .section .text.motorConfig,"ax",%progbits
 1019              	 .align 2
 1020              	 .thumb
 1021              	 .thumb_func
 1023              	motorConfig:
 1024              	.LFB579:
  97:D:/XMC/Projekte/Temp/CF_XMC4700/cleanflight/src/main/flight\mixer.h **** 
  98:D:/XMC/Projekte/Temp/CF_XMC4700/cleanflight/src/main/flight\mixer.h **** typedef struct motorConfig_s {
  99:D:/XMC/Projekte/Temp/CF_XMC4700/cleanflight/src/main/flight\mixer.h ****     motorDevConfig_t dev;
 100:D:/XMC/Projekte/Temp/CF_XMC4700/cleanflight/src/main/flight\mixer.h ****     uint16_t digitalIdleOffsetValue;        // Idle value for DShot protocol, full motor output = 1
 101:D:/XMC/Projekte/Temp/CF_XMC4700/cleanflight/src/main/flight\mixer.h ****     uint16_t minthrottle;                   // Set the minimum throttle command sent to the ESC (El
 102:D:/XMC/Projekte/Temp/CF_XMC4700/cleanflight/src/main/flight\mixer.h ****     uint16_t maxthrottle;                   // This is the maximum value for the ESCs at full power
 103:D:/XMC/Projekte/Temp/CF_XMC4700/cleanflight/src/main/flight\mixer.h ****     uint16_t mincommand;                    // This is the value for the ESCs when they are not arm
 104:D:/XMC/Projekte/Temp/CF_XMC4700/cleanflight/src/main/flight\mixer.h ****     uint8_t motorPoleCount;                // Magnetic poles in the motors for calculating actual R
 105:D:/XMC/Projekte/Temp/CF_XMC4700/cleanflight/src/main/flight\mixer.h **** } motorConfig_t;
 106:D:/XMC/Projekte/Temp/CF_XMC4700/cleanflight/src/main/flight\mixer.h **** 
 107:D:/XMC/Projekte/Temp/CF_XMC4700/cleanflight/src/main/flight\mixer.h **** PG_DECLARE(motorConfig_t, motorConfig);
 1025              	 .loc 10 107 0
 1026              	 .cfi_startproc
 1027              	 
 1028              	 
 1029              	 
 1030 0000 80B4     	 push {r7}
 1031              	.LCFI106:
 1032              	 .cfi_def_cfa_offset 4
 1033              	 .cfi_offset 7,-4
 1034 0002 00AF     	 add r7,sp,#0
 1035              	.LCFI107:
 1036              	 .cfi_def_cfa_register 7
 1037              	 .loc 10 107 0
 1038 0004 024B     	 ldr r3,.L99
 1039 0006 1846     	 mov r0,r3
 1040 0008 BD46     	 mov sp,r7
 1041              	.LCFI108:
 1042              	 .cfi_def_cfa_register 13
 1043              	 
 1044 000a 5DF8047B 	 ldr r7,[sp],#4
 1045              	.LCFI109:
 1046              	 .cfi_restore 7
 1047              	 .cfi_def_cfa_offset 0
 1048 000e 7047     	 bx lr
 1049              	.L100:
 1050              	 .align 2
 1051              	.L99:
 1052 0010 00000000 	 .word motorConfig_System
 1053              	 .cfi_endproc
 1054              	.LFE579:
 1056              	 .section .text.motorConfigMutable,"ax",%progbits
 1057              	 .align 2
 1058              	 .thumb
 1059              	 .thumb_func
 1061              	motorConfigMutable:
 1062              	.LFB580:
 1063              	 .loc 10 107 0
 1064              	 .cfi_startproc
 1065              	 
 1066              	 
 1067              	 
 1068 0000 80B4     	 push {r7}
 1069              	.LCFI110:
 1070              	 .cfi_def_cfa_offset 4
 1071              	 .cfi_offset 7,-4
 1072 0002 00AF     	 add r7,sp,#0
 1073              	.LCFI111:
 1074              	 .cfi_def_cfa_register 7
 1075              	 .loc 10 107 0
 1076 0004 024B     	 ldr r3,.L103
 1077 0006 1846     	 mov r0,r3
 1078 0008 BD46     	 mov sp,r7
 1079              	.LCFI112:
 1080              	 .cfi_def_cfa_register 13
 1081              	 
 1082 000a 5DF8047B 	 ldr r7,[sp],#4
 1083              	.LCFI113:
 1084              	 .cfi_restore 7
 1085              	 .cfi_def_cfa_offset 0
 1086 000e 7047     	 bx lr
 1087              	.L104:
 1088              	 .align 2
 1089              	.L103:
 1090 0010 00000000 	 .word motorConfig_System
 1091              	 .cfi_endproc
 1092              	.LFE580:
 1094              	 .section .text.pidConfig,"ax",%progbits
 1095              	 .align 2
 1096              	 .thumb
 1097              	 .thumb_func
 1099              	pidConfig:
 1100              	.LFB584:
 1101              	 .file 11 "D:/XMC/Projekte/Temp/CF_XMC4700/cleanflight/src/main/flight/pid.h"
   1:D:/XMC/Projekte/Temp/CF_XMC4700/cleanflight/src/main/flight\pid.h **** /*
   2:D:/XMC/Projekte/Temp/CF_XMC4700/cleanflight/src/main/flight\pid.h ****  * This file is part of Cleanflight and Betaflight.
   3:D:/XMC/Projekte/Temp/CF_XMC4700/cleanflight/src/main/flight\pid.h ****  *
   4:D:/XMC/Projekte/Temp/CF_XMC4700/cleanflight/src/main/flight\pid.h ****  * Cleanflight and Betaflight are free software. You can redistribute
   5:D:/XMC/Projekte/Temp/CF_XMC4700/cleanflight/src/main/flight\pid.h ****  * this software and/or modify this software under the terms of the
   6:D:/XMC/Projekte/Temp/CF_XMC4700/cleanflight/src/main/flight\pid.h ****  * GNU General Public License as published by the Free Software
   7:D:/XMC/Projekte/Temp/CF_XMC4700/cleanflight/src/main/flight\pid.h ****  * Foundation, either version 3 of the License, or (at your option)
   8:D:/XMC/Projekte/Temp/CF_XMC4700/cleanflight/src/main/flight\pid.h ****  * any later version.
   9:D:/XMC/Projekte/Temp/CF_XMC4700/cleanflight/src/main/flight\pid.h ****  *
  10:D:/XMC/Projekte/Temp/CF_XMC4700/cleanflight/src/main/flight\pid.h ****  * Cleanflight and Betaflight are distributed in the hope that they
  11:D:/XMC/Projekte/Temp/CF_XMC4700/cleanflight/src/main/flight\pid.h ****  * will be useful, but WITHOUT ANY WARRANTY; without even the implied
  12:D:/XMC/Projekte/Temp/CF_XMC4700/cleanflight/src/main/flight\pid.h ****  * warranty of MERCHANTABILITY or FITNESS FOR A PARTICULAR PURPOSE.
  13:D:/XMC/Projekte/Temp/CF_XMC4700/cleanflight/src/main/flight\pid.h ****  * See the GNU General Public License for more details.
  14:D:/XMC/Projekte/Temp/CF_XMC4700/cleanflight/src/main/flight\pid.h ****  *
  15:D:/XMC/Projekte/Temp/CF_XMC4700/cleanflight/src/main/flight\pid.h ****  * You should have received a copy of the GNU General Public License
  16:D:/XMC/Projekte/Temp/CF_XMC4700/cleanflight/src/main/flight\pid.h ****  * along with this software.
  17:D:/XMC/Projekte/Temp/CF_XMC4700/cleanflight/src/main/flight\pid.h ****  *
  18:D:/XMC/Projekte/Temp/CF_XMC4700/cleanflight/src/main/flight\pid.h ****  * If not, see <http://www.gnu.org/licenses/>.
  19:D:/XMC/Projekte/Temp/CF_XMC4700/cleanflight/src/main/flight\pid.h ****  */
  20:D:/XMC/Projekte/Temp/CF_XMC4700/cleanflight/src/main/flight\pid.h **** 
  21:D:/XMC/Projekte/Temp/CF_XMC4700/cleanflight/src/main/flight\pid.h **** #pragma once
  22:D:/XMC/Projekte/Temp/CF_XMC4700/cleanflight/src/main/flight\pid.h **** 
  23:D:/XMC/Projekte/Temp/CF_XMC4700/cleanflight/src/main/flight\pid.h **** #include <stdbool.h>
  24:D:/XMC/Projekte/Temp/CF_XMC4700/cleanflight/src/main/flight\pid.h **** #include "common/time.h"
  25:D:/XMC/Projekte/Temp/CF_XMC4700/cleanflight/src/main/flight\pid.h **** #include "common/filter.h"
  26:D:/XMC/Projekte/Temp/CF_XMC4700/cleanflight/src/main/flight\pid.h **** #include "pg/pg.h"
  27:D:/XMC/Projekte/Temp/CF_XMC4700/cleanflight/src/main/flight\pid.h **** 
  28:D:/XMC/Projekte/Temp/CF_XMC4700/cleanflight/src/main/flight\pid.h **** #define MAX_PID_PROCESS_DENOM       16
  29:D:/XMC/Projekte/Temp/CF_XMC4700/cleanflight/src/main/flight\pid.h **** #define PID_CONTROLLER_BETAFLIGHT   1
  30:D:/XMC/Projekte/Temp/CF_XMC4700/cleanflight/src/main/flight\pid.h **** #define PID_MIXER_SCALING           1000.0f
  31:D:/XMC/Projekte/Temp/CF_XMC4700/cleanflight/src/main/flight\pid.h **** #define PID_SERVO_MIXER_SCALING     0.7f
  32:D:/XMC/Projekte/Temp/CF_XMC4700/cleanflight/src/main/flight\pid.h **** #define PIDSUM_LIMIT                500
  33:D:/XMC/Projekte/Temp/CF_XMC4700/cleanflight/src/main/flight\pid.h **** #define PIDSUM_LIMIT_YAW            400
  34:D:/XMC/Projekte/Temp/CF_XMC4700/cleanflight/src/main/flight\pid.h **** #define PIDSUM_LIMIT_MIN            100
  35:D:/XMC/Projekte/Temp/CF_XMC4700/cleanflight/src/main/flight\pid.h **** #define PIDSUM_LIMIT_MAX            1000
  36:D:/XMC/Projekte/Temp/CF_XMC4700/cleanflight/src/main/flight\pid.h **** 
  37:D:/XMC/Projekte/Temp/CF_XMC4700/cleanflight/src/main/flight\pid.h **** // Scaling factors for Pids for better tunable range in configurator for betaflight pid controller.
  38:D:/XMC/Projekte/Temp/CF_XMC4700/cleanflight/src/main/flight\pid.h **** #define PTERM_SCALE 0.032029f
  39:D:/XMC/Projekte/Temp/CF_XMC4700/cleanflight/src/main/flight\pid.h **** #define ITERM_SCALE 0.244381f
  40:D:/XMC/Projekte/Temp/CF_XMC4700/cleanflight/src/main/flight\pid.h **** #define DTERM_SCALE 0.000529f
  41:D:/XMC/Projekte/Temp/CF_XMC4700/cleanflight/src/main/flight\pid.h **** 
  42:D:/XMC/Projekte/Temp/CF_XMC4700/cleanflight/src/main/flight\pid.h **** // The constant scale factor to replace the Kd component of the feedforward calculation.
  43:D:/XMC/Projekte/Temp/CF_XMC4700/cleanflight/src/main/flight\pid.h **** // This value gives the same "feel" as the previous Kd default of 26 (26 * DTERM_SCALE)
  44:D:/XMC/Projekte/Temp/CF_XMC4700/cleanflight/src/main/flight\pid.h **** #define FEEDFORWARD_SCALE 0.013754f
  45:D:/XMC/Projekte/Temp/CF_XMC4700/cleanflight/src/main/flight\pid.h **** 
  46:D:/XMC/Projekte/Temp/CF_XMC4700/cleanflight/src/main/flight\pid.h **** typedef enum {
  47:D:/XMC/Projekte/Temp/CF_XMC4700/cleanflight/src/main/flight\pid.h ****     PID_ROLL,
  48:D:/XMC/Projekte/Temp/CF_XMC4700/cleanflight/src/main/flight\pid.h ****     PID_PITCH,
  49:D:/XMC/Projekte/Temp/CF_XMC4700/cleanflight/src/main/flight\pid.h ****     PID_YAW,
  50:D:/XMC/Projekte/Temp/CF_XMC4700/cleanflight/src/main/flight\pid.h ****     PID_LEVEL,
  51:D:/XMC/Projekte/Temp/CF_XMC4700/cleanflight/src/main/flight\pid.h ****     PID_MAG,
  52:D:/XMC/Projekte/Temp/CF_XMC4700/cleanflight/src/main/flight\pid.h ****     PID_ITEM_COUNT
  53:D:/XMC/Projekte/Temp/CF_XMC4700/cleanflight/src/main/flight\pid.h **** } pidIndex_e;
  54:D:/XMC/Projekte/Temp/CF_XMC4700/cleanflight/src/main/flight\pid.h **** 
  55:D:/XMC/Projekte/Temp/CF_XMC4700/cleanflight/src/main/flight\pid.h **** typedef enum {
  56:D:/XMC/Projekte/Temp/CF_XMC4700/cleanflight/src/main/flight\pid.h ****     SUPEREXPO_YAW_OFF = 0,
  57:D:/XMC/Projekte/Temp/CF_XMC4700/cleanflight/src/main/flight\pid.h ****     SUPEREXPO_YAW_ON,
  58:D:/XMC/Projekte/Temp/CF_XMC4700/cleanflight/src/main/flight\pid.h ****     SUPEREXPO_YAW_ALWAYS
  59:D:/XMC/Projekte/Temp/CF_XMC4700/cleanflight/src/main/flight\pid.h **** } pidSuperExpoYaw_e;
  60:D:/XMC/Projekte/Temp/CF_XMC4700/cleanflight/src/main/flight\pid.h **** 
  61:D:/XMC/Projekte/Temp/CF_XMC4700/cleanflight/src/main/flight\pid.h **** typedef enum {
  62:D:/XMC/Projekte/Temp/CF_XMC4700/cleanflight/src/main/flight\pid.h ****     PID_STABILISATION_OFF = 0,
  63:D:/XMC/Projekte/Temp/CF_XMC4700/cleanflight/src/main/flight\pid.h ****     PID_STABILISATION_ON
  64:D:/XMC/Projekte/Temp/CF_XMC4700/cleanflight/src/main/flight\pid.h **** } pidStabilisationState_e;
  65:D:/XMC/Projekte/Temp/CF_XMC4700/cleanflight/src/main/flight\pid.h **** 
  66:D:/XMC/Projekte/Temp/CF_XMC4700/cleanflight/src/main/flight\pid.h **** typedef enum {
  67:D:/XMC/Projekte/Temp/CF_XMC4700/cleanflight/src/main/flight\pid.h ****     PID_CRASH_RECOVERY_OFF = 0,
  68:D:/XMC/Projekte/Temp/CF_XMC4700/cleanflight/src/main/flight\pid.h ****     PID_CRASH_RECOVERY_ON,
  69:D:/XMC/Projekte/Temp/CF_XMC4700/cleanflight/src/main/flight\pid.h ****     PID_CRASH_RECOVERY_BEEP
  70:D:/XMC/Projekte/Temp/CF_XMC4700/cleanflight/src/main/flight\pid.h **** } pidCrashRecovery_e;
  71:D:/XMC/Projekte/Temp/CF_XMC4700/cleanflight/src/main/flight\pid.h **** 
  72:D:/XMC/Projekte/Temp/CF_XMC4700/cleanflight/src/main/flight\pid.h **** typedef struct pidf_s {
  73:D:/XMC/Projekte/Temp/CF_XMC4700/cleanflight/src/main/flight\pid.h ****     uint8_t P;
  74:D:/XMC/Projekte/Temp/CF_XMC4700/cleanflight/src/main/flight\pid.h ****     uint8_t I;
  75:D:/XMC/Projekte/Temp/CF_XMC4700/cleanflight/src/main/flight\pid.h ****     uint8_t D;
  76:D:/XMC/Projekte/Temp/CF_XMC4700/cleanflight/src/main/flight\pid.h ****     uint16_t F;
  77:D:/XMC/Projekte/Temp/CF_XMC4700/cleanflight/src/main/flight\pid.h **** } pidf_t;
  78:D:/XMC/Projekte/Temp/CF_XMC4700/cleanflight/src/main/flight\pid.h **** 
  79:D:/XMC/Projekte/Temp/CF_XMC4700/cleanflight/src/main/flight\pid.h **** typedef enum {
  80:D:/XMC/Projekte/Temp/CF_XMC4700/cleanflight/src/main/flight\pid.h ****     ANTI_GRAVITY_SMOOTH,
  81:D:/XMC/Projekte/Temp/CF_XMC4700/cleanflight/src/main/flight\pid.h ****     ANTI_GRAVITY_STEP
  82:D:/XMC/Projekte/Temp/CF_XMC4700/cleanflight/src/main/flight\pid.h **** } antiGravityMode_e;
  83:D:/XMC/Projekte/Temp/CF_XMC4700/cleanflight/src/main/flight\pid.h **** 
  84:D:/XMC/Projekte/Temp/CF_XMC4700/cleanflight/src/main/flight\pid.h **** typedef enum {
  85:D:/XMC/Projekte/Temp/CF_XMC4700/cleanflight/src/main/flight\pid.h ****     ITERM_RELAX_OFF,
  86:D:/XMC/Projekte/Temp/CF_XMC4700/cleanflight/src/main/flight\pid.h ****     ITERM_RELAX_RP,
  87:D:/XMC/Projekte/Temp/CF_XMC4700/cleanflight/src/main/flight\pid.h ****     ITERM_RELAX_RPY,
  88:D:/XMC/Projekte/Temp/CF_XMC4700/cleanflight/src/main/flight\pid.h ****     ITERM_RELAX_RP_INC,
  89:D:/XMC/Projekte/Temp/CF_XMC4700/cleanflight/src/main/flight\pid.h ****     ITERM_RELAX_RPY_INC
  90:D:/XMC/Projekte/Temp/CF_XMC4700/cleanflight/src/main/flight\pid.h **** } itermRelax_e;
  91:D:/XMC/Projekte/Temp/CF_XMC4700/cleanflight/src/main/flight\pid.h **** 
  92:D:/XMC/Projekte/Temp/CF_XMC4700/cleanflight/src/main/flight\pid.h **** typedef enum {
  93:D:/XMC/Projekte/Temp/CF_XMC4700/cleanflight/src/main/flight\pid.h ****     ITERM_RELAX_GYRO,
  94:D:/XMC/Projekte/Temp/CF_XMC4700/cleanflight/src/main/flight\pid.h ****     ITERM_RELAX_SETPOINT
  95:D:/XMC/Projekte/Temp/CF_XMC4700/cleanflight/src/main/flight\pid.h **** } itermRelaxType_e;
  96:D:/XMC/Projekte/Temp/CF_XMC4700/cleanflight/src/main/flight\pid.h **** 
  97:D:/XMC/Projekte/Temp/CF_XMC4700/cleanflight/src/main/flight\pid.h **** typedef struct pidProfile_s {
  98:D:/XMC/Projekte/Temp/CF_XMC4700/cleanflight/src/main/flight\pid.h ****     uint16_t yaw_lowpass_hz;                // Additional yaw filter when yaw axis too noisy
  99:D:/XMC/Projekte/Temp/CF_XMC4700/cleanflight/src/main/flight\pid.h ****     uint16_t dterm_lowpass_hz;              // Delta Filter in hz
 100:D:/XMC/Projekte/Temp/CF_XMC4700/cleanflight/src/main/flight\pid.h ****     uint16_t dterm_notch_hz;                // Biquad dterm notch hz
 101:D:/XMC/Projekte/Temp/CF_XMC4700/cleanflight/src/main/flight\pid.h ****     uint16_t dterm_notch_cutoff;            // Biquad dterm notch low cutoff
 102:D:/XMC/Projekte/Temp/CF_XMC4700/cleanflight/src/main/flight\pid.h **** 
 103:D:/XMC/Projekte/Temp/CF_XMC4700/cleanflight/src/main/flight\pid.h ****     pidf_t  pid[PID_ITEM_COUNT];
 104:D:/XMC/Projekte/Temp/CF_XMC4700/cleanflight/src/main/flight\pid.h **** 
 105:D:/XMC/Projekte/Temp/CF_XMC4700/cleanflight/src/main/flight\pid.h ****     uint8_t dterm_filter_type;              // Filter selection for dterm
 106:D:/XMC/Projekte/Temp/CF_XMC4700/cleanflight/src/main/flight\pid.h ****     uint8_t itermWindupPointPercent;        // Experimental ITerm windup threshold, percent motor s
 107:D:/XMC/Projekte/Temp/CF_XMC4700/cleanflight/src/main/flight\pid.h ****     uint16_t pidSumLimit;
 108:D:/XMC/Projekte/Temp/CF_XMC4700/cleanflight/src/main/flight\pid.h ****     uint16_t pidSumLimitYaw;
 109:D:/XMC/Projekte/Temp/CF_XMC4700/cleanflight/src/main/flight\pid.h ****     uint8_t pidAtMinThrottle;               // Disable/Enable pids on zero throttle. Normally even 
 110:D:/XMC/Projekte/Temp/CF_XMC4700/cleanflight/src/main/flight\pid.h ****     uint8_t levelAngleLimit;                // Max angle in degrees in level mode
 111:D:/XMC/Projekte/Temp/CF_XMC4700/cleanflight/src/main/flight\pid.h **** 
 112:D:/XMC/Projekte/Temp/CF_XMC4700/cleanflight/src/main/flight\pid.h ****     uint8_t horizon_tilt_effect;            // inclination factor for Horizon mode
 113:D:/XMC/Projekte/Temp/CF_XMC4700/cleanflight/src/main/flight\pid.h ****     uint8_t horizon_tilt_expert_mode;       // OFF or ON
 114:D:/XMC/Projekte/Temp/CF_XMC4700/cleanflight/src/main/flight\pid.h **** 
 115:D:/XMC/Projekte/Temp/CF_XMC4700/cleanflight/src/main/flight\pid.h ****     // Betaflight PID controller parameters
 116:D:/XMC/Projekte/Temp/CF_XMC4700/cleanflight/src/main/flight\pid.h ****     uint8_t  antiGravityMode;             // type of anti gravity method
 117:D:/XMC/Projekte/Temp/CF_XMC4700/cleanflight/src/main/flight\pid.h ****     uint16_t itermThrottleThreshold;        // max allowed throttle delta before iterm accelerated 
 118:D:/XMC/Projekte/Temp/CF_XMC4700/cleanflight/src/main/flight\pid.h ****     uint16_t itermAcceleratorGain;          // Iterm Accelerator Gain when itermThrottlethreshold i
 119:D:/XMC/Projekte/Temp/CF_XMC4700/cleanflight/src/main/flight\pid.h ****     uint16_t yawRateAccelLimit;             // yaw accel limiter for deg/sec/ms
 120:D:/XMC/Projekte/Temp/CF_XMC4700/cleanflight/src/main/flight\pid.h ****     uint16_t rateAccelLimit;                // accel limiter roll/pitch deg/sec/ms
 121:D:/XMC/Projekte/Temp/CF_XMC4700/cleanflight/src/main/flight\pid.h ****     uint16_t crash_dthreshold;              // dterm crash value
 122:D:/XMC/Projekte/Temp/CF_XMC4700/cleanflight/src/main/flight\pid.h ****     uint16_t crash_gthreshold;              // gyro crash value
 123:D:/XMC/Projekte/Temp/CF_XMC4700/cleanflight/src/main/flight\pid.h ****     uint16_t crash_setpoint_threshold;      // setpoint must be below this value to detect crash, s
 124:D:/XMC/Projekte/Temp/CF_XMC4700/cleanflight/src/main/flight\pid.h ****     uint16_t crash_time;                    // ms
 125:D:/XMC/Projekte/Temp/CF_XMC4700/cleanflight/src/main/flight\pid.h ****     uint16_t crash_delay;                   // ms
 126:D:/XMC/Projekte/Temp/CF_XMC4700/cleanflight/src/main/flight\pid.h ****     uint8_t crash_recovery_angle;           // degrees
 127:D:/XMC/Projekte/Temp/CF_XMC4700/cleanflight/src/main/flight\pid.h ****     uint8_t crash_recovery_rate;            // degree/second
 128:D:/XMC/Projekte/Temp/CF_XMC4700/cleanflight/src/main/flight\pid.h ****     uint8_t vbatPidCompensation;            // Scale PIDsum to battery voltage
 129:D:/XMC/Projekte/Temp/CF_XMC4700/cleanflight/src/main/flight\pid.h ****     uint8_t feedForwardTransition;          // Feed forward weight transition
 130:D:/XMC/Projekte/Temp/CF_XMC4700/cleanflight/src/main/flight\pid.h ****     uint16_t crash_limit_yaw;               // limits yaw errorRate, so crashes don't cause huge th
 131:D:/XMC/Projekte/Temp/CF_XMC4700/cleanflight/src/main/flight\pid.h ****     uint16_t itermLimit;
 132:D:/XMC/Projekte/Temp/CF_XMC4700/cleanflight/src/main/flight\pid.h ****     uint16_t dterm_lowpass2_hz;             // Extra PT1 Filter on D in hz
 133:D:/XMC/Projekte/Temp/CF_XMC4700/cleanflight/src/main/flight\pid.h ****     uint8_t crash_recovery;                 // off, on, on and beeps when it is in crash recovery m
 134:D:/XMC/Projekte/Temp/CF_XMC4700/cleanflight/src/main/flight\pid.h ****     uint8_t throttle_boost;                 // how much should throttle be boosted during transient
 135:D:/XMC/Projekte/Temp/CF_XMC4700/cleanflight/src/main/flight\pid.h ****     uint8_t throttle_boost_cutoff;          // Which cutoff frequency to use for throttle boost. hi
 136:D:/XMC/Projekte/Temp/CF_XMC4700/cleanflight/src/main/flight\pid.h ****     uint8_t iterm_rotation;                 // rotates iterm to translate world errors to local coo
 137:D:/XMC/Projekte/Temp/CF_XMC4700/cleanflight/src/main/flight\pid.h ****     uint8_t smart_feedforward;              // takes only the larger of P and the D weight feed for
 138:D:/XMC/Projekte/Temp/CF_XMC4700/cleanflight/src/main/flight\pid.h ****     uint8_t iterm_relax_type;               // Specifies type of relax algorithm
 139:D:/XMC/Projekte/Temp/CF_XMC4700/cleanflight/src/main/flight\pid.h ****     uint8_t iterm_relax_cutoff;             // This cutoff frequency specifies a low pass filter wh
 140:D:/XMC/Projekte/Temp/CF_XMC4700/cleanflight/src/main/flight\pid.h ****     uint8_t iterm_relax;                    // Enable iterm suppression during stick input
 141:D:/XMC/Projekte/Temp/CF_XMC4700/cleanflight/src/main/flight\pid.h ****     uint8_t acro_trainer_angle_limit;       // Acro trainer roll/pitch angle limit in degrees
 142:D:/XMC/Projekte/Temp/CF_XMC4700/cleanflight/src/main/flight\pid.h ****     uint8_t acro_trainer_debug_axis;        // The axis for which record debugging values are captu
 143:D:/XMC/Projekte/Temp/CF_XMC4700/cleanflight/src/main/flight\pid.h ****     uint8_t acro_trainer_gain;              // The strength of the limiting. Raising may reduce ove
 144:D:/XMC/Projekte/Temp/CF_XMC4700/cleanflight/src/main/flight\pid.h ****     uint16_t acro_trainer_lookahead_ms;     // The lookahead window in milliseconds used to reduce 
 145:D:/XMC/Projekte/Temp/CF_XMC4700/cleanflight/src/main/flight\pid.h ****     uint8_t abs_control_gain;               // How strongly should the absolute accumulated error b
 146:D:/XMC/Projekte/Temp/CF_XMC4700/cleanflight/src/main/flight\pid.h ****     uint8_t abs_control_limit;              // Limit to the correction
 147:D:/XMC/Projekte/Temp/CF_XMC4700/cleanflight/src/main/flight\pid.h ****     uint8_t abs_control_error_limit;        // Limit to the accumulated error
 148:D:/XMC/Projekte/Temp/CF_XMC4700/cleanflight/src/main/flight\pid.h **** } pidProfile_t;
 149:D:/XMC/Projekte/Temp/CF_XMC4700/cleanflight/src/main/flight\pid.h **** 
 150:D:/XMC/Projekte/Temp/CF_XMC4700/cleanflight/src/main/flight\pid.h **** #ifndef USE_OSD_SLAVE
 151:D:/XMC/Projekte/Temp/CF_XMC4700/cleanflight/src/main/flight\pid.h **** PG_DECLARE_ARRAY(pidProfile_t, MAX_PROFILE_COUNT, pidProfiles);
 152:D:/XMC/Projekte/Temp/CF_XMC4700/cleanflight/src/main/flight\pid.h **** #endif
 153:D:/XMC/Projekte/Temp/CF_XMC4700/cleanflight/src/main/flight\pid.h **** 
 154:D:/XMC/Projekte/Temp/CF_XMC4700/cleanflight/src/main/flight\pid.h **** typedef struct pidConfig_s {
 155:D:/XMC/Projekte/Temp/CF_XMC4700/cleanflight/src/main/flight\pid.h ****     uint8_t pid_process_denom;              // Processing denominator for PID controller vs gyro sa
 156:D:/XMC/Projekte/Temp/CF_XMC4700/cleanflight/src/main/flight\pid.h ****     uint8_t runaway_takeoff_prevention;          // off, on - enables pidsum runaway disarm logic
 157:D:/XMC/Projekte/Temp/CF_XMC4700/cleanflight/src/main/flight\pid.h ****     uint16_t runaway_takeoff_deactivate_delay;   // delay in ms for "in-flight" conditions before d
 158:D:/XMC/Projekte/Temp/CF_XMC4700/cleanflight/src/main/flight\pid.h ****     uint8_t runaway_takeoff_deactivate_throttle; // minimum throttle percent required during deacti
 159:D:/XMC/Projekte/Temp/CF_XMC4700/cleanflight/src/main/flight\pid.h **** } pidConfig_t;
 160:D:/XMC/Projekte/Temp/CF_XMC4700/cleanflight/src/main/flight\pid.h **** 
 161:D:/XMC/Projekte/Temp/CF_XMC4700/cleanflight/src/main/flight\pid.h **** PG_DECLARE(pidConfig_t, pidConfig);
 1102              	 .loc 11 161 0
 1103              	 .cfi_startproc
 1104              	 
 1105              	 
 1106              	 
 1107 0000 80B4     	 push {r7}
 1108              	.LCFI114:
 1109              	 .cfi_def_cfa_offset 4
 1110              	 .cfi_offset 7,-4
 1111 0002 00AF     	 add r7,sp,#0
 1112              	.LCFI115:
 1113              	 .cfi_def_cfa_register 7
 1114              	 .loc 11 161 0
 1115 0004 024B     	 ldr r3,.L107
 1116 0006 1846     	 mov r0,r3
 1117 0008 BD46     	 mov sp,r7
 1118              	.LCFI116:
 1119              	 .cfi_def_cfa_register 13
 1120              	 
 1121 000a 5DF8047B 	 ldr r7,[sp],#4
 1122              	.LCFI117:
 1123              	 .cfi_restore 7
 1124              	 .cfi_def_cfa_offset 0
 1125 000e 7047     	 bx lr
 1126              	.L108:
 1127              	 .align 2
 1128              	.L107:
 1129 0010 00000000 	 .word pidConfig_System
 1130              	 .cfi_endproc
 1131              	.LFE584:
 1133              	 .section .text.pidConfigMutable,"ax",%progbits
 1134              	 .align 2
 1135              	 .thumb
 1136              	 .thumb_func
 1138              	pidConfigMutable:
 1139              	.LFB585:
 1140              	 .loc 11 161 0
 1141              	 .cfi_startproc
 1142              	 
 1143              	 
 1144              	 
 1145 0000 80B4     	 push {r7}
 1146              	.LCFI118:
 1147              	 .cfi_def_cfa_offset 4
 1148              	 .cfi_offset 7,-4
 1149 0002 00AF     	 add r7,sp,#0
 1150              	.LCFI119:
 1151              	 .cfi_def_cfa_register 7
 1152              	 .loc 11 161 0
 1153 0004 024B     	 ldr r3,.L111
 1154 0006 1846     	 mov r0,r3
 1155 0008 BD46     	 mov sp,r7
 1156              	.LCFI120:
 1157              	 .cfi_def_cfa_register 13
 1158              	 
 1159 000a 5DF8047B 	 ldr r7,[sp],#4
 1160              	.LCFI121:
 1161              	 .cfi_restore 7
 1162              	 .cfi_def_cfa_offset 0
 1163 000e 7047     	 bx lr
 1164              	.L112:
 1165              	 .align 2
 1166              	.L111:
 1167 0010 00000000 	 .word pidConfig_System
 1168              	 .cfi_endproc
 1169              	.LFE585:
 1171              	 .comm inputSource_e,1,1
 1172              	 .section .text.customServoMixers,"ax",%progbits
 1173              	 .align 2
 1174              	 .thumb
 1175              	 .thumb_func
 1177              	customServoMixers:
 1178              	.LFB586:
 1179              	 .file 12 "D:/XMC/Projekte/Temp/CF_XMC4700/cleanflight/src/main/flight/servos.h"
   1:D:/XMC/Projekte/Temp/CF_XMC4700/cleanflight/src/main/flight\servos.h **** /*
   2:D:/XMC/Projekte/Temp/CF_XMC4700/cleanflight/src/main/flight\servos.h ****  * This file is part of Cleanflight and Betaflight.
   3:D:/XMC/Projekte/Temp/CF_XMC4700/cleanflight/src/main/flight\servos.h ****  *
   4:D:/XMC/Projekte/Temp/CF_XMC4700/cleanflight/src/main/flight\servos.h ****  * Cleanflight and Betaflight are free software. You can redistribute
   5:D:/XMC/Projekte/Temp/CF_XMC4700/cleanflight/src/main/flight\servos.h ****  * this software and/or modify this software under the terms of the
   6:D:/XMC/Projekte/Temp/CF_XMC4700/cleanflight/src/main/flight\servos.h ****  * GNU General Public License as published by the Free Software
   7:D:/XMC/Projekte/Temp/CF_XMC4700/cleanflight/src/main/flight\servos.h ****  * Foundation, either version 3 of the License, or (at your option)
   8:D:/XMC/Projekte/Temp/CF_XMC4700/cleanflight/src/main/flight\servos.h ****  * any later version.
   9:D:/XMC/Projekte/Temp/CF_XMC4700/cleanflight/src/main/flight\servos.h ****  *
  10:D:/XMC/Projekte/Temp/CF_XMC4700/cleanflight/src/main/flight\servos.h ****  * Cleanflight and Betaflight are distributed in the hope that they
  11:D:/XMC/Projekte/Temp/CF_XMC4700/cleanflight/src/main/flight\servos.h ****  * will be useful, but WITHOUT ANY WARRANTY; without even the implied
  12:D:/XMC/Projekte/Temp/CF_XMC4700/cleanflight/src/main/flight\servos.h ****  * warranty of MERCHANTABILITY or FITNESS FOR A PARTICULAR PURPOSE.
  13:D:/XMC/Projekte/Temp/CF_XMC4700/cleanflight/src/main/flight\servos.h ****  * See the GNU General Public License for more details.
  14:D:/XMC/Projekte/Temp/CF_XMC4700/cleanflight/src/main/flight\servos.h ****  *
  15:D:/XMC/Projekte/Temp/CF_XMC4700/cleanflight/src/main/flight\servos.h ****  * You should have received a copy of the GNU General Public License
  16:D:/XMC/Projekte/Temp/CF_XMC4700/cleanflight/src/main/flight\servos.h ****  * along with this software.
  17:D:/XMC/Projekte/Temp/CF_XMC4700/cleanflight/src/main/flight\servos.h ****  *
  18:D:/XMC/Projekte/Temp/CF_XMC4700/cleanflight/src/main/flight\servos.h ****  * If not, see <http://www.gnu.org/licenses/>.
  19:D:/XMC/Projekte/Temp/CF_XMC4700/cleanflight/src/main/flight\servos.h ****  */
  20:D:/XMC/Projekte/Temp/CF_XMC4700/cleanflight/src/main/flight\servos.h **** 
  21:D:/XMC/Projekte/Temp/CF_XMC4700/cleanflight/src/main/flight\servos.h **** #pragma once
  22:D:/XMC/Projekte/Temp/CF_XMC4700/cleanflight/src/main/flight\servos.h **** 
  23:D:/XMC/Projekte/Temp/CF_XMC4700/cleanflight/src/main/flight\servos.h **** #include "pg/pg.h"
  24:D:/XMC/Projekte/Temp/CF_XMC4700/cleanflight/src/main/flight\servos.h **** #include "drivers/io_types.h"
  25:D:/XMC/Projekte/Temp/CF_XMC4700/cleanflight/src/main/flight\servos.h **** #include "drivers/pwm_output.h"
  26:D:/XMC/Projekte/Temp/CF_XMC4700/cleanflight/src/main/flight\servos.h **** 
  27:D:/XMC/Projekte/Temp/CF_XMC4700/cleanflight/src/main/flight\servos.h **** // These must be consecutive, see 'reversedSources'
  28:D:/XMC/Projekte/Temp/CF_XMC4700/cleanflight/src/main/flight\servos.h **** enum {
  29:D:/XMC/Projekte/Temp/CF_XMC4700/cleanflight/src/main/flight\servos.h ****     INPUT_STABILIZED_ROLL = 0,
  30:D:/XMC/Projekte/Temp/CF_XMC4700/cleanflight/src/main/flight\servos.h ****     INPUT_STABILIZED_PITCH,
  31:D:/XMC/Projekte/Temp/CF_XMC4700/cleanflight/src/main/flight\servos.h ****     INPUT_STABILIZED_YAW,
  32:D:/XMC/Projekte/Temp/CF_XMC4700/cleanflight/src/main/flight\servos.h ****     INPUT_STABILIZED_THROTTLE,
  33:D:/XMC/Projekte/Temp/CF_XMC4700/cleanflight/src/main/flight\servos.h ****     INPUT_RC_ROLL,
  34:D:/XMC/Projekte/Temp/CF_XMC4700/cleanflight/src/main/flight\servos.h ****     INPUT_RC_PITCH,
  35:D:/XMC/Projekte/Temp/CF_XMC4700/cleanflight/src/main/flight\servos.h ****     INPUT_RC_YAW,
  36:D:/XMC/Projekte/Temp/CF_XMC4700/cleanflight/src/main/flight\servos.h ****     INPUT_RC_THROTTLE,
  37:D:/XMC/Projekte/Temp/CF_XMC4700/cleanflight/src/main/flight\servos.h ****     INPUT_RC_AUX1,
  38:D:/XMC/Projekte/Temp/CF_XMC4700/cleanflight/src/main/flight\servos.h ****     INPUT_RC_AUX2,
  39:D:/XMC/Projekte/Temp/CF_XMC4700/cleanflight/src/main/flight\servos.h ****     INPUT_RC_AUX3,
  40:D:/XMC/Projekte/Temp/CF_XMC4700/cleanflight/src/main/flight\servos.h ****     INPUT_RC_AUX4,
  41:D:/XMC/Projekte/Temp/CF_XMC4700/cleanflight/src/main/flight\servos.h ****     INPUT_GIMBAL_PITCH,
  42:D:/XMC/Projekte/Temp/CF_XMC4700/cleanflight/src/main/flight\servos.h ****     INPUT_GIMBAL_ROLL,
  43:D:/XMC/Projekte/Temp/CF_XMC4700/cleanflight/src/main/flight\servos.h ****     INPUT_SOURCE_COUNT
  44:D:/XMC/Projekte/Temp/CF_XMC4700/cleanflight/src/main/flight\servos.h **** } inputSource_e;
  45:D:/XMC/Projekte/Temp/CF_XMC4700/cleanflight/src/main/flight\servos.h **** 
  46:D:/XMC/Projekte/Temp/CF_XMC4700/cleanflight/src/main/flight\servos.h **** // target servo channels
  47:D:/XMC/Projekte/Temp/CF_XMC4700/cleanflight/src/main/flight\servos.h **** typedef enum {
  48:D:/XMC/Projekte/Temp/CF_XMC4700/cleanflight/src/main/flight\servos.h ****     SERVO_GIMBAL_PITCH = 0,
  49:D:/XMC/Projekte/Temp/CF_XMC4700/cleanflight/src/main/flight\servos.h ****     SERVO_GIMBAL_ROLL = 1,
  50:D:/XMC/Projekte/Temp/CF_XMC4700/cleanflight/src/main/flight\servos.h ****     SERVO_FLAPS = 2,
  51:D:/XMC/Projekte/Temp/CF_XMC4700/cleanflight/src/main/flight\servos.h ****     SERVO_FLAPPERON_1 = 3,
  52:D:/XMC/Projekte/Temp/CF_XMC4700/cleanflight/src/main/flight\servos.h ****     SERVO_FLAPPERON_2 = 4,
  53:D:/XMC/Projekte/Temp/CF_XMC4700/cleanflight/src/main/flight\servos.h ****     SERVO_RUDDER = 5,
  54:D:/XMC/Projekte/Temp/CF_XMC4700/cleanflight/src/main/flight\servos.h ****     SERVO_ELEVATOR = 6,
  55:D:/XMC/Projekte/Temp/CF_XMC4700/cleanflight/src/main/flight\servos.h ****     SERVO_THROTTLE = 7, // for internal combustion (IC) planes
  56:D:/XMC/Projekte/Temp/CF_XMC4700/cleanflight/src/main/flight\servos.h **** 
  57:D:/XMC/Projekte/Temp/CF_XMC4700/cleanflight/src/main/flight\servos.h ****     SERVO_BICOPTER_LEFT = 4,
  58:D:/XMC/Projekte/Temp/CF_XMC4700/cleanflight/src/main/flight\servos.h ****     SERVO_BICOPTER_RIGHT = 5,
  59:D:/XMC/Projekte/Temp/CF_XMC4700/cleanflight/src/main/flight\servos.h **** 
  60:D:/XMC/Projekte/Temp/CF_XMC4700/cleanflight/src/main/flight\servos.h ****     SERVO_DUALCOPTER_LEFT = 4,
  61:D:/XMC/Projekte/Temp/CF_XMC4700/cleanflight/src/main/flight\servos.h ****     SERVO_DUALCOPTER_RIGHT = 5,
  62:D:/XMC/Projekte/Temp/CF_XMC4700/cleanflight/src/main/flight\servos.h **** 
  63:D:/XMC/Projekte/Temp/CF_XMC4700/cleanflight/src/main/flight\servos.h ****     SERVO_SINGLECOPTER_1 = 3,
  64:D:/XMC/Projekte/Temp/CF_XMC4700/cleanflight/src/main/flight\servos.h ****     SERVO_SINGLECOPTER_2 = 4,
  65:D:/XMC/Projekte/Temp/CF_XMC4700/cleanflight/src/main/flight\servos.h ****     SERVO_SINGLECOPTER_3 = 5,
  66:D:/XMC/Projekte/Temp/CF_XMC4700/cleanflight/src/main/flight\servos.h ****     SERVO_SINGLECOPTER_4 = 6,
  67:D:/XMC/Projekte/Temp/CF_XMC4700/cleanflight/src/main/flight\servos.h **** 
  68:D:/XMC/Projekte/Temp/CF_XMC4700/cleanflight/src/main/flight\servos.h ****     SERVO_HELI_LEFT = 0,
  69:D:/XMC/Projekte/Temp/CF_XMC4700/cleanflight/src/main/flight\servos.h ****     SERVO_HELI_RIGHT = 1,
  70:D:/XMC/Projekte/Temp/CF_XMC4700/cleanflight/src/main/flight\servos.h ****     SERVO_HELI_TOP = 2,
  71:D:/XMC/Projekte/Temp/CF_XMC4700/cleanflight/src/main/flight\servos.h ****     SERVO_HELI_RUD = 3
  72:D:/XMC/Projekte/Temp/CF_XMC4700/cleanflight/src/main/flight\servos.h **** 
  73:D:/XMC/Projekte/Temp/CF_XMC4700/cleanflight/src/main/flight\servos.h **** } servoIndex_e; // FIXME rename to servoChannel_e
  74:D:/XMC/Projekte/Temp/CF_XMC4700/cleanflight/src/main/flight\servos.h **** 
  75:D:/XMC/Projekte/Temp/CF_XMC4700/cleanflight/src/main/flight\servos.h **** #define SERVO_PLANE_INDEX_MIN SERVO_FLAPS
  76:D:/XMC/Projekte/Temp/CF_XMC4700/cleanflight/src/main/flight\servos.h **** #define SERVO_PLANE_INDEX_MAX SERVO_THROTTLE
  77:D:/XMC/Projekte/Temp/CF_XMC4700/cleanflight/src/main/flight\servos.h **** 
  78:D:/XMC/Projekte/Temp/CF_XMC4700/cleanflight/src/main/flight\servos.h **** #define SERVO_DUALCOPTER_INDEX_MIN SERVO_DUALCOPTER_LEFT
  79:D:/XMC/Projekte/Temp/CF_XMC4700/cleanflight/src/main/flight\servos.h **** #define SERVO_DUALCOPTER_INDEX_MAX SERVO_DUALCOPTER_RIGHT
  80:D:/XMC/Projekte/Temp/CF_XMC4700/cleanflight/src/main/flight\servos.h **** 
  81:D:/XMC/Projekte/Temp/CF_XMC4700/cleanflight/src/main/flight\servos.h **** #define SERVO_SINGLECOPTER_INDEX_MIN SERVO_SINGLECOPTER_1
  82:D:/XMC/Projekte/Temp/CF_XMC4700/cleanflight/src/main/flight\servos.h **** #define SERVO_SINGLECOPTER_INDEX_MAX SERVO_SINGLECOPTER_4
  83:D:/XMC/Projekte/Temp/CF_XMC4700/cleanflight/src/main/flight\servos.h **** 
  84:D:/XMC/Projekte/Temp/CF_XMC4700/cleanflight/src/main/flight\servos.h **** #define SERVO_FLAPPERONS_MIN SERVO_FLAPPERON_1
  85:D:/XMC/Projekte/Temp/CF_XMC4700/cleanflight/src/main/flight\servos.h **** #define SERVO_FLAPPERONS_MAX SERVO_FLAPPERON_2
  86:D:/XMC/Projekte/Temp/CF_XMC4700/cleanflight/src/main/flight\servos.h **** 
  87:D:/XMC/Projekte/Temp/CF_XMC4700/cleanflight/src/main/flight\servos.h **** #define MAX_SERVO_RULES (2 * MAX_SUPPORTED_SERVOS)
  88:D:/XMC/Projekte/Temp/CF_XMC4700/cleanflight/src/main/flight\servos.h **** 
  89:D:/XMC/Projekte/Temp/CF_XMC4700/cleanflight/src/main/flight\servos.h **** typedef struct servoMixer_s {
  90:D:/XMC/Projekte/Temp/CF_XMC4700/cleanflight/src/main/flight\servos.h ****     uint8_t targetChannel;                  // servo that receives the output of the rule
  91:D:/XMC/Projekte/Temp/CF_XMC4700/cleanflight/src/main/flight\servos.h ****     uint8_t inputSource;                    // input channel for this rule
  92:D:/XMC/Projekte/Temp/CF_XMC4700/cleanflight/src/main/flight\servos.h ****     int8_t rate;                            // range [-125;+125] ; can be used to adjust a rate 0-1
  93:D:/XMC/Projekte/Temp/CF_XMC4700/cleanflight/src/main/flight\servos.h ****     uint8_t speed;                          // reduces the speed of the rule, 0=unlimited speed
  94:D:/XMC/Projekte/Temp/CF_XMC4700/cleanflight/src/main/flight\servos.h ****     int8_t min;                             // lower bound of rule range [0;100]% of servo max-min
  95:D:/XMC/Projekte/Temp/CF_XMC4700/cleanflight/src/main/flight\servos.h ****     int8_t max;                             // lower bound of rule range [0;100]% of servo max-min
  96:D:/XMC/Projekte/Temp/CF_XMC4700/cleanflight/src/main/flight\servos.h ****     uint8_t box;                            // active rule if box is enabled, range [0;3], 0=no box
  97:D:/XMC/Projekte/Temp/CF_XMC4700/cleanflight/src/main/flight\servos.h **** } servoMixer_t;
  98:D:/XMC/Projekte/Temp/CF_XMC4700/cleanflight/src/main/flight\servos.h **** 
  99:D:/XMC/Projekte/Temp/CF_XMC4700/cleanflight/src/main/flight\servos.h **** PG_DECLARE_ARRAY(servoMixer_t, MAX_SERVO_RULES, customServoMixers);
 1180              	 .loc 12 99 0
 1181              	 .cfi_startproc
 1182              	 
 1183              	 
 1184              	 
 1185 0000 80B4     	 push {r7}
 1186              	.LCFI122:
 1187              	 .cfi_def_cfa_offset 4
 1188              	 .cfi_offset 7,-4
 1189 0002 83B0     	 sub sp,sp,#12
 1190              	.LCFI123:
 1191              	 .cfi_def_cfa_offset 16
 1192 0004 00AF     	 add r7,sp,#0
 1193              	.LCFI124:
 1194              	 .cfi_def_cfa_register 7
 1195 0006 7860     	 str r0,[r7,#4]
 1196              	 .loc 12 99 0
 1197 0008 7A68     	 ldr r2,[r7,#4]
 1198 000a 1346     	 mov r3,r2
 1199 000c DB00     	 lsls r3,r3,#3
 1200 000e 9B1A     	 subs r3,r3,r2
 1201 0010 034A     	 ldr r2,.L115
 1202 0012 1344     	 add r3,r3,r2
 1203 0014 1846     	 mov r0,r3
 1204 0016 0C37     	 adds r7,r7,#12
 1205              	.LCFI125:
 1206              	 .cfi_def_cfa_offset 4
 1207 0018 BD46     	 mov sp,r7
 1208              	.LCFI126:
 1209              	 .cfi_def_cfa_register 13
 1210              	 
 1211 001a 5DF8047B 	 ldr r7,[sp],#4
 1212              	.LCFI127:
 1213              	 .cfi_restore 7
 1214              	 .cfi_def_cfa_offset 0
 1215 001e 7047     	 bx lr
 1216              	.L116:
 1217              	 .align 2
 1218              	.L115:
 1219 0020 00000000 	 .word customServoMixers_SystemArray
 1220              	 .cfi_endproc
 1221              	.LFE586:
 1223              	 .section .text.customServoMixersMutable,"ax",%progbits
 1224              	 .align 2
 1225              	 .thumb
 1226              	 .thumb_func
 1228              	customServoMixersMutable:
 1229              	.LFB587:
 1230              	 .loc 12 99 0
 1231              	 .cfi_startproc
 1232              	 
 1233              	 
 1234              	 
 1235 0000 80B4     	 push {r7}
 1236              	.LCFI128:
 1237              	 .cfi_def_cfa_offset 4
 1238              	 .cfi_offset 7,-4
 1239 0002 83B0     	 sub sp,sp,#12
 1240              	.LCFI129:
 1241              	 .cfi_def_cfa_offset 16
 1242 0004 00AF     	 add r7,sp,#0
 1243              	.LCFI130:
 1244              	 .cfi_def_cfa_register 7
 1245 0006 7860     	 str r0,[r7,#4]
 1246              	 .loc 12 99 0
 1247 0008 7A68     	 ldr r2,[r7,#4]
 1248 000a 1346     	 mov r3,r2
 1249 000c DB00     	 lsls r3,r3,#3
 1250 000e 9B1A     	 subs r3,r3,r2
 1251 0010 034A     	 ldr r2,.L119
 1252 0012 1344     	 add r3,r3,r2
 1253 0014 1846     	 mov r0,r3
 1254 0016 0C37     	 adds r7,r7,#12
 1255              	.LCFI131:
 1256              	 .cfi_def_cfa_offset 4
 1257 0018 BD46     	 mov sp,r7
 1258              	.LCFI132:
 1259              	 .cfi_def_cfa_register 13
 1260              	 
 1261 001a 5DF8047B 	 ldr r7,[sp],#4
 1262              	.LCFI133:
 1263              	 .cfi_restore 7
 1264              	 .cfi_def_cfa_offset 0
 1265 001e 7047     	 bx lr
 1266              	.L120:
 1267              	 .align 2
 1268              	.L119:
 1269 0020 00000000 	 .word customServoMixers_SystemArray
 1270              	 .cfi_endproc
 1271              	.LFE587:
 1273              	 .section .text.servoParams,"ax",%progbits
 1274              	 .align 2
 1275              	 .thumb
 1276              	 .thumb_func
 1278              	servoParams:
 1279              	.LFB589:
 100:D:/XMC/Projekte/Temp/CF_XMC4700/cleanflight/src/main/flight\servos.h **** 
 101:D:/XMC/Projekte/Temp/CF_XMC4700/cleanflight/src/main/flight\servos.h **** #define MAX_SERVO_SPEED UINT8_MAX
 102:D:/XMC/Projekte/Temp/CF_XMC4700/cleanflight/src/main/flight\servos.h **** #define MAX_SERVO_BOXES 3
 103:D:/XMC/Projekte/Temp/CF_XMC4700/cleanflight/src/main/flight\servos.h **** 
 104:D:/XMC/Projekte/Temp/CF_XMC4700/cleanflight/src/main/flight\servos.h **** // Custom mixer configuration
 105:D:/XMC/Projekte/Temp/CF_XMC4700/cleanflight/src/main/flight\servos.h **** typedef struct mixerRules_s {
 106:D:/XMC/Projekte/Temp/CF_XMC4700/cleanflight/src/main/flight\servos.h ****     uint8_t servoRuleCount;
 107:D:/XMC/Projekte/Temp/CF_XMC4700/cleanflight/src/main/flight\servos.h ****     const servoMixer_t *rule;
 108:D:/XMC/Projekte/Temp/CF_XMC4700/cleanflight/src/main/flight\servos.h **** } mixerRules_t;
 109:D:/XMC/Projekte/Temp/CF_XMC4700/cleanflight/src/main/flight\servos.h **** 
 110:D:/XMC/Projekte/Temp/CF_XMC4700/cleanflight/src/main/flight\servos.h **** extern const mixerRules_t servoMixers[];
 111:D:/XMC/Projekte/Temp/CF_XMC4700/cleanflight/src/main/flight\servos.h **** 
 112:D:/XMC/Projekte/Temp/CF_XMC4700/cleanflight/src/main/flight\servos.h **** typedef struct servoParam_s {
 113:D:/XMC/Projekte/Temp/CF_XMC4700/cleanflight/src/main/flight\servos.h ****     uint32_t reversedSources;               // the direction of servo movement for each input sourc
 114:D:/XMC/Projekte/Temp/CF_XMC4700/cleanflight/src/main/flight\servos.h ****     int16_t min;                            // servo min
 115:D:/XMC/Projekte/Temp/CF_XMC4700/cleanflight/src/main/flight\servos.h ****     int16_t max;                            // servo max
 116:D:/XMC/Projekte/Temp/CF_XMC4700/cleanflight/src/main/flight\servos.h ****     int16_t middle;                         // servo middle
 117:D:/XMC/Projekte/Temp/CF_XMC4700/cleanflight/src/main/flight\servos.h ****     int8_t rate;                            // range [-125;+125] ; can be used to adjust a rate 0-1
 118:D:/XMC/Projekte/Temp/CF_XMC4700/cleanflight/src/main/flight\servos.h ****     int8_t forwardFromChannel;              // RX channel index, 0 based.  See CHANNEL_FORWARDING_D
 119:D:/XMC/Projekte/Temp/CF_XMC4700/cleanflight/src/main/flight\servos.h **** } servoParam_t;
 120:D:/XMC/Projekte/Temp/CF_XMC4700/cleanflight/src/main/flight\servos.h **** 
 121:D:/XMC/Projekte/Temp/CF_XMC4700/cleanflight/src/main/flight\servos.h **** PG_DECLARE_ARRAY(servoParam_t, MAX_SUPPORTED_SERVOS, servoParams);
 1280              	 .loc 12 121 0
 1281              	 .cfi_startproc
 1282              	 
 1283              	 
 1284              	 
 1285 0000 80B4     	 push {r7}
 1286              	.LCFI134:
 1287              	 .cfi_def_cfa_offset 4
 1288              	 .cfi_offset 7,-4
 1289 0002 83B0     	 sub sp,sp,#12
 1290              	.LCFI135:
 1291              	 .cfi_def_cfa_offset 16
 1292 0004 00AF     	 add r7,sp,#0
 1293              	.LCFI136:
 1294              	 .cfi_def_cfa_register 7
 1295 0006 7860     	 str r0,[r7,#4]
 1296              	 .loc 12 121 0
 1297 0008 7A68     	 ldr r2,[r7,#4]
 1298 000a 1346     	 mov r3,r2
 1299 000c 5B00     	 lsls r3,r3,#1
 1300 000e 1344     	 add r3,r3,r2
 1301 0010 9B00     	 lsls r3,r3,#2
 1302 0012 044A     	 ldr r2,.L123
 1303 0014 1344     	 add r3,r3,r2
 1304 0016 1846     	 mov r0,r3
 1305 0018 0C37     	 adds r7,r7,#12
 1306              	.LCFI137:
 1307              	 .cfi_def_cfa_offset 4
 1308 001a BD46     	 mov sp,r7
 1309              	.LCFI138:
 1310              	 .cfi_def_cfa_register 13
 1311              	 
 1312 001c 5DF8047B 	 ldr r7,[sp],#4
 1313              	.LCFI139:
 1314              	 .cfi_restore 7
 1315              	 .cfi_def_cfa_offset 0
 1316 0020 7047     	 bx lr
 1317              	.L124:
 1318 0022 00BF     	 .align 2
 1319              	.L123:
 1320 0024 00000000 	 .word servoParams_SystemArray
 1321              	 .cfi_endproc
 1322              	.LFE589:
 1324              	 .section .text.servoParamsMutable,"ax",%progbits
 1325              	 .align 2
 1326              	 .thumb
 1327              	 .thumb_func
 1329              	servoParamsMutable:
 1330              	.LFB590:
 1331              	 .loc 12 121 0
 1332              	 .cfi_startproc
 1333              	 
 1334              	 
 1335              	 
 1336 0000 80B4     	 push {r7}
 1337              	.LCFI140:
 1338              	 .cfi_def_cfa_offset 4
 1339              	 .cfi_offset 7,-4
 1340 0002 83B0     	 sub sp,sp,#12
 1341              	.LCFI141:
 1342              	 .cfi_def_cfa_offset 16
 1343 0004 00AF     	 add r7,sp,#0
 1344              	.LCFI142:
 1345              	 .cfi_def_cfa_register 7
 1346 0006 7860     	 str r0,[r7,#4]
 1347              	 .loc 12 121 0
 1348 0008 7A68     	 ldr r2,[r7,#4]
 1349 000a 1346     	 mov r3,r2
 1350 000c 5B00     	 lsls r3,r3,#1
 1351 000e 1344     	 add r3,r3,r2
 1352 0010 9B00     	 lsls r3,r3,#2
 1353 0012 044A     	 ldr r2,.L127
 1354 0014 1344     	 add r3,r3,r2
 1355 0016 1846     	 mov r0,r3
 1356 0018 0C37     	 adds r7,r7,#12
 1357              	.LCFI143:
 1358              	 .cfi_def_cfa_offset 4
 1359 001a BD46     	 mov sp,r7
 1360              	.LCFI144:
 1361              	 .cfi_def_cfa_register 13
 1362              	 
 1363 001c 5DF8047B 	 ldr r7,[sp],#4
 1364              	.LCFI145:
 1365              	 .cfi_restore 7
 1366              	 .cfi_def_cfa_offset 0
 1367 0020 7047     	 bx lr
 1368              	.L128:
 1369 0022 00BF     	 .align 2
 1370              	.L127:
 1371 0024 00000000 	 .word servoParams_SystemArray
 1372              	 .cfi_endproc
 1373              	.LFE590:
 1375              	 .section .text.gpsConfig,"ax",%progbits
 1376              	 .align 2
 1377              	 .thumb
 1378              	 .thumb_func
 1380              	gpsConfig:
 1381              	.LFB596:
 1382              	 .file 13 "D:/XMC/Projekte/Temp/CF_XMC4700/cleanflight/src/main/io/gps.h"
   1:D:/XMC/Projekte/Temp/CF_XMC4700/cleanflight/src/main/io\gps.h **** /*
   2:D:/XMC/Projekte/Temp/CF_XMC4700/cleanflight/src/main/io\gps.h ****  * This file is part of Cleanflight and Betaflight.
   3:D:/XMC/Projekte/Temp/CF_XMC4700/cleanflight/src/main/io\gps.h ****  *
   4:D:/XMC/Projekte/Temp/CF_XMC4700/cleanflight/src/main/io\gps.h ****  * Cleanflight and Betaflight are free software. You can redistribute
   5:D:/XMC/Projekte/Temp/CF_XMC4700/cleanflight/src/main/io\gps.h ****  * this software and/or modify this software under the terms of the
   6:D:/XMC/Projekte/Temp/CF_XMC4700/cleanflight/src/main/io\gps.h ****  * GNU General Public License as published by the Free Software
   7:D:/XMC/Projekte/Temp/CF_XMC4700/cleanflight/src/main/io\gps.h ****  * Foundation, either version 3 of the License, or (at your option)
   8:D:/XMC/Projekte/Temp/CF_XMC4700/cleanflight/src/main/io\gps.h ****  * any later version.
   9:D:/XMC/Projekte/Temp/CF_XMC4700/cleanflight/src/main/io\gps.h ****  *
  10:D:/XMC/Projekte/Temp/CF_XMC4700/cleanflight/src/main/io\gps.h ****  * Cleanflight and Betaflight are distributed in the hope that they
  11:D:/XMC/Projekte/Temp/CF_XMC4700/cleanflight/src/main/io\gps.h ****  * will be useful, but WITHOUT ANY WARRANTY; without even the implied
  12:D:/XMC/Projekte/Temp/CF_XMC4700/cleanflight/src/main/io\gps.h ****  * warranty of MERCHANTABILITY or FITNESS FOR A PARTICULAR PURPOSE.
  13:D:/XMC/Projekte/Temp/CF_XMC4700/cleanflight/src/main/io\gps.h ****  * See the GNU General Public License for more details.
  14:D:/XMC/Projekte/Temp/CF_XMC4700/cleanflight/src/main/io\gps.h ****  *
  15:D:/XMC/Projekte/Temp/CF_XMC4700/cleanflight/src/main/io\gps.h ****  * You should have received a copy of the GNU General Public License
  16:D:/XMC/Projekte/Temp/CF_XMC4700/cleanflight/src/main/io\gps.h ****  * along with this software.
  17:D:/XMC/Projekte/Temp/CF_XMC4700/cleanflight/src/main/io\gps.h ****  *
  18:D:/XMC/Projekte/Temp/CF_XMC4700/cleanflight/src/main/io\gps.h ****  * If not, see <http://www.gnu.org/licenses/>.
  19:D:/XMC/Projekte/Temp/CF_XMC4700/cleanflight/src/main/io\gps.h ****  */
  20:D:/XMC/Projekte/Temp/CF_XMC4700/cleanflight/src/main/io\gps.h **** 
  21:D:/XMC/Projekte/Temp/CF_XMC4700/cleanflight/src/main/io\gps.h **** #pragma once
  22:D:/XMC/Projekte/Temp/CF_XMC4700/cleanflight/src/main/io\gps.h **** 
  23:D:/XMC/Projekte/Temp/CF_XMC4700/cleanflight/src/main/io\gps.h **** #include "common/axis.h"
  24:D:/XMC/Projekte/Temp/CF_XMC4700/cleanflight/src/main/io\gps.h **** #include "common/time.h"
  25:D:/XMC/Projekte/Temp/CF_XMC4700/cleanflight/src/main/io\gps.h **** 
  26:D:/XMC/Projekte/Temp/CF_XMC4700/cleanflight/src/main/io\gps.h **** #include "pg/pg.h"
  27:D:/XMC/Projekte/Temp/CF_XMC4700/cleanflight/src/main/io\gps.h **** 
  28:D:/XMC/Projekte/Temp/CF_XMC4700/cleanflight/src/main/io\gps.h **** #define LAT 0
  29:D:/XMC/Projekte/Temp/CF_XMC4700/cleanflight/src/main/io\gps.h **** #define LON 1
  30:D:/XMC/Projekte/Temp/CF_XMC4700/cleanflight/src/main/io\gps.h **** 
  31:D:/XMC/Projekte/Temp/CF_XMC4700/cleanflight/src/main/io\gps.h **** #define GPS_DEGREES_DIVIDER 10000000L
  32:D:/XMC/Projekte/Temp/CF_XMC4700/cleanflight/src/main/io\gps.h **** #define GPS_X 1
  33:D:/XMC/Projekte/Temp/CF_XMC4700/cleanflight/src/main/io\gps.h **** #define GPS_Y 0
  34:D:/XMC/Projekte/Temp/CF_XMC4700/cleanflight/src/main/io\gps.h **** 
  35:D:/XMC/Projekte/Temp/CF_XMC4700/cleanflight/src/main/io\gps.h **** typedef enum {
  36:D:/XMC/Projekte/Temp/CF_XMC4700/cleanflight/src/main/io\gps.h ****     GPS_NMEA = 0,
  37:D:/XMC/Projekte/Temp/CF_XMC4700/cleanflight/src/main/io\gps.h ****     GPS_UBLOX
  38:D:/XMC/Projekte/Temp/CF_XMC4700/cleanflight/src/main/io\gps.h **** } gpsProvider_e;
  39:D:/XMC/Projekte/Temp/CF_XMC4700/cleanflight/src/main/io\gps.h **** 
  40:D:/XMC/Projekte/Temp/CF_XMC4700/cleanflight/src/main/io\gps.h **** typedef enum {
  41:D:/XMC/Projekte/Temp/CF_XMC4700/cleanflight/src/main/io\gps.h ****     SBAS_AUTO = 0,
  42:D:/XMC/Projekte/Temp/CF_XMC4700/cleanflight/src/main/io\gps.h ****     SBAS_EGNOS,
  43:D:/XMC/Projekte/Temp/CF_XMC4700/cleanflight/src/main/io\gps.h ****     SBAS_WAAS,
  44:D:/XMC/Projekte/Temp/CF_XMC4700/cleanflight/src/main/io\gps.h ****     SBAS_MSAS,
  45:D:/XMC/Projekte/Temp/CF_XMC4700/cleanflight/src/main/io\gps.h ****     SBAS_GAGAN
  46:D:/XMC/Projekte/Temp/CF_XMC4700/cleanflight/src/main/io\gps.h **** } sbasMode_e;
  47:D:/XMC/Projekte/Temp/CF_XMC4700/cleanflight/src/main/io\gps.h **** 
  48:D:/XMC/Projekte/Temp/CF_XMC4700/cleanflight/src/main/io\gps.h **** #define SBAS_MODE_MAX SBAS_GAGAN
  49:D:/XMC/Projekte/Temp/CF_XMC4700/cleanflight/src/main/io\gps.h **** 
  50:D:/XMC/Projekte/Temp/CF_XMC4700/cleanflight/src/main/io\gps.h **** typedef enum {
  51:D:/XMC/Projekte/Temp/CF_XMC4700/cleanflight/src/main/io\gps.h ****     GPS_BAUDRATE_115200 = 0,
  52:D:/XMC/Projekte/Temp/CF_XMC4700/cleanflight/src/main/io\gps.h ****     GPS_BAUDRATE_57600,
  53:D:/XMC/Projekte/Temp/CF_XMC4700/cleanflight/src/main/io\gps.h ****     GPS_BAUDRATE_38400,
  54:D:/XMC/Projekte/Temp/CF_XMC4700/cleanflight/src/main/io\gps.h ****     GPS_BAUDRATE_19200,
  55:D:/XMC/Projekte/Temp/CF_XMC4700/cleanflight/src/main/io\gps.h ****     GPS_BAUDRATE_9600
  56:D:/XMC/Projekte/Temp/CF_XMC4700/cleanflight/src/main/io\gps.h **** } gpsBaudRate_e;
  57:D:/XMC/Projekte/Temp/CF_XMC4700/cleanflight/src/main/io\gps.h **** 
  58:D:/XMC/Projekte/Temp/CF_XMC4700/cleanflight/src/main/io\gps.h **** typedef enum {
  59:D:/XMC/Projekte/Temp/CF_XMC4700/cleanflight/src/main/io\gps.h ****     GPS_AUTOCONFIG_OFF = 0,
  60:D:/XMC/Projekte/Temp/CF_XMC4700/cleanflight/src/main/io\gps.h ****     GPS_AUTOCONFIG_ON
  61:D:/XMC/Projekte/Temp/CF_XMC4700/cleanflight/src/main/io\gps.h **** } gpsAutoConfig_e;
  62:D:/XMC/Projekte/Temp/CF_XMC4700/cleanflight/src/main/io\gps.h **** 
  63:D:/XMC/Projekte/Temp/CF_XMC4700/cleanflight/src/main/io\gps.h **** typedef enum {
  64:D:/XMC/Projekte/Temp/CF_XMC4700/cleanflight/src/main/io\gps.h ****     GPS_AUTOBAUD_OFF = 0,
  65:D:/XMC/Projekte/Temp/CF_XMC4700/cleanflight/src/main/io\gps.h ****     GPS_AUTOBAUD_ON
  66:D:/XMC/Projekte/Temp/CF_XMC4700/cleanflight/src/main/io\gps.h **** } gpsAutoBaud_e;
  67:D:/XMC/Projekte/Temp/CF_XMC4700/cleanflight/src/main/io\gps.h **** 
  68:D:/XMC/Projekte/Temp/CF_XMC4700/cleanflight/src/main/io\gps.h **** #define GPS_BAUDRATE_MAX GPS_BAUDRATE_9600
  69:D:/XMC/Projekte/Temp/CF_XMC4700/cleanflight/src/main/io\gps.h **** 
  70:D:/XMC/Projekte/Temp/CF_XMC4700/cleanflight/src/main/io\gps.h **** typedef struct gpsConfig_s {
  71:D:/XMC/Projekte/Temp/CF_XMC4700/cleanflight/src/main/io\gps.h ****     gpsProvider_e provider;
  72:D:/XMC/Projekte/Temp/CF_XMC4700/cleanflight/src/main/io\gps.h ****     sbasMode_e sbasMode;
  73:D:/XMC/Projekte/Temp/CF_XMC4700/cleanflight/src/main/io\gps.h ****     gpsAutoConfig_e autoConfig;
  74:D:/XMC/Projekte/Temp/CF_XMC4700/cleanflight/src/main/io\gps.h ****     gpsAutoBaud_e autoBaud;
  75:D:/XMC/Projekte/Temp/CF_XMC4700/cleanflight/src/main/io\gps.h ****     uint8_t gps_ublox_use_galileo;
  76:D:/XMC/Projekte/Temp/CF_XMC4700/cleanflight/src/main/io\gps.h **** } gpsConfig_t;
  77:D:/XMC/Projekte/Temp/CF_XMC4700/cleanflight/src/main/io\gps.h **** 
  78:D:/XMC/Projekte/Temp/CF_XMC4700/cleanflight/src/main/io\gps.h **** PG_DECLARE(gpsConfig_t, gpsConfig);
 1383              	 .loc 13 78 0
 1384              	 .cfi_startproc
 1385              	 
 1386              	 
 1387              	 
 1388 0000 80B4     	 push {r7}
 1389              	.LCFI146:
 1390              	 .cfi_def_cfa_offset 4
 1391              	 .cfi_offset 7,-4
 1392 0002 00AF     	 add r7,sp,#0
 1393              	.LCFI147:
 1394              	 .cfi_def_cfa_register 7
 1395              	 .loc 13 78 0
 1396 0004 024B     	 ldr r3,.L131
 1397 0006 1846     	 mov r0,r3
 1398 0008 BD46     	 mov sp,r7
 1399              	.LCFI148:
 1400              	 .cfi_def_cfa_register 13
 1401              	 
 1402 000a 5DF8047B 	 ldr r7,[sp],#4
 1403              	.LCFI149:
 1404              	 .cfi_restore 7
 1405              	 .cfi_def_cfa_offset 0
 1406 000e 7047     	 bx lr
 1407              	.L132:
 1408              	 .align 2
 1409              	.L131:
 1410 0010 00000000 	 .word gpsConfig_System
 1411              	 .cfi_endproc
 1412              	.LFE596:
 1414              	 .section .text.gpsConfigMutable,"ax",%progbits
 1415              	 .align 2
 1416              	 .thumb
 1417              	 .thumb_func
 1419              	gpsConfigMutable:
 1420              	.LFB597:
 1421              	 .loc 13 78 0
 1422              	 .cfi_startproc
 1423              	 
 1424              	 
 1425              	 
 1426 0000 80B4     	 push {r7}
 1427              	.LCFI150:
 1428              	 .cfi_def_cfa_offset 4
 1429              	 .cfi_offset 7,-4
 1430 0002 00AF     	 add r7,sp,#0
 1431              	.LCFI151:
 1432              	 .cfi_def_cfa_register 7
 1433              	 .loc 13 78 0
 1434 0004 024B     	 ldr r3,.L135
 1435 0006 1846     	 mov r0,r3
 1436 0008 BD46     	 mov sp,r7
 1437              	.LCFI152:
 1438              	 .cfi_def_cfa_register 13
 1439              	 
 1440 000a 5DF8047B 	 ldr r7,[sp],#4
 1441              	.LCFI153:
 1442              	 .cfi_restore 7
 1443              	 .cfi_def_cfa_offset 0
 1444 000e 7047     	 bx lr
 1445              	.L136:
 1446              	 .align 2
 1447              	.L135:
 1448 0010 00000000 	 .word gpsConfig_System
 1449              	 .cfi_endproc
 1450              	.LFE597:
 1452              	 .comm colors,4,4
 1453              	 .comm modeColors,4,4
 1454              	 .comm specialColors,11,4
 1455              	 .section .text.osdConfig,"ax",%progbits
 1456              	 .align 2
 1457              	 .thumb
 1458              	 .thumb_func
 1460              	osdConfig:
 1461              	.LFB610:
 1462              	 .file 14 "D:/XMC/Projekte/Temp/CF_XMC4700/cleanflight/src/main/io/osd.h"
   1:D:/XMC/Projekte/Temp/CF_XMC4700/cleanflight/src/main/io\osd.h **** /*
   2:D:/XMC/Projekte/Temp/CF_XMC4700/cleanflight/src/main/io\osd.h ****  * This file is part of Cleanflight and Betaflight.
   3:D:/XMC/Projekte/Temp/CF_XMC4700/cleanflight/src/main/io\osd.h ****  *
   4:D:/XMC/Projekte/Temp/CF_XMC4700/cleanflight/src/main/io\osd.h ****  * Cleanflight and Betaflight are free software. You can redistribute
   5:D:/XMC/Projekte/Temp/CF_XMC4700/cleanflight/src/main/io\osd.h ****  * this software and/or modify this software under the terms of the
   6:D:/XMC/Projekte/Temp/CF_XMC4700/cleanflight/src/main/io\osd.h ****  * GNU General Public License as published by the Free Software
   7:D:/XMC/Projekte/Temp/CF_XMC4700/cleanflight/src/main/io\osd.h ****  * Foundation, either version 3 of the License, or (at your option)
   8:D:/XMC/Projekte/Temp/CF_XMC4700/cleanflight/src/main/io\osd.h ****  * any later version.
   9:D:/XMC/Projekte/Temp/CF_XMC4700/cleanflight/src/main/io\osd.h ****  *
  10:D:/XMC/Projekte/Temp/CF_XMC4700/cleanflight/src/main/io\osd.h ****  * Cleanflight and Betaflight are distributed in the hope that they
  11:D:/XMC/Projekte/Temp/CF_XMC4700/cleanflight/src/main/io\osd.h ****  * will be useful, but WITHOUT ANY WARRANTY; without even the implied
  12:D:/XMC/Projekte/Temp/CF_XMC4700/cleanflight/src/main/io\osd.h ****  * warranty of MERCHANTABILITY or FITNESS FOR A PARTICULAR PURPOSE.
  13:D:/XMC/Projekte/Temp/CF_XMC4700/cleanflight/src/main/io\osd.h ****  * See the GNU General Public License for more details.
  14:D:/XMC/Projekte/Temp/CF_XMC4700/cleanflight/src/main/io\osd.h ****  *
  15:D:/XMC/Projekte/Temp/CF_XMC4700/cleanflight/src/main/io\osd.h ****  * You should have received a copy of the GNU General Public License
  16:D:/XMC/Projekte/Temp/CF_XMC4700/cleanflight/src/main/io\osd.h ****  * along with this software.
  17:D:/XMC/Projekte/Temp/CF_XMC4700/cleanflight/src/main/io\osd.h ****  *
  18:D:/XMC/Projekte/Temp/CF_XMC4700/cleanflight/src/main/io\osd.h ****  * If not, see <http://www.gnu.org/licenses/>.
  19:D:/XMC/Projekte/Temp/CF_XMC4700/cleanflight/src/main/io\osd.h ****  */
  20:D:/XMC/Projekte/Temp/CF_XMC4700/cleanflight/src/main/io\osd.h **** 
  21:D:/XMC/Projekte/Temp/CF_XMC4700/cleanflight/src/main/io\osd.h **** #pragma once
  22:D:/XMC/Projekte/Temp/CF_XMC4700/cleanflight/src/main/io\osd.h **** 
  23:D:/XMC/Projekte/Temp/CF_XMC4700/cleanflight/src/main/io\osd.h **** #include "common/time.h"
  24:D:/XMC/Projekte/Temp/CF_XMC4700/cleanflight/src/main/io\osd.h **** #include "pg/pg.h"
  25:D:/XMC/Projekte/Temp/CF_XMC4700/cleanflight/src/main/io\osd.h **** 
  26:D:/XMC/Projekte/Temp/CF_XMC4700/cleanflight/src/main/io\osd.h **** #define OSD_NUM_TIMER_TYPES 3
  27:D:/XMC/Projekte/Temp/CF_XMC4700/cleanflight/src/main/io\osd.h **** extern const char * const osdTimerSourceNames[OSD_NUM_TIMER_TYPES];
  28:D:/XMC/Projekte/Temp/CF_XMC4700/cleanflight/src/main/io\osd.h **** 
  29:D:/XMC/Projekte/Temp/CF_XMC4700/cleanflight/src/main/io\osd.h **** #define OSD_ELEMENT_BUFFER_LENGTH 32
  30:D:/XMC/Projekte/Temp/CF_XMC4700/cleanflight/src/main/io\osd.h **** 
  31:D:/XMC/Projekte/Temp/CF_XMC4700/cleanflight/src/main/io\osd.h **** #define VISIBLE_FLAG  0x0800
  32:D:/XMC/Projekte/Temp/CF_XMC4700/cleanflight/src/main/io\osd.h **** #define VISIBLE(x)    (x & VISIBLE_FLAG)
  33:D:/XMC/Projekte/Temp/CF_XMC4700/cleanflight/src/main/io\osd.h **** #define OSD_POS_MAX   0x3FF
  34:D:/XMC/Projekte/Temp/CF_XMC4700/cleanflight/src/main/io\osd.h **** #define OSD_POSCFG_MAX   (VISIBLE_FLAG|0x3FF) // For CLI values
  35:D:/XMC/Projekte/Temp/CF_XMC4700/cleanflight/src/main/io\osd.h **** 
  36:D:/XMC/Projekte/Temp/CF_XMC4700/cleanflight/src/main/io\osd.h **** // Character coordinate
  37:D:/XMC/Projekte/Temp/CF_XMC4700/cleanflight/src/main/io\osd.h **** #define OSD_POSITION_BITS 5 // 5 bits gives a range 0-31
  38:D:/XMC/Projekte/Temp/CF_XMC4700/cleanflight/src/main/io\osd.h **** #define OSD_POSITION_XY_MASK ((1 << OSD_POSITION_BITS) - 1)
  39:D:/XMC/Projekte/Temp/CF_XMC4700/cleanflight/src/main/io\osd.h **** #define OSD_POS(x,y)  ((x & OSD_POSITION_XY_MASK) | ((y & OSD_POSITION_XY_MASK) << OSD_POSITION_BIT
  40:D:/XMC/Projekte/Temp/CF_XMC4700/cleanflight/src/main/io\osd.h **** #define OSD_X(x)      (x & OSD_POSITION_XY_MASK)
  41:D:/XMC/Projekte/Temp/CF_XMC4700/cleanflight/src/main/io\osd.h **** #define OSD_Y(x)      ((x >> OSD_POSITION_BITS) & OSD_POSITION_XY_MASK)
  42:D:/XMC/Projekte/Temp/CF_XMC4700/cleanflight/src/main/io\osd.h **** 
  43:D:/XMC/Projekte/Temp/CF_XMC4700/cleanflight/src/main/io\osd.h **** // Timer configuration
  44:D:/XMC/Projekte/Temp/CF_XMC4700/cleanflight/src/main/io\osd.h **** // Stored as 15[alarm:8][precision:4][source:4]0
  45:D:/XMC/Projekte/Temp/CF_XMC4700/cleanflight/src/main/io\osd.h **** #define OSD_TIMER(src, prec, alarm) ((src & 0x0F) | ((prec & 0x0F) << 4) | ((alarm & 0xFF ) << 8))
  46:D:/XMC/Projekte/Temp/CF_XMC4700/cleanflight/src/main/io\osd.h **** #define OSD_TIMER_SRC(timer)        (timer & 0x0F)
  47:D:/XMC/Projekte/Temp/CF_XMC4700/cleanflight/src/main/io\osd.h **** #define OSD_TIMER_PRECISION(timer)  ((timer >> 4) & 0x0F)
  48:D:/XMC/Projekte/Temp/CF_XMC4700/cleanflight/src/main/io\osd.h **** #define OSD_TIMER_ALARM(timer)      ((timer >> 8) & 0xFF)
  49:D:/XMC/Projekte/Temp/CF_XMC4700/cleanflight/src/main/io\osd.h **** 
  50:D:/XMC/Projekte/Temp/CF_XMC4700/cleanflight/src/main/io\osd.h **** // NB: to ensure backwards compatibility, new enum values must be appended at the end but before th
  51:D:/XMC/Projekte/Temp/CF_XMC4700/cleanflight/src/main/io\osd.h **** 
  52:D:/XMC/Projekte/Temp/CF_XMC4700/cleanflight/src/main/io\osd.h **** // *** IMPORTANT ***
  53:D:/XMC/Projekte/Temp/CF_XMC4700/cleanflight/src/main/io\osd.h **** // If you are adding additional elements that do not require any conditional display logic,
  54:D:/XMC/Projekte/Temp/CF_XMC4700/cleanflight/src/main/io\osd.h **** // you must add the elements to the osdElementDisplayOrder[] array in src/main/io/osd.c
  55:D:/XMC/Projekte/Temp/CF_XMC4700/cleanflight/src/main/io\osd.h **** typedef enum {
  56:D:/XMC/Projekte/Temp/CF_XMC4700/cleanflight/src/main/io\osd.h ****     OSD_RSSI_VALUE,
  57:D:/XMC/Projekte/Temp/CF_XMC4700/cleanflight/src/main/io\osd.h ****     OSD_MAIN_BATT_VOLTAGE,
  58:D:/XMC/Projekte/Temp/CF_XMC4700/cleanflight/src/main/io\osd.h ****     OSD_CROSSHAIRS,
  59:D:/XMC/Projekte/Temp/CF_XMC4700/cleanflight/src/main/io\osd.h ****     OSD_ARTIFICIAL_HORIZON,
  60:D:/XMC/Projekte/Temp/CF_XMC4700/cleanflight/src/main/io\osd.h ****     OSD_HORIZON_SIDEBARS,
  61:D:/XMC/Projekte/Temp/CF_XMC4700/cleanflight/src/main/io\osd.h ****     OSD_ITEM_TIMER_1,
  62:D:/XMC/Projekte/Temp/CF_XMC4700/cleanflight/src/main/io\osd.h ****     OSD_ITEM_TIMER_2,
  63:D:/XMC/Projekte/Temp/CF_XMC4700/cleanflight/src/main/io\osd.h ****     OSD_FLYMODE,
  64:D:/XMC/Projekte/Temp/CF_XMC4700/cleanflight/src/main/io\osd.h ****     OSD_CRAFT_NAME,
  65:D:/XMC/Projekte/Temp/CF_XMC4700/cleanflight/src/main/io\osd.h ****     OSD_THROTTLE_POS,
  66:D:/XMC/Projekte/Temp/CF_XMC4700/cleanflight/src/main/io\osd.h ****     OSD_VTX_CHANNEL,
  67:D:/XMC/Projekte/Temp/CF_XMC4700/cleanflight/src/main/io\osd.h ****     OSD_CURRENT_DRAW,
  68:D:/XMC/Projekte/Temp/CF_XMC4700/cleanflight/src/main/io\osd.h ****     OSD_MAH_DRAWN,
  69:D:/XMC/Projekte/Temp/CF_XMC4700/cleanflight/src/main/io\osd.h ****     OSD_GPS_SPEED,
  70:D:/XMC/Projekte/Temp/CF_XMC4700/cleanflight/src/main/io\osd.h ****     OSD_GPS_SATS,
  71:D:/XMC/Projekte/Temp/CF_XMC4700/cleanflight/src/main/io\osd.h ****     OSD_ALTITUDE,
  72:D:/XMC/Projekte/Temp/CF_XMC4700/cleanflight/src/main/io\osd.h ****     OSD_ROLL_PIDS,
  73:D:/XMC/Projekte/Temp/CF_XMC4700/cleanflight/src/main/io\osd.h ****     OSD_PITCH_PIDS,
  74:D:/XMC/Projekte/Temp/CF_XMC4700/cleanflight/src/main/io\osd.h ****     OSD_YAW_PIDS,
  75:D:/XMC/Projekte/Temp/CF_XMC4700/cleanflight/src/main/io\osd.h ****     OSD_POWER,
  76:D:/XMC/Projekte/Temp/CF_XMC4700/cleanflight/src/main/io\osd.h ****     OSD_PIDRATE_PROFILE,
  77:D:/XMC/Projekte/Temp/CF_XMC4700/cleanflight/src/main/io\osd.h ****     OSD_WARNINGS,
  78:D:/XMC/Projekte/Temp/CF_XMC4700/cleanflight/src/main/io\osd.h ****     OSD_AVG_CELL_VOLTAGE,
  79:D:/XMC/Projekte/Temp/CF_XMC4700/cleanflight/src/main/io\osd.h ****     OSD_GPS_LON,
  80:D:/XMC/Projekte/Temp/CF_XMC4700/cleanflight/src/main/io\osd.h ****     OSD_GPS_LAT,
  81:D:/XMC/Projekte/Temp/CF_XMC4700/cleanflight/src/main/io\osd.h ****     OSD_DEBUG,
  82:D:/XMC/Projekte/Temp/CF_XMC4700/cleanflight/src/main/io\osd.h ****     OSD_PITCH_ANGLE,
  83:D:/XMC/Projekte/Temp/CF_XMC4700/cleanflight/src/main/io\osd.h ****     OSD_ROLL_ANGLE,
  84:D:/XMC/Projekte/Temp/CF_XMC4700/cleanflight/src/main/io\osd.h ****     OSD_MAIN_BATT_USAGE,
  85:D:/XMC/Projekte/Temp/CF_XMC4700/cleanflight/src/main/io\osd.h ****     OSD_DISARMED,
  86:D:/XMC/Projekte/Temp/CF_XMC4700/cleanflight/src/main/io\osd.h ****     OSD_HOME_DIR,
  87:D:/XMC/Projekte/Temp/CF_XMC4700/cleanflight/src/main/io\osd.h ****     OSD_HOME_DIST,
  88:D:/XMC/Projekte/Temp/CF_XMC4700/cleanflight/src/main/io\osd.h ****     OSD_NUMERICAL_HEADING,
  89:D:/XMC/Projekte/Temp/CF_XMC4700/cleanflight/src/main/io\osd.h ****     OSD_NUMERICAL_VARIO,
  90:D:/XMC/Projekte/Temp/CF_XMC4700/cleanflight/src/main/io\osd.h ****     OSD_COMPASS_BAR,
  91:D:/XMC/Projekte/Temp/CF_XMC4700/cleanflight/src/main/io\osd.h ****     OSD_ESC_TMP,
  92:D:/XMC/Projekte/Temp/CF_XMC4700/cleanflight/src/main/io\osd.h ****     OSD_ESC_RPM,
  93:D:/XMC/Projekte/Temp/CF_XMC4700/cleanflight/src/main/io\osd.h ****     OSD_REMAINING_TIME_ESTIMATE,
  94:D:/XMC/Projekte/Temp/CF_XMC4700/cleanflight/src/main/io\osd.h ****     OSD_RTC_DATETIME,
  95:D:/XMC/Projekte/Temp/CF_XMC4700/cleanflight/src/main/io\osd.h ****     OSD_ADJUSTMENT_RANGE,
  96:D:/XMC/Projekte/Temp/CF_XMC4700/cleanflight/src/main/io\osd.h ****     OSD_CORE_TEMPERATURE,
  97:D:/XMC/Projekte/Temp/CF_XMC4700/cleanflight/src/main/io\osd.h ****     OSD_ANTI_GRAVITY,
  98:D:/XMC/Projekte/Temp/CF_XMC4700/cleanflight/src/main/io\osd.h ****     OSD_G_FORCE,
  99:D:/XMC/Projekte/Temp/CF_XMC4700/cleanflight/src/main/io\osd.h ****     OSD_ITEM_COUNT // MUST BE LAST
 100:D:/XMC/Projekte/Temp/CF_XMC4700/cleanflight/src/main/io\osd.h **** } osd_items_e;
 101:D:/XMC/Projekte/Temp/CF_XMC4700/cleanflight/src/main/io\osd.h **** 
 102:D:/XMC/Projekte/Temp/CF_XMC4700/cleanflight/src/main/io\osd.h **** // *** IMPORTANT ***
 103:D:/XMC/Projekte/Temp/CF_XMC4700/cleanflight/src/main/io\osd.h **** // The order of the OSD stats enumeration *must* match the order they're displayed on-screen
 104:D:/XMC/Projekte/Temp/CF_XMC4700/cleanflight/src/main/io\osd.h **** // This is because the fields are presented in the configurator in the order of the enumeration
 105:D:/XMC/Projekte/Temp/CF_XMC4700/cleanflight/src/main/io\osd.h **** // and we want the configuration order to match the on-screen display order.
 106:D:/XMC/Projekte/Temp/CF_XMC4700/cleanflight/src/main/io\osd.h **** // Changes to the stats display order *must* be implemented in the configurator otherwise the
 107:D:/XMC/Projekte/Temp/CF_XMC4700/cleanflight/src/main/io\osd.h **** // stats selections will not be populated correctly and the settings will become corrupted.
 108:D:/XMC/Projekte/Temp/CF_XMC4700/cleanflight/src/main/io\osd.h **** //
 109:D:/XMC/Projekte/Temp/CF_XMC4700/cleanflight/src/main/io\osd.h **** // Also - if the stats are reordered then the PR version must be incremented. Otherwise there
 110:D:/XMC/Projekte/Temp/CF_XMC4700/cleanflight/src/main/io\osd.h **** // is no indication that the stored config must be reset and the bitmapped values will be incorrect
 111:D:/XMC/Projekte/Temp/CF_XMC4700/cleanflight/src/main/io\osd.h **** typedef enum {
 112:D:/XMC/Projekte/Temp/CF_XMC4700/cleanflight/src/main/io\osd.h ****     OSD_STAT_RTC_DATE_TIME,
 113:D:/XMC/Projekte/Temp/CF_XMC4700/cleanflight/src/main/io\osd.h ****     OSD_STAT_TIMER_1,
 114:D:/XMC/Projekte/Temp/CF_XMC4700/cleanflight/src/main/io\osd.h ****     OSD_STAT_TIMER_2,
 115:D:/XMC/Projekte/Temp/CF_XMC4700/cleanflight/src/main/io\osd.h ****     OSD_STAT_MAX_SPEED,
 116:D:/XMC/Projekte/Temp/CF_XMC4700/cleanflight/src/main/io\osd.h ****     OSD_STAT_MAX_DISTANCE,
 117:D:/XMC/Projekte/Temp/CF_XMC4700/cleanflight/src/main/io\osd.h ****     OSD_STAT_MIN_BATTERY,
 118:D:/XMC/Projekte/Temp/CF_XMC4700/cleanflight/src/main/io\osd.h ****     OSD_STAT_END_BATTERY,
 119:D:/XMC/Projekte/Temp/CF_XMC4700/cleanflight/src/main/io\osd.h ****     OSD_STAT_BATTERY,
 120:D:/XMC/Projekte/Temp/CF_XMC4700/cleanflight/src/main/io\osd.h ****     OSD_STAT_MIN_RSSI,
 121:D:/XMC/Projekte/Temp/CF_XMC4700/cleanflight/src/main/io\osd.h ****     OSD_STAT_MAX_CURRENT,
 122:D:/XMC/Projekte/Temp/CF_XMC4700/cleanflight/src/main/io\osd.h ****     OSD_STAT_USED_MAH,
 123:D:/XMC/Projekte/Temp/CF_XMC4700/cleanflight/src/main/io\osd.h ****     OSD_STAT_MAX_ALTITUDE,
 124:D:/XMC/Projekte/Temp/CF_XMC4700/cleanflight/src/main/io\osd.h ****     OSD_STAT_BLACKBOX,
 125:D:/XMC/Projekte/Temp/CF_XMC4700/cleanflight/src/main/io\osd.h ****     OSD_STAT_BLACKBOX_NUMBER,
 126:D:/XMC/Projekte/Temp/CF_XMC4700/cleanflight/src/main/io\osd.h ****     OSD_STAT_COUNT // MUST BE LAST
 127:D:/XMC/Projekte/Temp/CF_XMC4700/cleanflight/src/main/io\osd.h **** } osd_stats_e;
 128:D:/XMC/Projekte/Temp/CF_XMC4700/cleanflight/src/main/io\osd.h **** 
 129:D:/XMC/Projekte/Temp/CF_XMC4700/cleanflight/src/main/io\osd.h **** // Make sure the number of stats do not exceed the available 32bit storage
 130:D:/XMC/Projekte/Temp/CF_XMC4700/cleanflight/src/main/io\osd.h **** STATIC_ASSERT(OSD_STAT_COUNT <= 32, osdstats_overflow);
 131:D:/XMC/Projekte/Temp/CF_XMC4700/cleanflight/src/main/io\osd.h **** 
 132:D:/XMC/Projekte/Temp/CF_XMC4700/cleanflight/src/main/io\osd.h **** typedef enum {
 133:D:/XMC/Projekte/Temp/CF_XMC4700/cleanflight/src/main/io\osd.h ****     OSD_UNIT_IMPERIAL,
 134:D:/XMC/Projekte/Temp/CF_XMC4700/cleanflight/src/main/io\osd.h ****     OSD_UNIT_METRIC
 135:D:/XMC/Projekte/Temp/CF_XMC4700/cleanflight/src/main/io\osd.h **** } osd_unit_e;
 136:D:/XMC/Projekte/Temp/CF_XMC4700/cleanflight/src/main/io\osd.h **** 
 137:D:/XMC/Projekte/Temp/CF_XMC4700/cleanflight/src/main/io\osd.h **** typedef enum {
 138:D:/XMC/Projekte/Temp/CF_XMC4700/cleanflight/src/main/io\osd.h ****     OSD_TIMER_1,
 139:D:/XMC/Projekte/Temp/CF_XMC4700/cleanflight/src/main/io\osd.h ****     OSD_TIMER_2,
 140:D:/XMC/Projekte/Temp/CF_XMC4700/cleanflight/src/main/io\osd.h ****     OSD_TIMER_COUNT
 141:D:/XMC/Projekte/Temp/CF_XMC4700/cleanflight/src/main/io\osd.h **** } osd_timer_e;
 142:D:/XMC/Projekte/Temp/CF_XMC4700/cleanflight/src/main/io\osd.h **** 
 143:D:/XMC/Projekte/Temp/CF_XMC4700/cleanflight/src/main/io\osd.h **** typedef enum {
 144:D:/XMC/Projekte/Temp/CF_XMC4700/cleanflight/src/main/io\osd.h ****     OSD_TIMER_SRC_ON,
 145:D:/XMC/Projekte/Temp/CF_XMC4700/cleanflight/src/main/io\osd.h ****     OSD_TIMER_SRC_TOTAL_ARMED,
 146:D:/XMC/Projekte/Temp/CF_XMC4700/cleanflight/src/main/io\osd.h ****     OSD_TIMER_SRC_LAST_ARMED,
 147:D:/XMC/Projekte/Temp/CF_XMC4700/cleanflight/src/main/io\osd.h ****     OSD_TIMER_SRC_COUNT
 148:D:/XMC/Projekte/Temp/CF_XMC4700/cleanflight/src/main/io\osd.h **** } osd_timer_source_e;
 149:D:/XMC/Projekte/Temp/CF_XMC4700/cleanflight/src/main/io\osd.h **** 
 150:D:/XMC/Projekte/Temp/CF_XMC4700/cleanflight/src/main/io\osd.h **** typedef enum {
 151:D:/XMC/Projekte/Temp/CF_XMC4700/cleanflight/src/main/io\osd.h ****     OSD_TIMER_PREC_SECOND,
 152:D:/XMC/Projekte/Temp/CF_XMC4700/cleanflight/src/main/io\osd.h ****     OSD_TIMER_PREC_HUNDREDTHS,
 153:D:/XMC/Projekte/Temp/CF_XMC4700/cleanflight/src/main/io\osd.h ****     OSD_TIMER_PREC_COUNT
 154:D:/XMC/Projekte/Temp/CF_XMC4700/cleanflight/src/main/io\osd.h **** } osd_timer_precision_e;
 155:D:/XMC/Projekte/Temp/CF_XMC4700/cleanflight/src/main/io\osd.h **** 
 156:D:/XMC/Projekte/Temp/CF_XMC4700/cleanflight/src/main/io\osd.h **** typedef enum {
 157:D:/XMC/Projekte/Temp/CF_XMC4700/cleanflight/src/main/io\osd.h ****     OSD_WARNING_ARMING_DISABLE,
 158:D:/XMC/Projekte/Temp/CF_XMC4700/cleanflight/src/main/io\osd.h ****     OSD_WARNING_BATTERY_NOT_FULL,
 159:D:/XMC/Projekte/Temp/CF_XMC4700/cleanflight/src/main/io\osd.h ****     OSD_WARNING_BATTERY_WARNING,
 160:D:/XMC/Projekte/Temp/CF_XMC4700/cleanflight/src/main/io\osd.h ****     OSD_WARNING_BATTERY_CRITICAL,
 161:D:/XMC/Projekte/Temp/CF_XMC4700/cleanflight/src/main/io\osd.h ****     OSD_WARNING_VISUAL_BEEPER,
 162:D:/XMC/Projekte/Temp/CF_XMC4700/cleanflight/src/main/io\osd.h ****     OSD_WARNING_CRASH_FLIP,
 163:D:/XMC/Projekte/Temp/CF_XMC4700/cleanflight/src/main/io\osd.h ****     OSD_WARNING_ESC_FAIL,
 164:D:/XMC/Projekte/Temp/CF_XMC4700/cleanflight/src/main/io\osd.h ****     OSD_WARNING_CORE_TEMPERATURE,
 165:D:/XMC/Projekte/Temp/CF_XMC4700/cleanflight/src/main/io\osd.h ****     OSD_WARNING_RC_SMOOTHING,
 166:D:/XMC/Projekte/Temp/CF_XMC4700/cleanflight/src/main/io\osd.h ****     OSD_WARNING_COUNT // MUST BE LAST
 167:D:/XMC/Projekte/Temp/CF_XMC4700/cleanflight/src/main/io\osd.h **** } osdWarningsFlags_e;
 168:D:/XMC/Projekte/Temp/CF_XMC4700/cleanflight/src/main/io\osd.h **** 
 169:D:/XMC/Projekte/Temp/CF_XMC4700/cleanflight/src/main/io\osd.h **** // Make sure the number of warnings do not exceed the available 16bit storage
 170:D:/XMC/Projekte/Temp/CF_XMC4700/cleanflight/src/main/io\osd.h **** STATIC_ASSERT(OSD_WARNING_COUNT <= 16, osdwarnings_overflow);
 171:D:/XMC/Projekte/Temp/CF_XMC4700/cleanflight/src/main/io\osd.h **** 
 172:D:/XMC/Projekte/Temp/CF_XMC4700/cleanflight/src/main/io\osd.h **** #define ESC_RPM_ALARM_OFF -1
 173:D:/XMC/Projekte/Temp/CF_XMC4700/cleanflight/src/main/io\osd.h **** #define ESC_TEMP_ALARM_OFF INT8_MIN
 174:D:/XMC/Projekte/Temp/CF_XMC4700/cleanflight/src/main/io\osd.h **** #define ESC_CURRENT_ALARM_OFF -1
 175:D:/XMC/Projekte/Temp/CF_XMC4700/cleanflight/src/main/io\osd.h **** 
 176:D:/XMC/Projekte/Temp/CF_XMC4700/cleanflight/src/main/io\osd.h **** typedef struct osdConfig_s {
 177:D:/XMC/Projekte/Temp/CF_XMC4700/cleanflight/src/main/io\osd.h ****     uint16_t item_pos[OSD_ITEM_COUNT];
 178:D:/XMC/Projekte/Temp/CF_XMC4700/cleanflight/src/main/io\osd.h **** 
 179:D:/XMC/Projekte/Temp/CF_XMC4700/cleanflight/src/main/io\osd.h ****     // Alarms
 180:D:/XMC/Projekte/Temp/CF_XMC4700/cleanflight/src/main/io\osd.h ****     uint16_t cap_alarm;
 181:D:/XMC/Projekte/Temp/CF_XMC4700/cleanflight/src/main/io\osd.h ****     uint16_t alt_alarm;
 182:D:/XMC/Projekte/Temp/CF_XMC4700/cleanflight/src/main/io\osd.h ****     uint8_t rssi_alarm;
 183:D:/XMC/Projekte/Temp/CF_XMC4700/cleanflight/src/main/io\osd.h **** 
 184:D:/XMC/Projekte/Temp/CF_XMC4700/cleanflight/src/main/io\osd.h ****     osd_unit_e units;
 185:D:/XMC/Projekte/Temp/CF_XMC4700/cleanflight/src/main/io\osd.h **** 
 186:D:/XMC/Projekte/Temp/CF_XMC4700/cleanflight/src/main/io\osd.h ****     uint16_t timers[OSD_TIMER_COUNT];
 187:D:/XMC/Projekte/Temp/CF_XMC4700/cleanflight/src/main/io\osd.h ****     uint16_t enabledWarnings;
 188:D:/XMC/Projekte/Temp/CF_XMC4700/cleanflight/src/main/io\osd.h **** 
 189:D:/XMC/Projekte/Temp/CF_XMC4700/cleanflight/src/main/io\osd.h ****     uint8_t ahMaxPitch;
 190:D:/XMC/Projekte/Temp/CF_XMC4700/cleanflight/src/main/io\osd.h ****     uint8_t ahMaxRoll;
 191:D:/XMC/Projekte/Temp/CF_XMC4700/cleanflight/src/main/io\osd.h ****     uint32_t enabled_stats;
 192:D:/XMC/Projekte/Temp/CF_XMC4700/cleanflight/src/main/io\osd.h ****     int8_t esc_temp_alarm;
 193:D:/XMC/Projekte/Temp/CF_XMC4700/cleanflight/src/main/io\osd.h ****     int16_t esc_rpm_alarm;
 194:D:/XMC/Projekte/Temp/CF_XMC4700/cleanflight/src/main/io\osd.h ****     int16_t esc_current_alarm;
 195:D:/XMC/Projekte/Temp/CF_XMC4700/cleanflight/src/main/io\osd.h ****     uint8_t core_temp_alarm;
 196:D:/XMC/Projekte/Temp/CF_XMC4700/cleanflight/src/main/io\osd.h **** } osdConfig_t;
 197:D:/XMC/Projekte/Temp/CF_XMC4700/cleanflight/src/main/io\osd.h **** 
 198:D:/XMC/Projekte/Temp/CF_XMC4700/cleanflight/src/main/io\osd.h **** PG_DECLARE(osdConfig_t, osdConfig);
 1463              	 .loc 14 198 0
 1464              	 .cfi_startproc
 1465              	 
 1466              	 
 1467              	 
 1468 0000 80B4     	 push {r7}
 1469              	.LCFI154:
 1470              	 .cfi_def_cfa_offset 4
 1471              	 .cfi_offset 7,-4
 1472 0002 00AF     	 add r7,sp,#0
 1473              	.LCFI155:
 1474              	 .cfi_def_cfa_register 7
 1475              	 .loc 14 198 0
 1476 0004 024B     	 ldr r3,.L139
 1477 0006 1846     	 mov r0,r3
 1478 0008 BD46     	 mov sp,r7
 1479              	.LCFI156:
 1480              	 .cfi_def_cfa_register 13
 1481              	 
 1482 000a 5DF8047B 	 ldr r7,[sp],#4
 1483              	.LCFI157:
 1484              	 .cfi_restore 7
 1485              	 .cfi_def_cfa_offset 0
 1486 000e 7047     	 bx lr
 1487              	.L140:
 1488              	 .align 2
 1489              	.L139:
 1490 0010 00000000 	 .word osdConfig_System
 1491              	 .cfi_endproc
 1492              	.LFE610:
 1494              	 .section .text.osdConfigMutable,"ax",%progbits
 1495              	 .align 2
 1496              	 .thumb
 1497              	 .thumb_func
 1499              	osdConfigMutable:
 1500              	.LFB611:
 1501              	 .loc 14 198 0
 1502              	 .cfi_startproc
 1503              	 
 1504              	 
 1505              	 
 1506 0000 80B4     	 push {r7}
 1507              	.LCFI158:
 1508              	 .cfi_def_cfa_offset 4
 1509              	 .cfi_offset 7,-4
 1510 0002 00AF     	 add r7,sp,#0
 1511              	.LCFI159:
 1512              	 .cfi_def_cfa_register 7
 1513              	 .loc 14 198 0
 1514 0004 024B     	 ldr r3,.L143
 1515 0006 1846     	 mov r0,r3
 1516 0008 BD46     	 mov sp,r7
 1517              	.LCFI160:
 1518              	 .cfi_def_cfa_register 13
 1519              	 
 1520 000a 5DF8047B 	 ldr r7,[sp],#4
 1521              	.LCFI161:
 1522              	 .cfi_restore 7
 1523              	 .cfi_def_cfa_offset 0
 1524 000e 7047     	 bx lr
 1525              	.L144:
 1526              	 .align 2
 1527              	.L143:
 1528 0010 00000000 	 .word osdConfig_System
 1529              	 .cfi_endproc
 1530              	.LFE611:
 1532              	 .section .text.serialConfig,"ax",%progbits
 1533              	 .align 2
 1534              	 .thumb
 1535              	 .thumb_func
 1537              	serialConfig:
 1538              	.LFB612:
 1539              	 .file 15 "D:/XMC/Projekte/Temp/CF_XMC4700/cleanflight/src/main/io/serial.h"
   1:D:/XMC/Projekte/Temp/CF_XMC4700/cleanflight/src/main/io\serial.h **** /*
   2:D:/XMC/Projekte/Temp/CF_XMC4700/cleanflight/src/main/io\serial.h ****  * This file is part of Cleanflight and Betaflight.
   3:D:/XMC/Projekte/Temp/CF_XMC4700/cleanflight/src/main/io\serial.h ****  *
   4:D:/XMC/Projekte/Temp/CF_XMC4700/cleanflight/src/main/io\serial.h ****  * Cleanflight and Betaflight are free software. You can redistribute
   5:D:/XMC/Projekte/Temp/CF_XMC4700/cleanflight/src/main/io\serial.h ****  * this software and/or modify this software under the terms of the
   6:D:/XMC/Projekte/Temp/CF_XMC4700/cleanflight/src/main/io\serial.h ****  * GNU General Public License as published by the Free Software
   7:D:/XMC/Projekte/Temp/CF_XMC4700/cleanflight/src/main/io\serial.h ****  * Foundation, either version 3 of the License, or (at your option)
   8:D:/XMC/Projekte/Temp/CF_XMC4700/cleanflight/src/main/io\serial.h ****  * any later version.
   9:D:/XMC/Projekte/Temp/CF_XMC4700/cleanflight/src/main/io\serial.h ****  *
  10:D:/XMC/Projekte/Temp/CF_XMC4700/cleanflight/src/main/io\serial.h ****  * Cleanflight and Betaflight are distributed in the hope that they
  11:D:/XMC/Projekte/Temp/CF_XMC4700/cleanflight/src/main/io\serial.h ****  * will be useful, but WITHOUT ANY WARRANTY; without even the implied
  12:D:/XMC/Projekte/Temp/CF_XMC4700/cleanflight/src/main/io\serial.h ****  * warranty of MERCHANTABILITY or FITNESS FOR A PARTICULAR PURPOSE.
  13:D:/XMC/Projekte/Temp/CF_XMC4700/cleanflight/src/main/io\serial.h ****  * See the GNU General Public License for more details.
  14:D:/XMC/Projekte/Temp/CF_XMC4700/cleanflight/src/main/io\serial.h ****  *
  15:D:/XMC/Projekte/Temp/CF_XMC4700/cleanflight/src/main/io\serial.h ****  * You should have received a copy of the GNU General Public License
  16:D:/XMC/Projekte/Temp/CF_XMC4700/cleanflight/src/main/io\serial.h ****  * along with this software.
  17:D:/XMC/Projekte/Temp/CF_XMC4700/cleanflight/src/main/io\serial.h ****  *
  18:D:/XMC/Projekte/Temp/CF_XMC4700/cleanflight/src/main/io\serial.h ****  * If not, see <http://www.gnu.org/licenses/>.
  19:D:/XMC/Projekte/Temp/CF_XMC4700/cleanflight/src/main/io\serial.h ****  */
  20:D:/XMC/Projekte/Temp/CF_XMC4700/cleanflight/src/main/io\serial.h **** 
  21:D:/XMC/Projekte/Temp/CF_XMC4700/cleanflight/src/main/io\serial.h **** #pragma once
  22:D:/XMC/Projekte/Temp/CF_XMC4700/cleanflight/src/main/io\serial.h **** 
  23:D:/XMC/Projekte/Temp/CF_XMC4700/cleanflight/src/main/io\serial.h **** #include <stdint.h>
  24:D:/XMC/Projekte/Temp/CF_XMC4700/cleanflight/src/main/io\serial.h **** #include <stdbool.h>
  25:D:/XMC/Projekte/Temp/CF_XMC4700/cleanflight/src/main/io\serial.h **** 
  26:D:/XMC/Projekte/Temp/CF_XMC4700/cleanflight/src/main/io\serial.h **** #include "pg/pg.h"
  27:D:/XMC/Projekte/Temp/CF_XMC4700/cleanflight/src/main/io\serial.h **** #include "drivers/serial.h"
  28:D:/XMC/Projekte/Temp/CF_XMC4700/cleanflight/src/main/io\serial.h **** 
  29:D:/XMC/Projekte/Temp/CF_XMC4700/cleanflight/src/main/io\serial.h **** typedef enum {
  30:D:/XMC/Projekte/Temp/CF_XMC4700/cleanflight/src/main/io\serial.h ****     PORTSHARING_UNUSED = 0,
  31:D:/XMC/Projekte/Temp/CF_XMC4700/cleanflight/src/main/io\serial.h ****     PORTSHARING_NOT_SHARED,
  32:D:/XMC/Projekte/Temp/CF_XMC4700/cleanflight/src/main/io\serial.h ****     PORTSHARING_SHARED
  33:D:/XMC/Projekte/Temp/CF_XMC4700/cleanflight/src/main/io\serial.h **** } portSharing_e;
  34:D:/XMC/Projekte/Temp/CF_XMC4700/cleanflight/src/main/io\serial.h **** 
  35:D:/XMC/Projekte/Temp/CF_XMC4700/cleanflight/src/main/io\serial.h **** typedef enum {
  36:D:/XMC/Projekte/Temp/CF_XMC4700/cleanflight/src/main/io\serial.h ****     FUNCTION_NONE                = 0,
  37:D:/XMC/Projekte/Temp/CF_XMC4700/cleanflight/src/main/io\serial.h ****     FUNCTION_MSP                 = (1 << 0),  // 1
  38:D:/XMC/Projekte/Temp/CF_XMC4700/cleanflight/src/main/io\serial.h ****     FUNCTION_GPS                 = (1 << 1),  // 2
  39:D:/XMC/Projekte/Temp/CF_XMC4700/cleanflight/src/main/io\serial.h ****     FUNCTION_TELEMETRY_FRSKY_HUB = (1 << 2),  // 4
  40:D:/XMC/Projekte/Temp/CF_XMC4700/cleanflight/src/main/io\serial.h ****     FUNCTION_TELEMETRY_HOTT      = (1 << 3),  // 8
  41:D:/XMC/Projekte/Temp/CF_XMC4700/cleanflight/src/main/io\serial.h ****     FUNCTION_TELEMETRY_LTM       = (1 << 4),  // 16
  42:D:/XMC/Projekte/Temp/CF_XMC4700/cleanflight/src/main/io\serial.h ****     FUNCTION_TELEMETRY_SMARTPORT = (1 << 5),  // 32
  43:D:/XMC/Projekte/Temp/CF_XMC4700/cleanflight/src/main/io\serial.h ****     FUNCTION_RX_SERIAL           = (1 << 6),  // 64
  44:D:/XMC/Projekte/Temp/CF_XMC4700/cleanflight/src/main/io\serial.h ****     FUNCTION_BLACKBOX            = (1 << 7),  // 128
  45:D:/XMC/Projekte/Temp/CF_XMC4700/cleanflight/src/main/io\serial.h ****     FUNCTION_TELEMETRY_MAVLINK   = (1 << 9),  // 512
  46:D:/XMC/Projekte/Temp/CF_XMC4700/cleanflight/src/main/io\serial.h ****     FUNCTION_ESC_SENSOR          = (1 << 10), // 1024
  47:D:/XMC/Projekte/Temp/CF_XMC4700/cleanflight/src/main/io\serial.h ****     FUNCTION_VTX_SMARTAUDIO      = (1 << 11), // 2048
  48:D:/XMC/Projekte/Temp/CF_XMC4700/cleanflight/src/main/io\serial.h ****     FUNCTION_TELEMETRY_IBUS      = (1 << 12), // 4096
  49:D:/XMC/Projekte/Temp/CF_XMC4700/cleanflight/src/main/io\serial.h ****     FUNCTION_VTX_TRAMP           = (1 << 13), // 8192
  50:D:/XMC/Projekte/Temp/CF_XMC4700/cleanflight/src/main/io\serial.h ****     FUNCTION_RCDEVICE            = (1 << 14), // 16384
  51:D:/XMC/Projekte/Temp/CF_XMC4700/cleanflight/src/main/io\serial.h ****     FUNCTION_LIDAR_TF            = (1 << 15), // 32768
  52:D:/XMC/Projekte/Temp/CF_XMC4700/cleanflight/src/main/io\serial.h **** } serialPortFunction_e;
  53:D:/XMC/Projekte/Temp/CF_XMC4700/cleanflight/src/main/io\serial.h **** 
  54:D:/XMC/Projekte/Temp/CF_XMC4700/cleanflight/src/main/io\serial.h **** #define TELEMETRY_SHAREABLE_PORT_FUNCTIONS_MASK (FUNCTION_TELEMETRY_FRSKY_HUB | FUNCTION_TELEMETRY_
  55:D:/XMC/Projekte/Temp/CF_XMC4700/cleanflight/src/main/io\serial.h **** #define TELEMETRY_PORT_FUNCTIONS_MASK (TELEMETRY_SHAREABLE_PORT_FUNCTIONS_MASK | FUNCTION_TELEMETRY
  56:D:/XMC/Projekte/Temp/CF_XMC4700/cleanflight/src/main/io\serial.h **** 
  57:D:/XMC/Projekte/Temp/CF_XMC4700/cleanflight/src/main/io\serial.h **** typedef enum {
  58:D:/XMC/Projekte/Temp/CF_XMC4700/cleanflight/src/main/io\serial.h ****     BAUD_AUTO = 0,
  59:D:/XMC/Projekte/Temp/CF_XMC4700/cleanflight/src/main/io\serial.h ****     BAUD_9600,
  60:D:/XMC/Projekte/Temp/CF_XMC4700/cleanflight/src/main/io\serial.h ****     BAUD_19200,
  61:D:/XMC/Projekte/Temp/CF_XMC4700/cleanflight/src/main/io\serial.h ****     BAUD_38400,
  62:D:/XMC/Projekte/Temp/CF_XMC4700/cleanflight/src/main/io\serial.h ****     BAUD_57600,
  63:D:/XMC/Projekte/Temp/CF_XMC4700/cleanflight/src/main/io\serial.h ****     BAUD_115200,
  64:D:/XMC/Projekte/Temp/CF_XMC4700/cleanflight/src/main/io\serial.h ****     BAUD_230400,
  65:D:/XMC/Projekte/Temp/CF_XMC4700/cleanflight/src/main/io\serial.h ****     BAUD_250000,
  66:D:/XMC/Projekte/Temp/CF_XMC4700/cleanflight/src/main/io\serial.h ****     BAUD_400000,
  67:D:/XMC/Projekte/Temp/CF_XMC4700/cleanflight/src/main/io\serial.h ****     BAUD_460800,
  68:D:/XMC/Projekte/Temp/CF_XMC4700/cleanflight/src/main/io\serial.h ****     BAUD_500000,
  69:D:/XMC/Projekte/Temp/CF_XMC4700/cleanflight/src/main/io\serial.h ****     BAUD_921600,
  70:D:/XMC/Projekte/Temp/CF_XMC4700/cleanflight/src/main/io\serial.h ****     BAUD_1000000,
  71:D:/XMC/Projekte/Temp/CF_XMC4700/cleanflight/src/main/io\serial.h ****     BAUD_1500000,
  72:D:/XMC/Projekte/Temp/CF_XMC4700/cleanflight/src/main/io\serial.h ****     BAUD_2000000,
  73:D:/XMC/Projekte/Temp/CF_XMC4700/cleanflight/src/main/io\serial.h ****     BAUD_2470000
  74:D:/XMC/Projekte/Temp/CF_XMC4700/cleanflight/src/main/io\serial.h **** } baudRate_e;
  75:D:/XMC/Projekte/Temp/CF_XMC4700/cleanflight/src/main/io\serial.h **** 
  76:D:/XMC/Projekte/Temp/CF_XMC4700/cleanflight/src/main/io\serial.h **** extern const uint32_t baudRates[];
  77:D:/XMC/Projekte/Temp/CF_XMC4700/cleanflight/src/main/io\serial.h **** 
  78:D:/XMC/Projekte/Temp/CF_XMC4700/cleanflight/src/main/io\serial.h **** // serial port identifiers are now fixed, these values are used by MSP commands.
  79:D:/XMC/Projekte/Temp/CF_XMC4700/cleanflight/src/main/io\serial.h **** typedef enum {
  80:D:/XMC/Projekte/Temp/CF_XMC4700/cleanflight/src/main/io\serial.h ****     SERIAL_PORT_NONE = -1,
  81:D:/XMC/Projekte/Temp/CF_XMC4700/cleanflight/src/main/io\serial.h ****     SERIAL_PORT_USART1 = 0,
  82:D:/XMC/Projekte/Temp/CF_XMC4700/cleanflight/src/main/io\serial.h ****     SERIAL_PORT_USART2,
  83:D:/XMC/Projekte/Temp/CF_XMC4700/cleanflight/src/main/io\serial.h ****     SERIAL_PORT_USART3,
  84:D:/XMC/Projekte/Temp/CF_XMC4700/cleanflight/src/main/io\serial.h ****     SERIAL_PORT_UART4,
  85:D:/XMC/Projekte/Temp/CF_XMC4700/cleanflight/src/main/io\serial.h ****     SERIAL_PORT_UART5,
  86:D:/XMC/Projekte/Temp/CF_XMC4700/cleanflight/src/main/io\serial.h ****     SERIAL_PORT_USART6,
  87:D:/XMC/Projekte/Temp/CF_XMC4700/cleanflight/src/main/io\serial.h ****     SERIAL_PORT_USART7,
  88:D:/XMC/Projekte/Temp/CF_XMC4700/cleanflight/src/main/io\serial.h ****     SERIAL_PORT_USART8,
  89:D:/XMC/Projekte/Temp/CF_XMC4700/cleanflight/src/main/io\serial.h ****     SERIAL_PORT_USB_VCP = 20,
  90:D:/XMC/Projekte/Temp/CF_XMC4700/cleanflight/src/main/io\serial.h ****     SERIAL_PORT_SOFTSERIAL1 = 30,
  91:D:/XMC/Projekte/Temp/CF_XMC4700/cleanflight/src/main/io\serial.h ****     SERIAL_PORT_SOFTSERIAL2,
  92:D:/XMC/Projekte/Temp/CF_XMC4700/cleanflight/src/main/io\serial.h **** 	SERIAL_PORT_SPIS1 = 40,
  93:D:/XMC/Projekte/Temp/CF_XMC4700/cleanflight/src/main/io\serial.h **** 	SERIAL_PORT_SPIS2,
  94:D:/XMC/Projekte/Temp/CF_XMC4700/cleanflight/src/main/io\serial.h **** 	SERIAL_PORT_SPIS3,
  95:D:/XMC/Projekte/Temp/CF_XMC4700/cleanflight/src/main/io\serial.h **** 	SERIAL_PORT_SPIS4,
  96:D:/XMC/Projekte/Temp/CF_XMC4700/cleanflight/src/main/io\serial.h **** 	SERIAL_PORT_SPIS5,
  97:D:/XMC/Projekte/Temp/CF_XMC4700/cleanflight/src/main/io\serial.h **** 	SERIAL_PORT_SPIS6,
  98:D:/XMC/Projekte/Temp/CF_XMC4700/cleanflight/src/main/io\serial.h **** } serialPortIdentifier_e;
  99:D:/XMC/Projekte/Temp/CF_XMC4700/cleanflight/src/main/io\serial.h **** 
 100:D:/XMC/Projekte/Temp/CF_XMC4700/cleanflight/src/main/io\serial.h **** extern const serialPortIdentifier_e serialPortIdentifiers[SERIAL_PORT_COUNT];
 101:D:/XMC/Projekte/Temp/CF_XMC4700/cleanflight/src/main/io\serial.h **** 
 102:D:/XMC/Projekte/Temp/CF_XMC4700/cleanflight/src/main/io\serial.h **** #define SERIAL_PORT_IDENTIFIER_TO_INDEX(x) (((x) <= SERIAL_PORT_USART8) ? (x) : (RESOURCE_SOFT_OFFS
 103:D:/XMC/Projekte/Temp/CF_XMC4700/cleanflight/src/main/io\serial.h **** 
 104:D:/XMC/Projekte/Temp/CF_XMC4700/cleanflight/src/main/io\serial.h **** #define SERIAL_PORT_IDENTIFIER_TO_UARTDEV(x) ((x) - SERIAL_PORT_USART1 + UARTDEV_1)
 105:D:/XMC/Projekte/Temp/CF_XMC4700/cleanflight/src/main/io\serial.h **** 
 106:D:/XMC/Projekte/Temp/CF_XMC4700/cleanflight/src/main/io\serial.h **** //
 107:D:/XMC/Projekte/Temp/CF_XMC4700/cleanflight/src/main/io\serial.h **** // runtime
 108:D:/XMC/Projekte/Temp/CF_XMC4700/cleanflight/src/main/io\serial.h **** //
 109:D:/XMC/Projekte/Temp/CF_XMC4700/cleanflight/src/main/io\serial.h **** typedef struct serialPortUsage_s {
 110:D:/XMC/Projekte/Temp/CF_XMC4700/cleanflight/src/main/io\serial.h ****     serialPort_t *serialPort;
 111:D:/XMC/Projekte/Temp/CF_XMC4700/cleanflight/src/main/io\serial.h ****     serialPortFunction_e function;
 112:D:/XMC/Projekte/Temp/CF_XMC4700/cleanflight/src/main/io\serial.h ****     serialPortIdentifier_e identifier;
 113:D:/XMC/Projekte/Temp/CF_XMC4700/cleanflight/src/main/io\serial.h **** } serialPortUsage_t;
 114:D:/XMC/Projekte/Temp/CF_XMC4700/cleanflight/src/main/io\serial.h **** 
 115:D:/XMC/Projekte/Temp/CF_XMC4700/cleanflight/src/main/io\serial.h **** serialPort_t *findSharedSerialPort(uint16_t functionMask, serialPortFunction_e sharedWithFunction);
 116:D:/XMC/Projekte/Temp/CF_XMC4700/cleanflight/src/main/io\serial.h **** 
 117:D:/XMC/Projekte/Temp/CF_XMC4700/cleanflight/src/main/io\serial.h **** //
 118:D:/XMC/Projekte/Temp/CF_XMC4700/cleanflight/src/main/io\serial.h **** // configuration
 119:D:/XMC/Projekte/Temp/CF_XMC4700/cleanflight/src/main/io\serial.h **** //
 120:D:/XMC/Projekte/Temp/CF_XMC4700/cleanflight/src/main/io\serial.h **** typedef struct serialPortConfig_s {
 121:D:/XMC/Projekte/Temp/CF_XMC4700/cleanflight/src/main/io\serial.h ****     uint16_t functionMask;
 122:D:/XMC/Projekte/Temp/CF_XMC4700/cleanflight/src/main/io\serial.h ****     serialPortIdentifier_e identifier;
 123:D:/XMC/Projekte/Temp/CF_XMC4700/cleanflight/src/main/io\serial.h ****     uint8_t msp_baudrateIndex;
 124:D:/XMC/Projekte/Temp/CF_XMC4700/cleanflight/src/main/io\serial.h ****     uint8_t gps_baudrateIndex;
 125:D:/XMC/Projekte/Temp/CF_XMC4700/cleanflight/src/main/io\serial.h ****     uint8_t blackbox_baudrateIndex;
 126:D:/XMC/Projekte/Temp/CF_XMC4700/cleanflight/src/main/io\serial.h ****     uint8_t telemetry_baudrateIndex; // not used for all telemetry systems, e.g. HoTT only works at
 127:D:/XMC/Projekte/Temp/CF_XMC4700/cleanflight/src/main/io\serial.h **** } serialPortConfig_t;
 128:D:/XMC/Projekte/Temp/CF_XMC4700/cleanflight/src/main/io\serial.h **** 
 129:D:/XMC/Projekte/Temp/CF_XMC4700/cleanflight/src/main/io\serial.h **** typedef struct serialConfig_s {
 130:D:/XMC/Projekte/Temp/CF_XMC4700/cleanflight/src/main/io\serial.h ****     serialPortConfig_t portConfigs[SERIAL_PORT_COUNT];
 131:D:/XMC/Projekte/Temp/CF_XMC4700/cleanflight/src/main/io\serial.h ****     uint16_t serial_update_rate_hz;
 132:D:/XMC/Projekte/Temp/CF_XMC4700/cleanflight/src/main/io\serial.h ****     uint8_t reboot_character;               // which byte is used to reboot. Default 'R', could be 
 133:D:/XMC/Projekte/Temp/CF_XMC4700/cleanflight/src/main/io\serial.h **** } serialConfig_t;
 134:D:/XMC/Projekte/Temp/CF_XMC4700/cleanflight/src/main/io\serial.h **** 
 135:D:/XMC/Projekte/Temp/CF_XMC4700/cleanflight/src/main/io\serial.h **** PG_DECLARE(serialConfig_t, serialConfig);
 1540              	 .loc 15 135 0
 1541              	 .cfi_startproc
 1542              	 
 1543              	 
 1544              	 
 1545 0000 80B4     	 push {r7}
 1546              	.LCFI162:
 1547              	 .cfi_def_cfa_offset 4
 1548              	 .cfi_offset 7,-4
 1549 0002 00AF     	 add r7,sp,#0
 1550              	.LCFI163:
 1551              	 .cfi_def_cfa_register 7
 1552              	 .loc 15 135 0
 1553 0004 024B     	 ldr r3,.L147
 1554 0006 1846     	 mov r0,r3
 1555 0008 BD46     	 mov sp,r7
 1556              	.LCFI164:
 1557              	 .cfi_def_cfa_register 13
 1558              	 
 1559 000a 5DF8047B 	 ldr r7,[sp],#4
 1560              	.LCFI165:
 1561              	 .cfi_restore 7
 1562              	 .cfi_def_cfa_offset 0
 1563 000e 7047     	 bx lr
 1564              	.L148:
 1565              	 .align 2
 1566              	.L147:
 1567 0010 00000000 	 .word serialConfig_System
 1568              	 .cfi_endproc
 1569              	.LFE612:
 1571              	 .section .text.vtxSettingsConfig,"ax",%progbits
 1572              	 .align 2
 1573              	 .thumb
 1574              	 .thumb_func
 1576              	vtxSettingsConfig:
 1577              	.LFB618:
 1578              	 .file 16 "D:/XMC/Projekte/Temp/CF_XMC4700/cleanflight/src/main/io/vtx.h"
   1:D:/XMC/Projekte/Temp/CF_XMC4700/cleanflight/src/main/io\vtx.h **** /*
   2:D:/XMC/Projekte/Temp/CF_XMC4700/cleanflight/src/main/io\vtx.h ****  * This file is part of Cleanflight and Betaflight.
   3:D:/XMC/Projekte/Temp/CF_XMC4700/cleanflight/src/main/io\vtx.h ****  *
   4:D:/XMC/Projekte/Temp/CF_XMC4700/cleanflight/src/main/io\vtx.h ****  * Cleanflight and Betaflight are free software. You can redistribute
   5:D:/XMC/Projekte/Temp/CF_XMC4700/cleanflight/src/main/io\vtx.h ****  * this software and/or modify this software under the terms of the
   6:D:/XMC/Projekte/Temp/CF_XMC4700/cleanflight/src/main/io\vtx.h ****  * GNU General Public License as published by the Free Software
   7:D:/XMC/Projekte/Temp/CF_XMC4700/cleanflight/src/main/io\vtx.h ****  * Foundation, either version 3 of the License, or (at your option)
   8:D:/XMC/Projekte/Temp/CF_XMC4700/cleanflight/src/main/io\vtx.h ****  * any later version.
   9:D:/XMC/Projekte/Temp/CF_XMC4700/cleanflight/src/main/io\vtx.h ****  *
  10:D:/XMC/Projekte/Temp/CF_XMC4700/cleanflight/src/main/io\vtx.h ****  * Cleanflight and Betaflight are distributed in the hope that they
  11:D:/XMC/Projekte/Temp/CF_XMC4700/cleanflight/src/main/io\vtx.h ****  * will be useful, but WITHOUT ANY WARRANTY; without even the implied
  12:D:/XMC/Projekte/Temp/CF_XMC4700/cleanflight/src/main/io\vtx.h ****  * warranty of MERCHANTABILITY or FITNESS FOR A PARTICULAR PURPOSE.
  13:D:/XMC/Projekte/Temp/CF_XMC4700/cleanflight/src/main/io\vtx.h ****  * See the GNU General Public License for more details.
  14:D:/XMC/Projekte/Temp/CF_XMC4700/cleanflight/src/main/io\vtx.h ****  *
  15:D:/XMC/Projekte/Temp/CF_XMC4700/cleanflight/src/main/io\vtx.h ****  * You should have received a copy of the GNU General Public License
  16:D:/XMC/Projekte/Temp/CF_XMC4700/cleanflight/src/main/io\vtx.h ****  * along with this software.
  17:D:/XMC/Projekte/Temp/CF_XMC4700/cleanflight/src/main/io\vtx.h ****  *
  18:D:/XMC/Projekte/Temp/CF_XMC4700/cleanflight/src/main/io\vtx.h ****  * If not, see <http://www.gnu.org/licenses/>.
  19:D:/XMC/Projekte/Temp/CF_XMC4700/cleanflight/src/main/io\vtx.h ****  */
  20:D:/XMC/Projekte/Temp/CF_XMC4700/cleanflight/src/main/io\vtx.h **** 
  21:D:/XMC/Projekte/Temp/CF_XMC4700/cleanflight/src/main/io\vtx.h **** #pragma once
  22:D:/XMC/Projekte/Temp/CF_XMC4700/cleanflight/src/main/io\vtx.h **** 
  23:D:/XMC/Projekte/Temp/CF_XMC4700/cleanflight/src/main/io\vtx.h **** #include <stdint.h>
  24:D:/XMC/Projekte/Temp/CF_XMC4700/cleanflight/src/main/io\vtx.h **** 
  25:D:/XMC/Projekte/Temp/CF_XMC4700/cleanflight/src/main/io\vtx.h **** #include "platform.h"
  26:D:/XMC/Projekte/Temp/CF_XMC4700/cleanflight/src/main/io\vtx.h **** #include "common/time.h"
  27:D:/XMC/Projekte/Temp/CF_XMC4700/cleanflight/src/main/io\vtx.h **** #include "pg/pg.h"
  28:D:/XMC/Projekte/Temp/CF_XMC4700/cleanflight/src/main/io\vtx.h **** 
  29:D:/XMC/Projekte/Temp/CF_XMC4700/cleanflight/src/main/io\vtx.h **** typedef struct vtxSettingsConfig_s {
  30:D:/XMC/Projekte/Temp/CF_XMC4700/cleanflight/src/main/io\vtx.h ****     uint8_t band;           // 1=A, 2=B, 3=E, 4=F(Airwaves/Fatshark), 5=Raceband
  31:D:/XMC/Projekte/Temp/CF_XMC4700/cleanflight/src/main/io\vtx.h ****     uint8_t channel;        // 1-8
  32:D:/XMC/Projekte/Temp/CF_XMC4700/cleanflight/src/main/io\vtx.h ****     uint8_t power;          // 0 = lowest
  33:D:/XMC/Projekte/Temp/CF_XMC4700/cleanflight/src/main/io\vtx.h ****     uint16_t freq;          // sets freq in MHz if band=0
  34:D:/XMC/Projekte/Temp/CF_XMC4700/cleanflight/src/main/io\vtx.h ****     uint16_t pitModeFreq;   // sets out-of-range pitmode frequency
  35:D:/XMC/Projekte/Temp/CF_XMC4700/cleanflight/src/main/io\vtx.h ****     uint8_t lowPowerDisarm; // min power while disarmed
  36:D:/XMC/Projekte/Temp/CF_XMC4700/cleanflight/src/main/io\vtx.h **** } vtxSettingsConfig_t;
  37:D:/XMC/Projekte/Temp/CF_XMC4700/cleanflight/src/main/io\vtx.h **** 
  38:D:/XMC/Projekte/Temp/CF_XMC4700/cleanflight/src/main/io\vtx.h **** PG_DECLARE(vtxSettingsConfig_t, vtxSettingsConfig);
 1579              	 .loc 16 38 0
 1580              	 .cfi_startproc
 1581              	 
 1582              	 
 1583              	 
 1584 0000 80B4     	 push {r7}
 1585              	.LCFI166:
 1586              	 .cfi_def_cfa_offset 4
 1587              	 .cfi_offset 7,-4
 1588 0002 00AF     	 add r7,sp,#0
 1589              	.LCFI167:
 1590              	 .cfi_def_cfa_register 7
 1591              	 .loc 16 38 0
 1592 0004 024B     	 ldr r3,.L151
 1593 0006 1846     	 mov r0,r3
 1594 0008 BD46     	 mov sp,r7
 1595              	.LCFI168:
 1596              	 .cfi_def_cfa_register 13
 1597              	 
 1598 000a 5DF8047B 	 ldr r7,[sp],#4
 1599              	.LCFI169:
 1600              	 .cfi_restore 7
 1601              	 .cfi_def_cfa_offset 0
 1602 000e 7047     	 bx lr
 1603              	.L152:
 1604              	 .align 2
 1605              	.L151:
 1606 0010 00000000 	 .word vtxSettingsConfig_System
 1607              	 .cfi_endproc
 1608              	.LFE618:
 1610              	 .section .text.vtxSettingsConfigMutable,"ax",%progbits
 1611              	 .align 2
 1612              	 .thumb
 1613              	 .thumb_func
 1615              	vtxSettingsConfigMutable:
 1616              	.LFB619:
 1617              	 .loc 16 38 0
 1618              	 .cfi_startproc
 1619              	 
 1620              	 
 1621              	 
 1622 0000 80B4     	 push {r7}
 1623              	.LCFI170:
 1624              	 .cfi_def_cfa_offset 4
 1625              	 .cfi_offset 7,-4
 1626 0002 00AF     	 add r7,sp,#0
 1627              	.LCFI171:
 1628              	 .cfi_def_cfa_register 7
 1629              	 .loc 16 38 0
 1630 0004 024B     	 ldr r3,.L155
 1631 0006 1846     	 mov r0,r3
 1632 0008 BD46     	 mov sp,r7
 1633              	.LCFI172:
 1634              	 .cfi_def_cfa_register 13
 1635              	 
 1636 000a 5DF8047B 	 ldr r7,[sp],#4
 1637              	.LCFI173:
 1638              	 .cfi_restore 7
 1639              	 .cfi_def_cfa_offset 0
 1640 000e 7047     	 bx lr
 1641              	.L156:
 1642              	 .align 2
 1643              	.L155:
 1644 0010 00000000 	 .word vtxSettingsConfig_System
 1645              	 .cfi_endproc
 1646              	.LFE619:
 1648              	 .section .text.rxConfig,"ax",%progbits
 1649              	 .align 2
 1650              	 .thumb
 1651              	 .thumb_func
 1653              	rxConfig:
 1654              	.LFB624:
 1655              	 .file 17 "D:/XMC/Projekte/Temp/CF_XMC4700/cleanflight/src/main/pg/rx.h"
   1:D:/XMC/Projekte/Temp/CF_XMC4700/cleanflight/src/main/pg\rx.h **** /*
   2:D:/XMC/Projekte/Temp/CF_XMC4700/cleanflight/src/main/pg\rx.h ****  * This file is part of Cleanflight and Betaflight.
   3:D:/XMC/Projekte/Temp/CF_XMC4700/cleanflight/src/main/pg\rx.h ****  *
   4:D:/XMC/Projekte/Temp/CF_XMC4700/cleanflight/src/main/pg\rx.h ****  * Cleanflight and Betaflight are free software. You can redistribute
   5:D:/XMC/Projekte/Temp/CF_XMC4700/cleanflight/src/main/pg\rx.h ****  * this software and/or modify this software under the terms of the
   6:D:/XMC/Projekte/Temp/CF_XMC4700/cleanflight/src/main/pg\rx.h ****  * GNU General Public License as published by the Free Software
   7:D:/XMC/Projekte/Temp/CF_XMC4700/cleanflight/src/main/pg\rx.h ****  * Foundation, either version 3 of the License, or (at your option)
   8:D:/XMC/Projekte/Temp/CF_XMC4700/cleanflight/src/main/pg\rx.h ****  * any later version.
   9:D:/XMC/Projekte/Temp/CF_XMC4700/cleanflight/src/main/pg\rx.h ****  *
  10:D:/XMC/Projekte/Temp/CF_XMC4700/cleanflight/src/main/pg\rx.h ****  * Cleanflight and Betaflight are distributed in the hope that they
  11:D:/XMC/Projekte/Temp/CF_XMC4700/cleanflight/src/main/pg\rx.h ****  * will be useful, but WITHOUT ANY WARRANTY; without even the implied
  12:D:/XMC/Projekte/Temp/CF_XMC4700/cleanflight/src/main/pg\rx.h ****  * warranty of MERCHANTABILITY or FITNESS FOR A PARTICULAR PURPOSE.
  13:D:/XMC/Projekte/Temp/CF_XMC4700/cleanflight/src/main/pg\rx.h ****  * See the GNU General Public License for more details.
  14:D:/XMC/Projekte/Temp/CF_XMC4700/cleanflight/src/main/pg\rx.h ****  *
  15:D:/XMC/Projekte/Temp/CF_XMC4700/cleanflight/src/main/pg\rx.h ****  * You should have received a copy of the GNU General Public License
  16:D:/XMC/Projekte/Temp/CF_XMC4700/cleanflight/src/main/pg\rx.h ****  * along with this software.
  17:D:/XMC/Projekte/Temp/CF_XMC4700/cleanflight/src/main/pg\rx.h ****  *
  18:D:/XMC/Projekte/Temp/CF_XMC4700/cleanflight/src/main/pg\rx.h ****  * If not, see <http://www.gnu.org/licenses/>.
  19:D:/XMC/Projekte/Temp/CF_XMC4700/cleanflight/src/main/pg\rx.h ****  */
  20:D:/XMC/Projekte/Temp/CF_XMC4700/cleanflight/src/main/pg\rx.h **** 
  21:D:/XMC/Projekte/Temp/CF_XMC4700/cleanflight/src/main/pg\rx.h **** #pragma once
  22:D:/XMC/Projekte/Temp/CF_XMC4700/cleanflight/src/main/pg\rx.h **** 
  23:D:/XMC/Projekte/Temp/CF_XMC4700/cleanflight/src/main/pg\rx.h **** #include "drivers/io_types.h"
  24:D:/XMC/Projekte/Temp/CF_XMC4700/cleanflight/src/main/pg\rx.h **** 
  25:D:/XMC/Projekte/Temp/CF_XMC4700/cleanflight/src/main/pg\rx.h **** #include "pg/pg.h"
  26:D:/XMC/Projekte/Temp/CF_XMC4700/cleanflight/src/main/pg\rx.h **** 
  27:D:/XMC/Projekte/Temp/CF_XMC4700/cleanflight/src/main/pg\rx.h **** typedef struct rxConfig_s {
  28:D:/XMC/Projekte/Temp/CF_XMC4700/cleanflight/src/main/pg\rx.h ****     uint8_t rcmap[RX_MAPPABLE_CHANNEL_COUNT];  // mapping of radio channels to internal RPYTA+ orde
  29:D:/XMC/Projekte/Temp/CF_XMC4700/cleanflight/src/main/pg\rx.h ****     uint8_t serialrx_provider;              // type of UART-based receiver (0 = spek 10, 1 = spek 1
  30:D:/XMC/Projekte/Temp/CF_XMC4700/cleanflight/src/main/pg\rx.h ****     uint8_t serialrx_inverted;              // invert the serial RX protocol compared to it's defau
  31:D:/XMC/Projekte/Temp/CF_XMC4700/cleanflight/src/main/pg\rx.h ****     uint8_t halfDuplex;                     // allow rx to operate in half duplex mode on F4, ignor
  32:D:/XMC/Projekte/Temp/CF_XMC4700/cleanflight/src/main/pg\rx.h ****     ioTag_t spektrum_bind_pin_override_ioTag;
  33:D:/XMC/Projekte/Temp/CF_XMC4700/cleanflight/src/main/pg\rx.h ****     ioTag_t spektrum_bind_plug_ioTag;
  34:D:/XMC/Projekte/Temp/CF_XMC4700/cleanflight/src/main/pg\rx.h ****     uint8_t spektrum_sat_bind;              // number of bind pulses for Spektrum satellite receive
  35:D:/XMC/Projekte/Temp/CF_XMC4700/cleanflight/src/main/pg\rx.h ****     uint8_t spektrum_sat_bind_autoreset;    // whenever we will reset (exit) binding mode after har
  36:D:/XMC/Projekte/Temp/CF_XMC4700/cleanflight/src/main/pg\rx.h ****     uint8_t rssi_channel;
  37:D:/XMC/Projekte/Temp/CF_XMC4700/cleanflight/src/main/pg\rx.h ****     uint8_t rssi_scale;
  38:D:/XMC/Projekte/Temp/CF_XMC4700/cleanflight/src/main/pg\rx.h ****     uint8_t rssi_invert;
  39:D:/XMC/Projekte/Temp/CF_XMC4700/cleanflight/src/main/pg\rx.h ****     uint16_t midrc;                         // Some radios have not a neutral point centered on 150
  40:D:/XMC/Projekte/Temp/CF_XMC4700/cleanflight/src/main/pg\rx.h ****     uint16_t mincheck;                      // minimum rc end
  41:D:/XMC/Projekte/Temp/CF_XMC4700/cleanflight/src/main/pg\rx.h ****     uint16_t maxcheck;                      // maximum rc end
  42:D:/XMC/Projekte/Temp/CF_XMC4700/cleanflight/src/main/pg\rx.h ****     uint8_t rcInterpolation;
  43:D:/XMC/Projekte/Temp/CF_XMC4700/cleanflight/src/main/pg\rx.h ****     uint8_t rcInterpolationChannels;
  44:D:/XMC/Projekte/Temp/CF_XMC4700/cleanflight/src/main/pg\rx.h ****     uint8_t rcInterpolationInterval;
  45:D:/XMC/Projekte/Temp/CF_XMC4700/cleanflight/src/main/pg\rx.h ****     uint8_t fpvCamAngleDegrees;             // Camera angle to be scaled into rc commands
  46:D:/XMC/Projekte/Temp/CF_XMC4700/cleanflight/src/main/pg\rx.h ****     uint8_t airModeActivateThreshold;       // Throttle setpoint percent where airmode gets activat
  47:D:/XMC/Projekte/Temp/CF_XMC4700/cleanflight/src/main/pg\rx.h **** 
  48:D:/XMC/Projekte/Temp/CF_XMC4700/cleanflight/src/main/pg\rx.h ****     uint16_t rx_min_usec;
  49:D:/XMC/Projekte/Temp/CF_XMC4700/cleanflight/src/main/pg\rx.h ****     uint16_t rx_max_usec;
  50:D:/XMC/Projekte/Temp/CF_XMC4700/cleanflight/src/main/pg\rx.h ****     uint8_t max_aux_channel;
  51:D:/XMC/Projekte/Temp/CF_XMC4700/cleanflight/src/main/pg\rx.h ****     uint8_t rssi_src_frame_errors;          // true to use frame drop flags in the rx protocol
  52:D:/XMC/Projekte/Temp/CF_XMC4700/cleanflight/src/main/pg\rx.h ****     int8_t rssi_offset;                     // offset applied to the RSSI value before it is return
  53:D:/XMC/Projekte/Temp/CF_XMC4700/cleanflight/src/main/pg\rx.h ****     uint8_t rc_smoothing_type;              // Determines the smoothing algorithm to use: INTERPOLA
  54:D:/XMC/Projekte/Temp/CF_XMC4700/cleanflight/src/main/pg\rx.h ****     uint8_t rc_smoothing_input_cutoff;      // Filter cutoff frequency for the input filter (0 = au
  55:D:/XMC/Projekte/Temp/CF_XMC4700/cleanflight/src/main/pg\rx.h ****     uint8_t rc_smoothing_derivative_cutoff; // Filter cutoff frequency for the setpoint weight deri
  56:D:/XMC/Projekte/Temp/CF_XMC4700/cleanflight/src/main/pg\rx.h ****     uint8_t rc_smoothing_debug_axis;        // Axis to log as debug values when debug_mode = RC_SMO
  57:D:/XMC/Projekte/Temp/CF_XMC4700/cleanflight/src/main/pg\rx.h ****     uint8_t rc_smoothing_input_type;        // Input filter type (0 = PT1, 1 = BIQUAD)
  58:D:/XMC/Projekte/Temp/CF_XMC4700/cleanflight/src/main/pg\rx.h ****     uint8_t rc_smoothing_derivative_type;   // Derivative filter type (0 = OFF, 1 = PT1, 2 = BIQUAD
  59:D:/XMC/Projekte/Temp/CF_XMC4700/cleanflight/src/main/pg\rx.h **** } rxConfig_t;
  60:D:/XMC/Projekte/Temp/CF_XMC4700/cleanflight/src/main/pg\rx.h **** 
  61:D:/XMC/Projekte/Temp/CF_XMC4700/cleanflight/src/main/pg\rx.h **** PG_DECLARE(rxConfig_t, rxConfig);
 1656              	 .loc 17 61 0
 1657              	 .cfi_startproc
 1658              	 
 1659              	 
 1660              	 
 1661 0000 80B4     	 push {r7}
 1662              	.LCFI174:
 1663              	 .cfi_def_cfa_offset 4
 1664              	 .cfi_offset 7,-4
 1665 0002 00AF     	 add r7,sp,#0
 1666              	.LCFI175:
 1667              	 .cfi_def_cfa_register 7
 1668              	 .loc 17 61 0
 1669 0004 024B     	 ldr r3,.L159
 1670 0006 1846     	 mov r0,r3
 1671 0008 BD46     	 mov sp,r7
 1672              	.LCFI176:
 1673              	 .cfi_def_cfa_register 13
 1674              	 
 1675 000a 5DF8047B 	 ldr r7,[sp],#4
 1676              	.LCFI177:
 1677              	 .cfi_restore 7
 1678              	 .cfi_def_cfa_offset 0
 1679 000e 7047     	 bx lr
 1680              	.L160:
 1681              	 .align 2
 1682              	.L159:
 1683 0010 00000000 	 .word rxConfig_System
 1684              	 .cfi_endproc
 1685              	.LFE624:
 1687              	 .section .text.rxConfigMutable,"ax",%progbits
 1688              	 .align 2
 1689              	 .thumb
 1690              	 .thumb_func
 1692              	rxConfigMutable:
 1693              	.LFB625:
 1694              	 .loc 17 61 0
 1695              	 .cfi_startproc
 1696              	 
 1697              	 
 1698              	 
 1699 0000 80B4     	 push {r7}
 1700              	.LCFI178:
 1701              	 .cfi_def_cfa_offset 4
 1702              	 .cfi_offset 7,-4
 1703 0002 00AF     	 add r7,sp,#0
 1704              	.LCFI179:
 1705              	 .cfi_def_cfa_register 7
 1706              	 .loc 17 61 0
 1707 0004 024B     	 ldr r3,.L163
 1708 0006 1846     	 mov r0,r3
 1709 0008 BD46     	 mov sp,r7
 1710              	.LCFI180:
 1711              	 .cfi_def_cfa_register 13
 1712              	 
 1713 000a 5DF8047B 	 ldr r7,[sp],#4
 1714              	.LCFI181:
 1715              	 .cfi_restore 7
 1716              	 .cfi_def_cfa_offset 0
 1717 000e 7047     	 bx lr
 1718              	.L164:
 1719              	 .align 2
 1720              	.L163:
 1721 0010 00000000 	 .word rxConfig_System
 1722              	 .cfi_endproc
 1723              	.LFE625:
 1725              	 .section .text.rxFailsafeChannelConfigs,"ax",%progbits
 1726              	 .align 2
 1727              	 .thumb
 1728              	 .thumb_func
 1730              	rxFailsafeChannelConfigs:
 1731              	.LFB632:
 1732              	 .file 18 "D:/XMC/Projekte/Temp/CF_XMC4700/cleanflight/src/main/rx/rx.h"
   1:D:/XMC/Projekte/Temp/CF_XMC4700/cleanflight/src/main/rx\rx.h **** /*
   2:D:/XMC/Projekte/Temp/CF_XMC4700/cleanflight/src/main/rx\rx.h ****  * This file is part of Cleanflight and Betaflight.
   3:D:/XMC/Projekte/Temp/CF_XMC4700/cleanflight/src/main/rx\rx.h ****  *
   4:D:/XMC/Projekte/Temp/CF_XMC4700/cleanflight/src/main/rx\rx.h ****  * Cleanflight and Betaflight are free software. You can redistribute
   5:D:/XMC/Projekte/Temp/CF_XMC4700/cleanflight/src/main/rx\rx.h ****  * this software and/or modify this software under the terms of the
   6:D:/XMC/Projekte/Temp/CF_XMC4700/cleanflight/src/main/rx\rx.h ****  * GNU General Public License as published by the Free Software
   7:D:/XMC/Projekte/Temp/CF_XMC4700/cleanflight/src/main/rx\rx.h ****  * Foundation, either version 3 of the License, or (at your option)
   8:D:/XMC/Projekte/Temp/CF_XMC4700/cleanflight/src/main/rx\rx.h ****  * any later version.
   9:D:/XMC/Projekte/Temp/CF_XMC4700/cleanflight/src/main/rx\rx.h ****  *
  10:D:/XMC/Projekte/Temp/CF_XMC4700/cleanflight/src/main/rx\rx.h ****  * Cleanflight and Betaflight are distributed in the hope that they
  11:D:/XMC/Projekte/Temp/CF_XMC4700/cleanflight/src/main/rx\rx.h ****  * will be useful, but WITHOUT ANY WARRANTY; without even the implied
  12:D:/XMC/Projekte/Temp/CF_XMC4700/cleanflight/src/main/rx\rx.h ****  * warranty of MERCHANTABILITY or FITNESS FOR A PARTICULAR PURPOSE.
  13:D:/XMC/Projekte/Temp/CF_XMC4700/cleanflight/src/main/rx\rx.h ****  * See the GNU General Public License for more details.
  14:D:/XMC/Projekte/Temp/CF_XMC4700/cleanflight/src/main/rx\rx.h ****  *
  15:D:/XMC/Projekte/Temp/CF_XMC4700/cleanflight/src/main/rx\rx.h ****  * You should have received a copy of the GNU General Public License
  16:D:/XMC/Projekte/Temp/CF_XMC4700/cleanflight/src/main/rx\rx.h ****  * along with this software.
  17:D:/XMC/Projekte/Temp/CF_XMC4700/cleanflight/src/main/rx\rx.h ****  *
  18:D:/XMC/Projekte/Temp/CF_XMC4700/cleanflight/src/main/rx\rx.h ****  * If not, see <http://www.gnu.org/licenses/>.
  19:D:/XMC/Projekte/Temp/CF_XMC4700/cleanflight/src/main/rx\rx.h ****  */
  20:D:/XMC/Projekte/Temp/CF_XMC4700/cleanflight/src/main/rx\rx.h **** 
  21:D:/XMC/Projekte/Temp/CF_XMC4700/cleanflight/src/main/rx\rx.h **** #pragma once
  22:D:/XMC/Projekte/Temp/CF_XMC4700/cleanflight/src/main/rx\rx.h **** 
  23:D:/XMC/Projekte/Temp/CF_XMC4700/cleanflight/src/main/rx\rx.h **** #include "common/time.h"
  24:D:/XMC/Projekte/Temp/CF_XMC4700/cleanflight/src/main/rx\rx.h **** 
  25:D:/XMC/Projekte/Temp/CF_XMC4700/cleanflight/src/main/rx\rx.h **** #include "pg/pg.h"
  26:D:/XMC/Projekte/Temp/CF_XMC4700/cleanflight/src/main/rx\rx.h **** #include "pg/rx.h"
  27:D:/XMC/Projekte/Temp/CF_XMC4700/cleanflight/src/main/rx\rx.h **** 
  28:D:/XMC/Projekte/Temp/CF_XMC4700/cleanflight/src/main/rx\rx.h **** #include "drivers/io_types.h"
  29:D:/XMC/Projekte/Temp/CF_XMC4700/cleanflight/src/main/rx\rx.h **** 
  30:D:/XMC/Projekte/Temp/CF_XMC4700/cleanflight/src/main/rx\rx.h **** #define STICK_CHANNEL_COUNT 4
  31:D:/XMC/Projekte/Temp/CF_XMC4700/cleanflight/src/main/rx\rx.h **** 
  32:D:/XMC/Projekte/Temp/CF_XMC4700/cleanflight/src/main/rx\rx.h **** #define PWM_RANGE_MIN 1000
  33:D:/XMC/Projekte/Temp/CF_XMC4700/cleanflight/src/main/rx\rx.h **** #define PWM_RANGE_MAX 2000
  34:D:/XMC/Projekte/Temp/CF_XMC4700/cleanflight/src/main/rx\rx.h **** #define PWM_RANGE_MIDDLE (PWM_RANGE_MIN + ((PWM_RANGE_MAX - PWM_RANGE_MIN) / 2))
  35:D:/XMC/Projekte/Temp/CF_XMC4700/cleanflight/src/main/rx\rx.h **** 
  36:D:/XMC/Projekte/Temp/CF_XMC4700/cleanflight/src/main/rx\rx.h **** #define PWM_PULSE_MIN   750       // minimum PWM pulse width which is considered valid
