   1              	 .syntax unified
   2              	 .cpu cortex-m4
   3              	 .eabi_attribute 27,3
   4              	 .fpu fpv4-sp-d16
   5              	 .eabi_attribute 20,1
   6              	 .eabi_attribute 21,1
   7              	 .eabi_attribute 23,3
   8              	 .eabi_attribute 24,1
   9              	 .eabi_attribute 25,1
  10              	 .eabi_attribute 26,1
  11              	 .eabi_attribute 30,6
  12              	 .eabi_attribute 34,1
  13              	 .eabi_attribute 18,4
  14              	 .thumb
  15              	 .file "smartaudio_protocol.c"
  16              	 .text
  17              	.Ltext0:
  18              	 .cfi_sections .debug_frame
  19              	 .section .text.smartaudioFrameInit,"ax",%progbits
  20              	 .align 2
  21              	 .thumb
  22              	 .thumb_func
  24              	smartaudioFrameInit:
  25              	.LFB526:
  26              	 .file 1 "../cleanflight/src/main/interface/smartaudio_protocol.c"
   1:../cleanflight/src/main/interface/smartaudio_protocol.c **** /*
   2:../cleanflight/src/main/interface/smartaudio_protocol.c ****  * This file is part of Cleanflight and Betaflight.
   3:../cleanflight/src/main/interface/smartaudio_protocol.c ****  *
   4:../cleanflight/src/main/interface/smartaudio_protocol.c ****  * Cleanflight and Betaflight are free software. You can redistribute
   5:../cleanflight/src/main/interface/smartaudio_protocol.c ****  * this software and/or modify this software under the terms of the
   6:../cleanflight/src/main/interface/smartaudio_protocol.c ****  * GNU General Public License as published by the Free Software
   7:../cleanflight/src/main/interface/smartaudio_protocol.c ****  * Foundation, either version 3 of the License, or (at your option)
   8:../cleanflight/src/main/interface/smartaudio_protocol.c ****  * any later version.
   9:../cleanflight/src/main/interface/smartaudio_protocol.c ****  *
  10:../cleanflight/src/main/interface/smartaudio_protocol.c ****  * Cleanflight and Betaflight are distributed in the hope that they
  11:../cleanflight/src/main/interface/smartaudio_protocol.c ****  * will be useful, but WITHOUT ANY WARRANTY; without even the implied
  12:../cleanflight/src/main/interface/smartaudio_protocol.c ****  * warranty of MERCHANTABILITY or FITNESS FOR A PARTICULAR PURPOSE.
  13:../cleanflight/src/main/interface/smartaudio_protocol.c ****  * See the GNU General Public License for more details.
  14:../cleanflight/src/main/interface/smartaudio_protocol.c ****  *
  15:../cleanflight/src/main/interface/smartaudio_protocol.c ****  * You should have received a copy of the GNU General Public License
  16:../cleanflight/src/main/interface/smartaudio_protocol.c ****  * along with this software.
  17:../cleanflight/src/main/interface/smartaudio_protocol.c ****  *
  18:../cleanflight/src/main/interface/smartaudio_protocol.c ****  * If not, see <http://www.gnu.org/licenses/>.
  19:../cleanflight/src/main/interface/smartaudio_protocol.c ****  */
  20:../cleanflight/src/main/interface/smartaudio_protocol.c **** 
  21:../cleanflight/src/main/interface/smartaudio_protocol.c **** #include "platform.h"
  22:../cleanflight/src/main/interface/smartaudio_protocol.c **** #include "common/crc.h"
  23:../cleanflight/src/main/interface/smartaudio_protocol.c **** #include "interface/smartaudio_protocol.h"
  24:../cleanflight/src/main/interface/smartaudio_protocol.c **** 
  25:../cleanflight/src/main/interface/smartaudio_protocol.c **** #define SMARTAUDIO_SYNC_BYTE            0xAA
  26:../cleanflight/src/main/interface/smartaudio_protocol.c **** #define SMARTAUDIO_HEADER_BYTE          0x55
  27:../cleanflight/src/main/interface/smartaudio_protocol.c **** #define SMARTAUDIO_START_CODE           SMARTAUDIO_SYNC_BYTE + SMARTAUDIO_HEADER_BYTE
  28:../cleanflight/src/main/interface/smartaudio_protocol.c **** #define SMARTAUDIO_GET_PITMODE_FREQ     (1 << 14)
  29:../cleanflight/src/main/interface/smartaudio_protocol.c **** #define SMARTAUDIO_SET_PITMODE_FREQ     (1 << 15)
  30:../cleanflight/src/main/interface/smartaudio_protocol.c **** #define SMARTAUDIO_FREQUENCY_MASK       0x3FFF
  31:../cleanflight/src/main/interface/smartaudio_protocol.c **** 
  32:../cleanflight/src/main/interface/smartaudio_protocol.c **** #define SMARTAUDIO_CMD_GET_SETTINGS     0x03
  33:../cleanflight/src/main/interface/smartaudio_protocol.c **** #define SMARTAUDIO_CMD_SET_POWER        0x05
  34:../cleanflight/src/main/interface/smartaudio_protocol.c **** #define SMARTAUDIO_CMD_SET_CHANNEL      0x07
  35:../cleanflight/src/main/interface/smartaudio_protocol.c **** #define SMARTAUDIO_CMD_SET_FREQUENCY    0x09
  36:../cleanflight/src/main/interface/smartaudio_protocol.c **** #define SMARTAUDIO_CMD_SET_MODE         0x0B
  37:../cleanflight/src/main/interface/smartaudio_protocol.c **** 
  38:../cleanflight/src/main/interface/smartaudio_protocol.c **** #define SMARTAUDIO_RSP_GET_SETTINGS_V1  SMARTAUDIO_CMD_GET_SETTINGS >> 1
  39:../cleanflight/src/main/interface/smartaudio_protocol.c **** #define SMARTAUDIO_RSP_GET_SETTINGS_V2  (SMARTAUDIO_CMD_GET_SETTINGS >> 1) | 0x08
  40:../cleanflight/src/main/interface/smartaudio_protocol.c **** #define SMARTAUDIO_RSP_SET_POWER        SMARTAUDIO_CMD_SET_POWER >> 1
  41:../cleanflight/src/main/interface/smartaudio_protocol.c **** #define SMARTAUDIO_RSP_SET_CHANNEL      SMARTAUDIO_CMD_SET_CHANNEL >> 1
  42:../cleanflight/src/main/interface/smartaudio_protocol.c **** #define SMARTAUDIO_RSP_SET_FREQUENCY    SMARTAUDIO_CMD_SET_FREQUENCY >> 1
  43:../cleanflight/src/main/interface/smartaudio_protocol.c **** #define SMARTAUDIO_RSP_SET_MODE         SMARTAUDIO_CMD_SET_MODE >> 1
  44:../cleanflight/src/main/interface/smartaudio_protocol.c **** 
  45:../cleanflight/src/main/interface/smartaudio_protocol.c **** #define SMARTAUDIO_BANDCHAN_TO_INDEX(band, channel) (band * 8 + (channel))
  46:../cleanflight/src/main/interface/smartaudio_protocol.c **** #define U16BIGENDIAN(bytes) (bytes << 8) | ((bytes >> 8) & 0xFF)
  47:../cleanflight/src/main/interface/smartaudio_protocol.c **** 
  48:../cleanflight/src/main/interface/smartaudio_protocol.c **** static void smartaudioFrameInit(const uint8_t command, smartaudioFrameHeader_t *header, const uint8
  49:../cleanflight/src/main/interface/smartaudio_protocol.c **** {
  27              	 .loc 1 49 0
  28              	 .cfi_startproc
  29              	 
  30              	 
  31              	 
  32 0000 80B4     	 push {r7}
  33              	.LCFI0:
  34              	 .cfi_def_cfa_offset 4
  35              	 .cfi_offset 7,-4
  36 0002 83B0     	 sub sp,sp,#12
  37              	.LCFI1:
  38              	 .cfi_def_cfa_offset 16
  39 0004 00AF     	 add r7,sp,#0
  40              	.LCFI2:
  41              	 .cfi_def_cfa_register 7
  42 0006 0346     	 mov r3,r0
  43 0008 3960     	 str r1,[r7]
  44 000a FB71     	 strb r3,[r7,#7]
  45 000c 1346     	 mov r3,r2
  46 000e BB71     	 strb r3,[r7,#6]
  50:../cleanflight/src/main/interface/smartaudio_protocol.c ****     header->startCode = SMARTAUDIO_START_CODE;
  47              	 .loc 1 50 0
  48 0010 3B68     	 ldr r3,[r7]
  49 0012 4FF0FF32 	 mov r2,#-1
  50 0016 1A70     	 strb r2,[r3]
  51 0018 0022     	 movs r2,#0
  52 001a 5A70     	 strb r2,[r3,#1]
  51:../cleanflight/src/main/interface/smartaudio_protocol.c ****     header->length = payloadLength;
  53              	 .loc 1 51 0
  54 001c 3B68     	 ldr r3,[r7]
  55 001e BA79     	 ldrb r2,[r7,#6]
  56 0020 9A70     	 strb r2,[r3,#2]
  52:../cleanflight/src/main/interface/smartaudio_protocol.c ****     header->command = command;
  57              	 .loc 1 52 0
  58 0022 3B68     	 ldr r3,[r7]
  59 0024 FA79     	 ldrb r2,[r7,#7]
  60 0026 DA70     	 strb r2,[r3,#3]
  53:../cleanflight/src/main/interface/smartaudio_protocol.c **** }
  61              	 .loc 1 53 0
  62 0028 0C37     	 adds r7,r7,#12
  63              	.LCFI3:
  64              	 .cfi_def_cfa_offset 4
  65 002a BD46     	 mov sp,r7
  66              	.LCFI4:
  67              	 .cfi_def_cfa_register 13
  68              	 
  69 002c 5DF8047B 	 ldr r7,[sp],#4
  70              	.LCFI5:
  71              	 .cfi_restore 7
  72              	 .cfi_def_cfa_offset 0
  73 0030 7047     	 bx lr
  74              	 .cfi_endproc
  75              	.LFE526:
  77 0032 00BF     	 .section .text.smartaudioUnpackOperationMode,"ax",%progbits
  78              	 .align 2
  79              	 .thumb
  80              	 .thumb_func
  82              	smartaudioUnpackOperationMode:
  83              	.LFB527:
  54:../cleanflight/src/main/interface/smartaudio_protocol.c **** 
  55:../cleanflight/src/main/interface/smartaudio_protocol.c **** static void smartaudioUnpackOperationMode(smartaudioSettings_t *settings, const uint8_t operationMo
  56:../cleanflight/src/main/interface/smartaudio_protocol.c **** {
  84              	 .loc 1 56 0
  85              	 .cfi_startproc
  86              	 
  87              	 
  88              	 
  89 0000 80B4     	 push {r7}
  90              	.LCFI6:
  91              	 .cfi_def_cfa_offset 4
  92              	 .cfi_offset 7,-4
  93 0002 83B0     	 sub sp,sp,#12
  94              	.LCFI7:
  95              	 .cfi_def_cfa_offset 16
  96 0004 00AF     	 add r7,sp,#0
  97              	.LCFI8:
  98              	 .cfi_def_cfa_register 7
  99 0006 7860     	 str r0,[r7,#4]
 100 0008 0B46     	 mov r3,r1
 101 000a FB70     	 strb r3,[r7,#3]
 102 000c 1346     	 mov r3,r2
 103 000e BB70     	 strb r3,[r7,#2]
  57:../cleanflight/src/main/interface/smartaudio_protocol.c ****     if (settingsResponse) {
 104              	 .loc 1 57 0
 105 0010 BB78     	 ldrb r3,[r7,#2]
 106 0012 002B     	 cmp r3,#0
 107 0014 2ED0     	 beq .L3
  58:../cleanflight/src/main/interface/smartaudio_protocol.c ****         // operation mode bit order is different between 'Get Settings' and 'Set Mode' responses.
  59:../cleanflight/src/main/interface/smartaudio_protocol.c ****         settings->userFrequencyMode = operationMode & 0x01;
 108              	 .loc 1 59 0
 109 0016 FB78     	 ldrb r3,[r7,#3]
 110 0018 03F00103 	 and r3,r3,#1
 111 001c 002B     	 cmp r3,#0
 112 001e 14BF     	 ite ne
 113 0020 0123     	 movne r3,#1
 114 0022 0023     	 moveq r3,#0
 115 0024 DAB2     	 uxtb r2,r3
 116 0026 7B68     	 ldr r3,[r7,#4]
 117 0028 1A72     	 strb r2,[r3,#8]
  60:../cleanflight/src/main/interface/smartaudio_protocol.c ****         settings->pitmodeEnabled = operationMode & 0x02;
 118              	 .loc 1 60 0
 119 002a FB78     	 ldrb r3,[r7,#3]
 120 002c 03F00203 	 and r3,r3,#2
 121 0030 002B     	 cmp r3,#0
 122 0032 14BF     	 ite ne
 123 0034 0123     	 movne r3,#1
 124 0036 0023     	 moveq r3,#0
 125 0038 DAB2     	 uxtb r2,r3
 126 003a 7B68     	 ldr r3,[r7,#4]
 127 003c 5A72     	 strb r2,[r3,#9]
  61:../cleanflight/src/main/interface/smartaudio_protocol.c ****         settings->pitmodeInRangeActive = operationMode & 0x04;
 128              	 .loc 1 61 0
 129 003e FB78     	 ldrb r3,[r7,#3]
 130 0040 03F00403 	 and r3,r3,#4
 131 0044 002B     	 cmp r3,#0
 132 0046 14BF     	 ite ne
 133 0048 0123     	 movne r3,#1
 134 004a 0023     	 moveq r3,#0
 135 004c DAB2     	 uxtb r2,r3
 136 004e 7B68     	 ldr r3,[r7,#4]
 137 0050 9A72     	 strb r2,[r3,#10]
  62:../cleanflight/src/main/interface/smartaudio_protocol.c ****         settings->pitmodeOutRangeActive = operationMode & 0x08;
 138              	 .loc 1 62 0
 139 0052 FB78     	 ldrb r3,[r7,#3]
 140 0054 03F00803 	 and r3,r3,#8
 141 0058 002B     	 cmp r3,#0
 142 005a 14BF     	 ite ne
 143 005c 0123     	 movne r3,#1
 144 005e 0023     	 moveq r3,#0
 145 0060 DAB2     	 uxtb r2,r3
 146 0062 7B68     	 ldr r3,[r7,#4]
 147 0064 DA72     	 strb r2,[r3,#11]
  63:../cleanflight/src/main/interface/smartaudio_protocol.c ****         settings->unlocked = operationMode & 0x10;
 148              	 .loc 1 63 0
 149 0066 FB78     	 ldrb r3,[r7,#3]
 150 0068 03F01003 	 and r3,r3,#16
 151 006c DAB2     	 uxtb r2,r3
 152 006e 7B68     	 ldr r3,[r7,#4]
 153 0070 5A70     	 strb r2,[r3,#1]
 154 0072 23E0     	 b .L2
 155              	.L3:
  64:../cleanflight/src/main/interface/smartaudio_protocol.c ****     } else {
  65:../cleanflight/src/main/interface/smartaudio_protocol.c ****         settings->pitmodeInRangeActive = operationMode & 0x01;
 156              	 .loc 1 65 0
 157 0074 FB78     	 ldrb r3,[r7,#3]
 158 0076 03F00103 	 and r3,r3,#1
 159 007a 002B     	 cmp r3,#0
 160 007c 14BF     	 ite ne
 161 007e 0123     	 movne r3,#1
 162 0080 0023     	 moveq r3,#0
 163 0082 DAB2     	 uxtb r2,r3
 164 0084 7B68     	 ldr r3,[r7,#4]
 165 0086 9A72     	 strb r2,[r3,#10]
  66:../cleanflight/src/main/interface/smartaudio_protocol.c ****         settings->pitmodeOutRangeActive = operationMode & 0x02;
 166              	 .loc 1 66 0
 167 0088 FB78     	 ldrb r3,[r7,#3]
 168 008a 03F00203 	 and r3,r3,#2
 169 008e 002B     	 cmp r3,#0
 170 0090 14BF     	 ite ne
 171 0092 0123     	 movne r3,#1
 172 0094 0023     	 moveq r3,#0
 173 0096 DAB2     	 uxtb r2,r3
 174 0098 7B68     	 ldr r3,[r7,#4]
 175 009a DA72     	 strb r2,[r3,#11]
  67:../cleanflight/src/main/interface/smartaudio_protocol.c ****         settings->pitmodeEnabled = operationMode & 0x04;
 176              	 .loc 1 67 0
 177 009c FB78     	 ldrb r3,[r7,#3]
 178 009e 03F00403 	 and r3,r3,#4
 179 00a2 002B     	 cmp r3,#0
 180 00a4 14BF     	 ite ne
 181 00a6 0123     	 movne r3,#1
 182 00a8 0023     	 moveq r3,#0
 183 00aa DAB2     	 uxtb r2,r3
 184 00ac 7B68     	 ldr r3,[r7,#4]
 185 00ae 5A72     	 strb r2,[r3,#9]
  68:../cleanflight/src/main/interface/smartaudio_protocol.c ****         settings->unlocked = operationMode & 0x08;
 186              	 .loc 1 68 0
 187 00b0 FB78     	 ldrb r3,[r7,#3]
 188 00b2 03F00803 	 and r3,r3,#8
 189 00b6 DAB2     	 uxtb r2,r3
 190 00b8 7B68     	 ldr r3,[r7,#4]
 191 00ba 5A70     	 strb r2,[r3,#1]
 192              	.L2:
  69:../cleanflight/src/main/interface/smartaudio_protocol.c ****     }
  70:../cleanflight/src/main/interface/smartaudio_protocol.c **** }
 193              	 .loc 1 70 0
 194 00bc 0C37     	 adds r7,r7,#12
 195              	.LCFI9:
 196              	 .cfi_def_cfa_offset 4
 197 00be BD46     	 mov sp,r7
 198              	.LCFI10:
 199              	 .cfi_def_cfa_register 13
 200              	 
 201 00c0 5DF8047B 	 ldr r7,[sp],#4
 202              	.LCFI11:
 203              	 .cfi_restore 7
 204              	 .cfi_def_cfa_offset 0
 205 00c4 7047     	 bx lr
 206              	 .cfi_endproc
 207              	.LFE527:
 209 00c6 00BF     	 .section .text.smartaudioUnpackFrequency,"ax",%progbits
 210              	 .align 2
 211              	 .thumb
 212              	 .thumb_func
 214              	smartaudioUnpackFrequency:
 215              	.LFB528:
  71:../cleanflight/src/main/interface/smartaudio_protocol.c **** 
  72:../cleanflight/src/main/interface/smartaudio_protocol.c **** static void smartaudioUnpackFrequency(smartaudioSettings_t *settings, const uint16_t frequency)
  73:../cleanflight/src/main/interface/smartaudio_protocol.c **** {
 216              	 .loc 1 73 0
 217              	 .cfi_startproc
 218              	 
 219              	 
 220              	 
 221 0000 80B4     	 push {r7}
 222              	.LCFI12:
 223              	 .cfi_def_cfa_offset 4
 224              	 .cfi_offset 7,-4
 225 0002 83B0     	 sub sp,sp,#12
 226              	.LCFI13:
 227              	 .cfi_def_cfa_offset 16
 228 0004 00AF     	 add r7,sp,#0
 229              	.LCFI14:
 230              	 .cfi_def_cfa_register 7
 231 0006 7860     	 str r0,[r7,#4]
 232 0008 0B46     	 mov r3,r1
 233 000a 7B80     	 strh r3,[r7,#2]
  74:../cleanflight/src/main/interface/smartaudio_protocol.c ****     if (frequency & SMARTAUDIO_GET_PITMODE_FREQ) {
 234              	 .loc 1 74 0
 235 000c 7B88     	 ldrh r3,[r7,#2]
 236 000e 03F48043 	 and r3,r3,#16384
 237 0012 002B     	 cmp r3,#0
 238 0014 06D0     	 beq .L6
  75:../cleanflight/src/main/interface/smartaudio_protocol.c ****         settings->pitmodeFrequency = U16BIGENDIAN(frequency & SMARTAUDIO_FREQUENCY_MASK);
 239              	 .loc 1 75 0
 240 0016 7B88     	 ldrh r3,[r7,#2]
 241 0018 23F0C003 	 bic r3,r3,#192
 242 001c 9AB2     	 uxth r2,r3
 243 001e 7B68     	 ldr r3,[r7,#4]
 244 0020 DA80     	 strh r2,[r3,#6]
 245 0022 05E0     	 b .L5
 246              	.L6:
  76:../cleanflight/src/main/interface/smartaudio_protocol.c ****     } else {
  77:../cleanflight/src/main/interface/smartaudio_protocol.c ****         settings->frequency = U16BIGENDIAN(frequency & SMARTAUDIO_FREQUENCY_MASK);
 247              	 .loc 1 77 0
 248 0024 7B88     	 ldrh r3,[r7,#2]
 249 0026 23F0C003 	 bic r3,r3,#192
 250 002a 9AB2     	 uxth r2,r3
 251 002c 7B68     	 ldr r3,[r7,#4]
 252 002e 9A80     	 strh r2,[r3,#4]
 253              	.L5:
  78:../cleanflight/src/main/interface/smartaudio_protocol.c ****     }
  79:../cleanflight/src/main/interface/smartaudio_protocol.c **** }
 254              	 .loc 1 79 0
 255 0030 0C37     	 adds r7,r7,#12
 256              	.LCFI15:
 257              	 .cfi_def_cfa_offset 4
 258 0032 BD46     	 mov sp,r7
 259              	.LCFI16:
 260              	 .cfi_def_cfa_register 13
 261              	 
 262 0034 5DF8047B 	 ldr r7,[sp],#4
 263              	.LCFI17:
 264              	 .cfi_restore 7
 265              	 .cfi_def_cfa_offset 0
 266 0038 7047     	 bx lr
 267              	 .cfi_endproc
 268              	.LFE528:
 270 003a 00BF     	 .section .text.smartaudioUnpackSettings,"ax",%progbits
 271              	 .align 2
 272              	 .thumb
 273              	 .thumb_func
 275              	smartaudioUnpackSettings:
 276              	.LFB529:
  80:../cleanflight/src/main/interface/smartaudio_protocol.c **** 
  81:../cleanflight/src/main/interface/smartaudio_protocol.c **** static void smartaudioUnpackSettings(smartaudioSettings_t *settings, const smartaudioSettingsRespon
  82:../cleanflight/src/main/interface/smartaudio_protocol.c **** {
 277              	 .loc 1 82 0
 278              	 .cfi_startproc
 279              	 
 280              	 
 281 0000 80B5     	 push {r7,lr}
 282              	.LCFI18:
 283              	 .cfi_def_cfa_offset 8
 284              	 .cfi_offset 7,-8
 285              	 .cfi_offset 14,-4
 286 0002 82B0     	 sub sp,sp,#8
 287              	.LCFI19:
 288              	 .cfi_def_cfa_offset 16
 289 0004 00AF     	 add r7,sp,#0
 290              	.LCFI20:
 291              	 .cfi_def_cfa_register 7
 292 0006 7860     	 str r0,[r7,#4]
 293 0008 3960     	 str r1,[r7]
  83:../cleanflight/src/main/interface/smartaudio_protocol.c ****     settings->channel = frame->channel;
 294              	 .loc 1 83 0
 295 000a 3B68     	 ldr r3,[r7]
 296 000c 1A79     	 ldrb r2,[r3,#4]
 297 000e 7B68     	 ldr r3,[r7,#4]
 298 0010 9A70     	 strb r2,[r3,#2]
  84:../cleanflight/src/main/interface/smartaudio_protocol.c ****     settings->power = frame->power;
 299              	 .loc 1 84 0
 300 0012 3B68     	 ldr r3,[r7]
 301 0014 5A79     	 ldrb r2,[r3,#5]
 302 0016 7B68     	 ldr r3,[r7,#4]
 303 0018 DA70     	 strb r2,[r3,#3]
  85:../cleanflight/src/main/interface/smartaudio_protocol.c ****     smartaudioUnpackFrequency(settings, frame->frequency);
 304              	 .loc 1 85 0
 305 001a 3B68     	 ldr r3,[r7]
 306 001c B3F80730 	 ldrh r3,[r3,#7]
 307 0020 9BB2     	 uxth r3,r3
 308 0022 7868     	 ldr r0,[r7,#4]
 309 0024 1946     	 mov r1,r3
 310 0026 FFF7FEFF 	 bl smartaudioUnpackFrequency
  86:../cleanflight/src/main/interface/smartaudio_protocol.c ****     smartaudioUnpackOperationMode(settings, frame->operationMode, true);
 311              	 .loc 1 86 0
 312 002a 3B68     	 ldr r3,[r7]
 313 002c 9B79     	 ldrb r3,[r3,#6]
 314 002e 7868     	 ldr r0,[r7,#4]
 315 0030 1946     	 mov r1,r3
 316 0032 0122     	 movs r2,#1
 317 0034 FFF7FEFF 	 bl smartaudioUnpackOperationMode
  87:../cleanflight/src/main/interface/smartaudio_protocol.c **** }
 318              	 .loc 1 87 0
 319 0038 0837     	 adds r7,r7,#8
 320              	.LCFI21:
 321              	 .cfi_def_cfa_offset 8
 322 003a BD46     	 mov sp,r7
 323              	.LCFI22:
 324              	 .cfi_def_cfa_register 13
 325              	 
 326 003c 80BD     	 pop {r7,pc}
 327              	 .cfi_endproc
 328              	.LFE529:
 330 003e 00BF     	 .section .text.smartaudioPackOperationMode,"ax",%progbits
 331              	 .align 2
 332              	 .thumb
 333              	 .thumb_func
 335              	smartaudioPackOperationMode:
 336              	.LFB530:
  88:../cleanflight/src/main/interface/smartaudio_protocol.c **** 
  89:../cleanflight/src/main/interface/smartaudio_protocol.c **** static uint8_t smartaudioPackOperationMode(const smartaudioSettings_t *settings)
  90:../cleanflight/src/main/interface/smartaudio_protocol.c **** {
 337              	 .loc 1 90 0
 338              	 .cfi_startproc
 339              	 
 340              	 
 341              	 
 342 0000 80B4     	 push {r7}
 343              	.LCFI23:
 344              	 .cfi_def_cfa_offset 4
 345              	 .cfi_offset 7,-4
 346 0002 85B0     	 sub sp,sp,#20
 347              	.LCFI24:
 348              	 .cfi_def_cfa_offset 24
 349 0004 00AF     	 add r7,sp,#0
 350              	.LCFI25:
 351              	 .cfi_def_cfa_register 7
 352 0006 7860     	 str r0,[r7,#4]
  91:../cleanflight/src/main/interface/smartaudio_protocol.c ****     uint8_t operationMode = 0;
 353              	 .loc 1 91 0
 354 0008 0023     	 movs r3,#0
 355 000a FB73     	 strb r3,[r7,#15]
  92:../cleanflight/src/main/interface/smartaudio_protocol.c ****     operationMode |= settings->pitmodeInRangeActive << 0;
 356              	 .loc 1 92 0
 357 000c 7B68     	 ldr r3,[r7,#4]
 358 000e 9B7A     	 ldrb r3,[r3,#10]
 359 0010 1A46     	 mov r2,r3
 360 0012 FB7B     	 ldrb r3,[r7,#15]
 361 0014 1343     	 orrs r3,r3,r2
 362 0016 FB73     	 strb r3,[r7,#15]
  93:../cleanflight/src/main/interface/smartaudio_protocol.c ****     operationMode |= settings->pitmodeOutRangeActive << 1;
 363              	 .loc 1 93 0
 364 0018 7B68     	 ldr r3,[r7,#4]
 365 001a DB7A     	 ldrb r3,[r3,#11]
 366 001c 5B00     	 lsls r3,r3,#1
 367 001e DAB2     	 uxtb r2,r3
 368 0020 FB7B     	 ldrb r3,[r7,#15]
 369 0022 1343     	 orrs r3,r3,r2
 370 0024 DBB2     	 uxtb r3,r3
 371 0026 FB73     	 strb r3,[r7,#15]
  94:../cleanflight/src/main/interface/smartaudio_protocol.c ****     operationMode |= settings->pitmodeEnabled << 2;
 372              	 .loc 1 94 0
 373 0028 7B68     	 ldr r3,[r7,#4]
 374 002a 5B7A     	 ldrb r3,[r3,#9]
 375 002c 9B00     	 lsls r3,r3,#2
 376 002e DAB2     	 uxtb r2,r3
 377 0030 FB7B     	 ldrb r3,[r7,#15]
 378 0032 1343     	 orrs r3,r3,r2
 379 0034 DBB2     	 uxtb r3,r3
 380 0036 FB73     	 strb r3,[r7,#15]
  95:../cleanflight/src/main/interface/smartaudio_protocol.c ****     operationMode |= settings->unlocked << 3;
 381              	 .loc 1 95 0
 382 0038 7B68     	 ldr r3,[r7,#4]
 383 003a 5B78     	 ldrb r3,[r3,#1]
 384 003c DB00     	 lsls r3,r3,#3
 385 003e DAB2     	 uxtb r2,r3
 386 0040 FB7B     	 ldrb r3,[r7,#15]
 387 0042 1343     	 orrs r3,r3,r2
 388 0044 DBB2     	 uxtb r3,r3
 389 0046 FB73     	 strb r3,[r7,#15]
  96:../cleanflight/src/main/interface/smartaudio_protocol.c ****     return operationMode;
 390              	 .loc 1 96 0
 391 0048 FB7B     	 ldrb r3,[r7,#15]
  97:../cleanflight/src/main/interface/smartaudio_protocol.c **** }
 392              	 .loc 1 97 0
 393 004a 1846     	 mov r0,r3
 394 004c 1437     	 adds r7,r7,#20
 395              	.LCFI26:
 396              	 .cfi_def_cfa_offset 4
 397 004e BD46     	 mov sp,r7
 398              	.LCFI27:
 399              	 .cfi_def_cfa_register 13
 400              	 
 401 0050 5DF8047B 	 ldr r7,[sp],#4
 402              	.LCFI28:
 403              	 .cfi_restore 7
 404              	 .cfi_def_cfa_offset 0
 405 0054 7047     	 bx lr
 406              	 .cfi_endproc
 407              	.LFE530:
 409 0056 00BF     	 .section .text.smartaudioFrameGetSettings,"ax",%progbits
 410              	 .align 2
 411              	 .global smartaudioFrameGetSettings
 412              	 .thumb
 413              	 .thumb_func
 415              	smartaudioFrameGetSettings:
 416              	.LFB531:
  98:../cleanflight/src/main/interface/smartaudio_protocol.c **** 
  99:../cleanflight/src/main/interface/smartaudio_protocol.c **** size_t smartaudioFrameGetSettings(smartaudioFrame_t *smartaudioFrame)
 100:../cleanflight/src/main/interface/smartaudio_protocol.c **** {
 417              	 .loc 1 100 0
 418              	 .cfi_startproc
 419              	 
 420              	 
 421 0000 80B5     	 push {r7,lr}
 422              	.LCFI29:
 423              	 .cfi_def_cfa_offset 8
 424              	 .cfi_offset 7,-8
 425              	 .cfi_offset 14,-4
 426 0002 84B0     	 sub sp,sp,#16
 427              	.LCFI30:
 428              	 .cfi_def_cfa_offset 24
 429 0004 00AF     	 add r7,sp,#0
 430              	.LCFI31:
 431              	 .cfi_def_cfa_register 7
 432 0006 7860     	 str r0,[r7,#4]
 101:../cleanflight/src/main/interface/smartaudio_protocol.c ****     smartaudioCommandOnlyFrame_t *frame = (smartaudioCommandOnlyFrame_t *)smartaudioFrame;
 433              	 .loc 1 101 0
 434 0008 7B68     	 ldr r3,[r7,#4]
 435 000a FB60     	 str r3,[r7,#12]
 102:../cleanflight/src/main/interface/smartaudio_protocol.c ****     smartaudioFrameInit(SMARTAUDIO_CMD_GET_SETTINGS, &frame->header, 0);
 436              	 .loc 1 102 0
 437 000c FB68     	 ldr r3,[r7,#12]
 438 000e 0320     	 movs r0,#3
 439 0010 1946     	 mov r1,r3
 440 0012 0022     	 movs r2,#0
 441 0014 FFF7FEFF 	 bl smartaudioFrameInit
 103:../cleanflight/src/main/interface/smartaudio_protocol.c ****     frame->crc = crc8_dvb_s2_update(0, frame, sizeof(smartaudioCommandOnlyFrame_t) - sizeof(frame->
 442              	 .loc 1 103 0
 443 0018 0020     	 movs r0,#0
 444 001a F968     	 ldr r1,[r7,#12]
 445 001c 0422     	 movs r2,#4
 446 001e FFF7FEFF 	 bl crc8_dvb_s2_update
 447 0022 0346     	 mov r3,r0
 448 0024 1A46     	 mov r2,r3
 449 0026 FB68     	 ldr r3,[r7,#12]
 450 0028 1A71     	 strb r2,[r3,#4]
 104:../cleanflight/src/main/interface/smartaudio_protocol.c ****     return sizeof(smartaudioCommandOnlyFrame_t);
 451              	 .loc 1 104 0
 452 002a 0523     	 movs r3,#5
 105:../cleanflight/src/main/interface/smartaudio_protocol.c **** }
 453              	 .loc 1 105 0
 454 002c 1846     	 mov r0,r3
 455 002e 1037     	 adds r7,r7,#16
 456              	.LCFI32:
 457              	 .cfi_def_cfa_offset 8
 458 0030 BD46     	 mov sp,r7
 459              	.LCFI33:
 460              	 .cfi_def_cfa_register 13
 461              	 
 462 0032 80BD     	 pop {r7,pc}
 463              	 .cfi_endproc
 464              	.LFE531:
 466              	 .section .text.smartaudioFrameGetPitmodeFrequency,"ax",%progbits
 467              	 .align 2
 468              	 .global smartaudioFrameGetPitmodeFrequency
 469              	 .thumb
 470              	 .thumb_func
 472              	smartaudioFrameGetPitmodeFrequency:
 473              	.LFB532:
 106:../cleanflight/src/main/interface/smartaudio_protocol.c **** 
 107:../cleanflight/src/main/interface/smartaudio_protocol.c **** size_t smartaudioFrameGetPitmodeFrequency(smartaudioFrame_t *smartaudioFrame)
 108:../cleanflight/src/main/interface/smartaudio_protocol.c **** {
 474              	 .loc 1 108 0
 475              	 .cfi_startproc
 476              	 
 477              	 
 478 0000 80B5     	 push {r7,lr}
 479              	.LCFI34:
 480              	 .cfi_def_cfa_offset 8
 481              	 .cfi_offset 7,-8
 482              	 .cfi_offset 14,-4
 483 0002 84B0     	 sub sp,sp,#16
 484              	.LCFI35:
 485              	 .cfi_def_cfa_offset 24
 486 0004 00AF     	 add r7,sp,#0
 487              	.LCFI36:
 488              	 .cfi_def_cfa_register 7
 489 0006 7860     	 str r0,[r7,#4]
 109:../cleanflight/src/main/interface/smartaudio_protocol.c ****     smartaudioU16Frame_t *frame = (smartaudioU16Frame_t *)smartaudioFrame;
 490              	 .loc 1 109 0
 491 0008 7B68     	 ldr r3,[r7,#4]
 492 000a FB60     	 str r3,[r7,#12]
 110:../cleanflight/src/main/interface/smartaudio_protocol.c ****     smartaudioFrameInit(SMARTAUDIO_CMD_SET_FREQUENCY, &frame->header, sizeof(frame->payload));
 493              	 .loc 1 110 0
 494 000c FB68     	 ldr r3,[r7,#12]
 495 000e 0920     	 movs r0,#9
 496 0010 1946     	 mov r1,r3
 497 0012 0222     	 movs r2,#2
 498 0014 FFF7FEFF 	 bl smartaudioFrameInit
 111:../cleanflight/src/main/interface/smartaudio_protocol.c ****     frame->payload = SMARTAUDIO_SET_PITMODE_FREQ;
 499              	 .loc 1 111 0
 500 0018 FB68     	 ldr r3,[r7,#12]
 501 001a 0022     	 movs r2,#0
 502 001c 1A71     	 strb r2,[r3,#4]
 503 001e 0022     	 movs r2,#0
 504 0020 62F07F02 	 orn r2,r2,#127
 505 0024 5A71     	 strb r2,[r3,#5]
 112:../cleanflight/src/main/interface/smartaudio_protocol.c ****     frame->crc = crc8_dvb_s2_update(0, frame, sizeof(smartaudioU16Frame_t) - sizeof(frame->crc));
 506              	 .loc 1 112 0
 507 0026 0020     	 movs r0,#0
 508 0028 F968     	 ldr r1,[r7,#12]
 509 002a 0622     	 movs r2,#6
 510 002c FFF7FEFF 	 bl crc8_dvb_s2_update
 511 0030 0346     	 mov r3,r0
 512 0032 1A46     	 mov r2,r3
 513 0034 FB68     	 ldr r3,[r7,#12]
 514 0036 9A71     	 strb r2,[r3,#6]
 113:../cleanflight/src/main/interface/smartaudio_protocol.c ****     return sizeof(smartaudioU16Frame_t);
 515              	 .loc 1 113 0
 516 0038 0723     	 movs r3,#7
 114:../cleanflight/src/main/interface/smartaudio_protocol.c **** }
 517              	 .loc 1 114 0
 518 003a 1846     	 mov r0,r3
 519 003c 1037     	 adds r7,r7,#16
 520              	.LCFI37:
 521              	 .cfi_def_cfa_offset 8
 522 003e BD46     	 mov sp,r7
 523              	.LCFI38:
 524              	 .cfi_def_cfa_register 13
 525              	 
 526 0040 80BD     	 pop {r7,pc}
 527              	 .cfi_endproc
 528              	.LFE532:
 530 0042 00BF     	 .section .text.smartaudioFrameSetPower,"ax",%progbits
 531              	 .align 2
 532              	 .global smartaudioFrameSetPower
 533              	 .thumb
 534              	 .thumb_func
 536              	smartaudioFrameSetPower:
 537              	.LFB533:
 115:../cleanflight/src/main/interface/smartaudio_protocol.c **** 
 116:../cleanflight/src/main/interface/smartaudio_protocol.c **** size_t smartaudioFrameSetPower(smartaudioFrame_t *smartaudioFrame, const uint8_t power)
 117:../cleanflight/src/main/interface/smartaudio_protocol.c **** {
 538              	 .loc 1 117 0
 539              	 .cfi_startproc
 540              	 
 541              	 
 542 0000 80B5     	 push {r7,lr}
 543              	.LCFI39:
 544              	 .cfi_def_cfa_offset 8
 545              	 .cfi_offset 7,-8
 546              	 .cfi_offset 14,-4
 547 0002 84B0     	 sub sp,sp,#16
 548              	.LCFI40:
 549              	 .cfi_def_cfa_offset 24
 550 0004 00AF     	 add r7,sp,#0
 551              	.LCFI41:
 552              	 .cfi_def_cfa_register 7
 553 0006 7860     	 str r0,[r7,#4]
 554 0008 0B46     	 mov r3,r1
 555 000a FB70     	 strb r3,[r7,#3]
 118:../cleanflight/src/main/interface/smartaudio_protocol.c ****     smartaudioU8Frame_t *frame = (smartaudioU8Frame_t *)smartaudioFrame;
 556              	 .loc 1 118 0
 557 000c 7B68     	 ldr r3,[r7,#4]
 558 000e FB60     	 str r3,[r7,#12]
 119:../cleanflight/src/main/interface/smartaudio_protocol.c ****     smartaudioFrameInit(SMARTAUDIO_CMD_SET_POWER, &frame->header, sizeof(frame->payload));
 559              	 .loc 1 119 0
 560 0010 FB68     	 ldr r3,[r7,#12]
 561 0012 0520     	 movs r0,#5
 562 0014 1946     	 mov r1,r3
 563 0016 0122     	 movs r2,#1
 564 0018 FFF7FEFF 	 bl smartaudioFrameInit
 120:../cleanflight/src/main/interface/smartaudio_protocol.c ****     frame->payload = power;
 565              	 .loc 1 120 0
 566 001c FB68     	 ldr r3,[r7,#12]
 567 001e FA78     	 ldrb r2,[r7,#3]
 568 0020 1A71     	 strb r2,[r3,#4]
 121:../cleanflight/src/main/interface/smartaudio_protocol.c ****     frame->crc = crc8_dvb_s2_update(0, frame, sizeof(smartaudioU8Frame_t) - sizeof(frame->crc));
 569              	 .loc 1 121 0
 570 0022 0020     	 movs r0,#0
 571 0024 F968     	 ldr r1,[r7,#12]
 572 0026 0522     	 movs r2,#5
 573 0028 FFF7FEFF 	 bl crc8_dvb_s2_update
 574 002c 0346     	 mov r3,r0
 575 002e 1A46     	 mov r2,r3
 576 0030 FB68     	 ldr r3,[r7,#12]
 577 0032 5A71     	 strb r2,[r3,#5]
 122:../cleanflight/src/main/interface/smartaudio_protocol.c ****     return sizeof(smartaudioU8Frame_t);
 578              	 .loc 1 122 0
 579 0034 0623     	 movs r3,#6
 123:../cleanflight/src/main/interface/smartaudio_protocol.c **** }
 580              	 .loc 1 123 0
 581 0036 1846     	 mov r0,r3
 582 0038 1037     	 adds r7,r7,#16
 583              	.LCFI42:
 584              	 .cfi_def_cfa_offset 8
 585 003a BD46     	 mov sp,r7
 586              	.LCFI43:
 587              	 .cfi_def_cfa_register 13
 588              	 
 589 003c 80BD     	 pop {r7,pc}
 590              	 .cfi_endproc
 591              	.LFE533:
 593 003e 00BF     	 .section .text.smartaudioFrameSetBandChannel,"ax",%progbits
 594              	 .align 2
 595              	 .global smartaudioFrameSetBandChannel
 596              	 .thumb
 597              	 .thumb_func
 599              	smartaudioFrameSetBandChannel:
 600              	.LFB534:
 124:../cleanflight/src/main/interface/smartaudio_protocol.c **** 
 125:../cleanflight/src/main/interface/smartaudio_protocol.c **** size_t smartaudioFrameSetBandChannel(smartaudioFrame_t *smartaudioFrame, const uint8_t band, const 
 126:../cleanflight/src/main/interface/smartaudio_protocol.c **** {
 601              	 .loc 1 126 0
 602              	 .cfi_startproc
 603              	 
 604              	 
 605 0000 80B5     	 push {r7,lr}
 606              	.LCFI44:
 607              	 .cfi_def_cfa_offset 8
 608              	 .cfi_offset 7,-8
 609              	 .cfi_offset 14,-4
 610 0002 84B0     	 sub sp,sp,#16
 611              	.LCFI45:
 612              	 .cfi_def_cfa_offset 24
 613 0004 00AF     	 add r7,sp,#0
 614              	.LCFI46:
 615              	 .cfi_def_cfa_register 7
 616 0006 7860     	 str r0,[r7,#4]
 617 0008 0B46     	 mov r3,r1
 618 000a FB70     	 strb r3,[r7,#3]
 619 000c 1346     	 mov r3,r2
 620 000e BB70     	 strb r3,[r7,#2]
 127:../cleanflight/src/main/interface/smartaudio_protocol.c ****     smartaudioU8Frame_t *frame = (smartaudioU8Frame_t *)smartaudioFrame;
 621              	 .loc 1 127 0
 622 0010 7B68     	 ldr r3,[r7,#4]
 623 0012 FB60     	 str r3,[r7,#12]
 128:../cleanflight/src/main/interface/smartaudio_protocol.c ****     smartaudioFrameInit(SMARTAUDIO_CMD_SET_CHANNEL, &frame->header, sizeof(frame->payload));
 624              	 .loc 1 128 0
 625 0014 FB68     	 ldr r3,[r7,#12]
 626 0016 0720     	 movs r0,#7
 627 0018 1946     	 mov r1,r3
 628 001a 0122     	 movs r2,#1
 629 001c FFF7FEFF 	 bl smartaudioFrameInit
 129:../cleanflight/src/main/interface/smartaudio_protocol.c ****     frame->payload = SMARTAUDIO_BANDCHAN_TO_INDEX(band, channel);
 630              	 .loc 1 129 0
 631 0020 FB78     	 ldrb r3,[r7,#3]
 632 0022 DB00     	 lsls r3,r3,#3
 633 0024 DAB2     	 uxtb r2,r3
 634 0026 BB78     	 ldrb r3,[r7,#2]
 635 0028 1344     	 add r3,r3,r2
 636 002a DAB2     	 uxtb r2,r3
 637 002c FB68     	 ldr r3,[r7,#12]
 638 002e 1A71     	 strb r2,[r3,#4]
 130:../cleanflight/src/main/interface/smartaudio_protocol.c ****     frame->crc = crc8_dvb_s2_update(0, frame, sizeof(smartaudioU8Frame_t) - sizeof(frame->crc));
 639              	 .loc 1 130 0
 640 0030 0020     	 movs r0,#0
 641 0032 F968     	 ldr r1,[r7,#12]
 642 0034 0522     	 movs r2,#5
 643 0036 FFF7FEFF 	 bl crc8_dvb_s2_update
 644 003a 0346     	 mov r3,r0
 645 003c 1A46     	 mov r2,r3
 646 003e FB68     	 ldr r3,[r7,#12]
 647 0040 5A71     	 strb r2,[r3,#5]
 131:../cleanflight/src/main/interface/smartaudio_protocol.c ****     return sizeof(smartaudioU8Frame_t);
 648              	 .loc 1 131 0
 649 0042 0623     	 movs r3,#6
 132:../cleanflight/src/main/interface/smartaudio_protocol.c **** }
 650              	 .loc 1 132 0
 651 0044 1846     	 mov r0,r3
 652 0046 1037     	 adds r7,r7,#16
 653              	.LCFI47:
 654              	 .cfi_def_cfa_offset 8
 655 0048 BD46     	 mov sp,r7
 656              	.LCFI48:
 657              	 .cfi_def_cfa_register 13
 658              	 
 659 004a 80BD     	 pop {r7,pc}
 660              	 .cfi_endproc
 661              	.LFE534:
 663              	 .section .text.smartaudioFrameSetFrequency,"ax",%progbits
 664              	 .align 2
 665              	 .global smartaudioFrameSetFrequency
 666              	 .thumb
 667              	 .thumb_func
 669              	smartaudioFrameSetFrequency:
 670              	.LFB535:
 133:../cleanflight/src/main/interface/smartaudio_protocol.c **** 
 134:../cleanflight/src/main/interface/smartaudio_protocol.c **** size_t smartaudioFrameSetFrequency(smartaudioFrame_t *smartaudioFrame, const uint16_t frequency, co
 135:../cleanflight/src/main/interface/smartaudio_protocol.c **** {
 671              	 .loc 1 135 0
 672              	 .cfi_startproc
 673              	 
 674              	 
 675 0000 80B5     	 push {r7,lr}
 676              	.LCFI49:
 677              	 .cfi_def_cfa_offset 8
 678              	 .cfi_offset 7,-8
 679              	 .cfi_offset 14,-4
 680 0002 84B0     	 sub sp,sp,#16
 681              	.LCFI50:
 682              	 .cfi_def_cfa_offset 24
 683 0004 00AF     	 add r7,sp,#0
 684              	.LCFI51:
 685              	 .cfi_def_cfa_register 7
 686 0006 7860     	 str r0,[r7,#4]
 687 0008 0B46     	 mov r3,r1
 688 000a 7B80     	 strh r3,[r7,#2]
 689 000c 1346     	 mov r3,r2
 690 000e 7B70     	 strb r3,[r7,#1]
 136:../cleanflight/src/main/interface/smartaudio_protocol.c ****     smartaudioU16Frame_t *frame = (smartaudioU16Frame_t *)smartaudioFrame;
 691              	 .loc 1 136 0
 692 0010 7B68     	 ldr r3,[r7,#4]
 693 0012 FB60     	 str r3,[r7,#12]
 137:../cleanflight/src/main/interface/smartaudio_protocol.c ****     smartaudioFrameInit(SMARTAUDIO_CMD_SET_FREQUENCY, &frame->header, sizeof(frame->payload));
 694              	 .loc 1 137 0
 695 0014 FB68     	 ldr r3,[r7,#12]
 696 0016 0920     	 movs r0,#9
 697 0018 1946     	 mov r1,r3
 698 001a 0222     	 movs r2,#2
 699 001c FFF7FEFF 	 bl smartaudioFrameInit
 138:../cleanflight/src/main/interface/smartaudio_protocol.c ****     frame->payload = U16BIGENDIAN(frequency | (pitmodeFrequency ? SMARTAUDIO_SET_PITMODE_FREQ : 0x0
 700              	 .loc 1 138 0
 701 0020 7B78     	 ldrb r3,[r7,#1]
 702 0022 002B     	 cmp r3,#0
 703 0024 01D0     	 beq .L20
 704              	 .loc 1 138 0 is_stmt 0 discriminator 1
 705 0026 8022     	 movs r2,#128
 706 0028 00E0     	 b .L21
 707              	.L20:
 708              	 .loc 1 138 0 discriminator 2
 709 002a 0022     	 movs r2,#0
 710              	.L21:
 711              	 .loc 1 138 0 discriminator 4
 712 002c 7B88     	 ldrh r3,[r7,#2]
 713 002e 1343     	 orrs r3,r3,r2
 714 0030 9BB2     	 uxth r3,r3
 715 0032 DBB2     	 uxtb r3,r3
 716 0034 9AB2     	 uxth r2,r3
 717 0036 7B88     	 ldrh r3,[r7,#2]
 718 0038 1343     	 orrs r3,r3,r2
 719 003a 9BB2     	 uxth r3,r3
 720 003c 9AB2     	 uxth r2,r3
 721 003e FB68     	 ldr r3,[r7,#12]
 722 0040 9A80     	 strh r2,[r3,#4]
 139:../cleanflight/src/main/interface/smartaudio_protocol.c ****     frame->crc = crc8_dvb_s2_update(0, frame, sizeof(smartaudioU16Frame_t) - sizeof(frame->crc));
 723              	 .loc 1 139 0 is_stmt 1 discriminator 4
 724 0042 0020     	 movs r0,#0
 725 0044 F968     	 ldr r1,[r7,#12]
 726 0046 0622     	 movs r2,#6
 727 0048 FFF7FEFF 	 bl crc8_dvb_s2_update
 728 004c 0346     	 mov r3,r0
 729 004e 1A46     	 mov r2,r3
 730 0050 FB68     	 ldr r3,[r7,#12]
 731 0052 9A71     	 strb r2,[r3,#6]
 140:../cleanflight/src/main/interface/smartaudio_protocol.c ****     return sizeof(smartaudioU16Frame_t);
 732              	 .loc 1 140 0 discriminator 4
 733 0054 0723     	 movs r3,#7
 141:../cleanflight/src/main/interface/smartaudio_protocol.c **** }
 734              	 .loc 1 141 0 discriminator 4
 735 0056 1846     	 mov r0,r3
 736 0058 1037     	 adds r7,r7,#16
 737              	.LCFI52:
 738              	 .cfi_def_cfa_offset 8
 739 005a BD46     	 mov sp,r7
 740              	.LCFI53:
 741              	 .cfi_def_cfa_register 13
 742              	 
 743 005c 80BD     	 pop {r7,pc}
 744              	 .cfi_endproc
 745              	.LFE535:
 747 005e 00BF     	 .section .text.smartaudioFrameSetOperationMode,"ax",%progbits
 748              	 .align 2
 749              	 .global smartaudioFrameSetOperationMode
 750              	 .thumb
 751              	 .thumb_func
 753              	smartaudioFrameSetOperationMode:
 754              	.LFB536:
 142:../cleanflight/src/main/interface/smartaudio_protocol.c **** 
 143:../cleanflight/src/main/interface/smartaudio_protocol.c **** size_t smartaudioFrameSetOperationMode(smartaudioFrame_t *smartaudioFrame, const smartaudioSettings
 144:../cleanflight/src/main/interface/smartaudio_protocol.c **** {
 755              	 .loc 1 144 0
 756              	 .cfi_startproc
 757              	 
 758              	 
 759 0000 80B5     	 push {r7,lr}
 760              	.LCFI54:
 761              	 .cfi_def_cfa_offset 8
 762              	 .cfi_offset 7,-8
 763              	 .cfi_offset 14,-4
 764 0002 84B0     	 sub sp,sp,#16
 765              	.LCFI55:
 766              	 .cfi_def_cfa_offset 24
 767 0004 00AF     	 add r7,sp,#0
 768              	.LCFI56:
 769              	 .cfi_def_cfa_register 7
 770 0006 7860     	 str r0,[r7,#4]
 771 0008 3960     	 str r1,[r7]
 145:../cleanflight/src/main/interface/smartaudio_protocol.c ****     smartaudioU8Frame_t *frame = (smartaudioU8Frame_t *)smartaudioFrame;
 772              	 .loc 1 145 0
 773 000a 7B68     	 ldr r3,[r7,#4]
 774 000c FB60     	 str r3,[r7,#12]
 146:../cleanflight/src/main/interface/smartaudio_protocol.c ****     smartaudioFrameInit(SMARTAUDIO_CMD_SET_MODE, &frame->header, sizeof(frame->payload));
 775              	 .loc 1 146 0
 776 000e FB68     	 ldr r3,[r7,#12]
 777 0010 0B20     	 movs r0,#11
 778 0012 1946     	 mov r1,r3
 779 0014 0122     	 movs r2,#1
 780 0016 FFF7FEFF 	 bl smartaudioFrameInit
 147:../cleanflight/src/main/interface/smartaudio_protocol.c ****     frame->payload = smartaudioPackOperationMode(settings);
 781              	 .loc 1 147 0
 782 001a 3868     	 ldr r0,[r7]
 783 001c FFF7FEFF 	 bl smartaudioPackOperationMode
 784 0020 0346     	 mov r3,r0
 785 0022 1A46     	 mov r2,r3
 786 0024 FB68     	 ldr r3,[r7,#12]
 787 0026 1A71     	 strb r2,[r3,#4]
 148:../cleanflight/src/main/interface/smartaudio_protocol.c ****     frame->crc = crc8_dvb_s2_update(0, frame, sizeof(smartaudioU8Frame_t) - sizeof(frame->crc));
 788              	 .loc 1 148 0
 789 0028 0020     	 movs r0,#0
 790 002a F968     	 ldr r1,[r7,#12]
 791 002c 0522     	 movs r2,#5
 792 002e FFF7FEFF 	 bl crc8_dvb_s2_update
 793 0032 0346     	 mov r3,r0
 794 0034 1A46     	 mov r2,r3
 795 0036 FB68     	 ldr r3,[r7,#12]
 796 0038 5A71     	 strb r2,[r3,#5]
 149:../cleanflight/src/main/interface/smartaudio_protocol.c ****     return sizeof(smartaudioU8Frame_t);
 797              	 .loc 1 149 0
 798 003a 0623     	 movs r3,#6
 150:../cleanflight/src/main/interface/smartaudio_protocol.c **** }
 799              	 .loc 1 150 0
 800 003c 1846     	 mov r0,r3
 801 003e 1037     	 adds r7,r7,#16
 802              	.LCFI57:
 803              	 .cfi_def_cfa_offset 8
 804 0040 BD46     	 mov sp,r7
 805              	.LCFI58:
 806              	 .cfi_def_cfa_register 13
 807              	 
 808 0042 80BD     	 pop {r7,pc}
 809              	 .cfi_endproc
 810              	.LFE536:
 812              	 .section .text.smartaudioParseResponseBuffer,"ax",%progbits
 813              	 .align 2
 814              	 .global smartaudioParseResponseBuffer
 815              	 .thumb
 816              	 .thumb_func
 818              	smartaudioParseResponseBuffer:
 819              	.LFB537:
 151:../cleanflight/src/main/interface/smartaudio_protocol.c **** 
 152:../cleanflight/src/main/interface/smartaudio_protocol.c **** bool smartaudioParseResponseBuffer(smartaudioSettings_t *settings, const uint8_t *buffer)
 153:../cleanflight/src/main/interface/smartaudio_protocol.c **** {
 820              	 .loc 1 153 0
 821              	 .cfi_startproc
 822              	 
 823              	 
 824 0000 80B5     	 push {r7,lr}
 825              	.LCFI59:
 826              	 .cfi_def_cfa_offset 8
 827              	 .cfi_offset 7,-8
 828              	 .cfi_offset 14,-4
 829 0002 8CB0     	 sub sp,sp,#48
 830              	.LCFI60:
 831              	 .cfi_def_cfa_offset 56
 832 0004 00AF     	 add r7,sp,#0
 833              	.LCFI61:
 834              	 .cfi_def_cfa_register 7
 835 0006 7860     	 str r0,[r7,#4]
 836 0008 3960     	 str r1,[r7]
 154:../cleanflight/src/main/interface/smartaudio_protocol.c ****     const smartaudioFrameHeader_t *header = (const smartaudioFrameHeader_t *)buffer;
 837              	 .loc 1 154 0
 838 000a 3B68     	 ldr r3,[r7]
 839 000c FB62     	 str r3,[r7,#44]
 155:../cleanflight/src/main/interface/smartaudio_protocol.c ****     const uint8_t fullFrameLength = sizeof(smartaudioFrameHeader_t) + header->length;
 840              	 .loc 1 155 0
 841 000e FB6A     	 ldr r3,[r7,#44]
 842 0010 9B78     	 ldrb r3,[r3,#2]
 843 0012 0433     	 adds r3,r3,#4
 844 0014 87F82B30 	 strb r3,[r7,#43]
 156:../cleanflight/src/main/interface/smartaudio_protocol.c ****     const uint8_t headerPayloadLength = fullFrameLength - 1; // subtract crc byte from length
 845              	 .loc 1 156 0
 846 0018 97F82B30 	 ldrb r3,[r7,#43]
 847 001c 013B     	 subs r3,r3,#1
 848 001e 87F82A30 	 strb r3,[r7,#42]
 157:../cleanflight/src/main/interface/smartaudio_protocol.c ****     const uint8_t *endPtr = buffer + fullFrameLength;
 849              	 .loc 1 157 0
 850 0022 97F82B30 	 ldrb r3,[r7,#43]
 851 0026 3A68     	 ldr r2,[r7]
 852 0028 1344     	 add r3,r3,r2
 853 002a 7B62     	 str r3,[r7,#36]
 158:../cleanflight/src/main/interface/smartaudio_protocol.c **** 
 159:../cleanflight/src/main/interface/smartaudio_protocol.c ****     if (crc8_dvb_s2_update(*endPtr, buffer, headerPayloadLength) || header->startCode != SMARTAUDIO
 854              	 .loc 1 159 0
 855 002c 7B6A     	 ldr r3,[r7,#36]
 856 002e 1A78     	 ldrb r2,[r3]
 857 0030 97F82A30 	 ldrb r3,[r7,#42]
 858 0034 1046     	 mov r0,r2
 859 0036 3968     	 ldr r1,[r7]
 860 0038 1A46     	 mov r2,r3
 861 003a FFF7FEFF 	 bl crc8_dvb_s2_update
 862 003e 0346     	 mov r3,r0
 863 0040 002B     	 cmp r3,#0
 864 0042 04D1     	 bne .L26
 865              	 .loc 1 159 0 is_stmt 0 discriminator 1
 866 0044 FB6A     	 ldr r3,[r7,#44]
 867 0046 1B88     	 ldrh r3,[r3]
 868 0048 9BB2     	 uxth r3,r3
 869 004a FF2B     	 cmp r3,#255
 870 004c 01D0     	 beq .L27
 871              	.L26:
 160:../cleanflight/src/main/interface/smartaudio_protocol.c ****         return false;
 872              	 .loc 1 160 0 is_stmt 1
 873 004e 0023     	 movs r3,#0
 874 0050 5DE0     	 b .L28
 875              	.L27:
 161:../cleanflight/src/main/interface/smartaudio_protocol.c ****     }
 162:../cleanflight/src/main/interface/smartaudio_protocol.c ****     switch (header->command) {
 876              	 .loc 1 162 0
 877 0052 FB6A     	 ldr r3,[r7,#44]
 878 0054 DB78     	 ldrb r3,[r3,#3]
 879 0056 013B     	 subs r3,r3,#1
 880 0058 082B     	 cmp r3,#8
 881 005a 55D8     	 bhi .L29
 882 005c 01A2     	 adr r2,.L31
 883 005e 52F823F0 	 ldr pc,[r2,r3,lsl#2]
 884 0062 00BF     	 .p2align 2
 885              	.L31:
 886 0064 89000000 	 .word .L30+1
 887 0068 B1000000 	 .word .L32+1
 888 006c D3000000 	 .word .L33+1
 889 0070 E1000000 	 .word .L34+1
 890 0074 F5000000 	 .word .L35+1
 891 0078 09010000 	 .word .L29+1
 892 007c 09010000 	 .word .L29+1
 893 0080 09010000 	 .word .L29+1
 894 0084 9D000000 	 .word .L36+1
 895              	 .p2align 1
 896              	.L30:
 897              	.LBB2:
 163:../cleanflight/src/main/interface/smartaudio_protocol.c ****         case SMARTAUDIO_RSP_GET_SETTINGS_V1: {
 164:../cleanflight/src/main/interface/smartaudio_protocol.c ****                 const smartaudioSettingsResponseFrame_t *resp = (const smartaudioSettingsResponseFr
 898              	 .loc 1 164 0
 899 0088 3B68     	 ldr r3,[r7]
 900 008a 3B62     	 str r3,[r7,#32]
 165:../cleanflight/src/main/interface/smartaudio_protocol.c ****                 settings->version = 1;
 901              	 .loc 1 165 0
 902 008c 7B68     	 ldr r3,[r7,#4]
 903 008e 0122     	 movs r2,#1
 904 0090 1A70     	 strb r2,[r3]
 166:../cleanflight/src/main/interface/smartaudio_protocol.c ****                 smartaudioUnpackSettings(settings, resp);
 905              	 .loc 1 166 0
 906 0092 7868     	 ldr r0,[r7,#4]
 907 0094 396A     	 ldr r1,[r7,#32]
 908 0096 FFF7FEFF 	 bl smartaudioUnpackSettings
 909              	.LBE2:
 167:../cleanflight/src/main/interface/smartaudio_protocol.c ****             }
 168:../cleanflight/src/main/interface/smartaudio_protocol.c ****             break;
 910              	 .loc 1 168 0
 911 009a 37E0     	 b .L37
 912              	.L36:
 913              	.LBB3:
 169:../cleanflight/src/main/interface/smartaudio_protocol.c ****         case SMARTAUDIO_RSP_GET_SETTINGS_V2: {
 170:../cleanflight/src/main/interface/smartaudio_protocol.c ****                 const smartaudioSettingsResponseFrame_t *resp = (const smartaudioSettingsResponseFr
 914              	 .loc 1 170 0
 915 009c 3B68     	 ldr r3,[r7]
 916 009e FB61     	 str r3,[r7,#28]
 171:../cleanflight/src/main/interface/smartaudio_protocol.c ****                 settings->version = 2;
 917              	 .loc 1 171 0
 918 00a0 7B68     	 ldr r3,[r7,#4]
 919 00a2 0222     	 movs r2,#2
 920 00a4 1A70     	 strb r2,[r3]
 172:../cleanflight/src/main/interface/smartaudio_protocol.c ****                 smartaudioUnpackSettings(settings, resp);
 921              	 .loc 1 172 0
 922 00a6 7868     	 ldr r0,[r7,#4]
 923 00a8 F969     	 ldr r1,[r7,#28]
 924 00aa FFF7FEFF 	 bl smartaudioUnpackSettings
 925              	.LBE3:
 173:../cleanflight/src/main/interface/smartaudio_protocol.c ****             }
 174:../cleanflight/src/main/interface/smartaudio_protocol.c ****             break;
 926              	 .loc 1 174 0
 927 00ae 2DE0     	 b .L37
 928              	.L32:
 929              	.LBB4:
 175:../cleanflight/src/main/interface/smartaudio_protocol.c ****         case SMARTAUDIO_RSP_SET_POWER: {
 176:../cleanflight/src/main/interface/smartaudio_protocol.c ****                 const smartaudioU16ResponseFrame_t *resp = (const smartaudioU16ResponseFrame_t *)bu
 930              	 .loc 1 176 0
 931 00b0 3B68     	 ldr r3,[r7]
 932 00b2 BB61     	 str r3,[r7,#24]
 177:../cleanflight/src/main/interface/smartaudio_protocol.c ****                 settings->channel = (resp->payload >> 8) & 0xFF;
 933              	 .loc 1 177 0
 934 00b4 BB69     	 ldr r3,[r7,#24]
 935 00b6 9B88     	 ldrh r3,[r3,#4]
 936 00b8 9BB2     	 uxth r3,r3
 937 00ba 1B0A     	 lsrs r3,r3,#8
 938 00bc 9BB2     	 uxth r3,r3
 939 00be DAB2     	 uxtb r2,r3
 940 00c0 7B68     	 ldr r3,[r7,#4]
 941 00c2 9A70     	 strb r2,[r3,#2]
 178:../cleanflight/src/main/interface/smartaudio_protocol.c ****                 settings->power = resp->payload & 0xFF;
 942              	 .loc 1 178 0
 943 00c4 BB69     	 ldr r3,[r7,#24]
 944 00c6 9B88     	 ldrh r3,[r3,#4]
 945 00c8 9BB2     	 uxth r3,r3
 946 00ca DAB2     	 uxtb r2,r3
 947 00cc 7B68     	 ldr r3,[r7,#4]
 948 00ce DA70     	 strb r2,[r3,#3]
 949              	.LBE4:
 179:../cleanflight/src/main/interface/smartaudio_protocol.c ****             }
 180:../cleanflight/src/main/interface/smartaudio_protocol.c ****             break;
 950              	 .loc 1 180 0
 951 00d0 1CE0     	 b .L37
 952              	.L33:
 953              	.LBB5:
 181:../cleanflight/src/main/interface/smartaudio_protocol.c ****         case SMARTAUDIO_RSP_SET_CHANNEL: {
 182:../cleanflight/src/main/interface/smartaudio_protocol.c ****                 const smartaudioU8ResponseFrame_t *resp = (const smartaudioU8ResponseFrame_t *)buff
 954              	 .loc 1 182 0
 955 00d2 3B68     	 ldr r3,[r7]
 956 00d4 7B61     	 str r3,[r7,#20]
 183:../cleanflight/src/main/interface/smartaudio_protocol.c ****                 settings->channel = resp->payload;
 957              	 .loc 1 183 0
 958 00d6 7B69     	 ldr r3,[r7,#20]
 959 00d8 1A79     	 ldrb r2,[r3,#4]
 960 00da 7B68     	 ldr r3,[r7,#4]
 961 00dc 9A70     	 strb r2,[r3,#2]
 962              	.LBE5:
 184:../cleanflight/src/main/interface/smartaudio_protocol.c ****             }
 185:../cleanflight/src/main/interface/smartaudio_protocol.c ****             break;
 963              	 .loc 1 185 0
 964 00de 15E0     	 b .L37
 965              	.L34:
 966              	.LBB6:
 186:../cleanflight/src/main/interface/smartaudio_protocol.c ****         case SMARTAUDIO_RSP_SET_FREQUENCY: {
 187:../cleanflight/src/main/interface/smartaudio_protocol.c ****                 const smartaudioU16ResponseFrame_t *resp = (const smartaudioU16ResponseFrame_t *)bu
 967              	 .loc 1 187 0
 968 00e0 3B68     	 ldr r3,[r7]
 969 00e2 3B61     	 str r3,[r7,#16]
 188:../cleanflight/src/main/interface/smartaudio_protocol.c ****                 smartaudioUnpackFrequency(settings, resp->payload);
 970              	 .loc 1 188 0
 971 00e4 3B69     	 ldr r3,[r7,#16]
 972 00e6 9B88     	 ldrh r3,[r3,#4]
 973 00e8 9BB2     	 uxth r3,r3
 974 00ea 7868     	 ldr r0,[r7,#4]
 975 00ec 1946     	 mov r1,r3
 976 00ee FFF7FEFF 	 bl smartaudioUnpackFrequency
 977              	.LBE6:
 189:../cleanflight/src/main/interface/smartaudio_protocol.c ****             }
 190:../cleanflight/src/main/interface/smartaudio_protocol.c ****             break;
 978              	 .loc 1 190 0
 979 00f2 0BE0     	 b .L37
 980              	.L35:
 981              	.LBB7:
 191:../cleanflight/src/main/interface/smartaudio_protocol.c ****         case SMARTAUDIO_RSP_SET_MODE: {
 192:../cleanflight/src/main/interface/smartaudio_protocol.c ****                 const smartaudioU8ResponseFrame_t *resp = (const smartaudioU8ResponseFrame_t*)buffe
 982              	 .loc 1 192 0
 983 00f4 3B68     	 ldr r3,[r7]
 984 00f6 FB60     	 str r3,[r7,#12]
 193:../cleanflight/src/main/interface/smartaudio_protocol.c ****                 smartaudioUnpackOperationMode(settings, resp->payload, false);
 985              	 .loc 1 193 0
 986 00f8 FB68     	 ldr r3,[r7,#12]
 987 00fa 1B79     	 ldrb r3,[r3,#4]
 988 00fc 7868     	 ldr r0,[r7,#4]
 989 00fe 1946     	 mov r1,r3
 990 0100 0022     	 movs r2,#0
 991 0102 FFF7FEFF 	 bl smartaudioUnpackOperationMode
 992              	.LBE7:
 194:../cleanflight/src/main/interface/smartaudio_protocol.c ****             }
 195:../cleanflight/src/main/interface/smartaudio_protocol.c ****             break;
 993              	 .loc 1 195 0
 994 0106 01E0     	 b .L37
 995              	.L29:
 196:../cleanflight/src/main/interface/smartaudio_protocol.c ****         default:
 197:../cleanflight/src/main/interface/smartaudio_protocol.c ****             return false;
 996              	 .loc 1 197 0
 997 0108 0023     	 movs r3,#0
 998 010a 00E0     	 b .L28
 999              	.L37:
 198:../cleanflight/src/main/interface/smartaudio_protocol.c ****     }
 199:../cleanflight/src/main/interface/smartaudio_protocol.c ****     return true;
 1000              	 .loc 1 199 0
 1001 010c 0123     	 movs r3,#1
 1002              	.L28:
 200:../cleanflight/src/main/interface/smartaudio_protocol.c **** }
 1003              	 .loc 1 200 0
 1004 010e 1846     	 mov r0,r3
 1005 0110 3037     	 adds r7,r7,#48
 1006              	.LCFI62:
 1007              	 .cfi_def_cfa_offset 8
 1008 0112 BD46     	 mov sp,r7
 1009              	.LCFI63:
 1010              	 .cfi_def_cfa_register 13
 1011              	 
 1012 0114 80BD     	 pop {r7,pc}
 1013              	 .cfi_endproc
 1014              	.LFE537:
 1016 0116 00BF     	 .text
 1017              	.Letext0:
 1018              	 .file 2 "d:\\xmc\\dave-ide-4.4.2-64bit\\eclipse\\arm-gcc-49\\arm-none-eabi\\include\\machine\\_default_types.h"
 1019              	 .file 3 "d:\\xmc\\dave-ide-4.4.2-64bit\\eclipse\\arm-gcc-49\\arm-none-eabi\\include\\stdint.h"
 1020              	 .file 4 "d:\\xmc\\dave-ide-4.4.2-64bit\\eclipse\\arm-gcc-49\\lib\\gcc\\arm-none-eabi\\4.9.3\\include\\stddef.h"
 1021              	 .file 5 "D:/XMC/Projekte/Temp/CF_XMC4700/cleanflight/src/main/drivers/io_types.h"
 1022              	 .file 6 "D:/XMC/Projekte/Temp/CF_XMC4700/cleanflight/src/main/drivers/serial.h"
 1023              	 .file 7 "D:/XMC/Projekte/Temp/CF_XMC4700/cleanflight/src/main/interface/smartaudio_protocol.h"
 1024              	 .file 8 "D:/XMC/Projekte/Temp/CF_XMC4700/cleanflight/lib/main/CMSIS/Core/Include/core_cm4.h"
 1025              	 .file 9 "D:/XMC/Projekte/Temp/CF_XMC4700/cleanflight/lib/main/XMC4000/system_XMC4700.h"