   1              	 .syntax unified
   2              	 .cpu cortex-m4
   3              	 .eabi_attribute 27,3
   4              	 .fpu fpv4-sp-d16
   5              	 .eabi_attribute 20,1
   6              	 .eabi_attribute 21,1
   7              	 .eabi_attribute 23,3
   8              	 .eabi_attribute 24,1
   9              	 .eabi_attribute 25,1
  10              	 .eabi_attribute 26,1
  11              	 .eabi_attribute 30,6
  12              	 .eabi_attribute 34,1
  13              	 .eabi_attribute 18,4
  14              	 .thumb
  15              	 .file "osd.c"
  16              	 .text
  17              	.Ltext0:
  18              	 .cfi_sections .debug_frame
  19              	 .section .text.cmp32,"ax",%progbits
  20              	 .align 2
  21              	 .thumb
  22              	 .thumb_func
  24              	cmp32:
  25              	.LFB520:
  26              	 .file 1 "D:/XMC/Projekte/Temp/CF_XMC4700/cleanflight/src/main/common/utils.h"
   1:D:/XMC/Projekte/Temp/CF_XMC4700/cleanflight/src/main/common\utils.h **** /*
   2:D:/XMC/Projekte/Temp/CF_XMC4700/cleanflight/src/main/common\utils.h ****  * This file is part of Cleanflight and Betaflight.
   3:D:/XMC/Projekte/Temp/CF_XMC4700/cleanflight/src/main/common\utils.h ****  *
   4:D:/XMC/Projekte/Temp/CF_XMC4700/cleanflight/src/main/common\utils.h ****  * Cleanflight and Betaflight are free software. You can redistribute
   5:D:/XMC/Projekte/Temp/CF_XMC4700/cleanflight/src/main/common\utils.h ****  * this software and/or modify this software under the terms of the
   6:D:/XMC/Projekte/Temp/CF_XMC4700/cleanflight/src/main/common\utils.h ****  * GNU General Public License as published by the Free Software
   7:D:/XMC/Projekte/Temp/CF_XMC4700/cleanflight/src/main/common\utils.h ****  * Foundation, either version 3 of the License, or (at your option)
   8:D:/XMC/Projekte/Temp/CF_XMC4700/cleanflight/src/main/common\utils.h ****  * any later version.
   9:D:/XMC/Projekte/Temp/CF_XMC4700/cleanflight/src/main/common\utils.h ****  *
  10:D:/XMC/Projekte/Temp/CF_XMC4700/cleanflight/src/main/common\utils.h ****  * Cleanflight and Betaflight are distributed in the hope that they
  11:D:/XMC/Projekte/Temp/CF_XMC4700/cleanflight/src/main/common\utils.h ****  * will be useful, but WITHOUT ANY WARRANTY; without even the implied
  12:D:/XMC/Projekte/Temp/CF_XMC4700/cleanflight/src/main/common\utils.h ****  * warranty of MERCHANTABILITY or FITNESS FOR A PARTICULAR PURPOSE.
  13:D:/XMC/Projekte/Temp/CF_XMC4700/cleanflight/src/main/common\utils.h ****  * See the GNU General Public License for more details.
  14:D:/XMC/Projekte/Temp/CF_XMC4700/cleanflight/src/main/common\utils.h ****  *
  15:D:/XMC/Projekte/Temp/CF_XMC4700/cleanflight/src/main/common\utils.h ****  * You should have received a copy of the GNU General Public License
  16:D:/XMC/Projekte/Temp/CF_XMC4700/cleanflight/src/main/common\utils.h ****  * along with this software.
  17:D:/XMC/Projekte/Temp/CF_XMC4700/cleanflight/src/main/common\utils.h ****  *
  18:D:/XMC/Projekte/Temp/CF_XMC4700/cleanflight/src/main/common\utils.h ****  * If not, see <http://www.gnu.org/licenses/>.
  19:D:/XMC/Projekte/Temp/CF_XMC4700/cleanflight/src/main/common\utils.h ****  */
  20:D:/XMC/Projekte/Temp/CF_XMC4700/cleanflight/src/main/common\utils.h **** 
  21:D:/XMC/Projekte/Temp/CF_XMC4700/cleanflight/src/main/common\utils.h **** #pragma once
  22:D:/XMC/Projekte/Temp/CF_XMC4700/cleanflight/src/main/common\utils.h **** 
  23:D:/XMC/Projekte/Temp/CF_XMC4700/cleanflight/src/main/common\utils.h **** #include <stddef.h>
  24:D:/XMC/Projekte/Temp/CF_XMC4700/cleanflight/src/main/common\utils.h **** #include <stdint.h>
  25:D:/XMC/Projekte/Temp/CF_XMC4700/cleanflight/src/main/common\utils.h **** 
  26:D:/XMC/Projekte/Temp/CF_XMC4700/cleanflight/src/main/common\utils.h **** #define NOOP do {} while (0)
  27:D:/XMC/Projekte/Temp/CF_XMC4700/cleanflight/src/main/common\utils.h **** 
  28:D:/XMC/Projekte/Temp/CF_XMC4700/cleanflight/src/main/common\utils.h **** #define ARRAYLEN(x) (sizeof(x) / sizeof((x)[0]))
  29:D:/XMC/Projekte/Temp/CF_XMC4700/cleanflight/src/main/common\utils.h **** #define ARRAYEND(x) (&(x)[ARRAYLEN(x)])
  30:D:/XMC/Projekte/Temp/CF_XMC4700/cleanflight/src/main/common\utils.h **** 
  31:D:/XMC/Projekte/Temp/CF_XMC4700/cleanflight/src/main/common\utils.h **** #define CONST_CAST(type, value) ((type)(value))
  32:D:/XMC/Projekte/Temp/CF_XMC4700/cleanflight/src/main/common\utils.h **** 
  33:D:/XMC/Projekte/Temp/CF_XMC4700/cleanflight/src/main/common\utils.h **** #define CONCAT_HELPER(x,y) x ## y
  34:D:/XMC/Projekte/Temp/CF_XMC4700/cleanflight/src/main/common\utils.h **** #define CONCAT(x,y) CONCAT_HELPER(x, y)
  35:D:/XMC/Projekte/Temp/CF_XMC4700/cleanflight/src/main/common\utils.h **** #define CONCAT2(_1,_2) CONCAT(_1, _2)
  36:D:/XMC/Projekte/Temp/CF_XMC4700/cleanflight/src/main/common\utils.h **** #define CONCAT3(_1,_2,_3)  CONCAT(CONCAT(_1, _2), _3)
  37:D:/XMC/Projekte/Temp/CF_XMC4700/cleanflight/src/main/common\utils.h **** #define CONCAT4(_1,_2,_3,_4)  CONCAT(CONCAT3(_1, _2, _3), _4)
  38:D:/XMC/Projekte/Temp/CF_XMC4700/cleanflight/src/main/common\utils.h **** 
  39:D:/XMC/Projekte/Temp/CF_XMC4700/cleanflight/src/main/common\utils.h **** #define STR_HELPER(x) #x
  40:D:/XMC/Projekte/Temp/CF_XMC4700/cleanflight/src/main/common\utils.h **** #define STR(x) STR_HELPER(x)
  41:D:/XMC/Projekte/Temp/CF_XMC4700/cleanflight/src/main/common\utils.h **** 
  42:D:/XMC/Projekte/Temp/CF_XMC4700/cleanflight/src/main/common\utils.h **** #define EXPAND_I(x) x
  43:D:/XMC/Projekte/Temp/CF_XMC4700/cleanflight/src/main/common\utils.h **** #define EXPAND(x) EXPAND_I(x)
  44:D:/XMC/Projekte/Temp/CF_XMC4700/cleanflight/src/main/common\utils.h **** 
  45:D:/XMC/Projekte/Temp/CF_XMC4700/cleanflight/src/main/common\utils.h **** // expand to t if bit is 1, f when bit is 0. Other bit values are not supported
  46:D:/XMC/Projekte/Temp/CF_XMC4700/cleanflight/src/main/common\utils.h **** #define PP_IIF(bit, t, f) PP_IIF_I(bit, t, f)
  47:D:/XMC/Projekte/Temp/CF_XMC4700/cleanflight/src/main/common\utils.h **** #define PP_IIF_I(bit, t, f) PP_IIF_ ## bit(t, f)
  48:D:/XMC/Projekte/Temp/CF_XMC4700/cleanflight/src/main/common\utils.h **** #define PP_IIF_0(t, f) f
  49:D:/XMC/Projekte/Temp/CF_XMC4700/cleanflight/src/main/common\utils.h **** #define PP_IIF_1(t, f) t
  50:D:/XMC/Projekte/Temp/CF_XMC4700/cleanflight/src/main/common\utils.h **** 
  51:D:/XMC/Projekte/Temp/CF_XMC4700/cleanflight/src/main/common\utils.h **** // Expand all argumens and call macro with them. When expansion of some argument contains ',', it w
  52:D:/XMC/Projekte/Temp/CF_XMC4700/cleanflight/src/main/common\utils.h **** // #define TAKE3(_1,_2,_3) CONCAT3(_1,_2,_3)
  53:D:/XMC/Projekte/Temp/CF_XMC4700/cleanflight/src/main/common\utils.h **** // #define MULTI2 A,B
  54:D:/XMC/Projekte/Temp/CF_XMC4700/cleanflight/src/main/common\utils.h **** // PP_CALL(TAKE3, MULTI2, C) expands to ABC
  55:D:/XMC/Projekte/Temp/CF_XMC4700/cleanflight/src/main/common\utils.h **** #define PP_CALL(macro, ...) macro(__VA_ARGS__)
  56:D:/XMC/Projekte/Temp/CF_XMC4700/cleanflight/src/main/common\utils.h **** 
  57:D:/XMC/Projekte/Temp/CF_XMC4700/cleanflight/src/main/common\utils.h **** #if !defined(UNUSED)
  58:D:/XMC/Projekte/Temp/CF_XMC4700/cleanflight/src/main/common\utils.h **** #define UNUSED(x) (void)(x)
  59:D:/XMC/Projekte/Temp/CF_XMC4700/cleanflight/src/main/common\utils.h **** #endif
  60:D:/XMC/Projekte/Temp/CF_XMC4700/cleanflight/src/main/common\utils.h **** #define BUILD_BUG_ON(condition) ((void)sizeof(char[1 - 2*!!(condition)]))
  61:D:/XMC/Projekte/Temp/CF_XMC4700/cleanflight/src/main/common\utils.h **** #define STATIC_ASSERT(condition, name) \
  62:D:/XMC/Projekte/Temp/CF_XMC4700/cleanflight/src/main/common\utils.h ****     typedef char assert_failed_ ## name [(condition) ? 1 : -1 ] __attribute__((unused))
  63:D:/XMC/Projekte/Temp/CF_XMC4700/cleanflight/src/main/common\utils.h **** 
  64:D:/XMC/Projekte/Temp/CF_XMC4700/cleanflight/src/main/common\utils.h **** 
  65:D:/XMC/Projekte/Temp/CF_XMC4700/cleanflight/src/main/common\utils.h **** #define BIT(x) (1 << (x))
  66:D:/XMC/Projekte/Temp/CF_XMC4700/cleanflight/src/main/common\utils.h **** 
  67:D:/XMC/Projekte/Temp/CF_XMC4700/cleanflight/src/main/common\utils.h **** /*
  68:D:/XMC/Projekte/Temp/CF_XMC4700/cleanflight/src/main/common\utils.h **** http://resnet.uoregon.edu/~gurney_j/jmpc/bitwise.html
  69:D:/XMC/Projekte/Temp/CF_XMC4700/cleanflight/src/main/common\utils.h **** */
  70:D:/XMC/Projekte/Temp/CF_XMC4700/cleanflight/src/main/common\utils.h **** #define BITCOUNT(x) (((BX_(x)+(BX_(x)>>4)) & 0x0F0F0F0F) % 255)
  71:D:/XMC/Projekte/Temp/CF_XMC4700/cleanflight/src/main/common\utils.h **** #define BX_(x) ((x) - (((x)>>1)&0x77777777) - (((x)>>2)&0x33333333) - (((x)>>3)&0x11111111))
  72:D:/XMC/Projekte/Temp/CF_XMC4700/cleanflight/src/main/common\utils.h **** 
  73:D:/XMC/Projekte/Temp/CF_XMC4700/cleanflight/src/main/common\utils.h **** 
  74:D:/XMC/Projekte/Temp/CF_XMC4700/cleanflight/src/main/common\utils.h **** /*
  75:D:/XMC/Projekte/Temp/CF_XMC4700/cleanflight/src/main/common\utils.h ****  * https://groups.google.com/forum/?hl=en#!msg/comp.lang.c/attFnqwhvGk/sGBKXvIkY3AJ
  76:D:/XMC/Projekte/Temp/CF_XMC4700/cleanflight/src/main/common\utils.h ****  * Return (v ? floor(log2(v)) : 0) when 0 <= v < 1<<[8, 16, 32, 64].
  77:D:/XMC/Projekte/Temp/CF_XMC4700/cleanflight/src/main/common\utils.h ****  * Inefficient algorithm, intended for compile-time constants.
  78:D:/XMC/Projekte/Temp/CF_XMC4700/cleanflight/src/main/common\utils.h ****  */
  79:D:/XMC/Projekte/Temp/CF_XMC4700/cleanflight/src/main/common\utils.h **** #define LOG2_8BIT(v)  (8 - 90/(((v)/4+14)|1) - 2/((v)/2+1))
  80:D:/XMC/Projekte/Temp/CF_XMC4700/cleanflight/src/main/common\utils.h **** #define LOG2_16BIT(v) (8*((v)>255) + LOG2_8BIT((v) >>8*((v)>255)))
  81:D:/XMC/Projekte/Temp/CF_XMC4700/cleanflight/src/main/common\utils.h **** #define LOG2_32BIT(v) (16*((v)>65535L) + LOG2_16BIT((v)*1L >>16*((v)>65535L)))
  82:D:/XMC/Projekte/Temp/CF_XMC4700/cleanflight/src/main/common\utils.h **** #define LOG2_64BIT(v) \
  83:D:/XMC/Projekte/Temp/CF_XMC4700/cleanflight/src/main/common\utils.h ****     (32*((v)/2L>>31 > 0) \
  84:D:/XMC/Projekte/Temp/CF_XMC4700/cleanflight/src/main/common\utils.h ****      + LOG2_32BIT((v)*1L >>16*((v)/2L>>31 > 0) \
  85:D:/XMC/Projekte/Temp/CF_XMC4700/cleanflight/src/main/common\utils.h ****                          >>16*((v)/2L>>31 > 0)))
  86:D:/XMC/Projekte/Temp/CF_XMC4700/cleanflight/src/main/common\utils.h **** #define LOG2(v) LOG2_64BIT(v)
  87:D:/XMC/Projekte/Temp/CF_XMC4700/cleanflight/src/main/common\utils.h **** 
  88:D:/XMC/Projekte/Temp/CF_XMC4700/cleanflight/src/main/common\utils.h **** #if 0
  89:D:/XMC/Projekte/Temp/CF_XMC4700/cleanflight/src/main/common\utils.h **** // ISO C version, but no type checking
  90:D:/XMC/Projekte/Temp/CF_XMC4700/cleanflight/src/main/common\utils.h **** #define container_of(ptr, type, member) \
  91:D:/XMC/Projekte/Temp/CF_XMC4700/cleanflight/src/main/common\utils.h ****                       ((type *) ((char *)(ptr) - offsetof(type, member)))
  92:D:/XMC/Projekte/Temp/CF_XMC4700/cleanflight/src/main/common\utils.h **** #else
  93:D:/XMC/Projekte/Temp/CF_XMC4700/cleanflight/src/main/common\utils.h **** // non ISO variant from linux kernel; checks ptr type, but triggers 'ISO C forbids braced-groups wi
  94:D:/XMC/Projekte/Temp/CF_XMC4700/cleanflight/src/main/common\utils.h **** //  __extension__ is here to disable this warning
  95:D:/XMC/Projekte/Temp/CF_XMC4700/cleanflight/src/main/common\utils.h **** #define container_of(ptr, type, member)  ( __extension__ ({     \
  96:D:/XMC/Projekte/Temp/CF_XMC4700/cleanflight/src/main/common\utils.h ****         const typeof( ((type *)0)->member ) *__mptr = (ptr);    \
  97:D:/XMC/Projekte/Temp/CF_XMC4700/cleanflight/src/main/common\utils.h ****         (type *)( (char *)__mptr - offsetof(type,member) );}))
  98:D:/XMC/Projekte/Temp/CF_XMC4700/cleanflight/src/main/common\utils.h **** 
  99:D:/XMC/Projekte/Temp/CF_XMC4700/cleanflight/src/main/common\utils.h **** static inline int16_t cmp16(uint16_t a, uint16_t b) { return (int16_t)(a-b); }
 100:D:/XMC/Projekte/Temp/CF_XMC4700/cleanflight/src/main/common\utils.h **** static inline int32_t cmp32(uint32_t a, uint32_t b) { return (int32_t)(a-b); }
  27              	 .loc 1 100 0
  28              	 .cfi_startproc
  29              	 
  30              	 
  31              	 
  32 0000 80B4     	 push {r7}
  33              	.LCFI0:
  34              	 .cfi_def_cfa_offset 4
  35              	 .cfi_offset 7,-4
  36 0002 83B0     	 sub sp,sp,#12
  37              	.LCFI1:
  38              	 .cfi_def_cfa_offset 16
  39 0004 00AF     	 add r7,sp,#0
  40              	.LCFI2:
  41              	 .cfi_def_cfa_register 7
  42 0006 7860     	 str r0,[r7,#4]
  43 0008 3960     	 str r1,[r7]
  44              	 .loc 1 100 0
  45 000a 7A68     	 ldr r2,[r7,#4]
  46 000c 3B68     	 ldr r3,[r7]
  47 000e D31A     	 subs r3,r2,r3
  48 0010 1846     	 mov r0,r3
  49 0012 0C37     	 adds r7,r7,#12
  50              	.LCFI3:
  51              	 .cfi_def_cfa_offset 4
  52 0014 BD46     	 mov sp,r7
  53              	.LCFI4:
  54              	 .cfi_def_cfa_register 13
  55              	 
  56 0016 5DF8047B 	 ldr r7,[sp],#4
  57              	.LCFI5:
  58              	 .cfi_restore 7
  59              	 .cfi_def_cfa_offset 0
  60 001a 7047     	 bx lr
  61              	 .cfi_endproc
  62              	.LFE520:
  64              	 .section .text.blackboxConfig,"ax",%progbits
  65              	 .align 2
  66              	 .thumb
  67              	 .thumb_func
  69              	blackboxConfig:
  70              	.LFB527:
  71              	 .file 2 "D:/XMC/Projekte/Temp/CF_XMC4700/cleanflight/src/main/blackbox/blackbox.h"
   1:D:/XMC/Projekte/Temp/CF_XMC4700/cleanflight/src/main/blackbox\blackbox.h **** /*
   2:D:/XMC/Projekte/Temp/CF_XMC4700/cleanflight/src/main/blackbox\blackbox.h ****  * This file is part of Cleanflight and Betaflight.
   3:D:/XMC/Projekte/Temp/CF_XMC4700/cleanflight/src/main/blackbox\blackbox.h ****  *
   4:D:/XMC/Projekte/Temp/CF_XMC4700/cleanflight/src/main/blackbox\blackbox.h ****  * Cleanflight and Betaflight are free software. You can redistribute
   5:D:/XMC/Projekte/Temp/CF_XMC4700/cleanflight/src/main/blackbox\blackbox.h ****  * this software and/or modify this software under the terms of the
   6:D:/XMC/Projekte/Temp/CF_XMC4700/cleanflight/src/main/blackbox\blackbox.h ****  * GNU General Public License as published by the Free Software
   7:D:/XMC/Projekte/Temp/CF_XMC4700/cleanflight/src/main/blackbox\blackbox.h ****  * Foundation, either version 3 of the License, or (at your option)
   8:D:/XMC/Projekte/Temp/CF_XMC4700/cleanflight/src/main/blackbox\blackbox.h ****  * any later version.
   9:D:/XMC/Projekte/Temp/CF_XMC4700/cleanflight/src/main/blackbox\blackbox.h ****  *
  10:D:/XMC/Projekte/Temp/CF_XMC4700/cleanflight/src/main/blackbox\blackbox.h ****  * Cleanflight and Betaflight are distributed in the hope that they
  11:D:/XMC/Projekte/Temp/CF_XMC4700/cleanflight/src/main/blackbox\blackbox.h ****  * will be useful, but WITHOUT ANY WARRANTY; without even the implied
  12:D:/XMC/Projekte/Temp/CF_XMC4700/cleanflight/src/main/blackbox\blackbox.h ****  * warranty of MERCHANTABILITY or FITNESS FOR A PARTICULAR PURPOSE.
  13:D:/XMC/Projekte/Temp/CF_XMC4700/cleanflight/src/main/blackbox\blackbox.h ****  * See the GNU General Public License for more details.
  14:D:/XMC/Projekte/Temp/CF_XMC4700/cleanflight/src/main/blackbox\blackbox.h ****  *
  15:D:/XMC/Projekte/Temp/CF_XMC4700/cleanflight/src/main/blackbox\blackbox.h ****  * You should have received a copy of the GNU General Public License
  16:D:/XMC/Projekte/Temp/CF_XMC4700/cleanflight/src/main/blackbox\blackbox.h ****  * along with this software.
  17:D:/XMC/Projekte/Temp/CF_XMC4700/cleanflight/src/main/blackbox\blackbox.h ****  *
  18:D:/XMC/Projekte/Temp/CF_XMC4700/cleanflight/src/main/blackbox\blackbox.h ****  * If not, see <http://www.gnu.org/licenses/>.
  19:D:/XMC/Projekte/Temp/CF_XMC4700/cleanflight/src/main/blackbox\blackbox.h ****  */
  20:D:/XMC/Projekte/Temp/CF_XMC4700/cleanflight/src/main/blackbox\blackbox.h **** 
  21:D:/XMC/Projekte/Temp/CF_XMC4700/cleanflight/src/main/blackbox\blackbox.h **** #pragma once
  22:D:/XMC/Projekte/Temp/CF_XMC4700/cleanflight/src/main/blackbox\blackbox.h **** 
  23:D:/XMC/Projekte/Temp/CF_XMC4700/cleanflight/src/main/blackbox\blackbox.h **** #include "platform.h"
  24:D:/XMC/Projekte/Temp/CF_XMC4700/cleanflight/src/main/blackbox\blackbox.h **** #include "build/build_config.h"
  25:D:/XMC/Projekte/Temp/CF_XMC4700/cleanflight/src/main/blackbox\blackbox.h **** #include "common/time.h"
  26:D:/XMC/Projekte/Temp/CF_XMC4700/cleanflight/src/main/blackbox\blackbox.h **** #include "pg/pg.h"
  27:D:/XMC/Projekte/Temp/CF_XMC4700/cleanflight/src/main/blackbox\blackbox.h **** 
  28:D:/XMC/Projekte/Temp/CF_XMC4700/cleanflight/src/main/blackbox\blackbox.h **** typedef enum BlackboxDevice {
  29:D:/XMC/Projekte/Temp/CF_XMC4700/cleanflight/src/main/blackbox\blackbox.h ****     BLACKBOX_DEVICE_NONE = 0,
  30:D:/XMC/Projekte/Temp/CF_XMC4700/cleanflight/src/main/blackbox\blackbox.h **** #ifdef USE_FLASHFS
  31:D:/XMC/Projekte/Temp/CF_XMC4700/cleanflight/src/main/blackbox\blackbox.h ****     BLACKBOX_DEVICE_FLASH = 1,
  32:D:/XMC/Projekte/Temp/CF_XMC4700/cleanflight/src/main/blackbox\blackbox.h **** #endif
  33:D:/XMC/Projekte/Temp/CF_XMC4700/cleanflight/src/main/blackbox\blackbox.h **** #ifdef USE_SDCARD
  34:D:/XMC/Projekte/Temp/CF_XMC4700/cleanflight/src/main/blackbox\blackbox.h ****     BLACKBOX_DEVICE_SDCARD = 2,
  35:D:/XMC/Projekte/Temp/CF_XMC4700/cleanflight/src/main/blackbox\blackbox.h **** #endif
  36:D:/XMC/Projekte/Temp/CF_XMC4700/cleanflight/src/main/blackbox\blackbox.h ****     BLACKBOX_DEVICE_SERIAL = 3
  37:D:/XMC/Projekte/Temp/CF_XMC4700/cleanflight/src/main/blackbox\blackbox.h **** } BlackboxDevice_e;
  38:D:/XMC/Projekte/Temp/CF_XMC4700/cleanflight/src/main/blackbox\blackbox.h **** 
  39:D:/XMC/Projekte/Temp/CF_XMC4700/cleanflight/src/main/blackbox\blackbox.h **** typedef enum BlackboxMode {
  40:D:/XMC/Projekte/Temp/CF_XMC4700/cleanflight/src/main/blackbox\blackbox.h ****     BLACKBOX_MODE_NORMAL = 0,
  41:D:/XMC/Projekte/Temp/CF_XMC4700/cleanflight/src/main/blackbox\blackbox.h ****     BLACKBOX_MODE_MOTOR_TEST,
  42:D:/XMC/Projekte/Temp/CF_XMC4700/cleanflight/src/main/blackbox\blackbox.h ****     BLACKBOX_MODE_ALWAYS_ON
  43:D:/XMC/Projekte/Temp/CF_XMC4700/cleanflight/src/main/blackbox\blackbox.h **** } BlackboxMode;
  44:D:/XMC/Projekte/Temp/CF_XMC4700/cleanflight/src/main/blackbox\blackbox.h **** 
  45:D:/XMC/Projekte/Temp/CF_XMC4700/cleanflight/src/main/blackbox\blackbox.h **** typedef enum FlightLogEvent {
  46:D:/XMC/Projekte/Temp/CF_XMC4700/cleanflight/src/main/blackbox\blackbox.h ****     FLIGHT_LOG_EVENT_SYNC_BEEP = 0,
  47:D:/XMC/Projekte/Temp/CF_XMC4700/cleanflight/src/main/blackbox\blackbox.h ****     FLIGHT_LOG_EVENT_INFLIGHT_ADJUSTMENT = 13,
  48:D:/XMC/Projekte/Temp/CF_XMC4700/cleanflight/src/main/blackbox\blackbox.h ****     FLIGHT_LOG_EVENT_LOGGING_RESUME = 14,
  49:D:/XMC/Projekte/Temp/CF_XMC4700/cleanflight/src/main/blackbox\blackbox.h ****     FLIGHT_LOG_EVENT_FLIGHTMODE = 30, // Add new event type for flight mode status.
  50:D:/XMC/Projekte/Temp/CF_XMC4700/cleanflight/src/main/blackbox\blackbox.h ****     FLIGHT_LOG_EVENT_LOG_END = 255
  51:D:/XMC/Projekte/Temp/CF_XMC4700/cleanflight/src/main/blackbox\blackbox.h **** } FlightLogEvent;
  52:D:/XMC/Projekte/Temp/CF_XMC4700/cleanflight/src/main/blackbox\blackbox.h **** 
  53:D:/XMC/Projekte/Temp/CF_XMC4700/cleanflight/src/main/blackbox\blackbox.h **** typedef struct blackboxConfig_s {
  54:D:/XMC/Projekte/Temp/CF_XMC4700/cleanflight/src/main/blackbox\blackbox.h ****     uint16_t p_ratio; // I-frame interval / P-frame interval
  55:D:/XMC/Projekte/Temp/CF_XMC4700/cleanflight/src/main/blackbox\blackbox.h ****     uint8_t device;
  56:D:/XMC/Projekte/Temp/CF_XMC4700/cleanflight/src/main/blackbox\blackbox.h ****     uint8_t record_acc;
  57:D:/XMC/Projekte/Temp/CF_XMC4700/cleanflight/src/main/blackbox\blackbox.h ****     uint8_t mode;
  58:D:/XMC/Projekte/Temp/CF_XMC4700/cleanflight/src/main/blackbox\blackbox.h **** } blackboxConfig_t;
  59:D:/XMC/Projekte/Temp/CF_XMC4700/cleanflight/src/main/blackbox\blackbox.h **** 
  60:D:/XMC/Projekte/Temp/CF_XMC4700/cleanflight/src/main/blackbox\blackbox.h **** PG_DECLARE(blackboxConfig_t, blackboxConfig);
  72              	 .loc 2 60 0
  73              	 .cfi_startproc
  74              	 
  75              	 
  76              	 
  77 0000 80B4     	 push {r7}
  78              	.LCFI6:
  79              	 .cfi_def_cfa_offset 4
  80              	 .cfi_offset 7,-4
  81 0002 00AF     	 add r7,sp,#0
  82              	.LCFI7:
  83              	 .cfi_def_cfa_register 7
  84              	 .loc 2 60 0
  85 0004 024B     	 ldr r3,.L5
  86 0006 1846     	 mov r0,r3
  87 0008 BD46     	 mov sp,r7
  88              	.LCFI8:
  89              	 .cfi_def_cfa_register 13
  90              	 
  91 000a 5DF8047B 	 ldr r7,[sp],#4
  92              	.LCFI9:
  93              	 .cfi_restore 7
  94              	 .cfi_def_cfa_offset 0
  95 000e 7047     	 bx lr
  96              	.L6:
  97              	 .align 2
  98              	.L5:
  99 0010 00000000 	 .word blackboxConfig_System
 100              	 .cfi_endproc
 101              	.LFE527:
 103              	 .comm pCurrentDisplay,4,4
 104              	 .section .text.constrain,"ax",%progbits
 105              	 .align 2
 106              	 .thumb
 107              	 .thumb_func
 109              	constrain:
 110              	.LFB529:
 111              	 .file 3 "D:/XMC/Projekte/Temp/CF_XMC4700/cleanflight/src/main/common/maths.h"
   1:D:/XMC/Projekte/Temp/CF_XMC4700/cleanflight/src/main/common\maths.h **** /*
   2:D:/XMC/Projekte/Temp/CF_XMC4700/cleanflight/src/main/common\maths.h ****  * This file is part of Cleanflight and Betaflight.
   3:D:/XMC/Projekte/Temp/CF_XMC4700/cleanflight/src/main/common\maths.h ****  *
   4:D:/XMC/Projekte/Temp/CF_XMC4700/cleanflight/src/main/common\maths.h ****  * Cleanflight and Betaflight are free software. You can redistribute
   5:D:/XMC/Projekte/Temp/CF_XMC4700/cleanflight/src/main/common\maths.h ****  * this software and/or modify this software under the terms of the
   6:D:/XMC/Projekte/Temp/CF_XMC4700/cleanflight/src/main/common\maths.h ****  * GNU General Public License as published by the Free Software
   7:D:/XMC/Projekte/Temp/CF_XMC4700/cleanflight/src/main/common\maths.h ****  * Foundation, either version 3 of the License, or (at your option)
   8:D:/XMC/Projekte/Temp/CF_XMC4700/cleanflight/src/main/common\maths.h ****  * any later version.
   9:D:/XMC/Projekte/Temp/CF_XMC4700/cleanflight/src/main/common\maths.h ****  *
  10:D:/XMC/Projekte/Temp/CF_XMC4700/cleanflight/src/main/common\maths.h ****  * Cleanflight and Betaflight are distributed in the hope that they
  11:D:/XMC/Projekte/Temp/CF_XMC4700/cleanflight/src/main/common\maths.h ****  * will be useful, but WITHOUT ANY WARRANTY; without even the implied
  12:D:/XMC/Projekte/Temp/CF_XMC4700/cleanflight/src/main/common\maths.h ****  * warranty of MERCHANTABILITY or FITNESS FOR A PARTICULAR PURPOSE.
  13:D:/XMC/Projekte/Temp/CF_XMC4700/cleanflight/src/main/common\maths.h ****  * See the GNU General Public License for more details.
  14:D:/XMC/Projekte/Temp/CF_XMC4700/cleanflight/src/main/common\maths.h ****  *
  15:D:/XMC/Projekte/Temp/CF_XMC4700/cleanflight/src/main/common\maths.h ****  * You should have received a copy of the GNU General Public License
  16:D:/XMC/Projekte/Temp/CF_XMC4700/cleanflight/src/main/common\maths.h ****  * along with this software.
  17:D:/XMC/Projekte/Temp/CF_XMC4700/cleanflight/src/main/common\maths.h ****  *
  18:D:/XMC/Projekte/Temp/CF_XMC4700/cleanflight/src/main/common\maths.h ****  * If not, see <http://www.gnu.org/licenses/>.
  19:D:/XMC/Projekte/Temp/CF_XMC4700/cleanflight/src/main/common\maths.h ****  */
  20:D:/XMC/Projekte/Temp/CF_XMC4700/cleanflight/src/main/common\maths.h **** 
  21:D:/XMC/Projekte/Temp/CF_XMC4700/cleanflight/src/main/common\maths.h **** #pragma once
  22:D:/XMC/Projekte/Temp/CF_XMC4700/cleanflight/src/main/common\maths.h **** 
  23:D:/XMC/Projekte/Temp/CF_XMC4700/cleanflight/src/main/common\maths.h **** #include <stdint.h>
  24:D:/XMC/Projekte/Temp/CF_XMC4700/cleanflight/src/main/common\maths.h **** 
  25:D:/XMC/Projekte/Temp/CF_XMC4700/cleanflight/src/main/common\maths.h **** #ifndef sq
  26:D:/XMC/Projekte/Temp/CF_XMC4700/cleanflight/src/main/common\maths.h **** #define sq(x) ((x)*(x))
  27:D:/XMC/Projekte/Temp/CF_XMC4700/cleanflight/src/main/common\maths.h **** #endif
  28:D:/XMC/Projekte/Temp/CF_XMC4700/cleanflight/src/main/common\maths.h **** #define power3(x) ((x)*(x)*(x))
  29:D:/XMC/Projekte/Temp/CF_XMC4700/cleanflight/src/main/common\maths.h **** 
  30:D:/XMC/Projekte/Temp/CF_XMC4700/cleanflight/src/main/common\maths.h **** // Undefine this for use libc sinf/cosf. Keep this defined to use fast sin/cos approximations
  31:D:/XMC/Projekte/Temp/CF_XMC4700/cleanflight/src/main/common\maths.h **** #define FAST_MATH             // order 9 approximation
  32:D:/XMC/Projekte/Temp/CF_XMC4700/cleanflight/src/main/common\maths.h **** #define VERY_FAST_MATH      // order 7 approximation
  33:D:/XMC/Projekte/Temp/CF_XMC4700/cleanflight/src/main/common\maths.h **** 
  34:D:/XMC/Projekte/Temp/CF_XMC4700/cleanflight/src/main/common\maths.h **** // Use floating point M_PI instead explicitly.
  35:D:/XMC/Projekte/Temp/CF_XMC4700/cleanflight/src/main/common\maths.h **** #define M_PIf       3.14159265358979323846f
  36:D:/XMC/Projekte/Temp/CF_XMC4700/cleanflight/src/main/common\maths.h **** 
  37:D:/XMC/Projekte/Temp/CF_XMC4700/cleanflight/src/main/common\maths.h **** #define RAD    (M_PIf / 180.0f)
  38:D:/XMC/Projekte/Temp/CF_XMC4700/cleanflight/src/main/common\maths.h **** #define DEGREES_TO_DECIDEGREES(angle) ((angle) * 10)
  39:D:/XMC/Projekte/Temp/CF_XMC4700/cleanflight/src/main/common\maths.h **** #define DECIDEGREES_TO_DEGREES(angle) ((angle) / 10)
  40:D:/XMC/Projekte/Temp/CF_XMC4700/cleanflight/src/main/common\maths.h **** #define DECIDEGREES_TO_RADIANS(angle) ((angle) / 10.0f * 0.0174532925f)
  41:D:/XMC/Projekte/Temp/CF_XMC4700/cleanflight/src/main/common\maths.h **** #define DEGREES_TO_RADIANS(angle) ((angle) * 0.0174532925f)
  42:D:/XMC/Projekte/Temp/CF_XMC4700/cleanflight/src/main/common\maths.h **** 
  43:D:/XMC/Projekte/Temp/CF_XMC4700/cleanflight/src/main/common\maths.h **** #define CM_S_TO_KM_H(centimetersPerSecond) ((centimetersPerSecond) * 36 / 1000)
  44:D:/XMC/Projekte/Temp/CF_XMC4700/cleanflight/src/main/common\maths.h **** #define CM_S_TO_MPH(centimetersPerSecond) ((centimetersPerSecond) * 10000 / 5080 / 88)
  45:D:/XMC/Projekte/Temp/CF_XMC4700/cleanflight/src/main/common\maths.h **** 
  46:D:/XMC/Projekte/Temp/CF_XMC4700/cleanflight/src/main/common\maths.h **** #define MIN(a,b) \
  47:D:/XMC/Projekte/Temp/CF_XMC4700/cleanflight/src/main/common\maths.h ****   __extension__ ({ __typeof__ (a) _a = (a); \
  48:D:/XMC/Projekte/Temp/CF_XMC4700/cleanflight/src/main/common\maths.h ****   __typeof__ (b) _b = (b); \
  49:D:/XMC/Projekte/Temp/CF_XMC4700/cleanflight/src/main/common\maths.h ****   _a < _b ? _a : _b; })
  50:D:/XMC/Projekte/Temp/CF_XMC4700/cleanflight/src/main/common\maths.h **** #define MAX(a,b) \
  51:D:/XMC/Projekte/Temp/CF_XMC4700/cleanflight/src/main/common\maths.h ****   __extension__ ({ __typeof__ (a) _a = (a); \
  52:D:/XMC/Projekte/Temp/CF_XMC4700/cleanflight/src/main/common\maths.h ****   __typeof__ (b) _b = (b); \
  53:D:/XMC/Projekte/Temp/CF_XMC4700/cleanflight/src/main/common\maths.h ****   _a > _b ? _a : _b; })
  54:D:/XMC/Projekte/Temp/CF_XMC4700/cleanflight/src/main/common\maths.h **** #define ABS(x) \
  55:D:/XMC/Projekte/Temp/CF_XMC4700/cleanflight/src/main/common\maths.h ****   __extension__ ({ __typeof__ (x) _x = (x); \
  56:D:/XMC/Projekte/Temp/CF_XMC4700/cleanflight/src/main/common\maths.h ****   _x > 0 ? _x : -_x; })
  57:D:/XMC/Projekte/Temp/CF_XMC4700/cleanflight/src/main/common\maths.h **** 
  58:D:/XMC/Projekte/Temp/CF_XMC4700/cleanflight/src/main/common\maths.h **** #define Q12 (1 << 12)
  59:D:/XMC/Projekte/Temp/CF_XMC4700/cleanflight/src/main/common\maths.h **** 
  60:D:/XMC/Projekte/Temp/CF_XMC4700/cleanflight/src/main/common\maths.h **** #define HZ_TO_INTERVAL_US(x) (1000000 / (x))
  61:D:/XMC/Projekte/Temp/CF_XMC4700/cleanflight/src/main/common\maths.h **** 
  62:D:/XMC/Projekte/Temp/CF_XMC4700/cleanflight/src/main/common\maths.h **** typedef int32_t fix12_t;
  63:D:/XMC/Projekte/Temp/CF_XMC4700/cleanflight/src/main/common\maths.h **** 
  64:D:/XMC/Projekte/Temp/CF_XMC4700/cleanflight/src/main/common\maths.h **** typedef struct stdev_s
  65:D:/XMC/Projekte/Temp/CF_XMC4700/cleanflight/src/main/common\maths.h **** {
  66:D:/XMC/Projekte/Temp/CF_XMC4700/cleanflight/src/main/common\maths.h ****     float m_oldM, m_newM, m_oldS, m_newS;
  67:D:/XMC/Projekte/Temp/CF_XMC4700/cleanflight/src/main/common\maths.h ****     int m_n;
  68:D:/XMC/Projekte/Temp/CF_XMC4700/cleanflight/src/main/common\maths.h **** } stdev_t;
  69:D:/XMC/Projekte/Temp/CF_XMC4700/cleanflight/src/main/common\maths.h **** 
  70:D:/XMC/Projekte/Temp/CF_XMC4700/cleanflight/src/main/common\maths.h **** // Floating point 3 vector.
  71:D:/XMC/Projekte/Temp/CF_XMC4700/cleanflight/src/main/common\maths.h **** typedef struct fp_vector {
  72:D:/XMC/Projekte/Temp/CF_XMC4700/cleanflight/src/main/common\maths.h ****     float X;
  73:D:/XMC/Projekte/Temp/CF_XMC4700/cleanflight/src/main/common\maths.h ****     float Y;
  74:D:/XMC/Projekte/Temp/CF_XMC4700/cleanflight/src/main/common\maths.h ****     float Z;
  75:D:/XMC/Projekte/Temp/CF_XMC4700/cleanflight/src/main/common\maths.h **** } t_fp_vector_def;
  76:D:/XMC/Projekte/Temp/CF_XMC4700/cleanflight/src/main/common\maths.h **** 
  77:D:/XMC/Projekte/Temp/CF_XMC4700/cleanflight/src/main/common\maths.h **** typedef union u_fp_vector {
  78:D:/XMC/Projekte/Temp/CF_XMC4700/cleanflight/src/main/common\maths.h ****     float A[3];
  79:D:/XMC/Projekte/Temp/CF_XMC4700/cleanflight/src/main/common\maths.h ****     t_fp_vector_def V;
  80:D:/XMC/Projekte/Temp/CF_XMC4700/cleanflight/src/main/common\maths.h **** } t_fp_vector;
  81:D:/XMC/Projekte/Temp/CF_XMC4700/cleanflight/src/main/common\maths.h **** 
  82:D:/XMC/Projekte/Temp/CF_XMC4700/cleanflight/src/main/common\maths.h **** // Floating point Euler angles.
  83:D:/XMC/Projekte/Temp/CF_XMC4700/cleanflight/src/main/common\maths.h **** // Be carefull, could be either of degrees or radians.
  84:D:/XMC/Projekte/Temp/CF_XMC4700/cleanflight/src/main/common\maths.h **** typedef struct fp_angles {
  85:D:/XMC/Projekte/Temp/CF_XMC4700/cleanflight/src/main/common\maths.h ****     float roll;
  86:D:/XMC/Projekte/Temp/CF_XMC4700/cleanflight/src/main/common\maths.h ****     float pitch;
  87:D:/XMC/Projekte/Temp/CF_XMC4700/cleanflight/src/main/common\maths.h ****     float yaw;
  88:D:/XMC/Projekte/Temp/CF_XMC4700/cleanflight/src/main/common\maths.h **** } fp_angles_def;
  89:D:/XMC/Projekte/Temp/CF_XMC4700/cleanflight/src/main/common\maths.h **** 
  90:D:/XMC/Projekte/Temp/CF_XMC4700/cleanflight/src/main/common\maths.h **** typedef union {
  91:D:/XMC/Projekte/Temp/CF_XMC4700/cleanflight/src/main/common\maths.h ****     float raw[3];
  92:D:/XMC/Projekte/Temp/CF_XMC4700/cleanflight/src/main/common\maths.h ****     fp_angles_def angles;
  93:D:/XMC/Projekte/Temp/CF_XMC4700/cleanflight/src/main/common\maths.h **** } fp_angles_t;
  94:D:/XMC/Projekte/Temp/CF_XMC4700/cleanflight/src/main/common\maths.h **** 
  95:D:/XMC/Projekte/Temp/CF_XMC4700/cleanflight/src/main/common\maths.h **** int gcd(int num, int denom);
  96:D:/XMC/Projekte/Temp/CF_XMC4700/cleanflight/src/main/common\maths.h **** float powerf(float base, int exp);
  97:D:/XMC/Projekte/Temp/CF_XMC4700/cleanflight/src/main/common\maths.h **** int32_t applyDeadband(int32_t value, int32_t deadband);
  98:D:/XMC/Projekte/Temp/CF_XMC4700/cleanflight/src/main/common\maths.h **** float fapplyDeadband(float value, float deadband);
  99:D:/XMC/Projekte/Temp/CF_XMC4700/cleanflight/src/main/common\maths.h **** 
 100:D:/XMC/Projekte/Temp/CF_XMC4700/cleanflight/src/main/common\maths.h **** void devClear(stdev_t *dev);
 101:D:/XMC/Projekte/Temp/CF_XMC4700/cleanflight/src/main/common\maths.h **** void devPush(stdev_t *dev, float x);
 102:D:/XMC/Projekte/Temp/CF_XMC4700/cleanflight/src/main/common\maths.h **** float devVariance(stdev_t *dev);
 103:D:/XMC/Projekte/Temp/CF_XMC4700/cleanflight/src/main/common\maths.h **** float devStandardDeviation(stdev_t *dev);
 104:D:/XMC/Projekte/Temp/CF_XMC4700/cleanflight/src/main/common\maths.h **** float degreesToRadians(int16_t degrees);
 105:D:/XMC/Projekte/Temp/CF_XMC4700/cleanflight/src/main/common\maths.h **** 
 106:D:/XMC/Projekte/Temp/CF_XMC4700/cleanflight/src/main/common\maths.h **** int scaleRange(int x, int srcFrom, int srcTo, int destFrom, int destTo);
 107:D:/XMC/Projekte/Temp/CF_XMC4700/cleanflight/src/main/common\maths.h **** float scaleRangef(float x, float srcFrom, float srcTo, float destFrom, float destTo);
 108:D:/XMC/Projekte/Temp/CF_XMC4700/cleanflight/src/main/common\maths.h **** 
 109:D:/XMC/Projekte/Temp/CF_XMC4700/cleanflight/src/main/common\maths.h **** void normalizeV(struct fp_vector *src, struct fp_vector *dest);
 110:D:/XMC/Projekte/Temp/CF_XMC4700/cleanflight/src/main/common\maths.h **** 
 111:D:/XMC/Projekte/Temp/CF_XMC4700/cleanflight/src/main/common\maths.h **** void rotateV(struct fp_vector *v, fp_angles_t *delta);
 112:D:/XMC/Projekte/Temp/CF_XMC4700/cleanflight/src/main/common\maths.h **** void buildRotationMatrix(fp_angles_t *delta, float matrix[3][3]);
 113:D:/XMC/Projekte/Temp/CF_XMC4700/cleanflight/src/main/common\maths.h **** 
 114:D:/XMC/Projekte/Temp/CF_XMC4700/cleanflight/src/main/common\maths.h **** int32_t quickMedianFilter3(int32_t * v);
 115:D:/XMC/Projekte/Temp/CF_XMC4700/cleanflight/src/main/common\maths.h **** int32_t quickMedianFilter5(int32_t * v);
 116:D:/XMC/Projekte/Temp/CF_XMC4700/cleanflight/src/main/common\maths.h **** int32_t quickMedianFilter7(int32_t * v);
 117:D:/XMC/Projekte/Temp/CF_XMC4700/cleanflight/src/main/common\maths.h **** int32_t quickMedianFilter9(int32_t * v);
 118:D:/XMC/Projekte/Temp/CF_XMC4700/cleanflight/src/main/common\maths.h **** 
 119:D:/XMC/Projekte/Temp/CF_XMC4700/cleanflight/src/main/common\maths.h **** float quickMedianFilter3f(float * v);
 120:D:/XMC/Projekte/Temp/CF_XMC4700/cleanflight/src/main/common\maths.h **** float quickMedianFilter5f(float * v);
 121:D:/XMC/Projekte/Temp/CF_XMC4700/cleanflight/src/main/common\maths.h **** float quickMedianFilter7f(float * v);
 122:D:/XMC/Projekte/Temp/CF_XMC4700/cleanflight/src/main/common\maths.h **** float quickMedianFilter9f(float * v);
 123:D:/XMC/Projekte/Temp/CF_XMC4700/cleanflight/src/main/common\maths.h **** 
 124:D:/XMC/Projekte/Temp/CF_XMC4700/cleanflight/src/main/common\maths.h **** #if defined(FAST_MATH) || defined(VERY_FAST_MATH)
 125:D:/XMC/Projekte/Temp/CF_XMC4700/cleanflight/src/main/common\maths.h **** float sin_approx(float x);
 126:D:/XMC/Projekte/Temp/CF_XMC4700/cleanflight/src/main/common\maths.h **** float cos_approx(float x);
 127:D:/XMC/Projekte/Temp/CF_XMC4700/cleanflight/src/main/common\maths.h **** float atan2_approx(float y, float x);
 128:D:/XMC/Projekte/Temp/CF_XMC4700/cleanflight/src/main/common\maths.h **** float acos_approx(float x);
 129:D:/XMC/Projekte/Temp/CF_XMC4700/cleanflight/src/main/common\maths.h **** #define tan_approx(x)       (sin_approx(x) / cos_approx(x))
 130:D:/XMC/Projekte/Temp/CF_XMC4700/cleanflight/src/main/common\maths.h **** float exp_approx(float val);
 131:D:/XMC/Projekte/Temp/CF_XMC4700/cleanflight/src/main/common\maths.h **** float log_approx(float val);
 132:D:/XMC/Projekte/Temp/CF_XMC4700/cleanflight/src/main/common\maths.h **** float pow_approx(float a, float b);
 133:D:/XMC/Projekte/Temp/CF_XMC4700/cleanflight/src/main/common\maths.h **** #else
 134:D:/XMC/Projekte/Temp/CF_XMC4700/cleanflight/src/main/common\maths.h **** #define sin_approx(x)   sinf(x)
 135:D:/XMC/Projekte/Temp/CF_XMC4700/cleanflight/src/main/common\maths.h **** #define cos_approx(x)   cosf(x)
 136:D:/XMC/Projekte/Temp/CF_XMC4700/cleanflight/src/main/common\maths.h **** #define atan2_approx(y,x)   atan2f(y,x)
 137:D:/XMC/Projekte/Temp/CF_XMC4700/cleanflight/src/main/common\maths.h **** #define acos_approx(x)      acosf(x)
 138:D:/XMC/Projekte/Temp/CF_XMC4700/cleanflight/src/main/common\maths.h **** #define tan_approx(x)       tanf(x)
 139:D:/XMC/Projekte/Temp/CF_XMC4700/cleanflight/src/main/common\maths.h **** #define exp_approx(x)       expf(x)
 140:D:/XMC/Projekte/Temp/CF_XMC4700/cleanflight/src/main/common\maths.h **** #define log_approx(x)       logf(x)
 141:D:/XMC/Projekte/Temp/CF_XMC4700/cleanflight/src/main/common\maths.h **** #define pow_approx(a, b)    powf(b, a)
 142:D:/XMC/Projekte/Temp/CF_XMC4700/cleanflight/src/main/common\maths.h **** #endif
 143:D:/XMC/Projekte/Temp/CF_XMC4700/cleanflight/src/main/common\maths.h **** 
 144:D:/XMC/Projekte/Temp/CF_XMC4700/cleanflight/src/main/common\maths.h **** void arraySubInt32(int32_t *dest, int32_t *array1, int32_t *array2, int count);
 145:D:/XMC/Projekte/Temp/CF_XMC4700/cleanflight/src/main/common\maths.h **** 
 146:D:/XMC/Projekte/Temp/CF_XMC4700/cleanflight/src/main/common\maths.h **** int16_t qPercent(fix12_t q);
 147:D:/XMC/Projekte/Temp/CF_XMC4700/cleanflight/src/main/common\maths.h **** int16_t qMultiply(fix12_t q, int16_t input);
 148:D:/XMC/Projekte/Temp/CF_XMC4700/cleanflight/src/main/common\maths.h **** fix12_t qConstruct(int16_t num, int16_t den);
 149:D:/XMC/Projekte/Temp/CF_XMC4700/cleanflight/src/main/common\maths.h **** 
 150:D:/XMC/Projekte/Temp/CF_XMC4700/cleanflight/src/main/common\maths.h **** static inline int constrain(int amt, int low, int high)
 151:D:/XMC/Projekte/Temp/CF_XMC4700/cleanflight/src/main/common\maths.h **** {
 112              	 .loc 3 151 0
 113              	 .cfi_startproc
 114              	 
 115              	 
 116              	 
 117 0000 80B4     	 push {r7}
 118              	.LCFI10:
 119              	 .cfi_def_cfa_offset 4
 120              	 .cfi_offset 7,-4
 121 0002 85B0     	 sub sp,sp,#20
 122              	.LCFI11:
 123              	 .cfi_def_cfa_offset 24
 124 0004 00AF     	 add r7,sp,#0
 125              	.LCFI12:
 126              	 .cfi_def_cfa_register 7
 127 0006 F860     	 str r0,[r7,#12]
 128 0008 B960     	 str r1,[r7,#8]
 129 000a 7A60     	 str r2,[r7,#4]
 152:D:/XMC/Projekte/Temp/CF_XMC4700/cleanflight/src/main/common\maths.h ****     if (amt < low)
 130              	 .loc 3 152 0
 131 000c FA68     	 ldr r2,[r7,#12]
 132 000e BB68     	 ldr r3,[r7,#8]
 133 0010 9A42     	 cmp r2,r3
 134 0012 01DA     	 bge .L8
 153:D:/XMC/Projekte/Temp/CF_XMC4700/cleanflight/src/main/common\maths.h ****         return low;
 135              	 .loc 3 153 0
 136 0014 BB68     	 ldr r3,[r7,#8]
 137 0016 06E0     	 b .L9
 138              	.L8:
 154:D:/XMC/Projekte/Temp/CF_XMC4700/cleanflight/src/main/common\maths.h ****     else if (amt > high)
 139              	 .loc 3 154 0
 140 0018 FA68     	 ldr r2,[r7,#12]
 141 001a 7B68     	 ldr r3,[r7,#4]
 142 001c 9A42     	 cmp r2,r3
 143 001e 01DD     	 ble .L10
 155:D:/XMC/Projekte/Temp/CF_XMC4700/cleanflight/src/main/common\maths.h ****         return high;
 144              	 .loc 3 155 0
 145 0020 7B68     	 ldr r3,[r7,#4]
 146 0022 00E0     	 b .L9
 147              	.L10:
 156:D:/XMC/Projekte/Temp/CF_XMC4700/cleanflight/src/main/common\maths.h ****     else
 157:D:/XMC/Projekte/Temp/CF_XMC4700/cleanflight/src/main/common\maths.h ****         return amt;
 148              	 .loc 3 157 0
 149 0024 FB68     	 ldr r3,[r7,#12]
 150              	.L9:
 158:D:/XMC/Projekte/Temp/CF_XMC4700/cleanflight/src/main/common\maths.h **** }
 151              	 .loc 3 158 0
 152 0026 1846     	 mov r0,r3
 153 0028 1437     	 adds r7,r7,#20
 154              	.LCFI13:
 155              	 .cfi_def_cfa_offset 4
 156 002a BD46     	 mov sp,r7
 157              	.LCFI14:
 158              	 .cfi_def_cfa_register 13
 159              	 
 160 002c 5DF8047B 	 ldr r7,[sp],#4
 161              	.LCFI15:
 162              	 .cfi_restore 7
 163              	 .cfi_def_cfa_offset 0
 164 0030 7047     	 bx lr
 165              	 .cfi_endproc
 166              	.LFE529:
 168 0032 00BF     	 .section .text.pilotConfig,"ax",%progbits
 169              	 .align 2
 170              	 .thumb
 171              	 .thumb_func
 173              	pilotConfig:
 174              	.LFB537:
 175              	 .file 4 "D:/XMC/Projekte/Temp/CF_XMC4700/cleanflight/src/main/fc/config.h"
   1:D:/XMC/Projekte/Temp/CF_XMC4700/cleanflight/src/main/fc\config.h **** /*
   2:D:/XMC/Projekte/Temp/CF_XMC4700/cleanflight/src/main/fc\config.h ****  * This file is part of Cleanflight and Betaflight.
   3:D:/XMC/Projekte/Temp/CF_XMC4700/cleanflight/src/main/fc\config.h ****  *
   4:D:/XMC/Projekte/Temp/CF_XMC4700/cleanflight/src/main/fc\config.h ****  * Cleanflight and Betaflight are free software. You can redistribute
   5:D:/XMC/Projekte/Temp/CF_XMC4700/cleanflight/src/main/fc\config.h ****  * this software and/or modify this software under the terms of the
   6:D:/XMC/Projekte/Temp/CF_XMC4700/cleanflight/src/main/fc\config.h ****  * GNU General Public License as published by the Free Software
   7:D:/XMC/Projekte/Temp/CF_XMC4700/cleanflight/src/main/fc\config.h ****  * Foundation, either version 3 of the License, or (at your option)
   8:D:/XMC/Projekte/Temp/CF_XMC4700/cleanflight/src/main/fc\config.h ****  * any later version.
   9:D:/XMC/Projekte/Temp/CF_XMC4700/cleanflight/src/main/fc\config.h ****  *
  10:D:/XMC/Projekte/Temp/CF_XMC4700/cleanflight/src/main/fc\config.h ****  * Cleanflight and Betaflight are distributed in the hope that they
  11:D:/XMC/Projekte/Temp/CF_XMC4700/cleanflight/src/main/fc\config.h ****  * will be useful, but WITHOUT ANY WARRANTY; without even the implied
  12:D:/XMC/Projekte/Temp/CF_XMC4700/cleanflight/src/main/fc\config.h ****  * warranty of MERCHANTABILITY or FITNESS FOR A PARTICULAR PURPOSE.
  13:D:/XMC/Projekte/Temp/CF_XMC4700/cleanflight/src/main/fc\config.h ****  * See the GNU General Public License for more details.
  14:D:/XMC/Projekte/Temp/CF_XMC4700/cleanflight/src/main/fc\config.h ****  *
  15:D:/XMC/Projekte/Temp/CF_XMC4700/cleanflight/src/main/fc\config.h ****  * You should have received a copy of the GNU General Public License
  16:D:/XMC/Projekte/Temp/CF_XMC4700/cleanflight/src/main/fc\config.h ****  * along with this software.
  17:D:/XMC/Projekte/Temp/CF_XMC4700/cleanflight/src/main/fc\config.h ****  *
  18:D:/XMC/Projekte/Temp/CF_XMC4700/cleanflight/src/main/fc\config.h ****  * If not, see <http://www.gnu.org/licenses/>.
  19:D:/XMC/Projekte/Temp/CF_XMC4700/cleanflight/src/main/fc\config.h ****  */
  20:D:/XMC/Projekte/Temp/CF_XMC4700/cleanflight/src/main/fc\config.h **** 
  21:D:/XMC/Projekte/Temp/CF_XMC4700/cleanflight/src/main/fc\config.h **** #pragma once
  22:D:/XMC/Projekte/Temp/CF_XMC4700/cleanflight/src/main/fc\config.h **** 
  23:D:/XMC/Projekte/Temp/CF_XMC4700/cleanflight/src/main/fc\config.h **** #include <stdint.h>
  24:D:/XMC/Projekte/Temp/CF_XMC4700/cleanflight/src/main/fc\config.h **** #include <stdbool.h>
  25:D:/XMC/Projekte/Temp/CF_XMC4700/cleanflight/src/main/fc\config.h **** 
  26:D:/XMC/Projekte/Temp/CF_XMC4700/cleanflight/src/main/fc\config.h **** #include "pg/pg.h"
  27:D:/XMC/Projekte/Temp/CF_XMC4700/cleanflight/src/main/fc\config.h **** 
  28:D:/XMC/Projekte/Temp/CF_XMC4700/cleanflight/src/main/fc\config.h **** #define MAX_NAME_LENGTH 16u
  29:D:/XMC/Projekte/Temp/CF_XMC4700/cleanflight/src/main/fc\config.h **** 
  30:D:/XMC/Projekte/Temp/CF_XMC4700/cleanflight/src/main/fc\config.h **** typedef struct pilotConfig_s {
  31:D:/XMC/Projekte/Temp/CF_XMC4700/cleanflight/src/main/fc\config.h ****     char name[MAX_NAME_LENGTH + 1];
  32:D:/XMC/Projekte/Temp/CF_XMC4700/cleanflight/src/main/fc\config.h **** } pilotConfig_t;
  33:D:/XMC/Projekte/Temp/CF_XMC4700/cleanflight/src/main/fc\config.h **** 
  34:D:/XMC/Projekte/Temp/CF_XMC4700/cleanflight/src/main/fc\config.h **** PG_DECLARE(pilotConfig_t, pilotConfig);
 176              	 .loc 4 34 0
 177              	 .cfi_startproc
 178              	 
 179              	 
 180              	 
 181 0000 80B4     	 push {r7}
 182              	.LCFI16:
 183              	 .cfi_def_cfa_offset 4
 184              	 .cfi_offset 7,-4
 185 0002 00AF     	 add r7,sp,#0
 186              	.LCFI17:
 187              	 .cfi_def_cfa_register 7
 188              	 .loc 4 34 0
 189 0004 024B     	 ldr r3,.L13
 190 0006 1846     	 mov r0,r3
 191 0008 BD46     	 mov sp,r7
 192              	.LCFI18:
 193              	 .cfi_def_cfa_register 13
 194              	 
 195 000a 5DF8047B 	 ldr r7,[sp],#4
 196              	.LCFI19:
 197              	 .cfi_restore 7
 198              	 .cfi_def_cfa_offset 0
 199 000e 7047     	 bx lr
 200              	.L14:
 201              	 .align 2
 202              	.L13:
 203 0010 00000000 	 .word pilotConfig_System
 204              	 .cfi_endproc
 205              	.LFE537:
 207              	 .section .text.osdConfig,"ax",%progbits
 208              	 .align 2
 209              	 .thumb
 210              	 .thumb_func
 212              	osdConfig:
 213              	.LFB564:
 214              	 .file 5 "D:/XMC/Projekte/Temp/CF_XMC4700/cleanflight/src/main/io/osd.h"
   1:D:/XMC/Projekte/Temp/CF_XMC4700/cleanflight/src/main/io\osd.h **** /*
   2:D:/XMC/Projekte/Temp/CF_XMC4700/cleanflight/src/main/io\osd.h ****  * This file is part of Cleanflight and Betaflight.
   3:D:/XMC/Projekte/Temp/CF_XMC4700/cleanflight/src/main/io\osd.h ****  *
   4:D:/XMC/Projekte/Temp/CF_XMC4700/cleanflight/src/main/io\osd.h ****  * Cleanflight and Betaflight are free software. You can redistribute
   5:D:/XMC/Projekte/Temp/CF_XMC4700/cleanflight/src/main/io\osd.h ****  * this software and/or modify this software under the terms of the
   6:D:/XMC/Projekte/Temp/CF_XMC4700/cleanflight/src/main/io\osd.h ****  * GNU General Public License as published by the Free Software
   7:D:/XMC/Projekte/Temp/CF_XMC4700/cleanflight/src/main/io\osd.h ****  * Foundation, either version 3 of the License, or (at your option)
   8:D:/XMC/Projekte/Temp/CF_XMC4700/cleanflight/src/main/io\osd.h ****  * any later version.
   9:D:/XMC/Projekte/Temp/CF_XMC4700/cleanflight/src/main/io\osd.h ****  *
  10:D:/XMC/Projekte/Temp/CF_XMC4700/cleanflight/src/main/io\osd.h ****  * Cleanflight and Betaflight are distributed in the hope that they
  11:D:/XMC/Projekte/Temp/CF_XMC4700/cleanflight/src/main/io\osd.h ****  * will be useful, but WITHOUT ANY WARRANTY; without even the implied
  12:D:/XMC/Projekte/Temp/CF_XMC4700/cleanflight/src/main/io\osd.h ****  * warranty of MERCHANTABILITY or FITNESS FOR A PARTICULAR PURPOSE.
  13:D:/XMC/Projekte/Temp/CF_XMC4700/cleanflight/src/main/io\osd.h ****  * See the GNU General Public License for more details.
  14:D:/XMC/Projekte/Temp/CF_XMC4700/cleanflight/src/main/io\osd.h ****  *
  15:D:/XMC/Projekte/Temp/CF_XMC4700/cleanflight/src/main/io\osd.h ****  * You should have received a copy of the GNU General Public License
  16:D:/XMC/Projekte/Temp/CF_XMC4700/cleanflight/src/main/io\osd.h ****  * along with this software.
  17:D:/XMC/Projekte/Temp/CF_XMC4700/cleanflight/src/main/io\osd.h ****  *
  18:D:/XMC/Projekte/Temp/CF_XMC4700/cleanflight/src/main/io\osd.h ****  * If not, see <http://www.gnu.org/licenses/>.
  19:D:/XMC/Projekte/Temp/CF_XMC4700/cleanflight/src/main/io\osd.h ****  */
  20:D:/XMC/Projekte/Temp/CF_XMC4700/cleanflight/src/main/io\osd.h **** 
  21:D:/XMC/Projekte/Temp/CF_XMC4700/cleanflight/src/main/io\osd.h **** #pragma once
  22:D:/XMC/Projekte/Temp/CF_XMC4700/cleanflight/src/main/io\osd.h **** 
  23:D:/XMC/Projekte/Temp/CF_XMC4700/cleanflight/src/main/io\osd.h **** #include "common/time.h"
  24:D:/XMC/Projekte/Temp/CF_XMC4700/cleanflight/src/main/io\osd.h **** #include "pg/pg.h"
  25:D:/XMC/Projekte/Temp/CF_XMC4700/cleanflight/src/main/io\osd.h **** 
  26:D:/XMC/Projekte/Temp/CF_XMC4700/cleanflight/src/main/io\osd.h **** #define OSD_NUM_TIMER_TYPES 3
  27:D:/XMC/Projekte/Temp/CF_XMC4700/cleanflight/src/main/io\osd.h **** extern const char * const osdTimerSourceNames[OSD_NUM_TIMER_TYPES];
  28:D:/XMC/Projekte/Temp/CF_XMC4700/cleanflight/src/main/io\osd.h **** 
  29:D:/XMC/Projekte/Temp/CF_XMC4700/cleanflight/src/main/io\osd.h **** #define OSD_ELEMENT_BUFFER_LENGTH 32
  30:D:/XMC/Projekte/Temp/CF_XMC4700/cleanflight/src/main/io\osd.h **** 
  31:D:/XMC/Projekte/Temp/CF_XMC4700/cleanflight/src/main/io\osd.h **** #define VISIBLE_FLAG  0x0800
  32:D:/XMC/Projekte/Temp/CF_XMC4700/cleanflight/src/main/io\osd.h **** #define VISIBLE(x)    (x & VISIBLE_FLAG)
  33:D:/XMC/Projekte/Temp/CF_XMC4700/cleanflight/src/main/io\osd.h **** #define OSD_POS_MAX   0x3FF
  34:D:/XMC/Projekte/Temp/CF_XMC4700/cleanflight/src/main/io\osd.h **** #define OSD_POSCFG_MAX   (VISIBLE_FLAG|0x3FF) // For CLI values
  35:D:/XMC/Projekte/Temp/CF_XMC4700/cleanflight/src/main/io\osd.h **** 
  36:D:/XMC/Projekte/Temp/CF_XMC4700/cleanflight/src/main/io\osd.h **** // Character coordinate
  37:D:/XMC/Projekte/Temp/CF_XMC4700/cleanflight/src/main/io\osd.h **** #define OSD_POSITION_BITS 5 // 5 bits gives a range 0-31
  38:D:/XMC/Projekte/Temp/CF_XMC4700/cleanflight/src/main/io\osd.h **** #define OSD_POSITION_XY_MASK ((1 << OSD_POSITION_BITS) - 1)
  39:D:/XMC/Projekte/Temp/CF_XMC4700/cleanflight/src/main/io\osd.h **** #define OSD_POS(x,y)  ((x & OSD_POSITION_XY_MASK) | ((y & OSD_POSITION_XY_MASK) << OSD_POSITION_BIT
  40:D:/XMC/Projekte/Temp/CF_XMC4700/cleanflight/src/main/io\osd.h **** #define OSD_X(x)      (x & OSD_POSITION_XY_MASK)
  41:D:/XMC/Projekte/Temp/CF_XMC4700/cleanflight/src/main/io\osd.h **** #define OSD_Y(x)      ((x >> OSD_POSITION_BITS) & OSD_POSITION_XY_MASK)
  42:D:/XMC/Projekte/Temp/CF_XMC4700/cleanflight/src/main/io\osd.h **** 
  43:D:/XMC/Projekte/Temp/CF_XMC4700/cleanflight/src/main/io\osd.h **** // Timer configuration
  44:D:/XMC/Projekte/Temp/CF_XMC4700/cleanflight/src/main/io\osd.h **** // Stored as 15[alarm:8][precision:4][source:4]0
  45:D:/XMC/Projekte/Temp/CF_XMC4700/cleanflight/src/main/io\osd.h **** #define OSD_TIMER(src, prec, alarm) ((src & 0x0F) | ((prec & 0x0F) << 4) | ((alarm & 0xFF ) << 8))
  46:D:/XMC/Projekte/Temp/CF_XMC4700/cleanflight/src/main/io\osd.h **** #define OSD_TIMER_SRC(timer)        (timer & 0x0F)
  47:D:/XMC/Projekte/Temp/CF_XMC4700/cleanflight/src/main/io\osd.h **** #define OSD_TIMER_PRECISION(timer)  ((timer >> 4) & 0x0F)
  48:D:/XMC/Projekte/Temp/CF_XMC4700/cleanflight/src/main/io\osd.h **** #define OSD_TIMER_ALARM(timer)      ((timer >> 8) & 0xFF)
  49:D:/XMC/Projekte/Temp/CF_XMC4700/cleanflight/src/main/io\osd.h **** 
  50:D:/XMC/Projekte/Temp/CF_XMC4700/cleanflight/src/main/io\osd.h **** // NB: to ensure backwards compatibility, new enum values must be appended at the end but before th
  51:D:/XMC/Projekte/Temp/CF_XMC4700/cleanflight/src/main/io\osd.h **** 
  52:D:/XMC/Projekte/Temp/CF_XMC4700/cleanflight/src/main/io\osd.h **** // *** IMPORTANT ***
  53:D:/XMC/Projekte/Temp/CF_XMC4700/cleanflight/src/main/io\osd.h **** // If you are adding additional elements that do not require any conditional display logic,
  54:D:/XMC/Projekte/Temp/CF_XMC4700/cleanflight/src/main/io\osd.h **** // you must add the elements to the osdElementDisplayOrder[] array in src/main/io/osd.c
  55:D:/XMC/Projekte/Temp/CF_XMC4700/cleanflight/src/main/io\osd.h **** typedef enum {
  56:D:/XMC/Projekte/Temp/CF_XMC4700/cleanflight/src/main/io\osd.h ****     OSD_RSSI_VALUE,
  57:D:/XMC/Projekte/Temp/CF_XMC4700/cleanflight/src/main/io\osd.h ****     OSD_MAIN_BATT_VOLTAGE,
  58:D:/XMC/Projekte/Temp/CF_XMC4700/cleanflight/src/main/io\osd.h ****     OSD_CROSSHAIRS,
  59:D:/XMC/Projekte/Temp/CF_XMC4700/cleanflight/src/main/io\osd.h ****     OSD_ARTIFICIAL_HORIZON,
  60:D:/XMC/Projekte/Temp/CF_XMC4700/cleanflight/src/main/io\osd.h ****     OSD_HORIZON_SIDEBARS,
  61:D:/XMC/Projekte/Temp/CF_XMC4700/cleanflight/src/main/io\osd.h ****     OSD_ITEM_TIMER_1,
  62:D:/XMC/Projekte/Temp/CF_XMC4700/cleanflight/src/main/io\osd.h ****     OSD_ITEM_TIMER_2,
  63:D:/XMC/Projekte/Temp/CF_XMC4700/cleanflight/src/main/io\osd.h ****     OSD_FLYMODE,
  64:D:/XMC/Projekte/Temp/CF_XMC4700/cleanflight/src/main/io\osd.h ****     OSD_CRAFT_NAME,
  65:D:/XMC/Projekte/Temp/CF_XMC4700/cleanflight/src/main/io\osd.h ****     OSD_THROTTLE_POS,
  66:D:/XMC/Projekte/Temp/CF_XMC4700/cleanflight/src/main/io\osd.h ****     OSD_VTX_CHANNEL,
  67:D:/XMC/Projekte/Temp/CF_XMC4700/cleanflight/src/main/io\osd.h ****     OSD_CURRENT_DRAW,
  68:D:/XMC/Projekte/Temp/CF_XMC4700/cleanflight/src/main/io\osd.h ****     OSD_MAH_DRAWN,
  69:D:/XMC/Projekte/Temp/CF_XMC4700/cleanflight/src/main/io\osd.h ****     OSD_GPS_SPEED,
  70:D:/XMC/Projekte/Temp/CF_XMC4700/cleanflight/src/main/io\osd.h ****     OSD_GPS_SATS,
  71:D:/XMC/Projekte/Temp/CF_XMC4700/cleanflight/src/main/io\osd.h ****     OSD_ALTITUDE,
  72:D:/XMC/Projekte/Temp/CF_XMC4700/cleanflight/src/main/io\osd.h ****     OSD_ROLL_PIDS,
  73:D:/XMC/Projekte/Temp/CF_XMC4700/cleanflight/src/main/io\osd.h ****     OSD_PITCH_PIDS,
  74:D:/XMC/Projekte/Temp/CF_XMC4700/cleanflight/src/main/io\osd.h ****     OSD_YAW_PIDS,
  75:D:/XMC/Projekte/Temp/CF_XMC4700/cleanflight/src/main/io\osd.h ****     OSD_POWER,
  76:D:/XMC/Projekte/Temp/CF_XMC4700/cleanflight/src/main/io\osd.h ****     OSD_PIDRATE_PROFILE,
  77:D:/XMC/Projekte/Temp/CF_XMC4700/cleanflight/src/main/io\osd.h ****     OSD_WARNINGS,
  78:D:/XMC/Projekte/Temp/CF_XMC4700/cleanflight/src/main/io\osd.h ****     OSD_AVG_CELL_VOLTAGE,
  79:D:/XMC/Projekte/Temp/CF_XMC4700/cleanflight/src/main/io\osd.h ****     OSD_GPS_LON,
  80:D:/XMC/Projekte/Temp/CF_XMC4700/cleanflight/src/main/io\osd.h ****     OSD_GPS_LAT,
  81:D:/XMC/Projekte/Temp/CF_XMC4700/cleanflight/src/main/io\osd.h ****     OSD_DEBUG,
  82:D:/XMC/Projekte/Temp/CF_XMC4700/cleanflight/src/main/io\osd.h ****     OSD_PITCH_ANGLE,
  83:D:/XMC/Projekte/Temp/CF_XMC4700/cleanflight/src/main/io\osd.h ****     OSD_ROLL_ANGLE,
  84:D:/XMC/Projekte/Temp/CF_XMC4700/cleanflight/src/main/io\osd.h ****     OSD_MAIN_BATT_USAGE,
  85:D:/XMC/Projekte/Temp/CF_XMC4700/cleanflight/src/main/io\osd.h ****     OSD_DISARMED,
  86:D:/XMC/Projekte/Temp/CF_XMC4700/cleanflight/src/main/io\osd.h ****     OSD_HOME_DIR,
  87:D:/XMC/Projekte/Temp/CF_XMC4700/cleanflight/src/main/io\osd.h ****     OSD_HOME_DIST,
  88:D:/XMC/Projekte/Temp/CF_XMC4700/cleanflight/src/main/io\osd.h ****     OSD_NUMERICAL_HEADING,
  89:D:/XMC/Projekte/Temp/CF_XMC4700/cleanflight/src/main/io\osd.h ****     OSD_NUMERICAL_VARIO,
  90:D:/XMC/Projekte/Temp/CF_XMC4700/cleanflight/src/main/io\osd.h ****     OSD_COMPASS_BAR,
  91:D:/XMC/Projekte/Temp/CF_XMC4700/cleanflight/src/main/io\osd.h ****     OSD_ESC_TMP,
  92:D:/XMC/Projekte/Temp/CF_XMC4700/cleanflight/src/main/io\osd.h ****     OSD_ESC_RPM,
  93:D:/XMC/Projekte/Temp/CF_XMC4700/cleanflight/src/main/io\osd.h ****     OSD_REMAINING_TIME_ESTIMATE,
  94:D:/XMC/Projekte/Temp/CF_XMC4700/cleanflight/src/main/io\osd.h ****     OSD_RTC_DATETIME,
  95:D:/XMC/Projekte/Temp/CF_XMC4700/cleanflight/src/main/io\osd.h ****     OSD_ADJUSTMENT_RANGE,
  96:D:/XMC/Projekte/Temp/CF_XMC4700/cleanflight/src/main/io\osd.h ****     OSD_CORE_TEMPERATURE,
  97:D:/XMC/Projekte/Temp/CF_XMC4700/cleanflight/src/main/io\osd.h ****     OSD_ANTI_GRAVITY,
  98:D:/XMC/Projekte/Temp/CF_XMC4700/cleanflight/src/main/io\osd.h ****     OSD_G_FORCE,
  99:D:/XMC/Projekte/Temp/CF_XMC4700/cleanflight/src/main/io\osd.h ****     OSD_ITEM_COUNT // MUST BE LAST
 100:D:/XMC/Projekte/Temp/CF_XMC4700/cleanflight/src/main/io\osd.h **** } osd_items_e;
 101:D:/XMC/Projekte/Temp/CF_XMC4700/cleanflight/src/main/io\osd.h **** 
 102:D:/XMC/Projekte/Temp/CF_XMC4700/cleanflight/src/main/io\osd.h **** // *** IMPORTANT ***
 103:D:/XMC/Projekte/Temp/CF_XMC4700/cleanflight/src/main/io\osd.h **** // The order of the OSD stats enumeration *must* match the order they're displayed on-screen
 104:D:/XMC/Projekte/Temp/CF_XMC4700/cleanflight/src/main/io\osd.h **** // This is because the fields are presented in the configurator in the order of the enumeration
 105:D:/XMC/Projekte/Temp/CF_XMC4700/cleanflight/src/main/io\osd.h **** // and we want the configuration order to match the on-screen display order.
 106:D:/XMC/Projekte/Temp/CF_XMC4700/cleanflight/src/main/io\osd.h **** // Changes to the stats display order *must* be implemented in the configurator otherwise the
 107:D:/XMC/Projekte/Temp/CF_XMC4700/cleanflight/src/main/io\osd.h **** // stats selections will not be populated correctly and the settings will become corrupted.
 108:D:/XMC/Projekte/Temp/CF_XMC4700/cleanflight/src/main/io\osd.h **** //
 109:D:/XMC/Projekte/Temp/CF_XMC4700/cleanflight/src/main/io\osd.h **** // Also - if the stats are reordered then the PR version must be incremented. Otherwise there
 110:D:/XMC/Projekte/Temp/CF_XMC4700/cleanflight/src/main/io\osd.h **** // is no indication that the stored config must be reset and the bitmapped values will be incorrect
 111:D:/XMC/Projekte/Temp/CF_XMC4700/cleanflight/src/main/io\osd.h **** typedef enum {
 112:D:/XMC/Projekte/Temp/CF_XMC4700/cleanflight/src/main/io\osd.h ****     OSD_STAT_RTC_DATE_TIME,
 113:D:/XMC/Projekte/Temp/CF_XMC4700/cleanflight/src/main/io\osd.h ****     OSD_STAT_TIMER_1,
 114:D:/XMC/Projekte/Temp/CF_XMC4700/cleanflight/src/main/io\osd.h ****     OSD_STAT_TIMER_2,
 115:D:/XMC/Projekte/Temp/CF_XMC4700/cleanflight/src/main/io\osd.h ****     OSD_STAT_MAX_SPEED,
 116:D:/XMC/Projekte/Temp/CF_XMC4700/cleanflight/src/main/io\osd.h ****     OSD_STAT_MAX_DISTANCE,
 117:D:/XMC/Projekte/Temp/CF_XMC4700/cleanflight/src/main/io\osd.h ****     OSD_STAT_MIN_BATTERY,
 118:D:/XMC/Projekte/Temp/CF_XMC4700/cleanflight/src/main/io\osd.h ****     OSD_STAT_END_BATTERY,
 119:D:/XMC/Projekte/Temp/CF_XMC4700/cleanflight/src/main/io\osd.h ****     OSD_STAT_BATTERY,
 120:D:/XMC/Projekte/Temp/CF_XMC4700/cleanflight/src/main/io\osd.h ****     OSD_STAT_MIN_RSSI,
 121:D:/XMC/Projekte/Temp/CF_XMC4700/cleanflight/src/main/io\osd.h ****     OSD_STAT_MAX_CURRENT,
 122:D:/XMC/Projekte/Temp/CF_XMC4700/cleanflight/src/main/io\osd.h ****     OSD_STAT_USED_MAH,
 123:D:/XMC/Projekte/Temp/CF_XMC4700/cleanflight/src/main/io\osd.h ****     OSD_STAT_MAX_ALTITUDE,
 124:D:/XMC/Projekte/Temp/CF_XMC4700/cleanflight/src/main/io\osd.h ****     OSD_STAT_BLACKBOX,
 125:D:/XMC/Projekte/Temp/CF_XMC4700/cleanflight/src/main/io\osd.h ****     OSD_STAT_BLACKBOX_NUMBER,
 126:D:/XMC/Projekte/Temp/CF_XMC4700/cleanflight/src/main/io\osd.h ****     OSD_STAT_COUNT // MUST BE LAST
 127:D:/XMC/Projekte/Temp/CF_XMC4700/cleanflight/src/main/io\osd.h **** } osd_stats_e;
 128:D:/XMC/Projekte/Temp/CF_XMC4700/cleanflight/src/main/io\osd.h **** 
 129:D:/XMC/Projekte/Temp/CF_XMC4700/cleanflight/src/main/io\osd.h **** // Make sure the number of stats do not exceed the available 32bit storage
 130:D:/XMC/Projekte/Temp/CF_XMC4700/cleanflight/src/main/io\osd.h **** STATIC_ASSERT(OSD_STAT_COUNT <= 32, osdstats_overflow);
 131:D:/XMC/Projekte/Temp/CF_XMC4700/cleanflight/src/main/io\osd.h **** 
 132:D:/XMC/Projekte/Temp/CF_XMC4700/cleanflight/src/main/io\osd.h **** typedef enum {
 133:D:/XMC/Projekte/Temp/CF_XMC4700/cleanflight/src/main/io\osd.h ****     OSD_UNIT_IMPERIAL,
 134:D:/XMC/Projekte/Temp/CF_XMC4700/cleanflight/src/main/io\osd.h ****     OSD_UNIT_METRIC
 135:D:/XMC/Projekte/Temp/CF_XMC4700/cleanflight/src/main/io\osd.h **** } osd_unit_e;
 136:D:/XMC/Projekte/Temp/CF_XMC4700/cleanflight/src/main/io\osd.h **** 
 137:D:/XMC/Projekte/Temp/CF_XMC4700/cleanflight/src/main/io\osd.h **** typedef enum {
 138:D:/XMC/Projekte/Temp/CF_XMC4700/cleanflight/src/main/io\osd.h ****     OSD_TIMER_1,
 139:D:/XMC/Projekte/Temp/CF_XMC4700/cleanflight/src/main/io\osd.h ****     OSD_TIMER_2,
 140:D:/XMC/Projekte/Temp/CF_XMC4700/cleanflight/src/main/io\osd.h ****     OSD_TIMER_COUNT
 141:D:/XMC/Projekte/Temp/CF_XMC4700/cleanflight/src/main/io\osd.h **** } osd_timer_e;
 142:D:/XMC/Projekte/Temp/CF_XMC4700/cleanflight/src/main/io\osd.h **** 
 143:D:/XMC/Projekte/Temp/CF_XMC4700/cleanflight/src/main/io\osd.h **** typedef enum {
 144:D:/XMC/Projekte/Temp/CF_XMC4700/cleanflight/src/main/io\osd.h ****     OSD_TIMER_SRC_ON,
 145:D:/XMC/Projekte/Temp/CF_XMC4700/cleanflight/src/main/io\osd.h ****     OSD_TIMER_SRC_TOTAL_ARMED,
 146:D:/XMC/Projekte/Temp/CF_XMC4700/cleanflight/src/main/io\osd.h ****     OSD_TIMER_SRC_LAST_ARMED,
 147:D:/XMC/Projekte/Temp/CF_XMC4700/cleanflight/src/main/io\osd.h ****     OSD_TIMER_SRC_COUNT
 148:D:/XMC/Projekte/Temp/CF_XMC4700/cleanflight/src/main/io\osd.h **** } osd_timer_source_e;
 149:D:/XMC/Projekte/Temp/CF_XMC4700/cleanflight/src/main/io\osd.h **** 
 150:D:/XMC/Projekte/Temp/CF_XMC4700/cleanflight/src/main/io\osd.h **** typedef enum {
 151:D:/XMC/Projekte/Temp/CF_XMC4700/cleanflight/src/main/io\osd.h ****     OSD_TIMER_PREC_SECOND,
 152:D:/XMC/Projekte/Temp/CF_XMC4700/cleanflight/src/main/io\osd.h ****     OSD_TIMER_PREC_HUNDREDTHS,
 153:D:/XMC/Projekte/Temp/CF_XMC4700/cleanflight/src/main/io\osd.h ****     OSD_TIMER_PREC_COUNT
 154:D:/XMC/Projekte/Temp/CF_XMC4700/cleanflight/src/main/io\osd.h **** } osd_timer_precision_e;
 155:D:/XMC/Projekte/Temp/CF_XMC4700/cleanflight/src/main/io\osd.h **** 
 156:D:/XMC/Projekte/Temp/CF_XMC4700/cleanflight/src/main/io\osd.h **** typedef enum {
 157:D:/XMC/Projekte/Temp/CF_XMC4700/cleanflight/src/main/io\osd.h ****     OSD_WARNING_ARMING_DISABLE,
 158:D:/XMC/Projekte/Temp/CF_XMC4700/cleanflight/src/main/io\osd.h ****     OSD_WARNING_BATTERY_NOT_FULL,
 159:D:/XMC/Projekte/Temp/CF_XMC4700/cleanflight/src/main/io\osd.h ****     OSD_WARNING_BATTERY_WARNING,
 160:D:/XMC/Projekte/Temp/CF_XMC4700/cleanflight/src/main/io\osd.h ****     OSD_WARNING_BATTERY_CRITICAL,
 161:D:/XMC/Projekte/Temp/CF_XMC4700/cleanflight/src/main/io\osd.h ****     OSD_WARNING_VISUAL_BEEPER,
 162:D:/XMC/Projekte/Temp/CF_XMC4700/cleanflight/src/main/io\osd.h ****     OSD_WARNING_CRASH_FLIP,
 163:D:/XMC/Projekte/Temp/CF_XMC4700/cleanflight/src/main/io\osd.h ****     OSD_WARNING_ESC_FAIL,
 164:D:/XMC/Projekte/Temp/CF_XMC4700/cleanflight/src/main/io\osd.h ****     OSD_WARNING_CORE_TEMPERATURE,
 165:D:/XMC/Projekte/Temp/CF_XMC4700/cleanflight/src/main/io\osd.h ****     OSD_WARNING_RC_SMOOTHING,
 166:D:/XMC/Projekte/Temp/CF_XMC4700/cleanflight/src/main/io\osd.h ****     OSD_WARNING_COUNT // MUST BE LAST
 167:D:/XMC/Projekte/Temp/CF_XMC4700/cleanflight/src/main/io\osd.h **** } osdWarningsFlags_e;
 168:D:/XMC/Projekte/Temp/CF_XMC4700/cleanflight/src/main/io\osd.h **** 
 169:D:/XMC/Projekte/Temp/CF_XMC4700/cleanflight/src/main/io\osd.h **** // Make sure the number of warnings do not exceed the available 16bit storage
 170:D:/XMC/Projekte/Temp/CF_XMC4700/cleanflight/src/main/io\osd.h **** STATIC_ASSERT(OSD_WARNING_COUNT <= 16, osdwarnings_overflow);
 171:D:/XMC/Projekte/Temp/CF_XMC4700/cleanflight/src/main/io\osd.h **** 
 172:D:/XMC/Projekte/Temp/CF_XMC4700/cleanflight/src/main/io\osd.h **** #define ESC_RPM_ALARM_OFF -1
 173:D:/XMC/Projekte/Temp/CF_XMC4700/cleanflight/src/main/io\osd.h **** #define ESC_TEMP_ALARM_OFF INT8_MIN
 174:D:/XMC/Projekte/Temp/CF_XMC4700/cleanflight/src/main/io\osd.h **** #define ESC_CURRENT_ALARM_OFF -1
 175:D:/XMC/Projekte/Temp/CF_XMC4700/cleanflight/src/main/io\osd.h **** 
 176:D:/XMC/Projekte/Temp/CF_XMC4700/cleanflight/src/main/io\osd.h **** typedef struct osdConfig_s {
 177:D:/XMC/Projekte/Temp/CF_XMC4700/cleanflight/src/main/io\osd.h ****     uint16_t item_pos[OSD_ITEM_COUNT];
 178:D:/XMC/Projekte/Temp/CF_XMC4700/cleanflight/src/main/io\osd.h **** 
 179:D:/XMC/Projekte/Temp/CF_XMC4700/cleanflight/src/main/io\osd.h ****     // Alarms
 180:D:/XMC/Projekte/Temp/CF_XMC4700/cleanflight/src/main/io\osd.h ****     uint16_t cap_alarm;
 181:D:/XMC/Projekte/Temp/CF_XMC4700/cleanflight/src/main/io\osd.h ****     uint16_t alt_alarm;
 182:D:/XMC/Projekte/Temp/CF_XMC4700/cleanflight/src/main/io\osd.h ****     uint8_t rssi_alarm;
 183:D:/XMC/Projekte/Temp/CF_XMC4700/cleanflight/src/main/io\osd.h **** 
 184:D:/XMC/Projekte/Temp/CF_XMC4700/cleanflight/src/main/io\osd.h ****     osd_unit_e units;
 185:D:/XMC/Projekte/Temp/CF_XMC4700/cleanflight/src/main/io\osd.h **** 
 186:D:/XMC/Projekte/Temp/CF_XMC4700/cleanflight/src/main/io\osd.h ****     uint16_t timers[OSD_TIMER_COUNT];
 187:D:/XMC/Projekte/Temp/CF_XMC4700/cleanflight/src/main/io\osd.h ****     uint16_t enabledWarnings;
 188:D:/XMC/Projekte/Temp/CF_XMC4700/cleanflight/src/main/io\osd.h **** 
 189:D:/XMC/Projekte/Temp/CF_XMC4700/cleanflight/src/main/io\osd.h ****     uint8_t ahMaxPitch;
 190:D:/XMC/Projekte/Temp/CF_XMC4700/cleanflight/src/main/io\osd.h ****     uint8_t ahMaxRoll;
 191:D:/XMC/Projekte/Temp/CF_XMC4700/cleanflight/src/main/io\osd.h ****     uint32_t enabled_stats;
 192:D:/XMC/Projekte/Temp/CF_XMC4700/cleanflight/src/main/io\osd.h ****     int8_t esc_temp_alarm;
 193:D:/XMC/Projekte/Temp/CF_XMC4700/cleanflight/src/main/io\osd.h ****     int16_t esc_rpm_alarm;
 194:D:/XMC/Projekte/Temp/CF_XMC4700/cleanflight/src/main/io\osd.h ****     int16_t esc_current_alarm;
 195:D:/XMC/Projekte/Temp/CF_XMC4700/cleanflight/src/main/io\osd.h ****     uint8_t core_temp_alarm;
 196:D:/XMC/Projekte/Temp/CF_XMC4700/cleanflight/src/main/io\osd.h **** } osdConfig_t;
 197:D:/XMC/Projekte/Temp/CF_XMC4700/cleanflight/src/main/io\osd.h **** 
 198:D:/XMC/Projekte/Temp/CF_XMC4700/cleanflight/src/main/io\osd.h **** PG_DECLARE(osdConfig_t, osdConfig);
 215              	 .loc 5 198 0
 216              	 .cfi_startproc
 217              	 
 218              	 
 219              	 
 220 0000 80B4     	 push {r7}
 221              	.LCFI20:
 222              	 .cfi_def_cfa_offset 4
 223              	 .cfi_offset 7,-4
 224 0002 00AF     	 add r7,sp,#0
 225              	.LCFI21:
 226              	 .cfi_def_cfa_register 7
 227              	 .loc 5 198 0
 228 0004 024B     	 ldr r3,.L17
 229 0006 1846     	 mov r0,r3
 230 0008 BD46     	 mov sp,r7
 231              	.LCFI22:
 232              	 .cfi_def_cfa_register 13
 233              	 
 234 000a 5DF8047B 	 ldr r7,[sp],#4
 235              	.LCFI23:
 236              	 .cfi_restore 7
 237              	 .cfi_def_cfa_offset 0
 238 000e 7047     	 bx lr
 239              	.L18:
 240              	 .align 2
 241              	.L17:
 242 0010 00000000 	 .word osdConfig_System
 243              	 .cfi_endproc
 244              	.LFE564:
 246              	 .section .text.osdConfigMutable,"ax",%progbits
 247              	 .align 2
 248              	 .thumb
 249              	 .thumb_func
 251              	osdConfigMutable:
 252              	.LFB565:
 253              	 .loc 5 198 0
 254              	 .cfi_startproc
 255              	 
 256              	 
 257              	 
 258 0000 80B4     	 push {r7}
 259              	.LCFI24:
 260              	 .cfi_def_cfa_offset 4
 261              	 .cfi_offset 7,-4
 262 0002 00AF     	 add r7,sp,#0
 263              	.LCFI25:
 264              	 .cfi_def_cfa_register 7
 265              	 .loc 5 198 0
 266 0004 024B     	 ldr r3,.L21
 267 0006 1846     	 mov r0,r3
 268 0008 BD46     	 mov sp,r7
 269              	.LCFI26:
 270              	 .cfi_def_cfa_register 13
 271              	 
 272 000a 5DF8047B 	 ldr r7,[sp],#4
 273              	.LCFI27:
 274              	 .cfi_restore 7
 275              	 .cfi_def_cfa_offset 0
 276 000e 7047     	 bx lr
 277              	.L22:
 278              	 .align 2
 279              	.L21:
 280 0010 00000000 	 .word osdConfig_System
 281              	 .cfi_endproc
 282              	.LFE565:
 284              	 .section .text.vtxSettingsConfig,"ax",%progbits
 285              	 .align 2
 286              	 .thumb
 287              	 .thumb_func
 289              	vtxSettingsConfig:
 290              	.LFB566:
 291              	 .file 6 "D:/XMC/Projekte/Temp/CF_XMC4700/cleanflight/src/main/io/vtx.h"
   1:D:/XMC/Projekte/Temp/CF_XMC4700/cleanflight/src/main/io\vtx.h **** /*
   2:D:/XMC/Projekte/Temp/CF_XMC4700/cleanflight/src/main/io\vtx.h ****  * This file is part of Cleanflight and Betaflight.
   3:D:/XMC/Projekte/Temp/CF_XMC4700/cleanflight/src/main/io\vtx.h ****  *
   4:D:/XMC/Projekte/Temp/CF_XMC4700/cleanflight/src/main/io\vtx.h ****  * Cleanflight and Betaflight are free software. You can redistribute
   5:D:/XMC/Projekte/Temp/CF_XMC4700/cleanflight/src/main/io\vtx.h ****  * this software and/or modify this software under the terms of the
   6:D:/XMC/Projekte/Temp/CF_XMC4700/cleanflight/src/main/io\vtx.h ****  * GNU General Public License as published by the Free Software
   7:D:/XMC/Projekte/Temp/CF_XMC4700/cleanflight/src/main/io\vtx.h ****  * Foundation, either version 3 of the License, or (at your option)
   8:D:/XMC/Projekte/Temp/CF_XMC4700/cleanflight/src/main/io\vtx.h ****  * any later version.
   9:D:/XMC/Projekte/Temp/CF_XMC4700/cleanflight/src/main/io\vtx.h ****  *
  10:D:/XMC/Projekte/Temp/CF_XMC4700/cleanflight/src/main/io\vtx.h ****  * Cleanflight and Betaflight are distributed in the hope that they
  11:D:/XMC/Projekte/Temp/CF_XMC4700/cleanflight/src/main/io\vtx.h ****  * will be useful, but WITHOUT ANY WARRANTY; without even the implied
  12:D:/XMC/Projekte/Temp/CF_XMC4700/cleanflight/src/main/io\vtx.h ****  * warranty of MERCHANTABILITY or FITNESS FOR A PARTICULAR PURPOSE.
  13:D:/XMC/Projekte/Temp/CF_XMC4700/cleanflight/src/main/io\vtx.h ****  * See the GNU General Public License for more details.
  14:D:/XMC/Projekte/Temp/CF_XMC4700/cleanflight/src/main/io\vtx.h ****  *
  15:D:/XMC/Projekte/Temp/CF_XMC4700/cleanflight/src/main/io\vtx.h ****  * You should have received a copy of the GNU General Public License
  16:D:/XMC/Projekte/Temp/CF_XMC4700/cleanflight/src/main/io\vtx.h ****  * along with this software.
  17:D:/XMC/Projekte/Temp/CF_XMC4700/cleanflight/src/main/io\vtx.h ****  *
  18:D:/XMC/Projekte/Temp/CF_XMC4700/cleanflight/src/main/io\vtx.h ****  * If not, see <http://www.gnu.org/licenses/>.
  19:D:/XMC/Projekte/Temp/CF_XMC4700/cleanflight/src/main/io\vtx.h ****  */
  20:D:/XMC/Projekte/Temp/CF_XMC4700/cleanflight/src/main/io\vtx.h **** 
  21:D:/XMC/Projekte/Temp/CF_XMC4700/cleanflight/src/main/io\vtx.h **** #pragma once
  22:D:/XMC/Projekte/Temp/CF_XMC4700/cleanflight/src/main/io\vtx.h **** 
  23:D:/XMC/Projekte/Temp/CF_XMC4700/cleanflight/src/main/io\vtx.h **** #include <stdint.h>
  24:D:/XMC/Projekte/Temp/CF_XMC4700/cleanflight/src/main/io\vtx.h **** 
  25:D:/XMC/Projekte/Temp/CF_XMC4700/cleanflight/src/main/io\vtx.h **** #include "platform.h"
  26:D:/XMC/Projekte/Temp/CF_XMC4700/cleanflight/src/main/io\vtx.h **** #include "common/time.h"
  27:D:/XMC/Projekte/Temp/CF_XMC4700/cleanflight/src/main/io\vtx.h **** #include "pg/pg.h"
  28:D:/XMC/Projekte/Temp/CF_XMC4700/cleanflight/src/main/io\vtx.h **** 
  29:D:/XMC/Projekte/Temp/CF_XMC4700/cleanflight/src/main/io\vtx.h **** typedef struct vtxSettingsConfig_s {
  30:D:/XMC/Projekte/Temp/CF_XMC4700/cleanflight/src/main/io\vtx.h ****     uint8_t band;           // 1=A, 2=B, 3=E, 4=F(Airwaves/Fatshark), 5=Raceband
  31:D:/XMC/Projekte/Temp/CF_XMC4700/cleanflight/src/main/io\vtx.h ****     uint8_t channel;        // 1-8
  32:D:/XMC/Projekte/Temp/CF_XMC4700/cleanflight/src/main/io\vtx.h ****     uint8_t power;          // 0 = lowest
  33:D:/XMC/Projekte/Temp/CF_XMC4700/cleanflight/src/main/io\vtx.h ****     uint16_t freq;          // sets freq in MHz if band=0
  34:D:/XMC/Projekte/Temp/CF_XMC4700/cleanflight/src/main/io\vtx.h ****     uint16_t pitModeFreq;   // sets out-of-range pitmode frequency
  35:D:/XMC/Projekte/Temp/CF_XMC4700/cleanflight/src/main/io\vtx.h ****     uint8_t lowPowerDisarm; // min power while disarmed
  36:D:/XMC/Projekte/Temp/CF_XMC4700/cleanflight/src/main/io\vtx.h **** } vtxSettingsConfig_t;
  37:D:/XMC/Projekte/Temp/CF_XMC4700/cleanflight/src/main/io\vtx.h **** 
  38:D:/XMC/Projekte/Temp/CF_XMC4700/cleanflight/src/main/io\vtx.h **** PG_DECLARE(vtxSettingsConfig_t, vtxSettingsConfig);
 292              	 .loc 6 38 0
 293              	 .cfi_startproc
 294              	 
 295              	 
 296              	 
 297 0000 80B4     	 push {r7}
 298              	.LCFI28:
 299              	 .cfi_def_cfa_offset 4
 300              	 .cfi_offset 7,-4
 301 0002 00AF     	 add r7,sp,#0
 302              	.LCFI29:
 303              	 .cfi_def_cfa_register 7
 304              	 .loc 6 38 0
 305 0004 024B     	 ldr r3,.L25
 306 0006 1846     	 mov r0,r3
 307 0008 BD46     	 mov sp,r7
 308              	.LCFI30:
 309              	 .cfi_def_cfa_register 13
 310              	 
 311 000a 5DF8047B 	 ldr r7,[sp],#4
 312              	.LCFI31:
 313              	 .cfi_restore 7
 314              	 .cfi_def_cfa_offset 0
 315 000e 7047     	 bx lr
 316              	.L26:
 317              	 .align 2
 318              	.L25:
 319 0010 00000000 	 .word vtxSettingsConfig_System
 320              	 .cfi_endproc
 321              	.LFE566:
 323              	 .section .text.batteryConfig,"ax",%progbits
 324              	 .align 2
 325              	 .thumb
 326              	 .thumb_func
 328              	batteryConfig:
 329              	.LFB593:
 330              	 .file 7 "D:/XMC/Projekte/Temp/CF_XMC4700/cleanflight/src/main/sensors/battery.h"
   1:D:/XMC/Projekte/Temp/CF_XMC4700/cleanflight/src/main/sensors\battery.h **** /*
   2:D:/XMC/Projekte/Temp/CF_XMC4700/cleanflight/src/main/sensors\battery.h ****  * This file is part of Cleanflight and Betaflight.
   3:D:/XMC/Projekte/Temp/CF_XMC4700/cleanflight/src/main/sensors\battery.h ****  *
   4:D:/XMC/Projekte/Temp/CF_XMC4700/cleanflight/src/main/sensors\battery.h ****  * Cleanflight and Betaflight are free software. You can redistribute
   5:D:/XMC/Projekte/Temp/CF_XMC4700/cleanflight/src/main/sensors\battery.h ****  * this software and/or modify this software under the terms of the
   6:D:/XMC/Projekte/Temp/CF_XMC4700/cleanflight/src/main/sensors\battery.h ****  * GNU General Public License as published by the Free Software
   7:D:/XMC/Projekte/Temp/CF_XMC4700/cleanflight/src/main/sensors\battery.h ****  * Foundation, either version 3 of the License, or (at your option)
   8:D:/XMC/Projekte/Temp/CF_XMC4700/cleanflight/src/main/sensors\battery.h ****  * any later version.
   9:D:/XMC/Projekte/Temp/CF_XMC4700/cleanflight/src/main/sensors\battery.h ****  *
  10:D:/XMC/Projekte/Temp/CF_XMC4700/cleanflight/src/main/sensors\battery.h ****  * Cleanflight and Betaflight are distributed in the hope that they
  11:D:/XMC/Projekte/Temp/CF_XMC4700/cleanflight/src/main/sensors\battery.h ****  * will be useful, but WITHOUT ANY WARRANTY; without even the implied
  12:D:/XMC/Projekte/Temp/CF_XMC4700/cleanflight/src/main/sensors\battery.h ****  * warranty of MERCHANTABILITY or FITNESS FOR A PARTICULAR PURPOSE.
  13:D:/XMC/Projekte/Temp/CF_XMC4700/cleanflight/src/main/sensors\battery.h ****  * See the GNU General Public License for more details.
  14:D:/XMC/Projekte/Temp/CF_XMC4700/cleanflight/src/main/sensors\battery.h ****  *
  15:D:/XMC/Projekte/Temp/CF_XMC4700/cleanflight/src/main/sensors\battery.h ****  * You should have received a copy of the GNU General Public License
  16:D:/XMC/Projekte/Temp/CF_XMC4700/cleanflight/src/main/sensors\battery.h ****  * along with this software.
  17:D:/XMC/Projekte/Temp/CF_XMC4700/cleanflight/src/main/sensors\battery.h ****  *
  18:D:/XMC/Projekte/Temp/CF_XMC4700/cleanflight/src/main/sensors\battery.h ****  * If not, see <http://www.gnu.org/licenses/>.
  19:D:/XMC/Projekte/Temp/CF_XMC4700/cleanflight/src/main/sensors\battery.h ****  */
  20:D:/XMC/Projekte/Temp/CF_XMC4700/cleanflight/src/main/sensors\battery.h **** 
  21:D:/XMC/Projekte/Temp/CF_XMC4700/cleanflight/src/main/sensors\battery.h **** #pragma once
  22:D:/XMC/Projekte/Temp/CF_XMC4700/cleanflight/src/main/sensors\battery.h **** 
  23:D:/XMC/Projekte/Temp/CF_XMC4700/cleanflight/src/main/sensors\battery.h **** #include "pg/pg.h"
  24:D:/XMC/Projekte/Temp/CF_XMC4700/cleanflight/src/main/sensors\battery.h **** 
  25:D:/XMC/Projekte/Temp/CF_XMC4700/cleanflight/src/main/sensors\battery.h **** #include "common/filter.h"
  26:D:/XMC/Projekte/Temp/CF_XMC4700/cleanflight/src/main/sensors\battery.h **** #include "common/time.h"
  27:D:/XMC/Projekte/Temp/CF_XMC4700/cleanflight/src/main/sensors\battery.h **** #include "sensors/current.h"
  28:D:/XMC/Projekte/Temp/CF_XMC4700/cleanflight/src/main/sensors\battery.h **** #include "sensors/voltage.h"
  29:D:/XMC/Projekte/Temp/CF_XMC4700/cleanflight/src/main/sensors\battery.h **** 
  30:D:/XMC/Projekte/Temp/CF_XMC4700/cleanflight/src/main/sensors\battery.h **** typedef struct batteryConfig_s {
  31:D:/XMC/Projekte/Temp/CF_XMC4700/cleanflight/src/main/sensors\battery.h ****     // voltage
  32:D:/XMC/Projekte/Temp/CF_XMC4700/cleanflight/src/main/sensors\battery.h ****     uint8_t vbatmaxcellvoltage;             // maximum voltage per cell, used for auto-detecting ba
  33:D:/XMC/Projekte/Temp/CF_XMC4700/cleanflight/src/main/sensors\battery.h ****     uint8_t vbatmincellvoltage;             // minimum voltage per cell, this triggers battery crit
  34:D:/XMC/Projekte/Temp/CF_XMC4700/cleanflight/src/main/sensors\battery.h ****     uint8_t vbatwarningcellvoltage;         // warning voltage per cell, this triggers battery warn
  35:D:/XMC/Projekte/Temp/CF_XMC4700/cleanflight/src/main/sensors\battery.h ****     uint8_t vbatnotpresentcellvoltage;      // Between vbatmaxcellvoltage and 2*this is considered 
  36:D:/XMC/Projekte/Temp/CF_XMC4700/cleanflight/src/main/sensors\battery.h ****     uint8_t lvcPercentage;                  // Percentage of throttle when lvc is triggered
  37:D:/XMC/Projekte/Temp/CF_XMC4700/cleanflight/src/main/sensors\battery.h ****     voltageMeterSource_e voltageMeterSource; // source of battery voltage meter used, either ADC or
  38:D:/XMC/Projekte/Temp/CF_XMC4700/cleanflight/src/main/sensors\battery.h **** 
  39:D:/XMC/Projekte/Temp/CF_XMC4700/cleanflight/src/main/sensors\battery.h ****     // current
  40:D:/XMC/Projekte/Temp/CF_XMC4700/cleanflight/src/main/sensors\battery.h ****     currentMeterSource_e currentMeterSource; // source of battery current meter used, either ADC, V
  41:D:/XMC/Projekte/Temp/CF_XMC4700/cleanflight/src/main/sensors\battery.h ****     uint16_t batteryCapacity;               // mAh
  42:D:/XMC/Projekte/Temp/CF_XMC4700/cleanflight/src/main/sensors\battery.h **** 
  43:D:/XMC/Projekte/Temp/CF_XMC4700/cleanflight/src/main/sensors\battery.h ****     // warnings / alerts
  44:D:/XMC/Projekte/Temp/CF_XMC4700/cleanflight/src/main/sensors\battery.h ****     bool useVBatAlerts;                     // Issue alerts based on VBat readings
  45:D:/XMC/Projekte/Temp/CF_XMC4700/cleanflight/src/main/sensors\battery.h ****     bool useConsumptionAlerts;              // Issue alerts based on total power consumption
  46:D:/XMC/Projekte/Temp/CF_XMC4700/cleanflight/src/main/sensors\battery.h ****     uint8_t consumptionWarningPercentage;   // Percentage of remaining capacity that should trigger
  47:D:/XMC/Projekte/Temp/CF_XMC4700/cleanflight/src/main/sensors\battery.h ****     uint8_t vbathysteresis;                 // hysteresis for alarm, default 1 = 0.1V
  48:D:/XMC/Projekte/Temp/CF_XMC4700/cleanflight/src/main/sensors\battery.h **** 
  49:D:/XMC/Projekte/Temp/CF_XMC4700/cleanflight/src/main/sensors\battery.h ****     uint8_t vbatfullcellvoltage;            // Cell voltage at which the battery is deemed to be "f
  50:D:/XMC/Projekte/Temp/CF_XMC4700/cleanflight/src/main/sensors\battery.h **** 
  51:D:/XMC/Projekte/Temp/CF_XMC4700/cleanflight/src/main/sensors\battery.h **** } batteryConfig_t;
  52:D:/XMC/Projekte/Temp/CF_XMC4700/cleanflight/src/main/sensors\battery.h **** 
  53:D:/XMC/Projekte/Temp/CF_XMC4700/cleanflight/src/main/sensors\battery.h **** typedef struct lowVoltageCutoff_s {
  54:D:/XMC/Projekte/Temp/CF_XMC4700/cleanflight/src/main/sensors\battery.h ****     bool enabled;
  55:D:/XMC/Projekte/Temp/CF_XMC4700/cleanflight/src/main/sensors\battery.h ****     uint8_t percentage;
  56:D:/XMC/Projekte/Temp/CF_XMC4700/cleanflight/src/main/sensors\battery.h ****     timeUs_t startTime;
  57:D:/XMC/Projekte/Temp/CF_XMC4700/cleanflight/src/main/sensors\battery.h **** } lowVoltageCutoff_t;
  58:D:/XMC/Projekte/Temp/CF_XMC4700/cleanflight/src/main/sensors\battery.h **** 
  59:D:/XMC/Projekte/Temp/CF_XMC4700/cleanflight/src/main/sensors\battery.h **** PG_DECLARE(batteryConfig_t, batteryConfig);
 331              	 .loc 7 59 0
 332              	 .cfi_startproc
 333              	 
 334              	 
 335              	 
 336 0000 80B4     	 push {r7}
 337              	.LCFI32:
 338              	 .cfi_def_cfa_offset 4
 339              	 .cfi_offset 7,-4
 340 0002 00AF     	 add r7,sp,#0
 341              	.LCFI33:
 342              	 .cfi_def_cfa_register 7
 343              	 .loc 7 59 0
 344 0004 024B     	 ldr r3,.L29
 345 0006 1846     	 mov r0,r3
 346 0008 BD46     	 mov sp,r7
 347              	.LCFI34:
 348              	 .cfi_def_cfa_register 13
 349              	 
 350 000a 5DF8047B 	 ldr r7,[sp],#4
 351              	.LCFI35:
 352              	 .cfi_restore 7
 353              	 .cfi_def_cfa_offset 0
 354 000e 7047     	 bx lr
 355              	.L30:
 356              	 .align 2
 357              	.L29:
 358 0010 00000000 	 .word batteryConfig_System
 359              	 .cfi_endproc
 360              	.LFE593:
 362              	 .global osdTimerSourceNames
 363              	 .section .rodata
 364              	 .align 2
 365              	.LC0:
 366 0000 4F4E2054 	 .ascii "ON TIME  \000"
 366      494D4520 
 366      2000
 367 000a 0000     	 .align 2
 368              	.LC1:
 369 000c 544F5441 	 .ascii "TOTAL ARM\000"
 369      4C204152 
 369      4D00
 370 0016 0000     	 .align 2
 371              	.LC2:
 372 0018 4C415354 	 .ascii "LAST ARM \000"
 372      2041524D 
 372      2000
 373              	 .section .rodata.osdTimerSourceNames,"a",%progbits
 374              	 .align 2
 377              	osdTimerSourceNames:
 378 0000 00000000 	 .word .LC0
 379 0004 0C000000 	 .word .LC1
 380 0008 18000000 	 .word .LC2
 381              	 .section .data.blinkState,"aw",%progbits
 384              	blinkState:
 385 0000 01       	 .byte 1
 386              	 .section .bss.showVisualBeeper,"aw",%nobits
 389              	showVisualBeeper:
 390 0000 00       	 .space 1
 391              	 .section .bss.blinkBits,"aw",%nobits
 392              	 .align 2
 395              	blinkBits:
 396 0000 00000000 	 .space 8
 396      00000000 
 397              	 .section .bss.flyTime,"aw",%nobits
 398              	 .align 2
 401              	flyTime:
 402 0000 00000000 	 .space 4
 403              	 .section .bss.stats,"aw",%nobits
 404              	 .align 2
 407              	stats:
 408 0000 00000000 	 .space 18
 408      00000000 
 408      00000000 
 408      00000000 
 408      0000
 409              	 .global resumeRefreshAt
 410 0012 0000     	 .section .bss.resumeRefreshAt,"aw",%nobits
 411              	 .align 2
 414              	resumeRefreshAt:
 415 0000 00000000 	 .space 4
 416              	 .section .bss.armState,"aw",%nobits
 419              	armState:
 420 0000 00       	 .space 1
 421              	 .section .bss.lastArmState,"aw",%nobits
 424              	lastArmState:
 425 0000 00       	 .space 1
 426              	 .section .bss.osdDisplayPort,"aw",%nobits
 427              	 .align 2
 430              	osdDisplayPort:
 431 0000 00000000 	 .space 4
 432              	 .section .rodata.compassBar,"a",%progbits
 433              	 .align 2
 436              	compassBar:
 437 0000 1B       	 .byte 27
 438 0001 1D       	 .byte 29
 439 0002 1C       	 .byte 28
 440 0003 1D       	 .byte 29
 441 0004 18       	 .byte 24
 442 0005 1D       	 .byte 29
 443 0006 1C       	 .byte 28
 444 0007 1D       	 .byte 29
 445 0008 1A       	 .byte 26
 446 0009 1D       	 .byte 29
 447 000a 1C       	 .byte 28
 448 000b 1D       	 .byte 29
 449 000c 19       	 .byte 25
 450 000d 1D       	 .byte 29
 451 000e 1C       	 .byte 28
 452 000f 1D       	 .byte 29
 453 0010 1B       	 .byte 27
 454 0011 1D       	 .byte 29
 455 0012 1C       	 .byte 28
 456 0013 1D       	 .byte 29
 457 0014 18       	 .byte 24
 458 0015 1D       	 .byte 29
 459 0016 1C       	 .byte 28
 460 0017 1D       	 .byte 29
 461              	 .section .rodata.osdElementDisplayOrder,"a",%progbits
 462              	 .align 2
 465              	osdElementDisplayOrder:
 466 0000 01       	 .byte 1
 467 0001 00       	 .byte 0
 468 0002 02       	 .byte 2
 469 0003 04       	 .byte 4
 470 0004 05       	 .byte 5
 471 0005 06       	 .byte 6
 472 0006 25       	 .byte 37
 473 0007 07       	 .byte 7
 474 0008 09       	 .byte 9
 475 0009 0A       	 .byte 10
 476 000a 0B       	 .byte 11
 477 000b 0C       	 .byte 12
 478 000c 08       	 .byte 8
 479 000d 0F       	 .byte 15
 480 000e 10       	 .byte 16
 481 000f 11       	 .byte 17
 482 0010 12       	 .byte 18
 483 0011 13       	 .byte 19
 484 0012 14       	 .byte 20
 485 0013 15       	 .byte 21
 486 0014 16       	 .byte 22
 487 0015 19       	 .byte 25
 488 0016 1A       	 .byte 26
 489 0017 1B       	 .byte 27
 490 0018 1C       	 .byte 28
 491 0019 1D       	 .byte 29
 492 001a 20       	 .byte 32
 493 001b 21       	 .byte 33
 494 001c 22       	 .byte 34
 495 001d 29       	 .byte 41
 496              	 .comm osdConfig_System,110,4
 497              	 .comm osdConfig_Copy,110,4
 498              	 .global osdConfig_Registry
 499 001e 0000     	 .section .pg_registry,"a",%progbits
 500              	 .align 2
 503              	osdConfig_Registry:
 504 0000 F531     	 .short 12789
 505 0002 6E00     	 .short 110
 506 0004 00000000 	 .word osdConfig_System
 507 0008 00000000 	 .word osdConfig_Copy
 508 000c 00000000 	 .word 0
 509 0010 00000000 	 .word pgResetFn_osdConfig
 510              	 .section .text.osdGetMetersToSelectedUnitSymbol,"ax",%progbits
 511              	 .align 2
 512              	 .thumb
 513              	 .thumb_func
 515              	osdGetMetersToSelectedUnitSymbol:
 516              	.LFB597:
 517              	 .file 8 "../cleanflight/src/main/io/osd.c"
   1:../cleanflight/src/main/io/osd.c **** /*
   2:../cleanflight/src/main/io/osd.c ****  * This file is part of Cleanflight and Betaflight.
   3:../cleanflight/src/main/io/osd.c ****  *
   4:../cleanflight/src/main/io/osd.c ****  * Cleanflight and Betaflight are free software. You can redistribute
   5:../cleanflight/src/main/io/osd.c ****  * this software and/or modify this software under the terms of the
   6:../cleanflight/src/main/io/osd.c ****  * GNU General Public License as published by the Free Software
   7:../cleanflight/src/main/io/osd.c ****  * Foundation, either version 3 of the License, or (at your option)
   8:../cleanflight/src/main/io/osd.c ****  * any later version.
   9:../cleanflight/src/main/io/osd.c ****  *
  10:../cleanflight/src/main/io/osd.c ****  * Cleanflight and Betaflight are distributed in the hope that they
  11:../cleanflight/src/main/io/osd.c ****  * will be useful, but WITHOUT ANY WARRANTY; without even the implied
  12:../cleanflight/src/main/io/osd.c ****  * warranty of MERCHANTABILITY or FITNESS FOR A PARTICULAR PURPOSE.
  13:../cleanflight/src/main/io/osd.c ****  * See the GNU General Public License for more details.
  14:../cleanflight/src/main/io/osd.c ****  *
  15:../cleanflight/src/main/io/osd.c ****  * You should have received a copy of the GNU General Public License
  16:../cleanflight/src/main/io/osd.c ****  * along with this software.
  17:../cleanflight/src/main/io/osd.c ****  *
  18:../cleanflight/src/main/io/osd.c ****  * If not, see <http://www.gnu.org/licenses/>.
  19:../cleanflight/src/main/io/osd.c ****  */
  20:../cleanflight/src/main/io/osd.c **** 
  21:../cleanflight/src/main/io/osd.c **** /*
  22:../cleanflight/src/main/io/osd.c ****  Created by Marcin Baliniak
  23:../cleanflight/src/main/io/osd.c ****  some functions based on MinimOSD
  24:../cleanflight/src/main/io/osd.c **** 
  25:../cleanflight/src/main/io/osd.c ****  OSD-CMS separation by jflyper
  26:../cleanflight/src/main/io/osd.c ****  */
  27:../cleanflight/src/main/io/osd.c **** 
  28:../cleanflight/src/main/io/osd.c **** #include <stdbool.h>
  29:../cleanflight/src/main/io/osd.c **** #include <stdint.h>
  30:../cleanflight/src/main/io/osd.c **** #include <stdlib.h>
  31:../cleanflight/src/main/io/osd.c **** #include <string.h>
  32:../cleanflight/src/main/io/osd.c **** #include <ctype.h>
  33:../cleanflight/src/main/io/osd.c **** #include <math.h>
  34:../cleanflight/src/main/io/osd.c **** 
  35:../cleanflight/src/main/io/osd.c **** #include "platform.h"
  36:../cleanflight/src/main/io/osd.c **** 
  37:../cleanflight/src/main/io/osd.c **** #ifdef USE_OSD
  38:../cleanflight/src/main/io/osd.c **** 
  39:../cleanflight/src/main/io/osd.c **** #include "blackbox/blackbox.h"
  40:../cleanflight/src/main/io/osd.c **** #include "blackbox/blackbox_io.h"
  41:../cleanflight/src/main/io/osd.c **** 
  42:../cleanflight/src/main/io/osd.c **** #include "build/build_config.h"
  43:../cleanflight/src/main/io/osd.c **** #include "build/debug.h"
  44:../cleanflight/src/main/io/osd.c **** #include "build/version.h"
  45:../cleanflight/src/main/io/osd.c **** 
  46:../cleanflight/src/main/io/osd.c **** #include "cms/cms.h"
  47:../cleanflight/src/main/io/osd.c **** #include "cms/cms_types.h"
  48:../cleanflight/src/main/io/osd.c **** 
  49:../cleanflight/src/main/io/osd.c **** #include "common/axis.h"
  50:../cleanflight/src/main/io/osd.c **** #include "common/maths.h"
  51:../cleanflight/src/main/io/osd.c **** #include "common/printf.h"
  52:../cleanflight/src/main/io/osd.c **** #include "common/typeconversion.h"
  53:../cleanflight/src/main/io/osd.c **** #include "common/utils.h"
  54:../cleanflight/src/main/io/osd.c **** 
  55:../cleanflight/src/main/io/osd.c **** #include "config/feature.h"
  56:../cleanflight/src/main/io/osd.c **** 
  57:../cleanflight/src/main/io/osd.c **** #include "drivers/display.h"
  58:../cleanflight/src/main/io/osd.c **** #include "drivers/flash.h"
  59:../cleanflight/src/main/io/osd.c **** #include "drivers/max7456_symbols.h"
  60:../cleanflight/src/main/io/osd.c **** #include "drivers/sdcard.h"
  61:../cleanflight/src/main/io/osd.c **** #include "drivers/time.h"
  62:../cleanflight/src/main/io/osd.c **** 
  63:../cleanflight/src/main/io/osd.c **** #include "fc/config.h"
  64:../cleanflight/src/main/io/osd.c **** #include "fc/fc_core.h"
  65:../cleanflight/src/main/io/osd.c **** #include "fc/rc_adjustments.h"
  66:../cleanflight/src/main/io/osd.c **** #include "fc/rc_controls.h"
  67:../cleanflight/src/main/io/osd.c **** #include "fc/fc_rc.h"
  68:../cleanflight/src/main/io/osd.c **** #include "fc/runtime_config.h"
  69:../cleanflight/src/main/io/osd.c **** 
  70:../cleanflight/src/main/io/osd.c **** #include "flight/position.h"
  71:../cleanflight/src/main/io/osd.c **** #include "flight/imu.h"
  72:../cleanflight/src/main/io/osd.c **** #ifdef USE_ESC_SENSOR
  73:../cleanflight/src/main/io/osd.c **** #include "flight/mixer.h"
  74:../cleanflight/src/main/io/osd.c **** #endif
  75:../cleanflight/src/main/io/osd.c **** #include "flight/pid.h"
  76:../cleanflight/src/main/io/osd.c **** 
  77:../cleanflight/src/main/io/osd.c **** #include "io/asyncfatfs/asyncfatfs.h"
  78:../cleanflight/src/main/io/osd.c **** #include "io/beeper.h"
  79:../cleanflight/src/main/io/osd.c **** #include "io/flashfs.h"
  80:../cleanflight/src/main/io/osd.c **** #include "io/gps.h"
  81:../cleanflight/src/main/io/osd.c **** #include "io/osd.h"
  82:../cleanflight/src/main/io/osd.c **** #include "io/vtx_string.h"
  83:../cleanflight/src/main/io/osd.c **** #include "io/vtx.h"
  84:../cleanflight/src/main/io/osd.c **** 
  85:../cleanflight/src/main/io/osd.c **** #include "pg/pg.h"
  86:../cleanflight/src/main/io/osd.c **** #include "pg/pg_ids.h"
  87:../cleanflight/src/main/io/osd.c **** #include "pg/rx.h"
  88:../cleanflight/src/main/io/osd.c **** 
  89:../cleanflight/src/main/io/osd.c **** #include "rx/rx.h"
  90:../cleanflight/src/main/io/osd.c **** 
  91:../cleanflight/src/main/io/osd.c **** #include "sensors/acceleration.h"
  92:../cleanflight/src/main/io/osd.c **** #include "sensors/adcinternal.h"
  93:../cleanflight/src/main/io/osd.c **** #include "sensors/barometer.h"
  94:../cleanflight/src/main/io/osd.c **** #include "sensors/battery.h"
  95:../cleanflight/src/main/io/osd.c **** #include "sensors/esc_sensor.h"
  96:../cleanflight/src/main/io/osd.c **** #include "sensors/sensors.h"
  97:../cleanflight/src/main/io/osd.c **** 
  98:../cleanflight/src/main/io/osd.c **** #ifdef USE_HARDWARE_REVISION_DETECTION
  99:../cleanflight/src/main/io/osd.c **** #include "hardware_revision.h"
 100:../cleanflight/src/main/io/osd.c **** #endif
 101:../cleanflight/src/main/io/osd.c **** 
 102:../cleanflight/src/main/io/osd.c **** #define VIDEO_BUFFER_CHARS_PAL    480
 103:../cleanflight/src/main/io/osd.c **** #define FULL_CIRCLE 360
 104:../cleanflight/src/main/io/osd.c **** 
 105:../cleanflight/src/main/io/osd.c **** const char * const osdTimerSourceNames[] = {
 106:../cleanflight/src/main/io/osd.c ****     "ON TIME  ",
 107:../cleanflight/src/main/io/osd.c ****     "TOTAL ARM",
 108:../cleanflight/src/main/io/osd.c ****     "LAST ARM "
 109:../cleanflight/src/main/io/osd.c **** };
 110:../cleanflight/src/main/io/osd.c **** 
 111:../cleanflight/src/main/io/osd.c **** // Blink control
 112:../cleanflight/src/main/io/osd.c **** 
 113:../cleanflight/src/main/io/osd.c **** static bool blinkState = true;
 114:../cleanflight/src/main/io/osd.c **** static bool showVisualBeeper = false;
 115:../cleanflight/src/main/io/osd.c **** 
 116:../cleanflight/src/main/io/osd.c **** static uint32_t blinkBits[(OSD_ITEM_COUNT + 31)/32];
 117:../cleanflight/src/main/io/osd.c **** #define SET_BLINK(item) (blinkBits[(item) / 32] |= (1 << ((item) % 32)))
 118:../cleanflight/src/main/io/osd.c **** #define CLR_BLINK(item) (blinkBits[(item) / 32] &= ~(1 << ((item) % 32)))
 119:../cleanflight/src/main/io/osd.c **** #define IS_BLINK(item) (blinkBits[(item) / 32] & (1 << ((item) % 32)))
 120:../cleanflight/src/main/io/osd.c **** #define BLINK(item) (IS_BLINK(item) && blinkState)
 121:../cleanflight/src/main/io/osd.c **** 
 122:../cleanflight/src/main/io/osd.c **** // Things in both OSD and CMS
 123:../cleanflight/src/main/io/osd.c **** 
 124:../cleanflight/src/main/io/osd.c **** #define IS_HI(X)  (rcData[X] > 1750)
 125:../cleanflight/src/main/io/osd.c **** #define IS_LO(X)  (rcData[X] < 1250)
 126:../cleanflight/src/main/io/osd.c **** #define IS_MID(X) (rcData[X] > 1250 && rcData[X] < 1750)
 127:../cleanflight/src/main/io/osd.c **** 
 128:../cleanflight/src/main/io/osd.c **** static timeUs_t flyTime = 0;
 129:../cleanflight/src/main/io/osd.c **** 
 130:../cleanflight/src/main/io/osd.c **** typedef struct statistic_s {
 131:../cleanflight/src/main/io/osd.c ****     timeUs_t armed_time;
 132:../cleanflight/src/main/io/osd.c ****     int16_t max_speed;
 133:../cleanflight/src/main/io/osd.c ****     int16_t min_voltage; // /10
 134:../cleanflight/src/main/io/osd.c ****     int16_t max_current; // /10
 135:../cleanflight/src/main/io/osd.c ****     int16_t min_rssi;
 136:../cleanflight/src/main/io/osd.c ****     int32_t max_altitude;
 137:../cleanflight/src/main/io/osd.c ****     int16_t max_distance;
 138:../cleanflight/src/main/io/osd.c **** } statistic_t;
 139:../cleanflight/src/main/io/osd.c **** 
 140:../cleanflight/src/main/io/osd.c **** static statistic_t stats;
 141:../cleanflight/src/main/io/osd.c **** 
 142:../cleanflight/src/main/io/osd.c **** timeUs_t resumeRefreshAt = 0;
 143:../cleanflight/src/main/io/osd.c **** #define REFRESH_1S    1000 * 1000
 144:../cleanflight/src/main/io/osd.c **** 
 145:../cleanflight/src/main/io/osd.c **** static uint8_t armState;
 146:../cleanflight/src/main/io/osd.c **** static bool lastArmState;
 147:../cleanflight/src/main/io/osd.c **** 
 148:../cleanflight/src/main/io/osd.c **** static displayPort_t *osdDisplayPort;
 149:../cleanflight/src/main/io/osd.c **** 
 150:../cleanflight/src/main/io/osd.c **** #ifdef USE_ESC_SENSOR
 151:../cleanflight/src/main/io/osd.c **** static escSensorData_t *escDataCombined;
 152:../cleanflight/src/main/io/osd.c **** #endif
 153:../cleanflight/src/main/io/osd.c **** 
 154:../cleanflight/src/main/io/osd.c **** #define AH_SYMBOL_COUNT 9
 155:../cleanflight/src/main/io/osd.c **** #define AH_SIDEBAR_WIDTH_POS 7
 156:../cleanflight/src/main/io/osd.c **** #define AH_SIDEBAR_HEIGHT_POS 3
 157:../cleanflight/src/main/io/osd.c **** 
 158:../cleanflight/src/main/io/osd.c **** static const char compassBar[] = {
 159:../cleanflight/src/main/io/osd.c ****   SYM_HEADING_W,
 160:../cleanflight/src/main/io/osd.c ****   SYM_HEADING_LINE, SYM_HEADING_DIVIDED_LINE, SYM_HEADING_LINE,
 161:../cleanflight/src/main/io/osd.c ****   SYM_HEADING_N,
 162:../cleanflight/src/main/io/osd.c ****   SYM_HEADING_LINE, SYM_HEADING_DIVIDED_LINE, SYM_HEADING_LINE,
 163:../cleanflight/src/main/io/osd.c ****   SYM_HEADING_E,
 164:../cleanflight/src/main/io/osd.c ****   SYM_HEADING_LINE, SYM_HEADING_DIVIDED_LINE, SYM_HEADING_LINE,
 165:../cleanflight/src/main/io/osd.c ****   SYM_HEADING_S,
 166:../cleanflight/src/main/io/osd.c ****   SYM_HEADING_LINE, SYM_HEADING_DIVIDED_LINE, SYM_HEADING_LINE,
 167:../cleanflight/src/main/io/osd.c ****   SYM_HEADING_W,
 168:../cleanflight/src/main/io/osd.c ****   SYM_HEADING_LINE, SYM_HEADING_DIVIDED_LINE, SYM_HEADING_LINE,
 169:../cleanflight/src/main/io/osd.c ****   SYM_HEADING_N,
 170:../cleanflight/src/main/io/osd.c ****   SYM_HEADING_LINE, SYM_HEADING_DIVIDED_LINE, SYM_HEADING_LINE
 171:../cleanflight/src/main/io/osd.c **** };
 172:../cleanflight/src/main/io/osd.c **** 
 173:../cleanflight/src/main/io/osd.c **** static const uint8_t osdElementDisplayOrder[] = {
 174:../cleanflight/src/main/io/osd.c ****     OSD_MAIN_BATT_VOLTAGE,
 175:../cleanflight/src/main/io/osd.c ****     OSD_RSSI_VALUE,
 176:../cleanflight/src/main/io/osd.c ****     OSD_CROSSHAIRS,
 177:../cleanflight/src/main/io/osd.c ****     OSD_HORIZON_SIDEBARS,
 178:../cleanflight/src/main/io/osd.c ****     OSD_ITEM_TIMER_1,
 179:../cleanflight/src/main/io/osd.c ****     OSD_ITEM_TIMER_2,
 180:../cleanflight/src/main/io/osd.c ****     OSD_REMAINING_TIME_ESTIMATE,
 181:../cleanflight/src/main/io/osd.c ****     OSD_FLYMODE,
 182:../cleanflight/src/main/io/osd.c ****     OSD_THROTTLE_POS,
 183:../cleanflight/src/main/io/osd.c ****     OSD_VTX_CHANNEL,
 184:../cleanflight/src/main/io/osd.c ****     OSD_CURRENT_DRAW,
 185:../cleanflight/src/main/io/osd.c ****     OSD_MAH_DRAWN,
 186:../cleanflight/src/main/io/osd.c ****     OSD_CRAFT_NAME,
 187:../cleanflight/src/main/io/osd.c ****     OSD_ALTITUDE,
 188:../cleanflight/src/main/io/osd.c ****     OSD_ROLL_PIDS,
 189:../cleanflight/src/main/io/osd.c ****     OSD_PITCH_PIDS,
 190:../cleanflight/src/main/io/osd.c ****     OSD_YAW_PIDS,
 191:../cleanflight/src/main/io/osd.c ****     OSD_POWER,
 192:../cleanflight/src/main/io/osd.c ****     OSD_PIDRATE_PROFILE,
 193:../cleanflight/src/main/io/osd.c ****     OSD_WARNINGS,
 194:../cleanflight/src/main/io/osd.c ****     OSD_AVG_CELL_VOLTAGE,
 195:../cleanflight/src/main/io/osd.c ****     OSD_DEBUG,
 196:../cleanflight/src/main/io/osd.c ****     OSD_PITCH_ANGLE,
 197:../cleanflight/src/main/io/osd.c ****     OSD_ROLL_ANGLE,
 198:../cleanflight/src/main/io/osd.c ****     OSD_MAIN_BATT_USAGE,
 199:../cleanflight/src/main/io/osd.c ****     OSD_DISARMED,
 200:../cleanflight/src/main/io/osd.c ****     OSD_NUMERICAL_HEADING,
 201:../cleanflight/src/main/io/osd.c ****     OSD_NUMERICAL_VARIO,
 202:../cleanflight/src/main/io/osd.c ****     OSD_COMPASS_BAR,
 203:../cleanflight/src/main/io/osd.c ****     OSD_ANTI_GRAVITY
 204:../cleanflight/src/main/io/osd.c **** };
 205:../cleanflight/src/main/io/osd.c **** 
 206:../cleanflight/src/main/io/osd.c **** PG_REGISTER_WITH_RESET_FN(osdConfig_t, osdConfig, PG_OSD_CONFIG, 3);
 207:../cleanflight/src/main/io/osd.c **** 
 208:../cleanflight/src/main/io/osd.c **** /**
 209:../cleanflight/src/main/io/osd.c ****  * Gets the correct altitude symbol for the current unit system
 210:../cleanflight/src/main/io/osd.c ****  */
 211:../cleanflight/src/main/io/osd.c **** static char osdGetMetersToSelectedUnitSymbol(void)
 212:../cleanflight/src/main/io/osd.c **** {
 518              	 .loc 8 212 0
 519              	 .cfi_startproc
 520              	 
 521              	 
 522 0000 80B5     	 push {r7,lr}
 523              	.LCFI36:
 524              	 .cfi_def_cfa_offset 8
 525              	 .cfi_offset 7,-8
 526              	 .cfi_offset 14,-4
 527 0002 00AF     	 add r7,sp,#0
 528              	.LCFI37:
 529              	 .cfi_def_cfa_register 7
 213:../cleanflight/src/main/io/osd.c ****     switch (osdConfig()->units) {
 530              	 .loc 8 213 0
 531 0004 FFF7FEFF 	 bl osdConfig
 532 0008 0346     	 mov r3,r0
 533 000a 93F85B30 	 ldrb r3,[r3,#91]
 534 000e 002B     	 cmp r3,#0
 535 0010 01D1     	 bne .L35
 214:../cleanflight/src/main/io/osd.c ****     case OSD_UNIT_IMPERIAL:
 215:../cleanflight/src/main/io/osd.c ****         return SYM_FT;
 536              	 .loc 8 215 0
 537 0012 0F23     	 movs r3,#15
 538 0014 00E0     	 b .L34
 539              	.L35:
 216:../cleanflight/src/main/io/osd.c ****     default:
 217:../cleanflight/src/main/io/osd.c ****         return SYM_M;
 540              	 .loc 8 217 0
 541 0016 0C23     	 movs r3,#12
 542              	.L34:
 218:../cleanflight/src/main/io/osd.c ****     }
 219:../cleanflight/src/main/io/osd.c **** }
 543              	 .loc 8 219 0
 544 0018 1846     	 mov r0,r3
 545 001a 80BD     	 pop {r7,pc}
 546              	 .cfi_endproc
 547              	.LFE597:
 549              	 .section .text.osdGetBatteryAverageCellVoltage,"ax",%progbits
 550              	 .align 2
 551              	 .thumb
 552              	 .thumb_func
 554              	osdGetBatteryAverageCellVoltage:
 555              	.LFB598:
 220:../cleanflight/src/main/io/osd.c **** 
 221:../cleanflight/src/main/io/osd.c **** /**
 222:../cleanflight/src/main/io/osd.c ****  * Gets average battery cell voltage in 0.01V units.
 223:../cleanflight/src/main/io/osd.c ****  */
 224:../cleanflight/src/main/io/osd.c **** static int osdGetBatteryAverageCellVoltage(void)
 225:../cleanflight/src/main/io/osd.c **** {
 556              	 .loc 8 225 0
 557              	 .cfi_startproc
 558              	 
 559              	 
 560 0000 98B5     	 push {r3,r4,r7,lr}
 561              	.LCFI38:
 562              	 .cfi_def_cfa_offset 16
 563              	 .cfi_offset 3,-16
 564              	 .cfi_offset 4,-12
 565              	 .cfi_offset 7,-8
 566              	 .cfi_offset 14,-4
 567 0002 00AF     	 add r7,sp,#0
 568              	.LCFI39:
 569              	 .cfi_def_cfa_register 7
 226:../cleanflight/src/main/io/osd.c ****     return (getBatteryVoltage() * 10) / getBatteryCellCount();
 570              	 .loc 8 226 0
 571 0004 FFF7FEFF 	 bl getBatteryVoltage
 572 0008 0346     	 mov r3,r0
 573 000a 1A46     	 mov r2,r3
 574 000c 1346     	 mov r3,r2
 575 000e 9B00     	 lsls r3,r3,#2
 576 0010 1344     	 add r3,r3,r2
 577 0012 5B00     	 lsls r3,r3,#1
 578 0014 1C46     	 mov r4,r3
 579 0016 FFF7FEFF 	 bl getBatteryCellCount
 580 001a 0346     	 mov r3,r0
 581 001c 94FBF3F3 	 sdiv r3,r4,r3
 227:../cleanflight/src/main/io/osd.c **** }
 582              	 .loc 8 227 0
 583 0020 1846     	 mov r0,r3
 584 0022 98BD     	 pop {r3,r4,r7,pc}
 585              	 .cfi_endproc
 586              	.LFE598:
 588              	 .section .text.osdGetBatterySymbol,"ax",%progbits
 589              	 .align 2
 590              	 .thumb
 591              	 .thumb_func
 593              	osdGetBatterySymbol:
 594              	.LFB599:
 228:../cleanflight/src/main/io/osd.c **** 
 229:../cleanflight/src/main/io/osd.c **** static char osdGetBatterySymbol(int cellVoltage)
 230:../cleanflight/src/main/io/osd.c **** {
 595              	 .loc 8 230 0
 596              	 .cfi_startproc
 597              	 
 598              	 
 599 0000 90B5     	 push {r4,r7,lr}
 600              	.LCFI40:
 601              	 .cfi_def_cfa_offset 12
 602              	 .cfi_offset 4,-12
 603              	 .cfi_offset 7,-8
 604              	 .cfi_offset 14,-4
 605 0002 87B0     	 sub sp,sp,#28
 606              	.LCFI41:
 607              	 .cfi_def_cfa_offset 40
 608 0004 02AF     	 add r7,sp,#8
 609              	.LCFI42:
 610              	 .cfi_def_cfa 7,32
 611 0006 7860     	 str r0,[r7,#4]
 231:../cleanflight/src/main/io/osd.c ****     if (getBatteryState() == BATTERY_CRITICAL) {
 612              	 .loc 8 231 0
 613 0008 FFF7FEFF 	 bl getBatteryState
 614 000c 0346     	 mov r3,r0
 615 000e 022B     	 cmp r3,#2
 616 0010 01D1     	 bne .L39
 232:../cleanflight/src/main/io/osd.c ****         return SYM_MAIN_BATT; // FIXME: currently the BAT- symbol, ideally replace with a battery w
 617              	 .loc 8 232 0
 618 0012 9723     	 movs r3,#151
 619 0014 26E0     	 b .L40
 620              	.L39:
 621              	.LBB2:
 233:../cleanflight/src/main/io/osd.c ****     } else {
 234:../cleanflight/src/main/io/osd.c ****         // Calculate a symbol offset using cell voltage over full cell voltage range
 235:../cleanflight/src/main/io/osd.c ****         const int symOffset = scaleRange(cellVoltage, batteryConfig()->vbatmincellvoltage * 10, bat
 622              	 .loc 8 235 0
 623 0016 FFF7FEFF 	 bl batteryConfig
 624 001a 0346     	 mov r3,r0
 625 001c 5B78     	 ldrb r3,[r3,#1]
 626 001e 1A46     	 mov r2,r3
 627 0020 1346     	 mov r3,r2
 628 0022 9B00     	 lsls r3,r3,#2
 629 0024 1344     	 add r3,r3,r2
 630 0026 5B00     	 lsls r3,r3,#1
 631 0028 1C46     	 mov r4,r3
 632 002a FFF7FEFF 	 bl batteryConfig
 633 002e 0346     	 mov r3,r0
 634 0030 1B78     	 ldrb r3,[r3]
 635 0032 1A46     	 mov r2,r3
 636 0034 1346     	 mov r3,r2
 637 0036 9B00     	 lsls r3,r3,#2
 638 0038 1344     	 add r3,r3,r2
 639 003a 5B00     	 lsls r3,r3,#1
 640 003c 1A46     	 mov r2,r3
 641 003e 0723     	 movs r3,#7
 642 0040 0093     	 str r3,[sp]
 643 0042 7868     	 ldr r0,[r7,#4]
 644 0044 2146     	 mov r1,r4
 645 0046 0023     	 movs r3,#0
 646 0048 FFF7FEFF 	 bl scaleRange
 647 004c F860     	 str r0,[r7,#12]
 236:../cleanflight/src/main/io/osd.c ****         return SYM_BATT_EMPTY - constrain(symOffset, 0, 6);
 648              	 .loc 8 236 0
 649 004e F868     	 ldr r0,[r7,#12]
 650 0050 0021     	 movs r1,#0
 651 0052 0622     	 movs r2,#6
 652 0054 FFF7FEFF 	 bl constrain
 653 0058 0346     	 mov r3,r0
 654 005a DAB2     	 uxtb r2,r3
 655 005c 6FF06903 	 mvn r3,#105
 656 0060 9B1A     	 subs r3,r3,r2
 657 0062 DBB2     	 uxtb r3,r3
 658              	.L40:
 659              	.LBE2:
 237:../cleanflight/src/main/io/osd.c ****     }
 238:../cleanflight/src/main/io/osd.c **** }
 660              	 .loc 8 238 0
 661 0064 1846     	 mov r0,r3
 662 0066 1437     	 adds r7,r7,#20
 663              	.LCFI43:
 664              	 .cfi_def_cfa_offset 12
 665 0068 BD46     	 mov sp,r7
 666              	.LCFI44:
 667              	 .cfi_def_cfa_register 13
 668              	 
 669 006a 90BD     	 pop {r4,r7,pc}
 670              	 .cfi_endproc
 671              	.LFE599:
 673              	 .section .text.osdGetMetersToSelectedUnit,"ax",%progbits
 674              	 .align 2
 675              	 .thumb
 676              	 .thumb_func
 678              	osdGetMetersToSelectedUnit:
 679              	.LFB600:
 239:../cleanflight/src/main/io/osd.c **** 
 240:../cleanflight/src/main/io/osd.c **** /**
 241:../cleanflight/src/main/io/osd.c ****  * Converts altitude based on the current unit system.
 242:../cleanflight/src/main/io/osd.c ****  * @param meters Value in meters to convert
 243:../cleanflight/src/main/io/osd.c ****  */
 244:../cleanflight/src/main/io/osd.c **** static int32_t osdGetMetersToSelectedUnit(int32_t meters)
 245:../cleanflight/src/main/io/osd.c **** {
 680              	 .loc 8 245 0
 681              	 .cfi_startproc
 682              	 
 683              	 
 684 0000 80B5     	 push {r7,lr}
 685              	.LCFI45:
 686              	 .cfi_def_cfa_offset 8
 687              	 .cfi_offset 7,-8
 688              	 .cfi_offset 14,-4
 689 0002 82B0     	 sub sp,sp,#8
 690              	.LCFI46:
 691              	 .cfi_def_cfa_offset 16
 692 0004 00AF     	 add r7,sp,#0
 693              	.LCFI47:
 694              	 .cfi_def_cfa_register 7
 695 0006 7860     	 str r0,[r7,#4]
 246:../cleanflight/src/main/io/osd.c ****     switch (osdConfig()->units) {
 696              	 .loc 8 246 0
 697 0008 FFF7FEFF 	 bl osdConfig
 698 000c 0346     	 mov r3,r0
 699 000e 93F85B30 	 ldrb r3,[r3,#91]
 700 0012 002B     	 cmp r3,#0
 701 0014 0BD1     	 bne .L45
 247:../cleanflight/src/main/io/osd.c ****     case OSD_UNIT_IMPERIAL:
 248:../cleanflight/src/main/io/osd.c ****         return (meters * 328) / 100; // Convert to feet / 100
 702              	 .loc 8 248 0
 703 0016 7B68     	 ldr r3,[r7,#4]
 704 0018 4FF4A472 	 mov r2,#328
 705 001c 02FB03F3 	 mul r3,r2,r3
 706 0020 054A     	 ldr r2,.L46
 707 0022 82FB0312 	 smull r1,r2,r2,r3
 708 0026 5211     	 asrs r2,r2,#5
 709 0028 DB17     	 asrs r3,r3,#31
 710 002a D31A     	 subs r3,r2,r3
 711 002c 00E0     	 b .L44
 712              	.L45:
 249:../cleanflight/src/main/io/osd.c ****     default:
 250:../cleanflight/src/main/io/osd.c ****         return meters;               // Already in metre / 100
 713              	 .loc 8 250 0
 714 002e 7B68     	 ldr r3,[r7,#4]
 715              	.L44:
 251:../cleanflight/src/main/io/osd.c ****     }
 252:../cleanflight/src/main/io/osd.c **** }
 716              	 .loc 8 252 0
 717 0030 1846     	 mov r0,r3
 718 0032 0837     	 adds r7,r7,#8
 719              	.LCFI48:
 720              	 .cfi_def_cfa_offset 8
 721 0034 BD46     	 mov sp,r7
 722              	.LCFI49:
 723              	 .cfi_def_cfa_register 13
 724              	 
 725 0036 80BD     	 pop {r7,pc}
 726              	.L47:
 727              	 .align 2
 728              	.L46:
 729 0038 1F85EB51 	 .word 1374389535
 730              	 .cfi_endproc
 731              	.LFE600:
 733              	 .section .rodata
 734 0022 0000     	 .align 2
 735              	.LC3:
 736 0024 25356420 	 .ascii "%5d %c\000"
 736      256300
 737              	 .section .text.osdFormatAltitudeString,"ax",%progbits
 738              	 .align 2
 739              	 .thumb
 740              	 .thumb_func
 742              	osdFormatAltitudeString:
 743              	.LFB601:
 253:../cleanflight/src/main/io/osd.c **** 
 254:../cleanflight/src/main/io/osd.c **** #if defined(USE_ADC_INTERNAL) || defined(USE_ESC_SENSOR)
 255:../cleanflight/src/main/io/osd.c **** STATIC_UNIT_TESTED int osdConvertTemperatureToSelectedUnit(int tempInDeciDegrees)
 256:../cleanflight/src/main/io/osd.c **** {
 257:../cleanflight/src/main/io/osd.c ****     switch (osdConfig()->units) {
 258:../cleanflight/src/main/io/osd.c ****     case OSD_UNIT_IMPERIAL:
 259:../cleanflight/src/main/io/osd.c ****         return ((tempInDeciDegrees * 9) / 5) + 320;
 260:../cleanflight/src/main/io/osd.c ****     default:
 261:../cleanflight/src/main/io/osd.c ****         return tempInDeciDegrees;
 262:../cleanflight/src/main/io/osd.c ****     }
 263:../cleanflight/src/main/io/osd.c **** }
 264:../cleanflight/src/main/io/osd.c **** 
 265:../cleanflight/src/main/io/osd.c **** static char osdGetTemperatureSymbolForSelectedUnit(void)
 266:../cleanflight/src/main/io/osd.c **** {
 267:../cleanflight/src/main/io/osd.c ****     switch (osdConfig()->units) {
 268:../cleanflight/src/main/io/osd.c ****     case OSD_UNIT_IMPERIAL:
 269:../cleanflight/src/main/io/osd.c ****         return 'F';
 270:../cleanflight/src/main/io/osd.c ****     default:
 271:../cleanflight/src/main/io/osd.c ****         return 'C';
 272:../cleanflight/src/main/io/osd.c ****     }
 273:../cleanflight/src/main/io/osd.c **** }
 274:../cleanflight/src/main/io/osd.c **** #endif
 275:../cleanflight/src/main/io/osd.c **** 
 276:../cleanflight/src/main/io/osd.c **** static void osdFormatAltitudeString(char * buff, int altitude)
 277:../cleanflight/src/main/io/osd.c **** {
 744              	 .loc 8 277 0
 745              	 .cfi_startproc
 746              	 
 747              	 
 748 0000 80B5     	 push {r7,lr}
 749              	.LCFI50:
 750              	 .cfi_def_cfa_offset 8
 751              	 .cfi_offset 7,-8
 752              	 .cfi_offset 14,-4
 753 0002 84B0     	 sub sp,sp,#16
 754              	.LCFI51:
 755              	 .cfi_def_cfa_offset 24
 756 0004 00AF     	 add r7,sp,#0
 757              	.LCFI52:
 758              	 .cfi_def_cfa_register 7
 759 0006 7860     	 str r0,[r7,#4]
 760 0008 3960     	 str r1,[r7]
 278:../cleanflight/src/main/io/osd.c ****     const int alt = osdGetMetersToSelectedUnit(altitude) / 10;
 761              	 .loc 8 278 0
 762 000a 3868     	 ldr r0,[r7]
 763 000c FFF7FEFF 	 bl osdGetMetersToSelectedUnit
 764 0010 0346     	 mov r3,r0
 765 0012 0D4A     	 ldr r2,.L49
 766 0014 82FB0312 	 smull r1,r2,r2,r3
 767 0018 9210     	 asrs r2,r2,#2
 768 001a DB17     	 asrs r3,r3,#31
 769 001c D31A     	 subs r3,r2,r3
 770 001e FB60     	 str r3,[r7,#12]
 279:../cleanflight/src/main/io/osd.c **** 
 280:../cleanflight/src/main/io/osd.c ****     tfp_sprintf(buff, "%5d %c", alt, osdGetMetersToSelectedUnitSymbol());
 771              	 .loc 8 280 0
 772 0020 FFF7FEFF 	 bl osdGetMetersToSelectedUnitSymbol
 773 0024 0346     	 mov r3,r0
 774 0026 7868     	 ldr r0,[r7,#4]
 775 0028 0849     	 ldr r1,.L49+4
 776 002a FA68     	 ldr r2,[r7,#12]
 777 002c FFF7FEFF 	 bl tfp_sprintf
 281:../cleanflight/src/main/io/osd.c ****     buff[5] = buff[4];
 778              	 .loc 8 281 0
 779 0030 7B68     	 ldr r3,[r7,#4]
 780 0032 0533     	 adds r3,r3,#5
 781 0034 7A68     	 ldr r2,[r7,#4]
 782 0036 1279     	 ldrb r2,[r2,#4]
 783 0038 1A70     	 strb r2,[r3]
 282:../cleanflight/src/main/io/osd.c ****     buff[4] = '.';
 784              	 .loc 8 282 0
 785 003a 7B68     	 ldr r3,[r7,#4]
 786 003c 0433     	 adds r3,r3,#4
 787 003e 2E22     	 movs r2,#46
 788 0040 1A70     	 strb r2,[r3]
 283:../cleanflight/src/main/io/osd.c **** }
 789              	 .loc 8 283 0
 790 0042 1037     	 adds r7,r7,#16
 791              	.LCFI53:
 792              	 .cfi_def_cfa_offset 8
 793 0044 BD46     	 mov sp,r7
 794              	.LCFI54:
 795              	 .cfi_def_cfa_register 13
 796              	 
 797 0046 80BD     	 pop {r7,pc}
 798              	.L50:
 799              	 .align 2
 800              	.L49:
 801 0048 67666666 	 .word 1717986919
 802 004c 24000000 	 .word .LC3
 803              	 .cfi_endproc
 804              	.LFE601:
 806              	 .section .rodata
 807 002b 00       	 .align 2
 808              	.LC4:
 809 002c 25732025 	 .ascii "%s %3d %3d %3d\000"
 809      33642025 
 809      33642025 
 809      336400
 810              	 .section .text.osdFormatPID,"ax",%progbits
 811              	 .align 2
 812              	 .thumb
 813              	 .thumb_func
 815              	osdFormatPID:
 816              	.LFB602:
 284:../cleanflight/src/main/io/osd.c **** 
 285:../cleanflight/src/main/io/osd.c **** static void osdFormatPID(char * buff, const char * label, const pidf_t * pid)
 286:../cleanflight/src/main/io/osd.c **** {
 817              	 .loc 8 286 0
 818              	 .cfi_startproc
 819              	 
 820              	 
 821 0000 90B5     	 push {r4,r7,lr}
 822              	.LCFI55:
 823              	 .cfi_def_cfa_offset 12
 824              	 .cfi_offset 4,-12
 825              	 .cfi_offset 7,-8
 826              	 .cfi_offset 14,-4
 827 0002 87B0     	 sub sp,sp,#28
 828              	.LCFI56:
 829              	 .cfi_def_cfa_offset 40
 830 0004 02AF     	 add r7,sp,#8
 831              	.LCFI57:
 832              	 .cfi_def_cfa 7,32
 833 0006 F860     	 str r0,[r7,#12]
 834 0008 B960     	 str r1,[r7,#8]
 835 000a 7A60     	 str r2,[r7,#4]
 287:../cleanflight/src/main/io/osd.c ****     tfp_sprintf(buff, "%s %3d %3d %3d", label, pid->P, pid->I, pid->D);
 836              	 .loc 8 287 0
 837 000c 7B68     	 ldr r3,[r7,#4]
 838 000e 1B78     	 ldrb r3,[r3]
 839 0010 1C46     	 mov r4,r3
 840 0012 7B68     	 ldr r3,[r7,#4]
 841 0014 5B78     	 ldrb r3,[r3,#1]
 842 0016 1A46     	 mov r2,r3
 843 0018 7B68     	 ldr r3,[r7,#4]
 844 001a 9B78     	 ldrb r3,[r3,#2]
 845 001c 0092     	 str r2,[sp]
 846 001e 0193     	 str r3,[sp,#4]
 847 0020 F868     	 ldr r0,[r7,#12]
 848 0022 0449     	 ldr r1,.L52
 849 0024 BA68     	 ldr r2,[r7,#8]
 850 0026 2346     	 mov r3,r4
 851 0028 FFF7FEFF 	 bl tfp_sprintf
 288:../cleanflight/src/main/io/osd.c **** }
 852              	 .loc 8 288 0
 853 002c 1437     	 adds r7,r7,#20
 854              	.LCFI58:
 855              	 .cfi_def_cfa_offset 12
 856 002e BD46     	 mov sp,r7
 857              	.LCFI59:
 858              	 .cfi_def_cfa_register 13
 859              	 
 860 0030 90BD     	 pop {r4,r7,pc}
 861              	.L53:
 862 0032 00BF     	 .align 2
 863              	.L52:
 864 0034 2C000000 	 .word .LC4
 865              	 .cfi_endproc
 866              	.LFE602:
 868              	 .section .text.osdGetHeadingIntoDiscreteDirections,"ax",%progbits
 869              	 .align 2
 870              	 .thumb
 871              	 .thumb_func
 873              	osdGetHeadingIntoDiscreteDirections:
 874              	.LFB603:
 289:../cleanflight/src/main/io/osd.c **** 
 290:../cleanflight/src/main/io/osd.c **** static uint8_t osdGetHeadingIntoDiscreteDirections(int heading, unsigned directions)
 291:../cleanflight/src/main/io/osd.c **** {
 875              	 .loc 8 291 0
 876              	 .cfi_startproc
 877              	 
 878              	 
 879              	 
 880 0000 80B4     	 push {r7}
 881              	.LCFI60:
 882              	 .cfi_def_cfa_offset 4
 883              	 .cfi_offset 7,-4
 884 0002 85B0     	 sub sp,sp,#20
 885              	.LCFI61:
 886              	 .cfi_def_cfa_offset 24
 887 0004 00AF     	 add r7,sp,#0
 888              	.LCFI62:
 889              	 .cfi_def_cfa_register 7
 890 0006 7860     	 str r0,[r7,#4]
 891 0008 3960     	 str r1,[r7]
 292:../cleanflight/src/main/io/osd.c ****     heading += FULL_CIRCLE;  // Ensure positive value
 892              	 .loc 8 292 0
 893 000a 7B68     	 ldr r3,[r7,#4]
 894 000c 03F5B473 	 add r3,r3,#360
 895 0010 7B60     	 str r3,[r7,#4]
 293:../cleanflight/src/main/io/osd.c **** 
 294:../cleanflight/src/main/io/osd.c ****     // Split input heading 0..359 into sectors 0..(directions-1), but offset
 295:../cleanflight/src/main/io/osd.c ****     // by half a sector so that sector 0 gets centered around heading 0.
 296:../cleanflight/src/main/io/osd.c ****     // We multiply heading by directions to not loose precision in divisions
 297:../cleanflight/src/main/io/osd.c ****     // In this way each segment will be a FULL_CIRCLE length
 298:../cleanflight/src/main/io/osd.c ****     int direction = (heading * directions + FULL_CIRCLE / 2) /  FULL_CIRCLE; // scale with rounding
 896              	 .loc 8 298 0
 897 0012 7B68     	 ldr r3,[r7,#4]
 898 0014 3A68     	 ldr r2,[r7]
 899 0016 02FB03F3 	 mul r3,r2,r3
 900 001a B433     	 adds r3,r3,#180
 901 001c DB08     	 lsrs r3,r3,#3
 902 001e 0B4A     	 ldr r2,.L56
 903 0020 A2FB0323 	 umull r2,r3,r2,r3
 904 0024 9B08     	 lsrs r3,r3,#2
 905 0026 FB60     	 str r3,[r7,#12]
 299:../cleanflight/src/main/io/osd.c ****     direction %= directions; // normalize
 906              	 .loc 8 299 0
 907 0028 FB68     	 ldr r3,[r7,#12]
 908 002a 3A68     	 ldr r2,[r7]
 909 002c B3FBF2F2 	 udiv r2,r3,r2
 910 0030 3968     	 ldr r1,[r7]
 911 0032 01FB02F2 	 mul r2,r1,r2
 912 0036 9B1A     	 subs r3,r3,r2
 913 0038 FB60     	 str r3,[r7,#12]
 300:../cleanflight/src/main/io/osd.c **** 
 301:../cleanflight/src/main/io/osd.c ****     return direction; // return segment number
 914              	 .loc 8 301 0
 915 003a FB68     	 ldr r3,[r7,#12]
 916 003c DBB2     	 uxtb r3,r3
 302:../cleanflight/src/main/io/osd.c **** }
 917              	 .loc 8 302 0
 918 003e 1846     	 mov r0,r3
 919 0040 1437     	 adds r7,r7,#20
 920              	.LCFI63:
 921              	 .cfi_def_cfa_offset 4
 922 0042 BD46     	 mov sp,r7
 923              	.LCFI64:
 924              	 .cfi_def_cfa_register 13
 925              	 
 926 0044 5DF8047B 	 ldr r7,[sp],#4
 927              	.LCFI65:
 928              	 .cfi_restore 7
 929              	 .cfi_def_cfa_offset 0
 930 0048 7047     	 bx lr
 931              	.L57:
 932 004a 00BF     	 .align 2
 933              	.L56:
 934 004c 176CC116 	 .word 381774871
 935              	 .cfi_endproc
 936              	.LFE603:
 938              	 .section .text.osdGetDirectionSymbolFromHeading,"ax",%progbits
 939              	 .align 2
 940              	 .thumb
 941              	 .thumb_func
 943              	osdGetDirectionSymbolFromHeading:
 944              	.LFB604:
 303:../cleanflight/src/main/io/osd.c **** 
 304:../cleanflight/src/main/io/osd.c **** static uint8_t osdGetDirectionSymbolFromHeading(int heading)
 305:../cleanflight/src/main/io/osd.c **** {
 945              	 .loc 8 305 0
 946              	 .cfi_startproc
 947              	 
 948              	 
 949 0000 80B5     	 push {r7,lr}
 950              	.LCFI66:
 951              	 .cfi_def_cfa_offset 8
 952              	 .cfi_offset 7,-8
 953              	 .cfi_offset 14,-4
 954 0002 82B0     	 sub sp,sp,#8
 955              	.LCFI67:
 956              	 .cfi_def_cfa_offset 16
 957 0004 00AF     	 add r7,sp,#0
 958              	.LCFI68:
 959              	 .cfi_def_cfa_register 7
 960 0006 7860     	 str r0,[r7,#4]
 306:../cleanflight/src/main/io/osd.c ****     heading = osdGetHeadingIntoDiscreteDirections(heading, 16);
 961              	 .loc 8 306 0
 962 0008 7868     	 ldr r0,[r7,#4]
 963 000a 1021     	 movs r1,#16
 964 000c FFF7FEFF 	 bl osdGetHeadingIntoDiscreteDirections
 965 0010 0346     	 mov r3,r0
 966 0012 7B60     	 str r3,[r7,#4]
 307:../cleanflight/src/main/io/osd.c **** 
 308:../cleanflight/src/main/io/osd.c ****     // Now heading has a heading with Up=0, Right=4, Down=8 and Left=12
 309:../cleanflight/src/main/io/osd.c ****     // Our symbols are Down=0, Right=4, Up=8 and Left=12
 310:../cleanflight/src/main/io/osd.c ****     // There're 16 arrow symbols. Transform it.
 311:../cleanflight/src/main/io/osd.c ****     heading = 16 - heading;
 967              	 .loc 8 311 0
 968 0014 7B68     	 ldr r3,[r7,#4]
 969 0016 C3F11003 	 rsb r3,r3,#16
 970 001a 7B60     	 str r3,[r7,#4]
 312:../cleanflight/src/main/io/osd.c ****     heading = (heading + 8) % 16;
 971              	 .loc 8 312 0
 972 001c 7B68     	 ldr r3,[r7,#4]
 973 001e 03F10802 	 add r2,r3,#8
 974 0022 084B     	 ldr r3,.L61
 975 0024 1340     	 ands r3,r3,r2
 976 0026 002B     	 cmp r3,#0
 977 0028 03DA     	 bge .L59
 978 002a 013B     	 subs r3,r3,#1
 979 002c 63F00F03 	 orn r3,r3,#15
 980 0030 0133     	 adds r3,r3,#1
 981              	.L59:
 982 0032 7B60     	 str r3,[r7,#4]
 313:../cleanflight/src/main/io/osd.c **** 
 314:../cleanflight/src/main/io/osd.c ****     return SYM_ARROW_SOUTH + heading;
 983              	 .loc 8 314 0
 984 0034 7B68     	 ldr r3,[r7,#4]
 985 0036 DBB2     	 uxtb r3,r3
 986 0038 6033     	 adds r3,r3,#96
 987 003a DBB2     	 uxtb r3,r3
 315:../cleanflight/src/main/io/osd.c **** }
 988              	 .loc 8 315 0
 989 003c 1846     	 mov r0,r3
 990 003e 0837     	 adds r7,r7,#8
 991              	.LCFI69:
 992              	 .cfi_def_cfa_offset 8
 993 0040 BD46     	 mov sp,r7
 994              	.LCFI70:
 995              	 .cfi_def_cfa_register 13
 996              	 
 997 0042 80BD     	 pop {r7,pc}
 998              	.L62:
 999              	 .align 2
 1000              	.L61:
 1001 0044 0F000080 	 .word -2147483633
 1002              	 .cfi_endproc
 1003              	.LFE604:
 1005              	 .section .text.osdGetTimerSymbol,"ax",%progbits
 1006              	 .align 2
 1007              	 .thumb
 1008              	 .thumb_func
 1010              	osdGetTimerSymbol:
 1011              	.LFB605:
 316:../cleanflight/src/main/io/osd.c **** 
 317:../cleanflight/src/main/io/osd.c **** static char osdGetTimerSymbol(osd_timer_source_e src)
 318:../cleanflight/src/main/io/osd.c **** {
 1012              	 .loc 8 318 0
 1013              	 .cfi_startproc
 1014              	 
 1015              	 
 1016              	 
 1017 0000 80B4     	 push {r7}
 1018              	.LCFI71:
 1019              	 .cfi_def_cfa_offset 4
 1020              	 .cfi_offset 7,-4
 1021 0002 83B0     	 sub sp,sp,#12
 1022              	.LCFI72:
 1023              	 .cfi_def_cfa_offset 16
 1024 0004 00AF     	 add r7,sp,#0
 1025              	.LCFI73:
 1026              	 .cfi_def_cfa_register 7
 1027 0006 0346     	 mov r3,r0
 1028 0008 FB71     	 strb r3,[r7,#7]
 319:../cleanflight/src/main/io/osd.c ****     switch (src) {
 1029              	 .loc 8 319 0
 1030 000a FB79     	 ldrb r3,[r7,#7]
 1031 000c 002B     	 cmp r3,#0
 1032 000e 04D0     	 beq .L65
 1033 0010 002B     	 cmp r3,#0
 1034 0012 06DB     	 blt .L64
 1035 0014 022B     	 cmp r3,#2
 1036 0016 04DC     	 bgt .L64
 1037 0018 01E0     	 b .L68
 1038              	.L65:
 320:../cleanflight/src/main/io/osd.c ****     case OSD_TIMER_SRC_ON:
 321:../cleanflight/src/main/io/osd.c ****         return SYM_ON_M;
 1039              	 .loc 8 321 0
 1040 001a 9B23     	 movs r3,#155
 1041 001c 02E0     	 b .L67
 1042              	.L68:
 322:../cleanflight/src/main/io/osd.c ****     case OSD_TIMER_SRC_TOTAL_ARMED:
 323:../cleanflight/src/main/io/osd.c ****     case OSD_TIMER_SRC_LAST_ARMED:
 324:../cleanflight/src/main/io/osd.c ****         return SYM_FLY_M;
 1043              	 .loc 8 324 0
 1044 001e 9C23     	 movs r3,#156
 1045 0020 00E0     	 b .L67
 1046              	.L64:
 325:../cleanflight/src/main/io/osd.c ****     default:
 326:../cleanflight/src/main/io/osd.c ****         return ' ';
 1047              	 .loc 8 326 0
 1048 0022 2023     	 movs r3,#32
 1049              	.L67:
 327:../cleanflight/src/main/io/osd.c ****     }
 328:../cleanflight/src/main/io/osd.c **** }
 1050              	 .loc 8 328 0
 1051 0024 1846     	 mov r0,r3
 1052 0026 0C37     	 adds r7,r7,#12
 1053              	.LCFI74:
 1054              	 .cfi_def_cfa_offset 4
 1055 0028 BD46     	 mov sp,r7
 1056              	.LCFI75:
 1057              	 .cfi_def_cfa_register 13
 1058              	 
 1059 002a 5DF8047B 	 ldr r7,[sp],#4
 1060              	.LCFI76:
 1061              	 .cfi_restore 7
 1062              	 .cfi_def_cfa_offset 0
 1063 002e 7047     	 bx lr
 1064              	 .cfi_endproc
 1065              	.LFE605:
 1067              	 .section .text.osdGetTimerValue,"ax",%progbits
 1068              	 .align 2
 1069              	 .thumb
 1070              	 .thumb_func
 1072              	osdGetTimerValue:
 1073              	.LFB606:
 329:../cleanflight/src/main/io/osd.c **** 
 330:../cleanflight/src/main/io/osd.c **** static timeUs_t osdGetTimerValue(osd_timer_source_e src)
 331:../cleanflight/src/main/io/osd.c **** {
 1074              	 .loc 8 331 0
 1075              	 .cfi_startproc
 1076              	 
 1077              	 
 1078 0000 80B5     	 push {r7,lr}
 1079              	.LCFI77:
 1080              	 .cfi_def_cfa_offset 8
 1081              	 .cfi_offset 7,-8
 1082              	 .cfi_offset 14,-4
 1083 0002 82B0     	 sub sp,sp,#8
 1084              	.LCFI78:
 1085              	 .cfi_def_cfa_offset 16
 1086 0004 00AF     	 add r7,sp,#0
 1087              	.LCFI79:
 1088              	 .cfi_def_cfa_register 7
 1089 0006 0346     	 mov r3,r0
 1090 0008 FB71     	 strb r3,[r7,#7]
 332:../cleanflight/src/main/io/osd.c ****     switch (src) {
 1091              	 .loc 8 332 0
 1092 000a FB79     	 ldrb r3,[r7,#7]
 1093 000c 012B     	 cmp r3,#1
 1094 000e 07D0     	 beq .L71
 1095 0010 022B     	 cmp r3,#2
 1096 0012 08D0     	 beq .L72
 1097 0014 002B     	 cmp r3,#0
 1098 0016 09D1     	 bne .L75
 333:../cleanflight/src/main/io/osd.c ****     case OSD_TIMER_SRC_ON:
 334:../cleanflight/src/main/io/osd.c ****         return micros();
 1099              	 .loc 8 334 0
 1100 0018 FFF7FEFF 	 bl micros
 1101 001c 0346     	 mov r3,r0
 1102 001e 06E0     	 b .L74
 1103              	.L71:
 335:../cleanflight/src/main/io/osd.c ****     case OSD_TIMER_SRC_TOTAL_ARMED:
 336:../cleanflight/src/main/io/osd.c ****         return flyTime;
 1104              	 .loc 8 336 0
 1105 0020 054B     	 ldr r3,.L76
 1106 0022 1B68     	 ldr r3,[r3]
 1107 0024 03E0     	 b .L74
 1108              	.L72:
 337:../cleanflight/src/main/io/osd.c ****     case OSD_TIMER_SRC_LAST_ARMED:
 338:../cleanflight/src/main/io/osd.c ****         return stats.armed_time;
 1109              	 .loc 8 338 0
 1110 0026 054B     	 ldr r3,.L76+4
 1111 0028 1B68     	 ldr r3,[r3]
 1112 002a 00E0     	 b .L74
 1113              	.L75:
 339:../cleanflight/src/main/io/osd.c ****     default:
 340:../cleanflight/src/main/io/osd.c ****         return 0;
 1114              	 .loc 8 340 0
 1115 002c 0023     	 movs r3,#0
 1116              	.L74:
 341:../cleanflight/src/main/io/osd.c ****     }
 342:../cleanflight/src/main/io/osd.c **** }
 1117              	 .loc 8 342 0
 1118 002e 1846     	 mov r0,r3
 1119 0030 0837     	 adds r7,r7,#8
 1120              	.LCFI80:
 1121              	 .cfi_def_cfa_offset 8
 1122 0032 BD46     	 mov sp,r7
 1123              	.LCFI81:
 1124              	 .cfi_def_cfa_register 13
 1125              	 
 1126 0034 80BD     	 pop {r7,pc}
 1127              	.L77:
 1128 0036 00BF     	 .align 2
 1129              	.L76:
 1130 0038 00000000 	 .word flyTime
 1131 003c 00000000 	 .word stats
 1132              	 .cfi_endproc
 1133              	.LFE606:
 1135              	 .section .rodata
 1136 003b 00       	 .align 2
 1137              	.LC5:
 1138 003c 25303264 	 .ascii "%02d:%02d\000"
 1138      3A253032 
 1138      6400
 1139 0046 0000     	 .align 2
 1140              	.LC6:
 1141 0048 25303264 	 .ascii "%02d:%02d.%02d\000"
 1141      3A253032 
 1141      642E2530 
 1141      326400
 1142              	 .section .text.osdFormatTime,"ax",%progbits
 1143              	 .align 2
 1144              	 .thumb
 1145              	 .thumb_func
 1147              	osdFormatTime:
 1148              	.LFB607:
 343:../cleanflight/src/main/io/osd.c **** 
 344:../cleanflight/src/main/io/osd.c **** STATIC_UNIT_TESTED void osdFormatTime(char * buff, osd_timer_precision_e precision, timeUs_t time)
 345:../cleanflight/src/main/io/osd.c **** {
 1149              	 .loc 8 345 0
 1150              	 .cfi_startproc
 1151              	 
 1152              	 
 1153 0000 80B5     	 push {r7,lr}
 1154              	.LCFI82:
 1155              	 .cfi_def_cfa_offset 8
 1156              	 .cfi_offset 7,-8
 1157              	 .cfi_offset 14,-4
 1158 0002 8AB0     	 sub sp,sp,#40
 1159              	.LCFI83:
 1160              	 .cfi_def_cfa_offset 48
 1161 0004 02AF     	 add r7,sp,#8
 1162              	.LCFI84:
 1163              	 .cfi_def_cfa 7,40
 1164 0006 F860     	 str r0,[r7,#12]
 1165 0008 0B46     	 mov r3,r1
 1166 000a 7A60     	 str r2,[r7,#4]
 1167 000c FB72     	 strb r3,[r7,#11]
 346:../cleanflight/src/main/io/osd.c ****     int seconds = time / 1000000;
 1168              	 .loc 8 346 0
 1169 000e 7B68     	 ldr r3,[r7,#4]
 1170 0010 1F4A     	 ldr r2,.L82
 1171 0012 A2FB0323 	 umull r2,r3,r2,r3
 1172 0016 9B0C     	 lsrs r3,r3,#18
 1173 0018 FB61     	 str r3,[r7,#28]
 347:../cleanflight/src/main/io/osd.c ****     const int minutes = seconds / 60;
 1174              	 .loc 8 347 0
 1175 001a FB69     	 ldr r3,[r7,#28]
 1176 001c 1D4A     	 ldr r2,.L82+4
 1177 001e 82FB0312 	 smull r1,r2,r2,r3
 1178 0022 1A44     	 add r2,r2,r3
 1179 0024 5211     	 asrs r2,r2,#5
 1180 0026 DB17     	 asrs r3,r3,#31
 1181 0028 D31A     	 subs r3,r2,r3
 1182 002a BB61     	 str r3,[r7,#24]
 348:../cleanflight/src/main/io/osd.c ****     seconds = seconds % 60;
 1183              	 .loc 8 348 0
 1184 002c FA69     	 ldr r2,[r7,#28]
 1185 002e 194B     	 ldr r3,.L82+4
 1186 0030 83FB0213 	 smull r1,r3,r3,r2
 1187 0034 1344     	 add r3,r3,r2
 1188 0036 5911     	 asrs r1,r3,#5
 1189 0038 D317     	 asrs r3,r2,#31
 1190 003a C91A     	 subs r1,r1,r3
 1191 003c 0B46     	 mov r3,r1
 1192 003e 1B01     	 lsls r3,r3,#4
 1193 0040 5B1A     	 subs r3,r3,r1
 1194 0042 9B00     	 lsls r3,r3,#2
 1195 0044 D31A     	 subs r3,r2,r3
 1196 0046 FB61     	 str r3,[r7,#28]
 349:../cleanflight/src/main/io/osd.c **** 
 350:../cleanflight/src/main/io/osd.c ****     switch (precision) {
 1197              	 .loc 8 350 0
 1198 0048 FB7A     	 ldrb r3,[r7,#11]
 1199 004a 012B     	 cmp r3,#1
 1200 004c 06D0     	 beq .L80
 351:../cleanflight/src/main/io/osd.c ****     case OSD_TIMER_PREC_SECOND:
 352:../cleanflight/src/main/io/osd.c ****     default:
 353:../cleanflight/src/main/io/osd.c ****         tfp_sprintf(buff, "%02d:%02d", minutes, seconds);
 1201              	 .loc 8 353 0
 1202 004e F868     	 ldr r0,[r7,#12]
 1203 0050 1149     	 ldr r1,.L82+8
 1204 0052 BA69     	 ldr r2,[r7,#24]
 1205 0054 FB69     	 ldr r3,[r7,#28]
 1206 0056 FFF7FEFF 	 bl tfp_sprintf
 354:../cleanflight/src/main/io/osd.c ****         break;
 1207              	 .loc 8 354 0
 1208 005a 16E0     	 b .L78
 1209              	.L80:
 1210              	.LBB3:
 355:../cleanflight/src/main/io/osd.c ****     case OSD_TIMER_PREC_HUNDREDTHS:
 356:../cleanflight/src/main/io/osd.c ****         {
 357:../cleanflight/src/main/io/osd.c ****             const int hundredths = (time / 10000) % 100;
 1211              	 .loc 8 357 0
 1212 005c 7B68     	 ldr r3,[r7,#4]
 1213 005e 0F4A     	 ldr r2,.L82+12
 1214 0060 A2FB0323 	 umull r2,r3,r2,r3
 1215 0064 5A0B     	 lsrs r2,r3,#13
 1216 0066 0E4B     	 ldr r3,.L82+16
 1217 0068 A3FB0213 	 umull r1,r3,r3,r2
 1218 006c 5B09     	 lsrs r3,r3,#5
 1219 006e 6421     	 movs r1,#100
 1220 0070 01FB03F3 	 mul r3,r1,r3
 1221 0074 D31A     	 subs r3,r2,r3
 1222 0076 7B61     	 str r3,[r7,#20]
 358:../cleanflight/src/main/io/osd.c ****             tfp_sprintf(buff, "%02d:%02d.%02d", minutes, seconds, hundredths);
 1223              	 .loc 8 358 0
 1224 0078 7B69     	 ldr r3,[r7,#20]
 1225 007a 0093     	 str r3,[sp]
 1226 007c F868     	 ldr r0,[r7,#12]
 1227 007e 0949     	 ldr r1,.L82+20
 1228 0080 BA69     	 ldr r2,[r7,#24]
 1229 0082 FB69     	 ldr r3,[r7,#28]
 1230 0084 FFF7FEFF 	 bl tfp_sprintf
 359:../cleanflight/src/main/io/osd.c ****             break;
 1231              	 .loc 8 359 0
 1232 0088 00BF     	 nop
 1233              	.L78:
 1234              	.LBE3:
 360:../cleanflight/src/main/io/osd.c ****         }
 361:../cleanflight/src/main/io/osd.c ****     }
 362:../cleanflight/src/main/io/osd.c **** }
 1235              	 .loc 8 362 0
 1236 008a 2037     	 adds r7,r7,#32
 1237              	.LCFI85:
 1238              	 .cfi_def_cfa_offset 8
 1239 008c BD46     	 mov sp,r7
 1240              	.LCFI86:
 1241              	 .cfi_def_cfa_register 13
 1242              	 
 1243 008e 80BD     	 pop {r7,pc}
 1244              	.L83:
 1245              	 .align 2
 1246              	.L82:
 1247 0090 83DE1B43 	 .word 1125899907
 1248 0094 89888888 	 .word -2004318071
 1249 0098 3C000000 	 .word .LC5
 1250 009c 5917B7D1 	 .word -776530087
 1251 00a0 1F85EB51 	 .word 1374389535
 1252 00a4 48000000 	 .word .LC6
 1253              	 .cfi_endproc
 1254              	.LFE607:
 1256              	 .section .text.osdFormatTimer,"ax",%progbits
 1257              	 .align 2
 1258              	 .thumb
 1259              	 .thumb_func
 1261              	osdFormatTimer:
 1262              	.LFB608:
 363:../cleanflight/src/main/io/osd.c **** 
 364:../cleanflight/src/main/io/osd.c **** STATIC_UNIT_TESTED void osdFormatTimer(char *buff, bool showSymbol, bool usePrecision, int timerInd
 365:../cleanflight/src/main/io/osd.c **** {
 1263              	 .loc 8 365 0
 1264              	 .cfi_startproc
 1265              	 
 1266              	 
 1267 0000 90B5     	 push {r4,r7,lr}
 1268              	.LCFI87:
 1269              	 .cfi_def_cfa_offset 12
 1270              	 .cfi_offset 4,-12
 1271              	 .cfi_offset 7,-8
 1272              	 .cfi_offset 14,-4
 1273 0002 87B0     	 sub sp,sp,#28
 1274              	.LCFI88:
 1275              	 .cfi_def_cfa_offset 40
 1276 0004 00AF     	 add r7,sp,#0
 1277              	.LCFI89:
 1278              	 .cfi_def_cfa_register 7
 1279 0006 F860     	 str r0,[r7,#12]
 1280 0008 7B60     	 str r3,[r7,#4]
 1281 000a 0B46     	 mov r3,r1
 1282 000c FB72     	 strb r3,[r7,#11]
 1283 000e 1346     	 mov r3,r2
 1284 0010 BB72     	 strb r3,[r7,#10]
 366:../cleanflight/src/main/io/osd.c ****     const uint16_t timer = osdConfig()->timers[timerIndex];
 1285              	 .loc 8 366 0
 1286 0012 FFF7FEFF 	 bl osdConfig
 1287 0016 0146     	 mov r1,r0
 1288 0018 7B68     	 ldr r3,[r7,#4]
 1289 001a 03F12C02 	 add r2,r3,#44
 1290 001e 5300     	 lsls r3,r2,#1
 1291 0020 0B44     	 add r3,r3,r1
 1292 0022 1879     	 ldrb r0,[r3,#4]
 1293 0024 5300     	 lsls r3,r2,#1
 1294 0026 0B44     	 add r3,r3,r1
 1295 0028 5B79     	 ldrb r3,[r3,#5]
 1296 002a 1B02     	 lsls r3,r3,#8
 1297 002c 0343     	 orrs r3,r3,r0
 1298 002e FB82     	 strh r3,[r7,#22]
 367:../cleanflight/src/main/io/osd.c ****     const uint8_t src = OSD_TIMER_SRC(timer);
 1299              	 .loc 8 367 0
 1300 0030 FB8A     	 ldrh r3,[r7,#22]
 1301 0032 DBB2     	 uxtb r3,r3
 1302 0034 03F00F03 	 and r3,r3,#15
 1303 0038 7B75     	 strb r3,[r7,#21]
 368:../cleanflight/src/main/io/osd.c **** 
 369:../cleanflight/src/main/io/osd.c ****     if (showSymbol) {
 1304              	 .loc 8 369 0
 1305 003a FB7A     	 ldrb r3,[r7,#11]
 1306 003c 002B     	 cmp r3,#0
 1307 003e 08D0     	 beq .L85
 370:../cleanflight/src/main/io/osd.c ****         *(buff++) = osdGetTimerSymbol(src);
 1308              	 .loc 8 370 0
 1309 0040 FC68     	 ldr r4,[r7,#12]
 1310 0042 631C     	 adds r3,r4,#1
 1311 0044 FB60     	 str r3,[r7,#12]
 1312 0046 7B7D     	 ldrb r3,[r7,#21]
 1313 0048 1846     	 mov r0,r3
 1314 004a FFF7FEFF 	 bl osdGetTimerSymbol
 1315 004e 0346     	 mov r3,r0
 1316 0050 2370     	 strb r3,[r4]
 1317              	.L85:
 371:../cleanflight/src/main/io/osd.c ****     }
 372:../cleanflight/src/main/io/osd.c **** 
 373:../cleanflight/src/main/io/osd.c ****     osdFormatTime(buff, (usePrecision ? OSD_TIMER_PRECISION(timer) : OSD_TIMER_PREC_SECOND), osdGet
 1318              	 .loc 8 373 0
 1319 0052 BB7A     	 ldrb r3,[r7,#10]
 1320 0054 002B     	 cmp r3,#0
 1321 0056 07D0     	 beq .L86
 1322              	 .loc 8 373 0 is_stmt 0 discriminator 1
 1323 0058 FB8A     	 ldrh r3,[r7,#22]
 1324 005a 1B09     	 lsrs r3,r3,#4
 1325 005c 9BB2     	 uxth r3,r3
 1326 005e DBB2     	 uxtb r3,r3
 1327 0060 03F00F03 	 and r3,r3,#15
 1328 0064 DCB2     	 uxtb r4,r3
 1329 0066 00E0     	 b .L87
 1330              	.L86:
 1331              	 .loc 8 373 0 discriminator 2
 1332 0068 0024     	 movs r4,#0
 1333              	.L87:
 1334              	 .loc 8 373 0 discriminator 4
 1335 006a 7B7D     	 ldrb r3,[r7,#21]
 1336 006c 1846     	 mov r0,r3
 1337 006e FFF7FEFF 	 bl osdGetTimerValue
 1338 0072 0346     	 mov r3,r0
 1339 0074 F868     	 ldr r0,[r7,#12]
 1340 0076 2146     	 mov r1,r4
 1341 0078 1A46     	 mov r2,r3
 1342 007a FFF7FEFF 	 bl osdFormatTime
 374:../cleanflight/src/main/io/osd.c **** }
 1343              	 .loc 8 374 0 is_stmt 1 discriminator 4
 1344 007e 1C37     	 adds r7,r7,#28
 1345              	.LCFI90:
 1346              	 .cfi_def_cfa_offset 12
 1347 0080 BD46     	 mov sp,r7
 1348              	.LCFI91:
 1349              	 .cfi_def_cfa_register 13
 1350              	 
 1351 0082 90BD     	 pop {r4,r7,pc}
 1352              	 .cfi_endproc
 1353              	.LFE608:
 1355              	 .section .rodata
 1356 0057 00       	 .align 2
 1357              	.LC7:
 1358 0058 25642E25 	 .ascii "%d.%07d\000"
 1358      30376400 
 1359              	 .section .text.osdFormatCoordinate,"ax",%progbits
 1360              	 .align 2
 1361              	 .thumb
 1362              	 .thumb_func
 1364              	osdFormatCoordinate:
 1365              	.LFB609:
 375:../cleanflight/src/main/io/osd.c **** 
 376:../cleanflight/src/main/io/osd.c **** #ifdef USE_GPS
 377:../cleanflight/src/main/io/osd.c **** static void osdFormatCoordinate(char *buff, char sym, int32_t val)
 378:../cleanflight/src/main/io/osd.c **** {
 1366              	 .loc 8 378 0
 1367              	 .cfi_startproc
 1368              	 
 1369              	 
 1370 0000 80B5     	 push {r7,lr}
 1371              	.LCFI92:
 1372              	 .cfi_def_cfa_offset 8
 1373              	 .cfi_offset 7,-8
 1374              	 .cfi_offset 14,-4
 1375 0002 88B0     	 sub sp,sp,#32
 1376              	.LCFI93:
 1377              	 .cfi_def_cfa_offset 40
 1378 0004 00AF     	 add r7,sp,#0
 1379              	.LCFI94:
 1380              	 .cfi_def_cfa_register 7
 1381 0006 F860     	 str r0,[r7,#12]
 1382 0008 0B46     	 mov r3,r1
 1383 000a 7A60     	 str r2,[r7,#4]
 1384 000c FB72     	 strb r3,[r7,#11]
 379:../cleanflight/src/main/io/osd.c ****     // latitude maximum integer width is 3 (-90).
 380:../cleanflight/src/main/io/osd.c ****     // longitude maximum integer width is 4 (-180).
 381:../cleanflight/src/main/io/osd.c ****     // We show 7 decimals, so we need to use 12 characters:
 382:../cleanflight/src/main/io/osd.c ****     // eg: s-180.1234567z   s=symbol, z=zero terminator, decimal separator  between 0 and 1
 383:../cleanflight/src/main/io/osd.c **** 
 384:../cleanflight/src/main/io/osd.c ****     static const int coordinateMaxLength = 13;//12 for the number (4 + dot + 7) + 1 for the symbol
 385:../cleanflight/src/main/io/osd.c **** 
 386:../cleanflight/src/main/io/osd.c ****     buff[0] = sym;
 1385              	 .loc 8 386 0
 1386 000e FB68     	 ldr r3,[r7,#12]
 1387 0010 FA7A     	 ldrb r2,[r7,#11]
 1388 0012 1A70     	 strb r2,[r3]
 387:../cleanflight/src/main/io/osd.c ****     const int32_t integerPart = val / GPS_DEGREES_DIVIDER;
 1389              	 .loc 8 387 0
 1390 0014 7B68     	 ldr r3,[r7,#4]
 1391 0016 1C4A     	 ldr r2,.L91
 1392 0018 82FB0312 	 smull r1,r2,r2,r3
 1393 001c 9215     	 asrs r2,r2,#22
 1394 001e DB17     	 asrs r3,r3,#31
 1395 0020 D31A     	 subs r3,r2,r3
 1396 0022 BB61     	 str r3,[r7,#24]
 388:../cleanflight/src/main/io/osd.c ****     const int32_t decimalPart = labs(val % GPS_DEGREES_DIVIDER);
 1397              	 .loc 8 388 0
 1398 0024 7A68     	 ldr r2,[r7,#4]
 1399 0026 184B     	 ldr r3,.L91
 1400 0028 83FB0213 	 smull r1,r3,r3,r2
 1401 002c 9915     	 asrs r1,r3,#22
 1402 002e D317     	 asrs r3,r2,#31
 1403 0030 CB1A     	 subs r3,r1,r3
 1404 0032 1649     	 ldr r1,.L91+4
 1405 0034 01FB03F3 	 mul r3,r1,r3
 1406 0038 D31A     	 subs r3,r2,r3
 1407 003a 002B     	 cmp r3,#0
 1408 003c B8BF     	 it lt
 1409 003e 5B42     	 rsblt r3,r3,#0
 1410 0040 7B61     	 str r3,[r7,#20]
 389:../cleanflight/src/main/io/osd.c ****     const int written = tfp_sprintf(buff + 1, "%d.%07d", integerPart, decimalPart);
 1411              	 .loc 8 389 0
 1412 0042 FB68     	 ldr r3,[r7,#12]
 1413 0044 0133     	 adds r3,r3,#1
 1414 0046 1846     	 mov r0,r3
 1415 0048 1149     	 ldr r1,.L91+8
 1416 004a BA69     	 ldr r2,[r7,#24]
 1417 004c 7B69     	 ldr r3,[r7,#20]
 1418 004e FFF7FEFF 	 bl tfp_sprintf
 1419 0052 3861     	 str r0,[r7,#16]
 1420              	.LBB4:
 390:../cleanflight/src/main/io/osd.c ****     // pad with blanks to coordinateMaxLength
 391:../cleanflight/src/main/io/osd.c ****     for (int pos = 1 + written; pos < coordinateMaxLength; ++pos) {
 1421              	 .loc 8 391 0
 1422 0054 3B69     	 ldr r3,[r7,#16]
 1423 0056 0133     	 adds r3,r3,#1
 1424 0058 FB61     	 str r3,[r7,#28]
 1425 005a 07E0     	 b .L89
 1426              	.L90:
 392:../cleanflight/src/main/io/osd.c ****         buff[pos] = SYM_BLANK;
 1427              	 .loc 8 392 0 discriminator 3
 1428 005c FB69     	 ldr r3,[r7,#28]
 1429 005e FA68     	 ldr r2,[r7,#12]
 1430 0060 1344     	 add r3,r3,r2
 1431 0062 2022     	 movs r2,#32
 1432 0064 1A70     	 strb r2,[r3]
 391:../cleanflight/src/main/io/osd.c ****         buff[pos] = SYM_BLANK;
 1433              	 .loc 8 391 0 discriminator 3
 1434 0066 FB69     	 ldr r3,[r7,#28]
 1435 0068 0133     	 adds r3,r3,#1
 1436 006a FB61     	 str r3,[r7,#28]
 1437              	.L89:
 391:../cleanflight/src/main/io/osd.c ****         buff[pos] = SYM_BLANK;
 1438              	 .loc 8 391 0 is_stmt 0 discriminator 1
 1439 006c 0D22     	 movs r2,#13
 1440 006e FB69     	 ldr r3,[r7,#28]
 1441 0070 9342     	 cmp r3,r2
 1442 0072 F3DB     	 blt .L90
 1443              	.LBE4:
 393:../cleanflight/src/main/io/osd.c ****     }
 394:../cleanflight/src/main/io/osd.c ****     buff[coordinateMaxLength] = '\0';
 1444              	 .loc 8 394 0 is_stmt 1
 1445 0074 0D23     	 movs r3,#13
 1446 0076 1A46     	 mov r2,r3
 1447 0078 FB68     	 ldr r3,[r7,#12]
 1448 007a 1344     	 add r3,r3,r2
 1449 007c 0022     	 movs r2,#0
 1450 007e 1A70     	 strb r2,[r3]
 395:../cleanflight/src/main/io/osd.c **** }
 1451              	 .loc 8 395 0
 1452 0080 2037     	 adds r7,r7,#32
 1453              	.LCFI95:
 1454              	 .cfi_def_cfa_offset 8
 1455 0082 BD46     	 mov sp,r7
 1456              	.LCFI96:
 1457              	 .cfi_def_cfa_register 13
 1458              	 
 1459 0084 80BD     	 pop {r7,pc}
 1460              	.L92:
 1461 0086 00BF     	 .align 2
 1462              	.L91:
 1463 0088 6BCA5F6B 	 .word 1801439851
 1464 008c 80969800 	 .word 10000000
 1465 0090 58000000 	 .word .LC7
 1466              	 .cfi_endproc
 1467              	.LFE609:
 1469              	 .section .text.osdFormatRtcDateTime,"ax",%progbits
 1470              	 .align 2
 1471              	 .thumb
 1472              	 .thumb_func
 1474              	osdFormatRtcDateTime:
 1475              	.LFB610:
 396:../cleanflight/src/main/io/osd.c **** #endif // USE_GPS
 397:../cleanflight/src/main/io/osd.c **** 
 398:../cleanflight/src/main/io/osd.c **** #ifdef USE_RTC_TIME
 399:../cleanflight/src/main/io/osd.c **** static bool osdFormatRtcDateTime(char *buffer)
 400:../cleanflight/src/main/io/osd.c **** {
 1476              	 .loc 8 400 0
 1477              	 .cfi_startproc
 1478              	 
 1479              	 
 1480 0000 80B5     	 push {r7,lr}
 1481              	.LCFI97:
 1482              	 .cfi_def_cfa_offset 8
 1483              	 .cfi_offset 7,-8
 1484              	 .cfi_offset 14,-4
 1485 0002 86B0     	 sub sp,sp,#24
 1486              	.LCFI98:
 1487              	 .cfi_def_cfa_offset 32
 1488 0004 00AF     	 add r7,sp,#0
 1489              	.LCFI99:
 1490              	 .cfi_def_cfa_register 7
 1491 0006 7860     	 str r0,[r7,#4]
 401:../cleanflight/src/main/io/osd.c ****     dateTime_t dateTime;
 402:../cleanflight/src/main/io/osd.c ****     if (!rtcGetDateTime(&dateTime)) {
 1492              	 .loc 8 402 0
 1493 0008 07F10C03 	 add r3,r7,#12
 1494 000c 1846     	 mov r0,r3
 1495 000e FFF7FEFF 	 bl rtcGetDateTime
 1496 0012 0346     	 mov r3,r0
 1497 0014 83F00103 	 eor r3,r3,#1
 1498 0018 DBB2     	 uxtb r3,r3
 1499 001a 002B     	 cmp r3,#0
 1500 001c 04D0     	 beq .L94
 403:../cleanflight/src/main/io/osd.c ****         buffer[0] = '\0';
 1501              	 .loc 8 403 0
 1502 001e 7B68     	 ldr r3,[r7,#4]
 1503 0020 0022     	 movs r2,#0
 1504 0022 1A70     	 strb r2,[r3]
 404:../cleanflight/src/main/io/osd.c **** 
 405:../cleanflight/src/main/io/osd.c ****         return false;
 1505              	 .loc 8 405 0
 1506 0024 0023     	 movs r3,#0
 1507 0026 06E0     	 b .L96
 1508              	.L94:
 406:../cleanflight/src/main/io/osd.c ****     }
 407:../cleanflight/src/main/io/osd.c **** 
 408:../cleanflight/src/main/io/osd.c ****     dateTimeFormatLocalShort(buffer, &dateTime);
 1509              	 .loc 8 408 0
 1510 0028 07F10C03 	 add r3,r7,#12
 1511 002c 7868     	 ldr r0,[r7,#4]
 1512 002e 1946     	 mov r1,r3
 1513 0030 FFF7FEFF 	 bl dateTimeFormatLocalShort
 409:../cleanflight/src/main/io/osd.c **** 
 410:../cleanflight/src/main/io/osd.c ****     return true;
 1514              	 .loc 8 410 0
 1515 0034 0123     	 movs r3,#1
 1516              	.L96:
 411:../cleanflight/src/main/io/osd.c **** }
 1517              	 .loc 8 411 0 discriminator 1
 1518 0036 1846     	 mov r0,r3
 1519 0038 1837     	 adds r7,r7,#24
 1520              	.LCFI100:
 1521              	 .cfi_def_cfa_offset 8
 1522 003a BD46     	 mov sp,r7
 1523              	.LCFI101:
 1524              	 .cfi_def_cfa_register 13
 1525              	 
 1526 003c 80BD     	 pop {r7,pc}
 1527              	 .cfi_endproc
 1528              	.LFE610:
 1530 003e 00BF     	 .section .text.osdFormatMessage,"ax",%progbits
 1531              	 .align 2
 1532              	 .thumb
 1533              	 .thumb_func
 1535              	osdFormatMessage:
 1536              	.LFB611:
 412:../cleanflight/src/main/io/osd.c **** #endif
 413:../cleanflight/src/main/io/osd.c **** 
 414:../cleanflight/src/main/io/osd.c **** static void osdFormatMessage(char *buff, size_t size, const char *message)
 415:../cleanflight/src/main/io/osd.c **** {
 1537              	 .loc 8 415 0
 1538              	 .cfi_startproc
 1539              	 
 1540              	 
 1541 0000 80B5     	 push {r7,lr}
 1542              	.LCFI102:
 1543              	 .cfi_def_cfa_offset 8
 1544              	 .cfi_offset 7,-8
 1545              	 .cfi_offset 14,-4
 1546 0002 84B0     	 sub sp,sp,#16
 1547              	.LCFI103:
 1548              	 .cfi_def_cfa_offset 24
 1549 0004 00AF     	 add r7,sp,#0
 1550              	.LCFI104:
 1551              	 .cfi_def_cfa_register 7
 1552 0006 F860     	 str r0,[r7,#12]
 1553 0008 B960     	 str r1,[r7,#8]
 1554 000a 7A60     	 str r2,[r7,#4]
 416:../cleanflight/src/main/io/osd.c ****     memset(buff, SYM_BLANK, size);
 1555              	 .loc 8 416 0
 1556 000c F868     	 ldr r0,[r7,#12]
 1557 000e 2021     	 movs r1,#32
 1558 0010 BA68     	 ldr r2,[r7,#8]
 1559 0012 FFF7FEFF 	 bl memset
 417:../cleanflight/src/main/io/osd.c ****     if (message) {
 1560              	 .loc 8 417 0
 1561 0016 7B68     	 ldr r3,[r7,#4]
 1562 0018 002B     	 cmp r3,#0
 1563 001a 08D0     	 beq .L98
 418:../cleanflight/src/main/io/osd.c ****         memcpy(buff, message, strlen(message));
 1564              	 .loc 8 418 0
 1565 001c 7868     	 ldr r0,[r7,#4]
 1566 001e FFF7FEFF 	 bl strlen
 1567 0022 0346     	 mov r3,r0
 1568 0024 F868     	 ldr r0,[r7,#12]
 1569 0026 7968     	 ldr r1,[r7,#4]
 1570 0028 1A46     	 mov r2,r3
 1571 002a FFF7FEFF 	 bl memcpy
 1572              	.L98:
 419:../cleanflight/src/main/io/osd.c ****     }
 420:../cleanflight/src/main/io/osd.c ****     // Ensure buff is zero terminated
 421:../cleanflight/src/main/io/osd.c ****     buff[size - 1] = '\0';
 1573              	 .loc 8 421 0
 1574 002e BB68     	 ldr r3,[r7,#8]
 1575 0030 013B     	 subs r3,r3,#1
 1576 0032 FA68     	 ldr r2,[r7,#12]
 1577 0034 1344     	 add r3,r3,r2
 1578 0036 0022     	 movs r2,#0
 1579 0038 1A70     	 strb r2,[r3]
 422:../cleanflight/src/main/io/osd.c **** }
 1580              	 .loc 8 422 0
 1581 003a 1037     	 adds r7,r7,#16
 1582              	.LCFI105:
 1583              	 .cfi_def_cfa_offset 8
 1584 003c BD46     	 mov sp,r7
 1585              	.LCFI106:
 1586              	 .cfi_def_cfa_register 13
 1587              	 
 1588 003e 80BD     	 pop {r7,pc}
 1589              	 .cfi_endproc
 1590              	.LFE611:
 1592              	 .section .text.osdStatSetState,"ax",%progbits
 1593              	 .align 2
 1594              	 .global osdStatSetState
 1595              	 .thumb
 1596              	 .thumb_func
 1598              	osdStatSetState:
 1599              	.LFB612:
 423:../cleanflight/src/main/io/osd.c **** 
 424:../cleanflight/src/main/io/osd.c **** void osdStatSetState(uint8_t statIndex, bool enabled)
 425:../cleanflight/src/main/io/osd.c **** {
 1600              	 .loc 8 425 0
 1601              	 .cfi_startproc
 1602              	 
 1603              	 
 1604 0000 80B5     	 push {r7,lr}
 1605              	.LCFI107:
 1606              	 .cfi_def_cfa_offset 8
 1607              	 .cfi_offset 7,-8
 1608              	 .cfi_offset 14,-4
 1609 0002 82B0     	 sub sp,sp,#8
 1610              	.LCFI108:
 1611              	 .cfi_def_cfa_offset 16
 1612 0004 00AF     	 add r7,sp,#0
 1613              	.LCFI109:
 1614              	 .cfi_def_cfa_register 7
 1615 0006 0346     	 mov r3,r0
 1616 0008 0A46     	 mov r2,r1
 1617 000a FB71     	 strb r3,[r7,#7]
 1618 000c 1346     	 mov r3,r2
 1619 000e BB71     	 strb r3,[r7,#6]
 426:../cleanflight/src/main/io/osd.c ****     if (enabled) {
 1620              	 .loc 8 426 0
 1621 0010 BB79     	 ldrb r3,[r7,#6]
 1622 0012 002B     	 cmp r3,#0
 1623 0014 0AD0     	 beq .L100
 427:../cleanflight/src/main/io/osd.c ****         osdConfigMutable()->enabled_stats |= (1 << statIndex);
 1624              	 .loc 8 427 0
 1625 0016 FFF7FEFF 	 bl osdConfigMutable
 1626 001a 0346     	 mov r3,r0
 1627 001c 5A6E     	 ldr r2,[r3,#100]
 1628 001e F979     	 ldrb r1,[r7,#7]
 1629 0020 0120     	 movs r0,#1
 1630 0022 00FA01F1 	 lsl r1,r0,r1
 1631 0026 0A43     	 orrs r2,r2,r1
 1632 0028 5A66     	 str r2,[r3,#100]
 1633 002a 0AE0     	 b .L99
 1634              	.L100:
 428:../cleanflight/src/main/io/osd.c ****     } else {
 429:../cleanflight/src/main/io/osd.c ****         osdConfigMutable()->enabled_stats &= ~(1 << statIndex);
 1635              	 .loc 8 429 0
 1636 002c FFF7FEFF 	 bl osdConfigMutable
 1637 0030 0346     	 mov r3,r0
 1638 0032 5A6E     	 ldr r2,[r3,#100]
 1639 0034 F979     	 ldrb r1,[r7,#7]
 1640 0036 0120     	 movs r0,#1
 1641 0038 00FA01F1 	 lsl r1,r0,r1
 1642 003c C943     	 mvns r1,r1
 1643 003e 0A40     	 ands r2,r2,r1
 1644 0040 5A66     	 str r2,[r3,#100]
 1645              	.L99:
 430:../cleanflight/src/main/io/osd.c ****     }
 431:../cleanflight/src/main/io/osd.c **** }
 1646              	 .loc 8 431 0
 1647 0042 0837     	 adds r7,r7,#8
 1648              	.LCFI110:
 1649              	 .cfi_def_cfa_offset 8
 1650 0044 BD46     	 mov sp,r7
 1651              	.LCFI111:
 1652              	 .cfi_def_cfa_register 13
 1653              	 
 1654 0046 80BD     	 pop {r7,pc}
 1655              	 .cfi_endproc
 1656              	.LFE612:
 1658              	 .section .text.osdStatGetState,"ax",%progbits
 1659              	 .align 2
 1660              	 .global osdStatGetState
 1661              	 .thumb
 1662              	 .thumb_func
 1664              	osdStatGetState:
 1665              	.LFB613:
 432:../cleanflight/src/main/io/osd.c **** 
 433:../cleanflight/src/main/io/osd.c **** bool osdStatGetState(uint8_t statIndex)
 434:../cleanflight/src/main/io/osd.c **** {
 1666              	 .loc 8 434 0
 1667              	 .cfi_startproc
 1668              	 
 1669              	 
 1670 0000 80B5     	 push {r7,lr}
 1671              	.LCFI112:
 1672              	 .cfi_def_cfa_offset 8
 1673              	 .cfi_offset 7,-8
 1674              	 .cfi_offset 14,-4
 1675 0002 82B0     	 sub sp,sp,#8
 1676              	.LCFI113:
 1677              	 .cfi_def_cfa_offset 16
 1678 0004 00AF     	 add r7,sp,#0
 1679              	.LCFI114:
 1680              	 .cfi_def_cfa_register 7
 1681 0006 0346     	 mov r3,r0
 1682 0008 FB71     	 strb r3,[r7,#7]
 435:../cleanflight/src/main/io/osd.c ****     return osdConfig()->enabled_stats & (1 << statIndex);
 1683              	 .loc 8 435 0
 1684 000a FFF7FEFF 	 bl osdConfig
 1685 000e 0346     	 mov r3,r0
 1686 0010 5B6E     	 ldr r3,[r3,#100]
 1687 0012 FA79     	 ldrb r2,[r7,#7]
 1688 0014 0121     	 movs r1,#1
 1689 0016 01FA02F2 	 lsl r2,r1,r2
 1690 001a 1340     	 ands r3,r3,r2
 1691 001c 002B     	 cmp r3,#0
 1692 001e 14BF     	 ite ne
 1693 0020 0123     	 movne r3,#1
 1694 0022 0023     	 moveq r3,#0
 1695 0024 DBB2     	 uxtb r3,r3
 436:../cleanflight/src/main/io/osd.c **** }
 1696              	 .loc 8 436 0
 1697 0026 1846     	 mov r0,r3
 1698 0028 0837     	 adds r7,r7,#8
 1699              	.LCFI115:
 1700              	 .cfi_def_cfa_offset 8
 1701 002a BD46     	 mov sp,r7
 1702              	.LCFI116:
 1703              	 .cfi_def_cfa_register 13
 1704              	 
 1705 002c 80BD     	 pop {r7,pc}
 1706              	 .cfi_endproc
 1707              	.LFE613:
 1709 002e 00BF     	 .section .text.osdWarnSetState,"ax",%progbits
 1710              	 .align 2
 1711              	 .global osdWarnSetState
 1712              	 .thumb
 1713              	 .thumb_func
 1715              	osdWarnSetState:
 1716              	.LFB614:
 437:../cleanflight/src/main/io/osd.c **** 
 438:../cleanflight/src/main/io/osd.c **** void osdWarnSetState(uint8_t warningIndex, bool enabled)
 439:../cleanflight/src/main/io/osd.c **** {
 1717              	 .loc 8 439 0
 1718              	 .cfi_startproc
 1719              	 
 1720              	 
 1721 0000 80B5     	 push {r7,lr}
 1722              	.LCFI117:
 1723              	 .cfi_def_cfa_offset 8
 1724              	 .cfi_offset 7,-8
 1725              	 .cfi_offset 14,-4
 1726 0002 82B0     	 sub sp,sp,#8
 1727              	.LCFI118:
 1728              	 .cfi_def_cfa_offset 16
 1729 0004 00AF     	 add r7,sp,#0
 1730              	.LCFI119:
 1731              	 .cfi_def_cfa_register 7
 1732 0006 0346     	 mov r3,r0
 1733 0008 0A46     	 mov r2,r1
 1734 000a FB71     	 strb r3,[r7,#7]
 1735 000c 1346     	 mov r3,r2
 1736 000e BB71     	 strb r3,[r7,#6]
 440:../cleanflight/src/main/io/osd.c ****     if (enabled) {
 1737              	 .loc 8 440 0
 1738 0010 BB79     	 ldrb r3,[r7,#6]
 1739 0012 002B     	 cmp r3,#0
 1740 0014 12D0     	 beq .L105
 441:../cleanflight/src/main/io/osd.c ****         osdConfigMutable()->enabledWarnings |= (1 << warningIndex);
 1741              	 .loc 8 441 0
 1742 0016 FFF7FEFF 	 bl osdConfigMutable
 1743 001a 0346     	 mov r3,r0
 1744 001c B3F86020 	 ldrh r2,[r3,#96]
 1745 0020 92B2     	 uxth r2,r2
 1746 0022 90B2     	 uxth r0,r2
 1747 0024 FA79     	 ldrb r2,[r7,#7]
 1748 0026 0121     	 movs r1,#1
 1749 0028 01FA02F2 	 lsl r2,r1,r2
 1750 002c 92B2     	 uxth r2,r2
 1751 002e 0146     	 mov r1,r0
 1752 0030 0A43     	 orrs r2,r2,r1
 1753 0032 92B2     	 uxth r2,r2
 1754 0034 92B2     	 uxth r2,r2
 1755 0036 A3F86020 	 strh r2,[r3,#96]
 1756 003a 13E0     	 b .L104
 1757              	.L105:
 442:../cleanflight/src/main/io/osd.c ****     } else {
 443:../cleanflight/src/main/io/osd.c ****         osdConfigMutable()->enabledWarnings &= ~(1 << warningIndex);
 1758              	 .loc 8 443 0
 1759 003c FFF7FEFF 	 bl osdConfigMutable
 1760 0040 0346     	 mov r3,r0
 1761 0042 B3F86020 	 ldrh r2,[r3,#96]
 1762 0046 92B2     	 uxth r2,r2
 1763 0048 90B2     	 uxth r0,r2
 1764 004a FA79     	 ldrb r2,[r7,#7]
 1765 004c 0121     	 movs r1,#1
 1766 004e 01FA02F2 	 lsl r2,r1,r2
 1767 0052 92B2     	 uxth r2,r2
 1768 0054 D243     	 mvns r2,r2
 1769 0056 92B2     	 uxth r2,r2
 1770 0058 0146     	 mov r1,r0
 1771 005a 0A40     	 ands r2,r2,r1
 1772 005c 92B2     	 uxth r2,r2
 1773 005e 92B2     	 uxth r2,r2
 1774 0060 A3F86020 	 strh r2,[r3,#96]
 1775              	.L104:
 444:../cleanflight/src/main/io/osd.c ****     }
 445:../cleanflight/src/main/io/osd.c **** }
 1776              	 .loc 8 445 0
 1777 0064 0837     	 adds r7,r7,#8
 1778              	.LCFI120:
 1779              	 .cfi_def_cfa_offset 8
 1780 0066 BD46     	 mov sp,r7
 1781              	.LCFI121:
 1782              	 .cfi_def_cfa_register 13
 1783              	 
 1784 0068 80BD     	 pop {r7,pc}
 1785              	 .cfi_endproc
 1786              	.LFE614:
 1788 006a 00BF     	 .section .text.osdWarnGetState,"ax",%progbits
 1789              	 .align 2
 1790              	 .global osdWarnGetState
 1791              	 .thumb
 1792              	 .thumb_func
 1794              	osdWarnGetState:
 1795              	.LFB615:
 446:../cleanflight/src/main/io/osd.c **** 
 447:../cleanflight/src/main/io/osd.c **** bool osdWarnGetState(uint8_t warningIndex)
 448:../cleanflight/src/main/io/osd.c **** {
 1796              	 .loc 8 448 0
 1797              	 .cfi_startproc
 1798              	 
 1799              	 
 1800 0000 80B5     	 push {r7,lr}
 1801              	.LCFI122:
 1802              	 .cfi_def_cfa_offset 8
 1803              	 .cfi_offset 7,-8
 1804              	 .cfi_offset 14,-4
 1805 0002 82B0     	 sub sp,sp,#8
 1806              	.LCFI123:
 1807              	 .cfi_def_cfa_offset 16
 1808 0004 00AF     	 add r7,sp,#0
 1809              	.LCFI124:
 1810              	 .cfi_def_cfa_register 7
 1811 0006 0346     	 mov r3,r0
 1812 0008 FB71     	 strb r3,[r7,#7]
 449:../cleanflight/src/main/io/osd.c ****     return osdConfig()->enabledWarnings & (1 << warningIndex);
 1813              	 .loc 8 449 0
 1814 000a FFF7FEFF 	 bl osdConfig
 1815 000e 0346     	 mov r3,r0
 1816 0010 B3F86030 	 ldrh r3,[r3,#96]
 1817 0014 9BB2     	 uxth r3,r3
 1818 0016 1946     	 mov r1,r3
 1819 0018 FB79     	 ldrb r3,[r7,#7]
 1820 001a 0122     	 movs r2,#1
 1821 001c 02FA03F3 	 lsl r3,r2,r3
 1822 0020 0B40     	 ands r3,r3,r1
 1823 0022 002B     	 cmp r3,#0
 1824 0024 14BF     	 ite ne
 1825 0026 0123     	 movne r3,#1
 1826 0028 0023     	 moveq r3,#0
 1827 002a DBB2     	 uxtb r3,r3
 450:../cleanflight/src/main/io/osd.c **** }
 1828              	 .loc 8 450 0
 1829 002c 1846     	 mov r0,r3
 1830 002e 0837     	 adds r7,r7,#8
 1831              	.LCFI125:
 1832              	 .cfi_def_cfa_offset 8
 1833 0030 BD46     	 mov sp,r7
 1834              	.LCFI126:
 1835              	 .cfi_def_cfa_register 13
 1836              	 
 1837 0032 80BD     	 pop {r7,pc}
 1838              	 .cfi_endproc
 1839              	.LFE615:
 1841              	 .section .rodata
 1842              	 .align 2
 1843              	.LC8:
 1844 0060 25632532 	 .ascii "%c%2d\000"
 1844      6400
 1845 0066 0000     	 .align 2
 1846              	.LC9:
 1847 0068 2532642E 	 .ascii "%2d.%1d%c\000"
 1847      25316425 
 1847      6300
 1848 0072 0000     	 .align 2
 1849              	.LC10:
 1850 0074 2533642E 	 .ascii "%3d.%02d%c\000"
 1850      25303264 
 1850      256300
 1851 007f 00       	 .align 2
 1852              	.LC11:
 1853 0080 25346425 	 .ascii "%4d%c\000"
 1853      6300
 1854 0086 0000     	 .align 2
 1855              	.LC12:
 1856 0088 25632563 	 .ascii "%c%c%2d\000"
 1856      25326400 
 1857              	 .align 2
 1858              	.LC13:
 1859 0090 2533644D 	 .ascii "%3dM\000"
 1859      00
 1860 0095 000000   	 .align 2
 1861              	.LC14:
 1862 0098 2533644B 	 .ascii "%3dK\000"
 1862      00
 1863 009d 000000   	 .align 2
 1864              	.LC15:
 1865 00a0 25642563 	 .ascii "%d%c\000"
 1865      00
 1866              	 .global __aeabi_i2d
 1867              	 .global __aeabi_dmul
 1868              	 .global __aeabi_dcmplt
 1869 00a5 000000   	 .align 2
 1870              	.LC16:
 1871 00a8 2D2D3A2D 	 .ascii "--:--\000"
 1871      2D00
 1872 00ae 0000     	 .align 2
 1873              	.LC17:
 1874 00b0 30303A30 	 .ascii "00:00\000"
 1874      3000
 1875 00b6 0000     	 .align 2
 1876              	.LC18:
 1877 00b8 21465321 	 .ascii "!FS!\000"
 1877      00
 1878 00bd 000000   	 .align 2
 1879              	.LC19:
 1880 00c0 53544142 	 .ascii "STAB\000"
 1880      00
 1881 00c5 000000   	 .align 2
 1882              	.LC20:
 1883 00c8 484F5220 	 .ascii "HOR \000"
 1883      00
 1884 00cd 000000   	 .align 2
 1885              	.LC21:
 1886 00d0 52455343 	 .ascii "RESC\000"
 1886      00
 1887 00d5 000000   	 .align 2
 1888              	.LC22:
 1889 00d8 4154524E 	 .ascii "ATRN\000"
 1889      00
 1890 00dd 000000   	 .align 2
 1891              	.LC23:
 1892 00e0 41495220 	 .ascii "AIR \000"
 1892      00
 1893 00e5 000000   	 .align 2
 1894              	.LC24:
 1895 00e8 4143524F 	 .ascii "ACRO\000"
 1895      00
 1896 00ed 000000   	 .align 2
 1897              	.LC25:
 1898 00f0 414700   	 .ascii "AG\000"
 1899 00f3 00       	 .align 2
 1900              	.LC26:
 1901 00f4 43524146 	 .ascii "CRAFT_NAME\000"
 1901      545F4E41 
 1901      4D4500
 1902 00ff 00       	 .align 2
 1903              	.LC27:
 1904 0100 25336400 	 .ascii "%3d\000"
 1905              	 .align 2
 1906              	.LC28:
 1907 0104 25633A25 	 .ascii "%c:%s:%1d\000"
 1907      733A2531 
 1907      6400
 1908 010e 0000     	 .align 2
 1909              	.LC29:
 1910 0110 25303164 	 .ascii "%01d.%01dG\000"
 1910      2E253031 
 1910      644700
 1911 011b 00       	 .align 2
 1912              	.LC30:
 1913 011c 524F4C00 	 .ascii "ROL\000"
 1914              	 .align 2
 1915              	.LC31:
 1916 0120 50495400 	 .ascii "PIT\000"
 1917              	 .align 2
 1918              	.LC32:
 1919 0124 59415700 	 .ascii "YAW\000"
 1920              	 .align 2
 1921              	.LC33:
 1922 0128 25346457 	 .ascii "%4dW\000"
 1922      00
 1923 012d 000000   	 .align 2
 1924              	.LC34:
 1925 0130 25642D25 	 .ascii "%d-%d\000"
 1925      6400
 1926 0136 0000     	 .align 2
 1927              	.LC35:
 1928 0138 204C414E 	 .ascii " LAND NOW\000"
 1928      44204E4F 
 1928      5700
 1929 0142 0000     	 .align 2
 1930              	.LC36:
 1931 0144 43524153 	 .ascii "CRASH FLIP\000"
 1931      4820464C 
 1931      495000
 1932 014f 00       	 .align 2
 1933              	.LC37:
 1934 0150 4C4F5720 	 .ascii "LOW BATTERY\000"
 1934      42415454 
 1934      45525900 
 1935              	 .align 2
 1936              	.LC38:
 1937 015c 5243534D 	 .ascii "RCSMOOTHING\000"
 1937      4F4F5448 
 1937      494E4700 
 1938              	 .align 2
 1939              	.LC39:
 1940 0168 42415454 	 .ascii "BATT < FULL\000"
 1940      203C2046 
 1940      554C4C00 
 1941              	 .align 2
 1942              	.LC40:
 1943 0174 20202A20 	 .ascii "  * * * *\000"
 1943      2A202A20 
 1943      2A00
 1944 017e 0000     	 .align 2
 1945              	.LC41:
 1946 0180 25642E25 	 .ascii "%d.%02d%c\000"
 1946      30326425 
 1946      6300
 1947 018a 0000     	 .align 2
 1948              	.LC42:
 1949 018c 44424720 	 .ascii "DBG %5d %5d %5d %5d\000"
 1949      25356420 
 1949      25356420 
 1949      25356420 
 1949      25356400 
 1950              	 .align 2
 1951              	.LC43:
 1952 01a0 25632530 	 .ascii "%c%02d.%01d\000"
 1952      32642E25 
 1952      30316400 
 1953              	 .align 2
 1954              	.LC44:
 1955 01ac 44495341 	 .ascii "DISARMED\000"
 1955      524D4544 
 1955      00
 1956 01b5 000000   	 .align 2
 1957              	.LC45:
 1958 01b8 20202020 	 .ascii "        \000"
 1958      20202020 
 1958      00
 1959 01c1 000000   	 .align 2
 1960              	.LC46:
 1961 01c4 25632530 	 .ascii "%c%03d\000"
 1961      336400
 1962 01cb 00       	 .align 2
 1963              	.LC47:
 1964 01cc 25632530 	 .ascii "%c%01d.%01d\000"
 1964      31642E25 
 1964      30316400 
 1965              	 .align 2
 1966              	.LC48:
 1967 01d8 25733A20 	 .ascii "%s: %3d\000"
 1967      25336400 
 1968              	 .section .text.osdDrawSingleElement,"ax",%progbits
 1969              	 .align 2
 1970              	 .thumb
 1971              	 .thumb_func
 1973              	osdDrawSingleElement:
 1974              	.LFB616:
 451:../cleanflight/src/main/io/osd.c **** 
 452:../cleanflight/src/main/io/osd.c **** static bool osdDrawSingleElement(uint8_t item)
 453:../cleanflight/src/main/io/osd.c **** {
 1975              	 .loc 8 453 0
 1976              	 .cfi_startproc
 1977              	 
 1978              	 
 1979 0000 B0B5     	 push {r4,r5,r7,lr}
 1980              	.LCFI127:
 1981              	 .cfi_def_cfa_offset 16
 1982              	 .cfi_offset 4,-16
 1983              	 .cfi_offset 5,-12
 1984              	 .cfi_offset 7,-8
 1985              	 .cfi_offset 14,-4
 1986 0002 AEB0     	 sub sp,sp,#184
 1987              	.LCFI128:
 1988              	 .cfi_def_cfa_offset 200
 1989 0004 02AF     	 add r7,sp,#8
 1990              	.LCFI129:
 1991              	 .cfi_def_cfa 7,192
 1992 0006 0346     	 mov r3,r0
 1993 0008 FB71     	 strb r3,[r7,#7]
 454:../cleanflight/src/main/io/osd.c ****     if (!VISIBLE(osdConfig()->item_pos[item]) || BLINK(item)) {
 1994              	 .loc 8 454 0
 1995 000a FFF7FEFF 	 bl osdConfig
 1996 000e 0246     	 mov r2,r0
 1997 0010 FB79     	 ldrb r3,[r7,#7]
 1998 0012 32F81330 	 ldrh r3,[r2,r3,lsl#1]
 1999 0016 9BB2     	 uxth r3,r3
 2000 0018 03F40063 	 and r3,r3,#2048
 2001 001c 002B     	 cmp r3,#0
 2002 001e 13D0     	 beq .L110
 2003              	 .loc 8 454 0 is_stmt 0 discriminator 1
 2004 0020 FB79     	 ldrb r3,[r7,#7]
 2005 0022 5B09     	 lsrs r3,r3,#5
 2006 0024 DBB2     	 uxtb r3,r3
 2007 0026 1A46     	 mov r2,r3
 2008 0028 D44B     	 ldr r3,.L223
 2009 002a 53F82230 	 ldr r3,[r3,r2,lsl#2]
 2010 002e FA79     	 ldrb r2,[r7,#7]
 2011 0030 02F01F02 	 and r2,r2,#31
 2012 0034 0121     	 movs r1,#1
 2013 0036 01FA02F2 	 lsl r2,r1,r2
 2014 003a 1340     	 ands r3,r3,r2
 2015 003c 002B     	 cmp r3,#0
 2016 003e 06D0     	 beq .L111
 2017              	 .loc 8 454 0 discriminator 2
 2018 0040 CF4B     	 ldr r3,.L223+4
 2019 0042 1B78     	 ldrb r3,[r3]
 2020 0044 002B     	 cmp r3,#0
 2021 0046 02D0     	 beq .L111
 2022              	.L110:
 455:../cleanflight/src/main/io/osd.c ****         return false;
 2023              	 .loc 8 455 0 is_stmt 1
 2024 0048 0023     	 movs r3,#0
 2025 004a 00F0FEBF 	 b .L218
 2026              	.L111:
 456:../cleanflight/src/main/io/osd.c ****     }
 457:../cleanflight/src/main/io/osd.c **** 
 458:../cleanflight/src/main/io/osd.c ****     uint8_t elemPosX = OSD_X(osdConfig()->item_pos[item]);
 2027              	 .loc 8 458 0
 2028 004e FFF7FEFF 	 bl osdConfig
 2029 0052 0246     	 mov r2,r0
 2030 0054 FB79     	 ldrb r3,[r7,#7]
 2031 0056 32F81330 	 ldrh r3,[r2,r3,lsl#1]
 2032 005a 9BB2     	 uxth r3,r3
 2033 005c DBB2     	 uxtb r3,r3
 2034 005e 03F01F03 	 and r3,r3,#31
 2035 0062 87F88F30 	 strb r3,[r7,#143]
 459:../cleanflight/src/main/io/osd.c ****     uint8_t elemPosY = OSD_Y(osdConfig()->item_pos[item]);
 2036              	 .loc 8 459 0
 2037 0066 FFF7FEFF 	 bl osdConfig
 2038 006a 0246     	 mov r2,r0
 2039 006c FB79     	 ldrb r3,[r7,#7]
 2040 006e 32F81330 	 ldrh r3,[r2,r3,lsl#1]
 2041 0072 9BB2     	 uxth r3,r3
 2042 0074 5B09     	 lsrs r3,r3,#5
 2043 0076 9BB2     	 uxth r3,r3
 2044 0078 DBB2     	 uxtb r3,r3
 2045 007a 03F01F03 	 and r3,r3,#31
 2046 007e 87F88E30 	 strb r3,[r7,#142]
 460:../cleanflight/src/main/io/osd.c ****     char buff[OSD_ELEMENT_BUFFER_LENGTH] = "";
 2047              	 .loc 8 460 0
 2048 0082 0023     	 movs r3,#0
 2049 0084 FB60     	 str r3,[r7,#12]
 2050 0086 07F11003 	 add r3,r7,#16
 2051 008a 0022     	 movs r2,#0
 2052 008c 1A60     	 str r2,[r3]
 2053 008e 0433     	 adds r3,r3,#4
 2054 0090 0022     	 movs r2,#0
 2055 0092 1A60     	 str r2,[r3]
 2056 0094 0433     	 adds r3,r3,#4
 2057 0096 0022     	 movs r2,#0
 2058 0098 1A60     	 str r2,[r3]
 2059 009a 0433     	 adds r3,r3,#4
 2060 009c 0022     	 movs r2,#0
 2061 009e 1A60     	 str r2,[r3]
 2062 00a0 0433     	 adds r3,r3,#4
 2063 00a2 0022     	 movs r2,#0
 2064 00a4 1A60     	 str r2,[r3]
 2065 00a6 0433     	 adds r3,r3,#4
 2066 00a8 0022     	 movs r2,#0
 2067 00aa 1A60     	 str r2,[r3]
 2068 00ac 0433     	 adds r3,r3,#4
 2069 00ae 0022     	 movs r2,#0
 2070 00b0 1A60     	 str r2,[r3]
 2071 00b2 0433     	 adds r3,r3,#4
 461:../cleanflight/src/main/io/osd.c **** 
 462:../cleanflight/src/main/io/osd.c ****     switch (item) {
 2072              	 .loc 8 462 0
 2073 00b4 FB79     	 ldrb r3,[r7,#7]
 2074 00b6 2A2B     	 cmp r3,#42
 2075 00b8 00F2BA87 	 bhi .L113
 2076 00bc 01A2     	 adr r2,.L115
 2077 00be 52F823F0 	 ldr pc,[r2,r3,lsl#2]
 2078 00c2 00BF     	 .p2align 2
 2079              	.L115:
 2080 00c4 71010000 	 .word .L114+1
 2081 00c8 B1010000 	 .word .L116+1
 2082 00cc F5070000 	 .word .L117+1
 2083 00d0 09080000 	 .word .L118+1
 2084 00d4 27090000 	 .word .L119+1
 2085 00d8 89040000 	 .word .L120+1
 2086 00dc 89040000 	 .word .L120+1
 2087 00e0 6F050000 	 .word .L121+1
 2088 00e4 5D060000 	 .word .L122+1
 2089 00e8 3D070000 	 .word .L123+1
 2090 00ec 83070000 	 .word .L124+1
 2091 00f0 0D020000 	 .word .L125+1
 2092 00f4 5B020000 	 .word .L126+1
 2093 00f8 8F020000 	 .word .L127+1
 2094 00fc 73020000 	 .word .L128+1
 2095 0100 73040000 	 .word .L129+1
 2096 0104 C30A0000 	 .word .L130+1
 2097 0108 D90A0000 	 .word .L131+1
 2098 010c EF0A0000 	 .word .L132+1
 2099 0110 050B0000 	 .word .L133+1
 2100 0114 310B0000 	 .word .L134+1
 2101 0118 510B0000 	 .word .L135+1
 2102 011c EF0C0000 	 .word .L136+1
 2103 0120 0F030000 	 .word .L137+1
 2104 0124 F9020000 	 .word .L138+1
 2105 0128 950D0000 	 .word .L139+1
 2106 012c C30D0000 	 .word .L140+1
 2107 0130 C30D0000 	 .word .L140+1
 2108 0134 370E0000 	 .word .L141+1
 2109 0138 190F0000 	 .word .L142+1
 2110 013c 25030000 	 .word .L143+1
 2111 0140 D5030000 	 .word .L144+1
 2112 0144 510F0000 	 .word .L145+1
 2113 0148 870F0000 	 .word .L146+1
 2114 014c 33040000 	 .word .L147+1
 2115 0150 31100000 	 .word .L113+1
 2116 0154 31100000 	 .word .L113+1
 2117 0158 9F040000 	 .word .L148+1
 2118 015c FB0F0000 	 .word .L149+1
 2119 0160 07100000 	 .word .L150+1
 2120 0164 31100000 	 .word .L113+1
 2121 0168 39060000 	 .word .L151+1
 2122 016c ED090000 	 .word .L152+1
 2123              	 .p2align 1
 2124              	.L114:
 2125              	.LBB5:
 463:../cleanflight/src/main/io/osd.c ****     case OSD_RSSI_VALUE:
 464:../cleanflight/src/main/io/osd.c ****         {
 465:../cleanflight/src/main/io/osd.c ****             uint16_t osdRssi = getRssi() * 100 / 1024; // change range
 2126              	 .loc 8 465 0
 2127 0170 FFF7FEFF 	 bl getRssi
 2128 0174 0346     	 mov r3,r0
 2129 0176 1A46     	 mov r2,r3
 2130 0178 6423     	 movs r3,#100
 2131 017a 03FB02F3 	 mul r3,r3,r2
 2132 017e 002B     	 cmp r3,#0
 2133 0180 01DA     	 bge .L153
 2134 0182 03F2FF33 	 addw r3,r3,#1023
 2135              	.L153:
 2136 0186 9B12     	 asrs r3,r3,#10
 2137 0188 A7F8AE30 	 strh r3,[r7,#174]
 466:../cleanflight/src/main/io/osd.c ****             if (osdRssi >= 100)
 2138              	 .loc 8 466 0
 2139 018c B7F8AE30 	 ldrh r3,[r7,#174]
 2140 0190 632B     	 cmp r3,#99
 2141 0192 02D9     	 bls .L154
 467:../cleanflight/src/main/io/osd.c ****                 osdRssi = 99;
 2142              	 .loc 8 467 0
 2143 0194 6323     	 movs r3,#99
 2144 0196 A7F8AE30 	 strh r3,[r7,#174]
 2145              	.L154:
 468:../cleanflight/src/main/io/osd.c **** 
 469:../cleanflight/src/main/io/osd.c ****             tfp_sprintf(buff, "%c%2d", SYM_RSSI, osdRssi);
 2146              	 .loc 8 469 0
 2147 019a B7F8AE30 	 ldrh r3,[r7,#174]
 2148 019e 07F10C02 	 add r2,r7,#12
 2149 01a2 1046     	 mov r0,r2
 2150 01a4 7749     	 ldr r1,.L223+8
 2151 01a6 0122     	 movs r2,#1
 2152 01a8 FFF7FEFF 	 bl tfp_sprintf
 470:../cleanflight/src/main/io/osd.c ****             break;
 2153              	 .loc 8 470 0
 2154 01ac 00F042BF 	 b .L155
 2155              	.L116:
 2156              	.LBE5:
 471:../cleanflight/src/main/io/osd.c ****         }
 472:../cleanflight/src/main/io/osd.c **** 
 473:../cleanflight/src/main/io/osd.c ****     case OSD_MAIN_BATT_VOLTAGE:
 474:../cleanflight/src/main/io/osd.c ****         buff[0] = osdGetBatterySymbol(osdGetBatteryAverageCellVoltage());
 2157              	 .loc 8 474 0
 2158 01b0 FFF7FEFF 	 bl osdGetBatteryAverageCellVoltage
 2159 01b4 0346     	 mov r3,r0
 2160 01b6 1846     	 mov r0,r3
 2161 01b8 FFF7FEFF 	 bl osdGetBatterySymbol
 2162 01bc 0346     	 mov r3,r0
 2163 01be 3B73     	 strb r3,[r7,#12]
 475:../cleanflight/src/main/io/osd.c ****         tfp_sprintf(buff + 1, "%2d.%1d%c", getBatteryVoltage() / 10, getBatteryVoltage() % 10, SYM_
 2164              	 .loc 8 475 0
 2165 01c0 FFF7FEFF 	 bl getBatteryVoltage
 2166 01c4 0346     	 mov r3,r0
 2167 01c6 1A46     	 mov r2,r3
 2168 01c8 6F4B     	 ldr r3,.L223+12
 2169 01ca A3FB0223 	 umull r2,r3,r3,r2
 2170 01ce DB08     	 lsrs r3,r3,#3
 2171 01d0 9BB2     	 uxth r3,r3
 2172 01d2 1D46     	 mov r5,r3
 2173 01d4 FFF7FEFF 	 bl getBatteryVoltage
 2174 01d8 0346     	 mov r3,r0
 2175 01da 1A46     	 mov r2,r3
 2176 01dc 6A4B     	 ldr r3,.L223+12
 2177 01de A3FB0213 	 umull r1,r3,r3,r2
 2178 01e2 D908     	 lsrs r1,r3,#3
 2179 01e4 0B46     	 mov r3,r1
 2180 01e6 9B00     	 lsls r3,r3,#2
 2181 01e8 0B44     	 add r3,r3,r1
 2182 01ea 5B00     	 lsls r3,r3,#1
 2183 01ec D31A     	 subs r3,r2,r3
 2184 01ee 9BB2     	 uxth r3,r3
 2185 01f0 1C46     	 mov r4,r3
 2186 01f2 07F10C03 	 add r3,r7,#12
 2187 01f6 5A1C     	 adds r2,r3,#1
 2188 01f8 0623     	 movs r3,#6
 2189 01fa 0093     	 str r3,[sp]
 2190 01fc 1046     	 mov r0,r2
 2191 01fe 6349     	 ldr r1,.L223+16
 2192 0200 2A46     	 mov r2,r5
 2193 0202 2346     	 mov r3,r4
 2194 0204 FFF7FEFF 	 bl tfp_sprintf
 476:../cleanflight/src/main/io/osd.c ****         break;
 2195              	 .loc 8 476 0
 2196 0208 00F014BF 	 b .L155
 2197              	.L125:
 2198              	.LBB6:
 477:../cleanflight/src/main/io/osd.c **** 
 478:../cleanflight/src/main/io/osd.c ****     case OSD_CURRENT_DRAW:
 479:../cleanflight/src/main/io/osd.c ****         {
 480:../cleanflight/src/main/io/osd.c ****             const int32_t amperage = getAmperage();
 2199              	 .loc 8 480 0
 2200 020c FFF7FEFF 	 bl getAmperage
 2201 0210 3867     	 str r0,[r7,#112]
 481:../cleanflight/src/main/io/osd.c ****             tfp_sprintf(buff, "%3d.%02d%c", abs(amperage) / 100, abs(amperage) % 100, SYM_AMP);
 2202              	 .loc 8 481 0
 2203 0212 3B6F     	 ldr r3,[r7,#112]
 2204 0214 002B     	 cmp r3,#0
 2205 0216 B8BF     	 it lt
 2206 0218 5B42     	 rsblt r3,r3,#0
 2207 021a 5D4A     	 ldr r2,.L223+20
 2208 021c 82FB0312 	 smull r1,r2,r2,r3
 2209 0220 5211     	 asrs r2,r2,#5
 2210 0222 DB17     	 asrs r3,r3,#31
 2211 0224 D51A     	 subs r5,r2,r3
 2212 0226 3B6F     	 ldr r3,[r7,#112]
 2213 0228 002B     	 cmp r3,#0
 2214 022a B8BF     	 it lt
 2215 022c 5B42     	 rsblt r3,r3,#0
 2216 022e 584A     	 ldr r2,.L223+20
 2217 0230 82FB0312 	 smull r1,r2,r2,r3
 2218 0234 5111     	 asrs r1,r2,#5
 2219 0236 DA17     	 asrs r2,r3,#31
 2220 0238 8C1A     	 subs r4,r1,r2
 2221 023a 6422     	 movs r2,#100
 2222 023c 02FB04F2 	 mul r2,r2,r4
 2223 0240 9C1A     	 subs r4,r3,r2
 2224 0242 07F10C02 	 add r2,r7,#12
 2225 0246 9A23     	 movs r3,#154
 2226 0248 0093     	 str r3,[sp]
 2227 024a 1046     	 mov r0,r2
 2228 024c 5149     	 ldr r1,.L223+24
 2229 024e 2A46     	 mov r2,r5
 2230 0250 2346     	 mov r3,r4
 2231 0252 FFF7FEFF 	 bl tfp_sprintf
 482:../cleanflight/src/main/io/osd.c ****             break;
 2232              	 .loc 8 482 0
 2233 0256 00F0EDBE 	 b .L155
 2234              	.L126:
 2235              	.LBE6:
 483:../cleanflight/src/main/io/osd.c ****         }
 484:../cleanflight/src/main/io/osd.c **** 
 485:../cleanflight/src/main/io/osd.c ****     case OSD_MAH_DRAWN:
 486:../cleanflight/src/main/io/osd.c ****         tfp_sprintf(buff, "%4d%c", getMAhDrawn(), SYM_MAH);
 2236              	 .loc 8 486 0
 2237 025a FFF7FEFF 	 bl getMAhDrawn
 2238 025e 0246     	 mov r2,r0
 2239 0260 07F10C03 	 add r3,r7,#12
 2240 0264 1846     	 mov r0,r3
 2241 0266 4C49     	 ldr r1,.L223+28
 2242 0268 0723     	 movs r3,#7
 2243 026a FFF7FEFF 	 bl tfp_sprintf
 487:../cleanflight/src/main/io/osd.c ****         break;
 2244              	 .loc 8 487 0
 2245 026e 00F0E1BE 	 b .L155
 2246              	.L128:
 488:../cleanflight/src/main/io/osd.c **** 
 489:../cleanflight/src/main/io/osd.c **** #ifdef USE_GPS
 490:../cleanflight/src/main/io/osd.c ****     case OSD_GPS_SATS:
 491:../cleanflight/src/main/io/osd.c ****         tfp_sprintf(buff, "%c%c%2d", SYM_SAT_L, SYM_SAT_R, gpsSol.numSat);
 2247              	 .loc 8 491 0
 2248 0272 4A4B     	 ldr r3,.L223+32
 2249 0274 9B7C     	 ldrb r3,[r3,#18]
 2250 0276 1A46     	 mov r2,r3
 2251 0278 07F10C03 	 add r3,r7,#12
 2252 027c 0092     	 str r2,[sp]
 2253 027e 1846     	 mov r0,r3
 2254 0280 4749     	 ldr r1,.L223+36
 2255 0282 1E22     	 movs r2,#30
 2256 0284 1F23     	 movs r3,#31
 2257 0286 FFF7FEFF 	 bl tfp_sprintf
 492:../cleanflight/src/main/io/osd.c ****         break;
 2258              	 .loc 8 492 0
 2259 028a 00F0D3BE 	 b .L155
 2260              	.L127:
 493:../cleanflight/src/main/io/osd.c **** 
 494:../cleanflight/src/main/io/osd.c ****     case OSD_GPS_SPEED:
 495:../cleanflight/src/main/io/osd.c ****         // FIXME ideally we want to use SYM_KMH symbol but it's not in the font any more, so we use
 496:../cleanflight/src/main/io/osd.c ****         switch (osdConfig()->units) {
 2261              	 .loc 8 496 0
 2262 028e FFF7FEFF 	 bl osdConfig
 2263 0292 0346     	 mov r3,r0
 2264 0294 93F85B30 	 ldrb r3,[r3,#91]
 2265 0298 002B     	 cmp r3,#0
 2266 029a 15D1     	 bne .L220
 497:../cleanflight/src/main/io/osd.c ****         case OSD_UNIT_IMPERIAL:
 498:../cleanflight/src/main/io/osd.c ****             tfp_sprintf(buff, "%3dM", CM_S_TO_MPH(gpsSol.groundSpeed));
 2267              	 .loc 8 498 0
 2268 029c 3F4B     	 ldr r3,.L223+32
 2269 029e 9B89     	 ldrh r3,[r3,#12]
 2270 02a0 9BB2     	 uxth r3,r3
 2271 02a2 1A46     	 mov r2,r3
 2272 02a4 42F21073 	 movw r3,#10000
 2273 02a8 03FB02F3 	 mul r3,r3,r2
 2274 02ac 3D4A     	 ldr r2,.L223+40
 2275 02ae 82FB0312 	 smull r1,r2,r2,r3
 2276 02b2 1214     	 asrs r2,r2,#16
 2277 02b4 DB17     	 asrs r3,r3,#31
 2278 02b6 D31A     	 subs r3,r2,r3
 2279 02b8 07F10C02 	 add r2,r7,#12
 2280 02bc 1046     	 mov r0,r2
 2281 02be 3A49     	 ldr r1,.L223+44
 2282 02c0 1A46     	 mov r2,r3
 2283 02c2 FFF7FEFF 	 bl tfp_sprintf
 499:../cleanflight/src/main/io/osd.c ****             break;
 2284              	 .loc 8 499 0
 2285 02c6 15E0     	 b .L158
 2286              	.L220:
 500:../cleanflight/src/main/io/osd.c ****         default:
 501:../cleanflight/src/main/io/osd.c ****             tfp_sprintf(buff, "%3dK", CM_S_TO_KM_H(gpsSol.groundSpeed));
 2287              	 .loc 8 501 0
 2288 02c8 344B     	 ldr r3,.L223+32
 2289 02ca 9B89     	 ldrh r3,[r3,#12]
 2290 02cc 9BB2     	 uxth r3,r3
 2291 02ce 1A46     	 mov r2,r3
 2292 02d0 1346     	 mov r3,r2
 2293 02d2 DB00     	 lsls r3,r3,#3
 2294 02d4 1344     	 add r3,r3,r2
 2295 02d6 9B00     	 lsls r3,r3,#2
 2296 02d8 344A     	 ldr r2,.L223+48
 2297 02da 82FB0312 	 smull r1,r2,r2,r3
 2298 02de 9211     	 asrs r2,r2,#6
 2299 02e0 DB17     	 asrs r3,r3,#31
 2300 02e2 D31A     	 subs r3,r2,r3
 2301 02e4 07F10C02 	 add r2,r7,#12
 2302 02e8 1046     	 mov r0,r2
 2303 02ea 3149     	 ldr r1,.L223+52
 2304 02ec 1A46     	 mov r2,r3
 2305 02ee FFF7FEFF 	 bl tfp_sprintf
 502:../cleanflight/src/main/io/osd.c ****             break;
 2306              	 .loc 8 502 0
 2307 02f2 00BF     	 nop
 2308              	.L158:
 503:../cleanflight/src/main/io/osd.c ****         }
 504:../cleanflight/src/main/io/osd.c ****         break;
 2309              	 .loc 8 504 0
 2310 02f4 00F09EBE 	 b .L155
 2311              	.L138:
 505:../cleanflight/src/main/io/osd.c **** 
 506:../cleanflight/src/main/io/osd.c ****     case OSD_GPS_LAT:
 507:../cleanflight/src/main/io/osd.c ****         // The SYM_LAT symbol in the actual font contains only blank, so we use the SYM_ARROW_NORTH
 508:../cleanflight/src/main/io/osd.c ****         osdFormatCoordinate(buff, SYM_ARROW_NORTH, gpsSol.llh.lat);
 2312              	 .loc 8 508 0
 2313 02f8 284B     	 ldr r3,.L223+32
 2314 02fa 1B68     	 ldr r3,[r3]
 2315 02fc 07F10C02 	 add r2,r7,#12
 2316 0300 1046     	 mov r0,r2
 2317 0302 6821     	 movs r1,#104
 2318 0304 1A46     	 mov r2,r3
 2319 0306 FFF7FEFF 	 bl osdFormatCoordinate
 509:../cleanflight/src/main/io/osd.c ****         break;
 2320              	 .loc 8 509 0
 2321 030a 00F093BE 	 b .L155
 2322              	.L137:
 510:../cleanflight/src/main/io/osd.c **** 
 511:../cleanflight/src/main/io/osd.c ****     case OSD_GPS_LON:
 512:../cleanflight/src/main/io/osd.c ****         // The SYM_LON symbol in the actual font contains only blank, so we use the SYM_ARROW_EAST
 513:../cleanflight/src/main/io/osd.c ****         osdFormatCoordinate(buff, SYM_ARROW_EAST, gpsSol.llh.lon);
 2323              	 .loc 8 513 0
 2324 030e 234B     	 ldr r3,.L223+32
 2325 0310 5B68     	 ldr r3,[r3,#4]
 2326 0312 07F10C02 	 add r2,r7,#12
 2327 0316 1046     	 mov r0,r2
 2328 0318 6421     	 movs r1,#100
 2329 031a 1A46     	 mov r2,r3
 2330 031c FFF7FEFF 	 bl osdFormatCoordinate
 514:../cleanflight/src/main/io/osd.c ****         break;
 2331              	 .loc 8 514 0
 2332 0320 00F088BE 	 b .L155
 2333              	.L143:
 515:../cleanflight/src/main/io/osd.c **** 
 516:../cleanflight/src/main/io/osd.c ****     case OSD_HOME_DIR:
 517:../cleanflight/src/main/io/osd.c ****         if (STATE(GPS_FIX) && STATE(GPS_FIX_HOME)) {
 2334              	 .loc 8 517 0
 2335 0324 234B     	 ldr r3,.L223+56
 2336 0326 1B78     	 ldrb r3,[r3]
 2337 0328 03F00203 	 and r3,r3,#2
 2338 032c 002B     	 cmp r3,#0
 2339 032e 4BD0     	 beq .L159
 2340              	 .loc 8 517 0 is_stmt 0 discriminator 1
 2341 0330 204B     	 ldr r3,.L223+56
 2342 0332 1B78     	 ldrb r3,[r3]
 2343 0334 03F00103 	 and r3,r3,#1
 2344 0338 002B     	 cmp r3,#0
 2345 033a 45D0     	 beq .L159
 518:../cleanflight/src/main/io/osd.c ****             if (GPS_distanceToHome > 0) {
 2346              	 .loc 8 518 0 is_stmt 1
 2347 033c 1E4B     	 ldr r3,.L223+60
 2348 033e 1B88     	 ldrh r3,[r3]
 2349 0340 002B     	 cmp r3,#0
 2350 0342 17D0     	 beq .L160
 2351              	.LBB7:
 519:../cleanflight/src/main/io/osd.c ****                 const int h = GPS_directionToHome - DECIDEGREES_TO_DEGREES(attitude.values.yaw);
 2352              	 .loc 8 519 0
 2353 0344 1D4B     	 ldr r3,.L223+64
 2354 0346 1B88     	 ldrh r3,[r3]
 2355 0348 1AB2     	 sxth r2,r3
 2356 034a 1D4B     	 ldr r3,.L223+68
 2357 034c B3F90430 	 ldrsh r3,[r3,#4]
 2358 0350 9BB2     	 uxth r3,r3
 2359 0352 1BB2     	 sxth r3,r3
 2360 0354 1B49     	 ldr r1,.L223+72
 2361 0356 81FB0301 	 smull r0,r1,r1,r3
 2362 035a 8910     	 asrs r1,r1,#2
 2363 035c DB17     	 asrs r3,r3,#31
 2364 035e CB1A     	 subs r3,r1,r3
 2365 0360 9BB2     	 uxth r3,r3
 2366 0362 1BB2     	 sxth r3,r3
 2367 0364 D31A     	 subs r3,r2,r3
 2368 0366 FB66     	 str r3,[r7,#108]
 520:../cleanflight/src/main/io/osd.c ****                 buff[0] = osdGetDirectionSymbolFromHeading(h);
 2369              	 .loc 8 520 0
 2370 0368 F86E     	 ldr r0,[r7,#108]
 2371 036a FFF7FEFF 	 bl osdGetDirectionSymbolFromHeading
 2372 036e 0346     	 mov r3,r0
 2373 0370 3B73     	 strb r3,[r7,#12]
 2374              	.LBE7:
 518:../cleanflight/src/main/io/osd.c ****             if (GPS_distanceToHome > 0) {
 2375              	 .loc 8 518 0
 2376 0372 2BE0     	 b .L162
 2377              	.L160:
 521:../cleanflight/src/main/io/osd.c ****             } else {
 522:../cleanflight/src/main/io/osd.c ****                 // We don't have a HOME symbol in the font, by now we use this
 523:../cleanflight/src/main/io/osd.c ****                 buff[0] = SYM_THR1;
 2378              	 .loc 8 523 0
 2379 0374 0523     	 movs r3,#5
 2380 0376 3B73     	 strb r3,[r7,#12]
 518:../cleanflight/src/main/io/osd.c ****                 const int h = GPS_directionToHome - DECIDEGREES_TO_DEGREES(attitude.values.yaw);
 2381              	 .loc 8 518 0
 2382 0378 28E0     	 b .L162
 2383              	.L224:
 2384 037a 00BF     	 .align 2
 2385              	.L223:
 2386 037c 00000000 	 .word blinkBits
 2387 0380 00000000 	 .word blinkState
 2388 0384 60000000 	 .word .LC8
 2389 0388 CDCCCCCC 	 .word -858993459
 2390 038c 68000000 	 .word .LC9
 2391 0390 1F85EB51 	 .word 1374389535
 2392 0394 74000000 	 .word .LC10
 2393 0398 80000000 	 .word .LC11
 2394 039c 00000000 	 .word gpsSol
 2395 03a0 88000000 	 .word .LC12
 2396 03a4 77918725 	 .word 629641591
 2397 03a8 90000000 	 .word .LC13
 2398 03ac D34D6210 	 .word 274877907
 2399 03b0 98000000 	 .word .LC14
 2400 03b4 00000000 	 .word stateFlags
 2401 03b8 00000000 	 .word GPS_distanceToHome
 2402 03bc 00000000 	 .word GPS_directionToHome
 2403 03c0 00000000 	 .word attitude
 2404 03c4 67666666 	 .word 1717986919
 2405              	.L159:
 524:../cleanflight/src/main/io/osd.c ****             }
 525:../cleanflight/src/main/io/osd.c **** 
 526:../cleanflight/src/main/io/osd.c ****         } else {
 527:../cleanflight/src/main/io/osd.c ****             // We use this symbol when we don't have a FIX
 528:../cleanflight/src/main/io/osd.c ****             buff[0] = SYM_COLON;
 2406              	 .loc 8 528 0
 2407 03c8 2D23     	 movs r3,#45
 2408 03ca 3B73     	 strb r3,[r7,#12]
 2409              	.L162:
 529:../cleanflight/src/main/io/osd.c ****         }
 530:../cleanflight/src/main/io/osd.c **** 
 531:../cleanflight/src/main/io/osd.c ****         buff[1] = 0;
 2410              	 .loc 8 531 0
 2411 03cc 0023     	 movs r3,#0
 2412 03ce 7B73     	 strb r3,[r7,#13]
 532:../cleanflight/src/main/io/osd.c **** 
 533:../cleanflight/src/main/io/osd.c ****         break;
 2413              	 .loc 8 533 0
 2414 03d0 00F030BE 	 b .L155
 2415              	.L144:
 534:../cleanflight/src/main/io/osd.c **** 
 535:../cleanflight/src/main/io/osd.c ****     case OSD_HOME_DIST:
 536:../cleanflight/src/main/io/osd.c ****         if (STATE(GPS_FIX) && STATE(GPS_FIX_HOME)) {
 2416              	 .loc 8 536 0
 2417 03d4 C64B     	 ldr r3,.L225+8
 2418 03d6 1B78     	 ldrb r3,[r3]
 2419 03d8 03F00203 	 and r3,r3,#2
 2420 03dc 002B     	 cmp r3,#0
 2421 03de 1AD0     	 beq .L163
 2422              	 .loc 8 536 0 is_stmt 0 discriminator 1
 2423 03e0 C34B     	 ldr r3,.L225+8
 2424 03e2 1B78     	 ldrb r3,[r3]
 2425 03e4 03F00103 	 and r3,r3,#1
 2426 03e8 002B     	 cmp r3,#0
 2427 03ea 14D0     	 beq .L163
 2428              	.LBB8:
 537:../cleanflight/src/main/io/osd.c ****             const int32_t distance = osdGetMetersToSelectedUnit(GPS_distanceToHome);
 2429              	 .loc 8 537 0 is_stmt 1
 2430 03ec C14B     	 ldr r3,.L225+12
 2431 03ee 1B88     	 ldrh r3,[r3]
 2432 03f0 1846     	 mov r0,r3
 2433 03f2 FFF7FEFF 	 bl osdGetMetersToSelectedUnit
 2434 03f6 B866     	 str r0,[r7,#104]
 538:../cleanflight/src/main/io/osd.c ****             tfp_sprintf(buff, "%d%c", distance, osdGetMetersToSelectedUnitSymbol());
 2435              	 .loc 8 538 0
 2436 03f8 FFF7FEFF 	 bl osdGetMetersToSelectedUnitSymbol
 2437 03fc 0346     	 mov r3,r0
 2438 03fe 1C46     	 mov r4,r3
 2439 0400 07F10C03 	 add r3,r7,#12
 2440 0404 1846     	 mov r0,r3
 2441 0406 BC49     	 ldr r1,.L225+16
 2442 0408 BA6E     	 ldr r2,[r7,#104]
 2443 040a 2346     	 mov r3,r4
 2444 040c FFF7FEFF 	 bl tfp_sprintf
 2445              	.LBE8:
 536:../cleanflight/src/main/io/osd.c ****             const int32_t distance = osdGetMetersToSelectedUnit(GPS_distanceToHome);
 2446              	 .loc 8 536 0
 2447 0410 00BF     	 nop
 539:../cleanflight/src/main/io/osd.c ****         } else {
 540:../cleanflight/src/main/io/osd.c ****             // We use this symbol when we don't have a FIX
 541:../cleanflight/src/main/io/osd.c ****             buff[0] = SYM_COLON;
 542:../cleanflight/src/main/io/osd.c ****             // overwrite any previous distance with blanks
 543:../cleanflight/src/main/io/osd.c ****             memset(buff + 1, SYM_BLANK, 6);
 544:../cleanflight/src/main/io/osd.c ****             buff[7] = '\0';
 545:../cleanflight/src/main/io/osd.c ****         }
 546:../cleanflight/src/main/io/osd.c ****         break;
 2448              	 .loc 8 546 0
 2449 0412 00F00FBE 	 b .L155
 2450              	.L163:
 541:../cleanflight/src/main/io/osd.c ****             // overwrite any previous distance with blanks
 2451              	 .loc 8 541 0
 2452 0416 2D23     	 movs r3,#45
 2453 0418 3B73     	 strb r3,[r7,#12]
 543:../cleanflight/src/main/io/osd.c ****             buff[7] = '\0';
 2454              	 .loc 8 543 0
 2455 041a 07F10C03 	 add r3,r7,#12
 2456 041e 0133     	 adds r3,r3,#1
 2457 0420 1846     	 mov r0,r3
 2458 0422 2021     	 movs r1,#32
 2459 0424 0622     	 movs r2,#6
 2460 0426 FFF7FEFF 	 bl memset
 544:../cleanflight/src/main/io/osd.c ****         }
 2461              	 .loc 8 544 0
 2462 042a 0023     	 movs r3,#0
 2463 042c FB74     	 strb r3,[r7,#19]
 2464              	 .loc 8 546 0
 2465 042e 00F001BE 	 b .L155
 2466              	.L147:
 547:../cleanflight/src/main/io/osd.c **** 
 548:../cleanflight/src/main/io/osd.c **** #endif // GPS
 549:../cleanflight/src/main/io/osd.c **** 
 550:../cleanflight/src/main/io/osd.c ****     case OSD_COMPASS_BAR:
 551:../cleanflight/src/main/io/osd.c ****         memcpy(buff, compassBar + osdGetHeadingIntoDiscreteDirections(DECIDEGREES_TO_DEGREES(attitu
 2467              	 .loc 8 551 0
 2468 0432 B24B     	 ldr r3,.L225+20
 2469 0434 B3F90430 	 ldrsh r3,[r3,#4]
 2470 0438 9BB2     	 uxth r3,r3
 2471 043a 1BB2     	 sxth r3,r3
 2472 043c B04A     	 ldr r2,.L225+24
 2473 043e 82FB0312 	 smull r1,r2,r2,r3
 2474 0442 9210     	 asrs r2,r2,#2
 2475 0444 DB17     	 asrs r3,r3,#31
 2476 0446 D31A     	 subs r3,r2,r3
 2477 0448 9BB2     	 uxth r3,r3
 2478 044a 1BB2     	 sxth r3,r3
 2479 044c 1846     	 mov r0,r3
 2480 044e 1021     	 movs r1,#16
 2481 0450 FFF7FEFF 	 bl osdGetHeadingIntoDiscreteDirections
 2482 0454 0346     	 mov r3,r0
 2483 0456 1A46     	 mov r2,r3
 2484 0458 AA4B     	 ldr r3,.L225+28
 2485 045a 1344     	 add r3,r3,r2
 2486 045c 07F10C02 	 add r2,r7,#12
 2487 0460 1046     	 mov r0,r2
 2488 0462 1946     	 mov r1,r3
 2489 0464 0922     	 movs r2,#9
 2490 0466 FFF7FEFF 	 bl memcpy
 552:../cleanflight/src/main/io/osd.c ****         buff[9] = 0;
 2491              	 .loc 8 552 0
 2492 046a 0023     	 movs r3,#0
 2493 046c 7B75     	 strb r3,[r7,#21]
 553:../cleanflight/src/main/io/osd.c ****         break;
 2494              	 .loc 8 553 0
 2495 046e 00F0E1BD 	 b .L155
 2496              	.L129:
 554:../cleanflight/src/main/io/osd.c **** 
 555:../cleanflight/src/main/io/osd.c ****     case OSD_ALTITUDE:
 556:../cleanflight/src/main/io/osd.c ****         osdFormatAltitudeString(buff, getEstimatedAltitude());
 2497              	 .loc 8 556 0
 2498 0472 FFF7FEFF 	 bl getEstimatedAltitude
 2499 0476 0246     	 mov r2,r0
 2500 0478 07F10C03 	 add r3,r7,#12
 2501 047c 1846     	 mov r0,r3
 2502 047e 1146     	 mov r1,r2
 2503 0480 FFF7FEFF 	 bl osdFormatAltitudeString
 557:../cleanflight/src/main/io/osd.c ****         break;
 2504              	 .loc 8 557 0
 2505 0484 00F0D6BD 	 b .L155
 2506              	.L120:
 558:../cleanflight/src/main/io/osd.c **** 
 559:../cleanflight/src/main/io/osd.c ****     case OSD_ITEM_TIMER_1:
 560:../cleanflight/src/main/io/osd.c ****     case OSD_ITEM_TIMER_2:
 561:../cleanflight/src/main/io/osd.c ****         osdFormatTimer(buff, true, true, item - OSD_ITEM_TIMER_1);
 2507              	 .loc 8 561 0
 2508 0488 FB79     	 ldrb r3,[r7,#7]
 2509 048a 053B     	 subs r3,r3,#5
 2510 048c 07F10C02 	 add r2,r7,#12
 2511 0490 1046     	 mov r0,r2
 2512 0492 0121     	 movs r1,#1
 2513 0494 0122     	 movs r2,#1
 2514 0496 FFF7FEFF 	 bl osdFormatTimer
 562:../cleanflight/src/main/io/osd.c ****         break;
 2515              	 .loc 8 562 0
 2516 049a 00F0CBBD 	 b .L155
 2517              	.L148:
 2518              	.LBB9:
 563:../cleanflight/src/main/io/osd.c **** 
 564:../cleanflight/src/main/io/osd.c ****     case OSD_REMAINING_TIME_ESTIMATE:
 565:../cleanflight/src/main/io/osd.c ****         {
 566:../cleanflight/src/main/io/osd.c ****             const int mAhDrawn = getMAhDrawn();
 2519              	 .loc 8 566 0
 2520 049e FFF7FEFF 	 bl getMAhDrawn
 2521 04a2 7866     	 str r0,[r7,#100]
 567:../cleanflight/src/main/io/osd.c ****             const int remaining_time = (int)((osdConfig()->cap_alarm - mAhDrawn) * ((float)flyTime)
 2522              	 .loc 8 567 0
 2523 04a4 FFF7FEFF 	 bl osdConfig
 2524 04a8 0346     	 mov r3,r0
 2525 04aa B3F85630 	 ldrh r3,[r3,#86]
 2526 04ae 9BB2     	 uxth r3,r3
 2527 04b0 1A46     	 mov r2,r3
 2528 04b2 7B6E     	 ldr r3,[r7,#100]
 2529 04b4 D31A     	 subs r3,r2,r3
 2530 04b6 07EE903A 	 fmsr s15,r3
 2531 04ba B8EEE77A 	 fsitos s14,s15
 2532 04be 924B     	 ldr r3,.L225+32
 2533 04c0 1B68     	 ldr r3,[r3]
 2534 04c2 07EE903A 	 fmsr s15,r3
 2535 04c6 F8EE677A 	 fuitos s15,s15
 2536 04ca 27EE277A 	 fmuls s14,s14,s15
 2537 04ce 7B6E     	 ldr r3,[r7,#100]
 2538 04d0 07EE903A 	 fmsr s15,r3
 2539 04d4 F8EEE77A 	 fsitos s15,s15
 2540 04d8 C7EE277A 	 fdivs s15,s14,s15
 2541 04dc FDEEE77A 	 ftosizs s15,s15
 2542 04e0 17EE903A 	 fmrs r3,s15
 2543 04e4 3B66     	 str r3,[r7,#96]
 568:../cleanflight/src/main/io/osd.c **** 
 569:../cleanflight/src/main/io/osd.c ****             if (mAhDrawn < 0.1 * osdConfig()->cap_alarm) {
 2544              	 .loc 8 569 0
 2545 04e6 786E     	 ldr r0,[r7,#100]
 2546 04e8 FFF7FEFF 	 bl __aeabi_i2d
 2547 04ec 0446     	 mov r4,r0
 2548 04ee 0D46     	 mov r5,r1
 2549 04f0 FFF7FEFF 	 bl osdConfig
 2550 04f4 0346     	 mov r3,r0
 2551 04f6 B3F85630 	 ldrh r3,[r3,#86]
 2552 04fa 9BB2     	 uxth r3,r3
 2553 04fc 1846     	 mov r0,r3
 2554 04fe FFF7FEFF 	 bl __aeabi_i2d
 2555 0502 0246     	 mov r2,r0
 2556 0504 0B46     	 mov r3,r1
 2557 0506 1046     	 mov r0,r2
 2558 0508 1946     	 mov r1,r3
 2559 050a 77A3     	 adr r3,.L225
 2560 050c D3E90023 	 ldrd r2,[r3]
 2561 0510 FFF7FEFF 	 bl __aeabi_dmul
 2562 0514 0246     	 mov r2,r0
 2563 0516 0B46     	 mov r3,r1
 2564 0518 2046     	 mov r0,r4
 2565 051a 2946     	 mov r1,r5
 2566 051c FFF7FEFF 	 bl __aeabi_dcmplt
 2567 0520 0346     	 mov r3,r0
 2568 0522 002B     	 cmp r3,#0
 2569 0524 06D0     	 beq .L221
 570:../cleanflight/src/main/io/osd.c ****                 tfp_sprintf(buff, "--:--");
 2570              	 .loc 8 570 0
 2571 0526 07F10C03 	 add r3,r7,#12
 2572 052a 1846     	 mov r0,r3
 2573 052c 7749     	 ldr r1,.L225+36
 2574 052e FFF7FEFF 	 bl tfp_sprintf
 2575 0532 1AE0     	 b .L167
 2576              	.L221:
 571:../cleanflight/src/main/io/osd.c ****             } else if (mAhDrawn > osdConfig()->cap_alarm) {
 2577              	 .loc 8 571 0
 2578 0534 FFF7FEFF 	 bl osdConfig
 2579 0538 0346     	 mov r3,r0
 2580 053a B3F85630 	 ldrh r3,[r3,#86]
 2581 053e 9BB2     	 uxth r3,r3
 2582 0540 1A46     	 mov r2,r3
 2583 0542 7B6E     	 ldr r3,[r7,#100]
 2584 0544 9A42     	 cmp r2,r3
 2585 0546 06DA     	 bge .L168
 572:../cleanflight/src/main/io/osd.c ****                 tfp_sprintf(buff, "00:00");
 2586              	 .loc 8 572 0
 2587 0548 07F10C03 	 add r3,r7,#12
 2588 054c 1846     	 mov r0,r3
 2589 054e 7049     	 ldr r1,.L225+40
 2590 0550 FFF7FEFF 	 bl tfp_sprintf
 2591 0554 09E0     	 b .L167
 2592              	.L168:
 573:../cleanflight/src/main/io/osd.c ****             } else {
 574:../cleanflight/src/main/io/osd.c ****                 osdFormatTime(buff, OSD_TIMER_PREC_SECOND, remaining_time);
 2593              	 .loc 8 574 0
 2594 0556 3B6E     	 ldr r3,[r7,#96]
 2595 0558 07F10C02 	 add r2,r7,#12
 2596 055c 1046     	 mov r0,r2
 2597 055e 0021     	 movs r1,#0
 2598 0560 1A46     	 mov r2,r3
 2599 0562 FFF7FEFF 	 bl osdFormatTime
 575:../cleanflight/src/main/io/osd.c ****             }
 576:../cleanflight/src/main/io/osd.c ****             break;
 2600              	 .loc 8 576 0
 2601 0566 00F065BD 	 b .L155
 2602              	.L167:
 2603 056a 00F063BD 	 b .L155
 2604              	.L121:
 2605              	.LBE9:
 577:../cleanflight/src/main/io/osd.c ****         }
 578:../cleanflight/src/main/io/osd.c **** 
 579:../cleanflight/src/main/io/osd.c ****     case OSD_FLYMODE:
 580:../cleanflight/src/main/io/osd.c ****         {
 581:../cleanflight/src/main/io/osd.c ****             if (FLIGHT_MODE(FAILSAFE_MODE)) {
 2606              	 .loc 8 581 0
 2607 056e 694B     	 ldr r3,.L225+44
 2608 0570 1B88     	 ldrh r3,[r3]
 2609 0572 03F48063 	 and r3,r3,#1024
 2610 0576 002B     	 cmp r3,#0
 2611 0578 08D0     	 beq .L169
 582:../cleanflight/src/main/io/osd.c ****                 strcpy(buff, "!FS!");
 2612              	 .loc 8 582 0
 2613 057a 07F10C03 	 add r3,r7,#12
 2614 057e 664A     	 ldr r2,.L225+48
 2615 0580 92E80300 	 ldmia r2,{r0,r1}
 2616 0584 1860     	 str r0,[r3]
 2617 0586 0433     	 adds r3,r3,#4
 2618 0588 1970     	 strb r1,[r3]
 2619 058a 53E0     	 b .L170
 2620              	.L169:
 583:../cleanflight/src/main/io/osd.c ****             } else if (FLIGHT_MODE(ANGLE_MODE)) {
 2621              	 .loc 8 583 0
 2622 058c 614B     	 ldr r3,.L225+44
 2623 058e 1B88     	 ldrh r3,[r3]
 2624 0590 03F00103 	 and r3,r3,#1
 2625 0594 002B     	 cmp r3,#0
 2626 0596 08D0     	 beq .L171
 584:../cleanflight/src/main/io/osd.c ****                 strcpy(buff, "STAB");
 2627              	 .loc 8 584 0
 2628 0598 07F10C03 	 add r3,r7,#12
 2629 059c 5F4A     	 ldr r2,.L225+52
 2630 059e 92E80300 	 ldmia r2,{r0,r1}
 2631 05a2 1860     	 str r0,[r3]
 2632 05a4 0433     	 adds r3,r3,#4
 2633 05a6 1970     	 strb r1,[r3]
 2634 05a8 44E0     	 b .L170
 2635              	.L171:
 585:../cleanflight/src/main/io/osd.c ****             } else if (FLIGHT_MODE(HORIZON_MODE)) {
 2636              	 .loc 8 585 0
 2637 05aa 5A4B     	 ldr r3,.L225+44
 2638 05ac 1B88     	 ldrh r3,[r3]
 2639 05ae 03F00203 	 and r3,r3,#2
 2640 05b2 002B     	 cmp r3,#0
 2641 05b4 08D0     	 beq .L172
 586:../cleanflight/src/main/io/osd.c ****                 strcpy(buff, "HOR ");
 2642              	 .loc 8 586 0
 2643 05b6 07F10C03 	 add r3,r7,#12
 2644 05ba 594A     	 ldr r2,.L225+56
 2645 05bc 92E80300 	 ldmia r2,{r0,r1}
 2646 05c0 1860     	 str r0,[r3]
 2647 05c2 0433     	 adds r3,r3,#4
 2648 05c4 1970     	 strb r1,[r3]
 2649 05c6 35E0     	 b .L170
 2650              	.L172:
 587:../cleanflight/src/main/io/osd.c ****             } else if (FLIGHT_MODE(GPS_RESCUE_MODE)) {
 2651              	 .loc 8 587 0
 2652 05c8 524B     	 ldr r3,.L225+44
 2653 05ca 1B88     	 ldrh r3,[r3]
 2654 05cc 03F40063 	 and r3,r3,#2048
 2655 05d0 002B     	 cmp r3,#0
 2656 05d2 08D0     	 beq .L173
 588:../cleanflight/src/main/io/osd.c ****                 strcpy(buff, "RESC");
 2657              	 .loc 8 588 0
 2658 05d4 07F10C03 	 add r3,r7,#12
 2659 05d8 524A     	 ldr r2,.L225+60
 2660 05da 92E80300 	 ldmia r2,{r0,r1}
 2661 05de 1860     	 str r0,[r3]
 2662 05e0 0433     	 adds r3,r3,#4
 2663 05e2 1970     	 strb r1,[r3]
 2664 05e4 26E0     	 b .L170
 2665              	.L173:
 589:../cleanflight/src/main/io/osd.c ****             } else if (IS_RC_MODE_ACTIVE(BOXACROTRAINER)) {
 2666              	 .loc 8 589 0
 2667 05e6 2820     	 movs r0,#40
 2668 05e8 FFF7FEFF 	 bl IS_RC_MODE_ACTIVE
 2669 05ec 0346     	 mov r3,r0
 2670 05ee 002B     	 cmp r3,#0
 2671 05f0 08D0     	 beq .L174
 590:../cleanflight/src/main/io/osd.c ****                 strcpy(buff, "ATRN");
 2672              	 .loc 8 590 0
 2673 05f2 07F10C03 	 add r3,r7,#12
 2674 05f6 4C4A     	 ldr r2,.L225+64
 2675 05f8 92E80300 	 ldmia r2,{r0,r1}
 2676 05fc 1860     	 str r0,[r3]
 2677 05fe 0433     	 adds r3,r3,#4
 2678 0600 1970     	 strb r1,[r3]
 2679 0602 17E0     	 b .L170
 2680              	.L174:
 591:../cleanflight/src/main/io/osd.c ****             } else if (isAirmodeActive()) {
 2681              	 .loc 8 591 0
 2682 0604 FFF7FEFF 	 bl isAirmodeActive
 2683 0608 0346     	 mov r3,r0
 2684 060a 002B     	 cmp r3,#0
 2685 060c 08D0     	 beq .L175
 592:../cleanflight/src/main/io/osd.c ****                 strcpy(buff, "AIR ");
 2686              	 .loc 8 592 0
 2687 060e 07F10C03 	 add r3,r7,#12
 2688 0612 464A     	 ldr r2,.L225+68
 2689 0614 92E80300 	 ldmia r2,{r0,r1}
 2690 0618 1860     	 str r0,[r3]
 2691 061a 0433     	 adds r3,r3,#4
 2692 061c 1970     	 strb r1,[r3]
 2693 061e 09E0     	 b .L170
 2694              	.L175:
 593:../cleanflight/src/main/io/osd.c ****             } else {
 594:../cleanflight/src/main/io/osd.c ****                 strcpy(buff, "ACRO");
 2695              	 .loc 8 594 0
 2696 0620 07F10C03 	 add r3,r7,#12
 2697 0624 424A     	 ldr r2,.L225+72
 2698 0626 92E80300 	 ldmia r2,{r0,r1}
 2699 062a 1860     	 str r0,[r3]
 2700 062c 0433     	 adds r3,r3,#4
 2701 062e 1970     	 strb r1,[r3]
 595:../cleanflight/src/main/io/osd.c ****             }
 596:../cleanflight/src/main/io/osd.c **** 
 597:../cleanflight/src/main/io/osd.c ****             break;
 2702              	 .loc 8 597 0
 2703 0630 00F000BD 	 b .L155
 2704              	.L170:
 2705 0634 00F0FEBC 	 b .L155
 2706              	.L151:
 598:../cleanflight/src/main/io/osd.c ****         }
 599:../cleanflight/src/main/io/osd.c **** 
 600:../cleanflight/src/main/io/osd.c ****     case OSD_ANTI_GRAVITY:
 601:../cleanflight/src/main/io/osd.c ****         {
 602:../cleanflight/src/main/io/osd.c ****             if (pidOsdAntiGravityActive()) {
 2707              	 .loc 8 602 0
 2708 0638 FFF7FEFF 	 bl pidOsdAntiGravityActive
 2709 063c 0346     	 mov r3,r0
 2710 063e 002B     	 cmp r3,#0
 2711 0640 0AD0     	 beq .L176
 603:../cleanflight/src/main/io/osd.c ****                 strcpy(buff, "AG");
 2712              	 .loc 8 603 0
 2713 0642 07F10C03 	 add r3,r7,#12
 2714 0646 3B4A     	 ldr r2,.L225+76
 2715 0648 1268     	 ldr r2,[r2]
 2716 064a 1146     	 mov r1,r2
 2717 064c 1980     	 strh r1,[r3]
 2718 064e 0233     	 adds r3,r3,#2
 2719 0650 120C     	 lsrs r2,r2,#16
 2720 0652 1A70     	 strb r2,[r3]
 604:../cleanflight/src/main/io/osd.c ****             }
 605:../cleanflight/src/main/io/osd.c **** 
 606:../cleanflight/src/main/io/osd.c ****             break;
 2721              	 .loc 8 606 0
 2722 0654 00F0EEBC 	 b .L155
 2723              	.L176:
 2724 0658 00F0ECBC 	 b .L155
 2725              	.L122:
 607:../cleanflight/src/main/io/osd.c ****         }
 608:../cleanflight/src/main/io/osd.c **** 
 609:../cleanflight/src/main/io/osd.c ****     case OSD_CRAFT_NAME:
 610:../cleanflight/src/main/io/osd.c ****         // This does not strictly support iterative updating if the craft name changes at run time.
 611:../cleanflight/src/main/io/osd.c ****         //TODO: When iterative updating is implemented, change this so the craft name is only print
 612:../cleanflight/src/main/io/osd.c **** 
 613:../cleanflight/src/main/io/osd.c ****         if (strlen(pilotConfig()->name) == 0) {
 2726              	 .loc 8 613 0
 2727 065c FFF7FEFF 	 bl pilotConfig
 2728 0660 0346     	 mov r3,r0
 2729 0662 1B78     	 ldrb r3,[r3]
 2730 0664 002B     	 cmp r3,#0
 2731 0666 0AD1     	 bne .L177
 614:../cleanflight/src/main/io/osd.c ****             strcpy(buff, "CRAFT_NAME");
 2732              	 .loc 8 614 0
 2733 0668 07F10C03 	 add r3,r7,#12
 2734 066c 324A     	 ldr r2,.L225+80
 2735 066e 07CA     	 ldmia r2,{r0,r1,r2}
 2736 0670 03C3     	 stmia r3!,{r0,r1}
 2737 0672 1A80     	 strh r2,[r3]
 2738 0674 0233     	 adds r3,r3,#2
 2739 0676 120C     	 lsrs r2,r2,#16
 2740 0678 1A70     	 strb r2,[r3]
 615:../cleanflight/src/main/io/osd.c ****         } else {
 616:../cleanflight/src/main/io/osd.c ****             unsigned i;
 617:../cleanflight/src/main/io/osd.c ****             for (i = 0; i < MAX_NAME_LENGTH; i++) {
 618:../cleanflight/src/main/io/osd.c ****                 if (pilotConfig()->name[i]) {
 619:../cleanflight/src/main/io/osd.c ****                     buff[i] = toupper((unsigned char)pilotConfig()->name[i]);
 620:../cleanflight/src/main/io/osd.c ****                 } else {
 621:../cleanflight/src/main/io/osd.c ****                     break;
 622:../cleanflight/src/main/io/osd.c ****                 }    
 623:../cleanflight/src/main/io/osd.c ****             }    
 624:../cleanflight/src/main/io/osd.c ****             buff[i] = '\0';
 625:../cleanflight/src/main/io/osd.c ****         }
 626:../cleanflight/src/main/io/osd.c **** 
 627:../cleanflight/src/main/io/osd.c ****         break;
 2741              	 .loc 8 627 0
 2742 067a 00F0DBBC 	 b .L155
 2743              	.L177:
 2744              	.LBB10:
 617:../cleanflight/src/main/io/osd.c ****                 if (pilotConfig()->name[i]) {
 2745              	 .loc 8 617 0
 2746 067e 0023     	 movs r3,#0
 2747 0680 C7F8A830 	 str r3,[r7,#168]
 2748 0684 22E0     	 b .L179
 2749              	.L183:
 618:../cleanflight/src/main/io/osd.c ****                     buff[i] = toupper((unsigned char)pilotConfig()->name[i]);
 2750              	 .loc 8 618 0
 2751 0686 FFF7FEFF 	 bl pilotConfig
 2752 068a 0246     	 mov r2,r0
 2753 068c D7F8A830 	 ldr r3,[r7,#168]
 2754 0690 1344     	 add r3,r3,r2
 2755 0692 1B78     	 ldrb r3,[r3]
 2756 0694 002B     	 cmp r3,#0
 2757 0696 13D0     	 beq .L180
 619:../cleanflight/src/main/io/osd.c ****                 } else {
 2758              	 .loc 8 619 0
 2759 0698 FFF7FEFF 	 bl pilotConfig
 2760 069c 0246     	 mov r2,r0
 2761 069e D7F8A830 	 ldr r3,[r7,#168]
 2762 06a2 1344     	 add r3,r3,r2
 2763 06a4 1B78     	 ldrb r3,[r3]
 2764 06a6 1846     	 mov r0,r3
 2765 06a8 FFF7FEFF 	 bl toupper
 2766 06ac 0346     	 mov r3,r0
 2767 06ae D9B2     	 uxtb r1,r3
 2768 06b0 07F10C02 	 add r2,r7,#12
 2769 06b4 D7F8A830 	 ldr r3,[r7,#168]
 2770 06b8 1344     	 add r3,r3,r2
 2771 06ba 0A46     	 mov r2,r1
 2772 06bc 1A70     	 strb r2,[r3]
 2773 06be 00E0     	 b .L222
 2774              	.L180:
 621:../cleanflight/src/main/io/osd.c ****                 }    
 2775              	 .loc 8 621 0
 2776 06c0 08E0     	 b .L182
 2777              	.L222:
 617:../cleanflight/src/main/io/osd.c ****                 if (pilotConfig()->name[i]) {
 2778              	 .loc 8 617 0 discriminator 2
 2779 06c2 D7F8A830 	 ldr r3,[r7,#168]
 2780 06c6 0133     	 adds r3,r3,#1
 2781 06c8 C7F8A830 	 str r3,[r7,#168]
 2782              	.L179:
 617:../cleanflight/src/main/io/osd.c ****                 if (pilotConfig()->name[i]) {
 2783              	 .loc 8 617 0 is_stmt 0 discriminator 1
 2784 06cc D7F8A830 	 ldr r3,[r7,#168]
 2785 06d0 0F2B     	 cmp r3,#15
 2786 06d2 D8D9     	 bls .L183
 2787              	.L182:
 624:../cleanflight/src/main/io/osd.c ****         }
 2788              	 .loc 8 624 0 is_stmt 1
 2789 06d4 07F10C02 	 add r2,r7,#12
 2790 06d8 D7F8A830 	 ldr r3,[r7,#168]
 2791 06dc 1344     	 add r3,r3,r2
 2792 06de 0022     	 movs r2,#0
 2793 06e0 1A70     	 strb r2,[r3]
 2794              	.LBE10:
 2795              	 .loc 8 627 0
 2796 06e2 00F0A7BC 	 b .L155
 2797              	.L226:
 2798 06e6 00BF     	 .align 3
 2799              	.L225:
 2800 06e8 9A999999 	 .word -1717986918
 2801 06ec 9999B93F 	 .word 1069128089
 2802 06f0 00000000 	 .word stateFlags
 2803 06f4 00000000 	 .word GPS_distanceToHome
 2804 06f8 A0000000 	 .word .LC15
 2805 06fc 00000000 	 .word attitude
 2806 0700 67666666 	 .word 1717986919
 2807 0704 00000000 	 .word compassBar
 2808 0708 00000000 	 .word flyTime
 2809 070c A8000000 	 .word .LC16
 2810 0710 B0000000 	 .word .LC17
 2811 0714 00000000 	 .word flightModeFlags
 2812 0718 B8000000 	 .word .LC18
 2813 071c C0000000 	 .word .LC19
 2814 0720 C8000000 	 .word .LC20
 2815 0724 D0000000 	 .word .LC21
 2816 0728 D8000000 	 .word .LC22
 2817 072c E0000000 	 .word .LC23
 2818 0730 E8000000 	 .word .LC24
 2819 0734 F0000000 	 .word .LC25
 2820 0738 F4000000 	 .word .LC26
 2821              	.L123:
 628:../cleanflight/src/main/io/osd.c **** 
 629:../cleanflight/src/main/io/osd.c ****     case OSD_THROTTLE_POS:
 630:../cleanflight/src/main/io/osd.c ****         buff[0] = SYM_THR;
 2822              	 .loc 8 630 0
 2823 073c 0423     	 movs r3,#4
 2824 073e 3B73     	 strb r3,[r7,#12]
 631:../cleanflight/src/main/io/osd.c ****         buff[1] = SYM_THR1;
 2825              	 .loc 8 631 0
 2826 0740 0523     	 movs r3,#5
 2827 0742 7B73     	 strb r3,[r7,#13]
 632:../cleanflight/src/main/io/osd.c ****         tfp_sprintf(buff + 2, "%3d", (constrain(rcData[THROTTLE], PWM_RANGE_MIN, PWM_RANGE_MAX) - P
 2828              	 .loc 8 632 0
 2829 0744 AD4B     	 ldr r3,.L227
 2830 0746 DB88     	 ldrh r3,[r3,#6]
 2831 0748 1BB2     	 sxth r3,r3
 2832 074a 1846     	 mov r0,r3
 2833 074c 4FF47A71 	 mov r1,#1000
 2834 0750 4FF4FA62 	 mov r2,#2000
 2835 0754 FFF7FEFF 	 bl constrain
 2836 0758 0346     	 mov r3,r0
 2837 075a A3F57A73 	 sub r3,r3,#1000
 2838 075e 6422     	 movs r2,#100
 2839 0760 02FB03F3 	 mul r3,r2,r3
 2840 0764 A64A     	 ldr r2,.L227+4
 2841 0766 82FB0312 	 smull r1,r2,r2,r3
 2842 076a 9211     	 asrs r2,r2,#6
 2843 076c DB17     	 asrs r3,r3,#31
 2844 076e D21A     	 subs r2,r2,r3
 2845 0770 07F10C03 	 add r3,r7,#12
 2846 0774 0233     	 adds r3,r3,#2
 2847 0776 1846     	 mov r0,r3
 2848 0778 A249     	 ldr r1,.L227+8
 2849 077a FFF7FEFF 	 bl tfp_sprintf
 633:../cleanflight/src/main/io/osd.c ****         break;
 2850              	 .loc 8 633 0
 2851 077e 00F059BC 	 b .L155
 2852              	.L124:
 2853              	.LBB11:
 634:../cleanflight/src/main/io/osd.c **** 
 635:../cleanflight/src/main/io/osd.c **** #if defined(USE_VTX_COMMON)
 636:../cleanflight/src/main/io/osd.c ****     case OSD_VTX_CHANNEL:
 637:../cleanflight/src/main/io/osd.c ****         {
 638:../cleanflight/src/main/io/osd.c ****             const char vtxBandLetter = vtx58BandLetter[vtxSettingsConfig()->band];
 2854              	 .loc 8 638 0
 2855 0782 FFF7FEFF 	 bl vtxSettingsConfig
 2856 0786 0346     	 mov r3,r0
 2857 0788 1B78     	 ldrb r3,[r3]
 2858 078a 1A46     	 mov r2,r3
 2859 078c 9E4B     	 ldr r3,.L227+12
 2860 078e 9B5C     	 ldrb r3,[r3,r2]
 2861 0790 87F85F30 	 strb r3,[r7,#95]
 639:../cleanflight/src/main/io/osd.c ****             const char *vtxChannelName = vtx58ChannelNames[vtxSettingsConfig()->channel];
 2862              	 .loc 8 639 0
 2863 0794 FFF7FEFF 	 bl vtxSettingsConfig
 2864 0798 0346     	 mov r3,r0
 2865 079a 5B78     	 ldrb r3,[r3,#1]
 2866 079c 1A46     	 mov r2,r3
 2867 079e 9B4B     	 ldr r3,.L227+16
 2868 07a0 53F82230 	 ldr r3,[r3,r2,lsl#2]
 2869 07a4 BB65     	 str r3,[r7,#88]
 640:../cleanflight/src/main/io/osd.c ****             uint8_t vtxPower = vtxSettingsConfig()->power;
 2870              	 .loc 8 640 0
 2871 07a6 FFF7FEFF 	 bl vtxSettingsConfig
 2872 07aa 0346     	 mov r3,r0
 2873 07ac 9B78     	 ldrb r3,[r3,#2]
 2874 07ae FB72     	 strb r3,[r7,#11]
 641:../cleanflight/src/main/io/osd.c ****             const vtxDevice_t *vtxDevice = vtxCommonDevice();
 2875              	 .loc 8 641 0
 2876 07b0 FFF7FEFF 	 bl vtxCommonDevice
 2877 07b4 7865     	 str r0,[r7,#84]
 642:../cleanflight/src/main/io/osd.c ****             if (vtxDevice && vtxSettingsConfig()->lowPowerDisarm) {
 2878              	 .loc 8 642 0
 2879 07b6 7B6D     	 ldr r3,[r7,#84]
 2880 07b8 002B     	 cmp r3,#0
 2881 07ba 0BD0     	 beq .L184
 2882              	 .loc 8 642 0 is_stmt 0 discriminator 1
 2883 07bc FFF7FEFF 	 bl vtxSettingsConfig
 2884 07c0 0346     	 mov r3,r0
 2885 07c2 DB79     	 ldrb r3,[r3,#7]
 2886 07c4 002B     	 cmp r3,#0
 2887 07c6 05D0     	 beq .L184
 643:../cleanflight/src/main/io/osd.c ****                 vtxCommonGetPowerIndex(vtxDevice, &vtxPower);
 2888              	 .loc 8 643 0 is_stmt 1
 2889 07c8 07F10B03 	 add r3,r7,#11
 2890 07cc 786D     	 ldr r0,[r7,#84]
 2891 07ce 1946     	 mov r1,r3
 2892 07d0 FFF7FEFF 	 bl vtxCommonGetPowerIndex
 2893              	.L184:
 644:../cleanflight/src/main/io/osd.c ****             }
 645:../cleanflight/src/main/io/osd.c ****             tfp_sprintf(buff, "%c:%s:%1d", vtxBandLetter, vtxChannelName, vtxPower);
 2894              	 .loc 8 645 0
 2895 07d4 97F85F30 	 ldrb r3,[r7,#95]
 2896 07d8 FA7A     	 ldrb r2,[r7,#11]
 2897 07da 1146     	 mov r1,r2
 2898 07dc 07F10C02 	 add r2,r7,#12
 2899 07e0 0091     	 str r1,[sp]
 2900 07e2 1046     	 mov r0,r2
 2901 07e4 8A49     	 ldr r1,.L227+20
 2902 07e6 1A46     	 mov r2,r3
 2903 07e8 BB6D     	 ldr r3,[r7,#88]
 2904 07ea FFF7FEFF 	 bl tfp_sprintf
 646:../cleanflight/src/main/io/osd.c ****             break;
 2905              	 .loc 8 646 0
 2906 07ee 00BF     	 nop
 2907 07f0 00F020BC 	 b .L155
 2908              	.L117:
 2909              	.LBE11:
 647:../cleanflight/src/main/io/osd.c ****         }
 648:../cleanflight/src/main/io/osd.c **** #endif
 649:../cleanflight/src/main/io/osd.c **** 
 650:../cleanflight/src/main/io/osd.c ****     case OSD_CROSSHAIRS:
 651:../cleanflight/src/main/io/osd.c ****         buff[0] = SYM_AH_CENTER_LINE;
 2910              	 .loc 8 651 0
 2911 07f4 2623     	 movs r3,#38
 2912 07f6 3B73     	 strb r3,[r7,#12]
 652:../cleanflight/src/main/io/osd.c ****         buff[1] = SYM_AH_CENTER;
 2913              	 .loc 8 652 0
 2914 07f8 7E23     	 movs r3,#126
 2915 07fa 7B73     	 strb r3,[r7,#13]
 653:../cleanflight/src/main/io/osd.c ****         buff[2] = SYM_AH_CENTER_LINE_RIGHT;
 2916              	 .loc 8 653 0
 2917 07fc 2723     	 movs r3,#39
 2918 07fe BB73     	 strb r3,[r7,#14]
 654:../cleanflight/src/main/io/osd.c ****         buff[3] = 0;
 2919              	 .loc 8 654 0
 2920 0800 0023     	 movs r3,#0
 2921 0802 FB73     	 strb r3,[r7,#15]
 655:../cleanflight/src/main/io/osd.c ****         break;
 2922              	 .loc 8 655 0
 2923 0804 00F016BC 	 b .L155
 2924              	.L118:
 2925              	.LBB12:
 656:../cleanflight/src/main/io/osd.c **** 
 657:../cleanflight/src/main/io/osd.c ****     case OSD_ARTIFICIAL_HORIZON:
 658:../cleanflight/src/main/io/osd.c ****         {
 659:../cleanflight/src/main/io/osd.c ****             // Get pitch and roll limits in tenths of degrees
 660:../cleanflight/src/main/io/osd.c ****             const int maxPitch = osdConfig()->ahMaxPitch * 10;
 2926              	 .loc 8 660 0
 2927 0808 FFF7FEFF 	 bl osdConfig
 2928 080c 0346     	 mov r3,r0
 2929 080e 93F86230 	 ldrb r3,[r3,#98]
 2930 0812 1A46     	 mov r2,r3
 2931 0814 1346     	 mov r3,r2
 2932 0816 9B00     	 lsls r3,r3,#2
 2933 0818 1344     	 add r3,r3,r2
 2934 081a 5B00     	 lsls r3,r3,#1
 2935 081c C7F88830 	 str r3,[r7,#136]
 661:../cleanflight/src/main/io/osd.c ****             const int maxRoll = osdConfig()->ahMaxRoll * 10;
 2936              	 .loc 8 661 0
 2937 0820 FFF7FEFF 	 bl osdConfig
 2938 0824 0346     	 mov r3,r0
 2939 0826 93F86330 	 ldrb r3,[r3,#99]
 2940 082a 1A46     	 mov r2,r3
 2941 082c 1346     	 mov r3,r2
 2942 082e 9B00     	 lsls r3,r3,#2
 2943 0830 1344     	 add r3,r3,r2
 2944 0832 5B00     	 lsls r3,r3,#1
 2945 0834 C7F88430 	 str r3,[r7,#132]
 662:../cleanflight/src/main/io/osd.c ****             const int rollAngle = constrain(attitude.values.roll, -maxRoll, maxRoll);
 2946              	 .loc 8 662 0
 2947 0838 764B     	 ldr r3,.L227+24
 2948 083a B3F90030 	 ldrsh r3,[r3]
 2949 083e 9BB2     	 uxth r3,r3
 2950 0840 1AB2     	 sxth r2,r3
 2951 0842 D7F88430 	 ldr r3,[r7,#132]
 2952 0846 5B42     	 negs r3,r3
 2953 0848 1046     	 mov r0,r2
 2954 084a 1946     	 mov r1,r3
 2955 084c D7F88420 	 ldr r2,[r7,#132]
 2956 0850 FFF7FEFF 	 bl constrain
 2957 0854 C7F88000 	 str r0,[r7,#128]
 663:../cleanflight/src/main/io/osd.c ****             int pitchAngle = constrain(attitude.values.pitch, -maxPitch, maxPitch);
 2958              	 .loc 8 663 0
 2959 0858 6E4B     	 ldr r3,.L227+24
 2960 085a B3F90230 	 ldrsh r3,[r3,#2]
 2961 085e 9BB2     	 uxth r3,r3
 2962 0860 1AB2     	 sxth r2,r3
 2963 0862 D7F88830 	 ldr r3,[r7,#136]
 2964 0866 5B42     	 negs r3,r3
 2965 0868 1046     	 mov r0,r2
 2966 086a 1946     	 mov r1,r3
 2967 086c D7F88820 	 ldr r2,[r7,#136]
 2968 0870 FFF7FEFF 	 bl constrain
 2969 0874 F867     	 str r0,[r7,#124]
 664:../cleanflight/src/main/io/osd.c ****             // Convert pitchAngle to y compensation value
 665:../cleanflight/src/main/io/osd.c ****             // (maxPitch / 25) divisor matches previous settings of fixed divisor of 8 and fixed ma
 666:../cleanflight/src/main/io/osd.c ****             pitchAngle = ((pitchAngle * 25) / maxPitch) - 41; // 41 = 4 * AH_SYMBOL_COUNT + 5
 2970              	 .loc 8 666 0
 2971 0876 FA6F     	 ldr r2,[r7,#124]
 2972 0878 1346     	 mov r3,r2
 2973 087a 9B00     	 lsls r3,r3,#2
 2974 087c 1344     	 add r3,r3,r2
 2975 087e 9A00     	 lsls r2,r3,#2
 2976 0880 1A44     	 add r2,r2,r3
 2977 0882 D7F88830 	 ldr r3,[r7,#136]
 2978 0886 92FBF3F3 	 sdiv r3,r2,r3
 2979 088a 293B     	 subs r3,r3,#41
 2980 088c FB67     	 str r3,[r7,#124]
 2981              	.LBB13:
 667:../cleanflight/src/main/io/osd.c **** 
 668:../cleanflight/src/main/io/osd.c ****             for (int x = -4; x <= 4; x++) {
 2982              	 .loc 8 668 0
 2983 088e 6FF00303 	 mvn r3,#3
 2984 0892 C7F8A430 	 str r3,[r7,#164]
 2985 0896 40E0     	 b .L185
 2986              	.L188:
 2987              	.LBB14:
 669:../cleanflight/src/main/io/osd.c ****                 const int y = ((-rollAngle * x) / 64) - pitchAngle;
 2988              	 .loc 8 669 0
 2989 0898 D7F88030 	 ldr r3,[r7,#128]
 2990 089c 5B42     	 negs r3,r3
 2991 089e D7F8A420 	 ldr r2,[r7,#164]
 2992 08a2 02FB03F3 	 mul r3,r2,r3
 2993 08a6 002B     	 cmp r3,#0
 2994 08a8 00DA     	 bge .L186
 2995 08aa 3F33     	 adds r3,r3,#63
 2996              	.L186:
 2997 08ac 9B11     	 asrs r3,r3,#6
 2998 08ae 1A46     	 mov r2,r3
 2999 08b0 FB6F     	 ldr r3,[r7,#124]
 3000 08b2 D31A     	 subs r3,r2,r3
 3001 08b4 BB67     	 str r3,[r7,#120]
 670:../cleanflight/src/main/io/osd.c ****                 if (y >= 0 && y <= 81) {
 3002              	 .loc 8 670 0
 3003 08b6 BB6F     	 ldr r3,[r7,#120]
 3004 08b8 002B     	 cmp r3,#0
 3005 08ba 29DB     	 blt .L187
 3006              	 .loc 8 670 0 is_stmt 0 discriminator 1
 3007 08bc BB6F     	 ldr r3,[r7,#120]
 3008 08be 512B     	 cmp r3,#81
 3009 08c0 26DC     	 bgt .L187
 671:../cleanflight/src/main/io/osd.c ****                     displayWriteChar(osdDisplayPort, elemPosX + x, elemPosY + (y / AH_SYMBOL_COUNT)
 3010              	 .loc 8 671 0 is_stmt 1
 3011 08c2 554B     	 ldr r3,.L227+28
 3012 08c4 1868     	 ldr r0,[r3]
 3013 08c6 D7F8A430 	 ldr r3,[r7,#164]
 3014 08ca DAB2     	 uxtb r2,r3
 3015 08cc 97F88F30 	 ldrb r3,[r7,#143]
 3016 08d0 1344     	 add r3,r3,r2
 3017 08d2 DDB2     	 uxtb r5,r3
 3018 08d4 BB6F     	 ldr r3,[r7,#120]
 3019 08d6 514A     	 ldr r2,.L227+32
 3020 08d8 82FB0312 	 smull r1,r2,r2,r3
 3021 08dc 5210     	 asrs r2,r2,#1
 3022 08de DB17     	 asrs r3,r3,#31
 3023 08e0 D31A     	 subs r3,r2,r3
 3024 08e2 DAB2     	 uxtb r2,r3
 3025 08e4 97F88E30 	 ldrb r3,[r7,#142]
 3026 08e8 1344     	 add r3,r3,r2
 3027 08ea DCB2     	 uxtb r4,r3
 3028 08ec BA6F     	 ldr r2,[r7,#120]
 3029 08ee 4B4B     	 ldr r3,.L227+32
 3030 08f0 83FB0213 	 smull r1,r3,r3,r2
 3031 08f4 5910     	 asrs r1,r3,#1
 3032 08f6 D317     	 asrs r3,r2,#31
 3033 08f8 C91A     	 subs r1,r1,r3
 3034 08fa 0B46     	 mov r3,r1
 3035 08fc DB00     	 lsls r3,r3,#3
 3036 08fe 0B44     	 add r3,r3,r1
 3037 0900 D11A     	 subs r1,r2,r3
 3038 0902 CBB2     	 uxtb r3,r1
 3039 0904 803B     	 subs r3,r3,#128
 3040 0906 DBB2     	 uxtb r3,r3
 3041 0908 2946     	 mov r1,r5
 3042 090a 2246     	 mov r2,r4
 3043 090c FFF7FEFF 	 bl displayWriteChar
 3044              	.L187:
 3045              	.LBE14:
 668:../cleanflight/src/main/io/osd.c ****                 const int y = ((-rollAngle * x) / 64) - pitchAngle;
 3046              	 .loc 8 668 0 discriminator 2
 3047 0910 D7F8A430 	 ldr r3,[r7,#164]
 3048 0914 0133     	 adds r3,r3,#1
 3049 0916 C7F8A430 	 str r3,[r7,#164]
 3050              	.L185:
 668:../cleanflight/src/main/io/osd.c ****                 const int y = ((-rollAngle * x) / 64) - pitchAngle;
 3051              	 .loc 8 668 0 is_stmt 0 discriminator 1
 3052 091a D7F8A430 	 ldr r3,[r7,#164]
 3053 091e 042B     	 cmp r3,#4
 3054 0920 BADD     	 ble .L188
 3055              	.LBE13:
 672:../cleanflight/src/main/io/osd.c ****                 }
 673:../cleanflight/src/main/io/osd.c ****             }
 674:../cleanflight/src/main/io/osd.c **** 
 675:../cleanflight/src/main/io/osd.c ****             return true;
 3056              	 .loc 8 675 0 is_stmt 1
 3057 0922 0123     	 movs r3,#1
 3058 0924 91E3     	 b .L218
 3059              	.L119:
 3060              	.LBE12:
 3061              	.LBB15:
 676:../cleanflight/src/main/io/osd.c ****         }
 677:../cleanflight/src/main/io/osd.c **** 
 678:../cleanflight/src/main/io/osd.c ****     case OSD_HORIZON_SIDEBARS:
 679:../cleanflight/src/main/io/osd.c ****         {
 680:../cleanflight/src/main/io/osd.c ****             // Draw AH sides
 681:../cleanflight/src/main/io/osd.c ****             const int8_t hudwidth = AH_SIDEBAR_WIDTH_POS;
 3062              	 .loc 8 681 0
 3063 0926 0723     	 movs r3,#7
 3064 0928 87F87730 	 strb r3,[r7,#119]
 682:../cleanflight/src/main/io/osd.c ****             const int8_t hudheight = AH_SIDEBAR_HEIGHT_POS;
 3065              	 .loc 8 682 0
 3066 092c 0323     	 movs r3,#3
 3067 092e 87F87630 	 strb r3,[r7,#118]
 3068              	.LBB16:
 683:../cleanflight/src/main/io/osd.c ****             for (int y = -hudheight; y <= hudheight; y++) {
 3069              	 .loc 8 683 0
 3070 0932 97F97630 	 ldrsb r3,[r7,#118]
 3071 0936 5B42     	 negs r3,r3
 3072 0938 C7F8A030 	 str r3,[r7,#160]
 3073 093c 2AE0     	 b .L189
 3074              	.L190:
 684:../cleanflight/src/main/io/osd.c ****                 displayWriteChar(osdDisplayPort, elemPosX - hudwidth, elemPosY + y, SYM_AH_DECORATI
 3075              	 .loc 8 684 0 discriminator 3
 3076 093e 364B     	 ldr r3,.L227+28
 3077 0940 1868     	 ldr r0,[r3]
 3078 0942 97F87730 	 ldrb r3,[r7,#119]
 3079 0946 97F88F20 	 ldrb r2,[r7,#143]
 3080 094a D31A     	 subs r3,r2,r3
 3081 094c D9B2     	 uxtb r1,r3
 3082 094e D7F8A030 	 ldr r3,[r7,#160]
 3083 0952 DAB2     	 uxtb r2,r3
 3084 0954 97F88E30 	 ldrb r3,[r7,#142]
 3085 0958 1344     	 add r3,r3,r2
 3086 095a DBB2     	 uxtb r3,r3
 3087 095c 1A46     	 mov r2,r3
 3088 095e 1323     	 movs r3,#19
 3089 0960 FFF7FEFF 	 bl displayWriteChar
 685:../cleanflight/src/main/io/osd.c ****                 displayWriteChar(osdDisplayPort, elemPosX + hudwidth, elemPosY + y, SYM_AH_DECORATI
 3090              	 .loc 8 685 0 discriminator 3
 3091 0964 2C4B     	 ldr r3,.L227+28
 3092 0966 1868     	 ldr r0,[r3]
 3093 0968 97F87720 	 ldrb r2,[r7,#119]
 3094 096c 97F88F30 	 ldrb r3,[r7,#143]
 3095 0970 1344     	 add r3,r3,r2
 3096 0972 D9B2     	 uxtb r1,r3
 3097 0974 D7F8A030 	 ldr r3,[r7,#160]
 3098 0978 DAB2     	 uxtb r2,r3
 3099 097a 97F88E30 	 ldrb r3,[r7,#142]
 3100 097e 1344     	 add r3,r3,r2
 3101 0980 DBB2     	 uxtb r3,r3
 3102 0982 1A46     	 mov r2,r3
 3103 0984 1323     	 movs r3,#19
 3104 0986 FFF7FEFF 	 bl displayWriteChar
 683:../cleanflight/src/main/io/osd.c ****             for (int y = -hudheight; y <= hudheight; y++) {
 3105              	 .loc 8 683 0 discriminator 3
 3106 098a D7F8A030 	 ldr r3,[r7,#160]
 3107 098e 0133     	 adds r3,r3,#1
 3108 0990 C7F8A030 	 str r3,[r7,#160]
 3109              	.L189:
 683:../cleanflight/src/main/io/osd.c ****             for (int y = -hudheight; y <= hudheight; y++) {
 3110              	 .loc 8 683 0 is_stmt 0 discriminator 1
 3111 0994 97F97620 	 ldrsb r2,[r7,#118]
 3112 0998 D7F8A030 	 ldr r3,[r7,#160]
 3113 099c 9A42     	 cmp r2,r3
 3114 099e CEDA     	 bge .L190
 3115              	.LBE16:
 686:../cleanflight/src/main/io/osd.c ****             }
 687:../cleanflight/src/main/io/osd.c **** 
 688:../cleanflight/src/main/io/osd.c ****             // AH level indicators
 689:../cleanflight/src/main/io/osd.c ****             displayWriteChar(osdDisplayPort, elemPosX - hudwidth + 1, elemPosY, SYM_AH_LEFT);
 3116              	 .loc 8 689 0 is_stmt 1
 3117 09a0 1D4B     	 ldr r3,.L227+28
 3118 09a2 1968     	 ldr r1,[r3]
 3119 09a4 97F87730 	 ldrb r3,[r7,#119]
 3120 09a8 97F88F20 	 ldrb r2,[r7,#143]
 3121 09ac D31A     	 subs r3,r2,r3
 3122 09ae DBB2     	 uxtb r3,r3
 3123 09b0 0133     	 adds r3,r3,#1
 3124 09b2 DAB2     	 uxtb r2,r3
 3125 09b4 97F88E30 	 ldrb r3,[r7,#142]
 3126 09b8 0846     	 mov r0,r1
 3127 09ba 1146     	 mov r1,r2
 3128 09bc 1A46     	 mov r2,r3
 3129 09be 0323     	 movs r3,#3
 3130 09c0 FFF7FEFF 	 bl displayWriteChar
 690:../cleanflight/src/main/io/osd.c ****             displayWriteChar(osdDisplayPort, elemPosX + hudwidth - 1, elemPosY, SYM_AH_RIGHT);
 3131              	 .loc 8 690 0
 3132 09c4 144B     	 ldr r3,.L227+28
 3133 09c6 1968     	 ldr r1,[r3]
 3134 09c8 97F87720 	 ldrb r2,[r7,#119]
 3135 09cc 97F88F30 	 ldrb r3,[r7,#143]
 3136 09d0 1344     	 add r3,r3,r2
 3137 09d2 DBB2     	 uxtb r3,r3
 3138 09d4 013B     	 subs r3,r3,#1
 3139 09d6 DAB2     	 uxtb r2,r3
 3140 09d8 97F88E30 	 ldrb r3,[r7,#142]
 3141 09dc 0846     	 mov r0,r1
 3142 09de 1146     	 mov r1,r2
 3143 09e0 1A46     	 mov r2,r3
 3144 09e2 0223     	 movs r3,#2
 3145 09e4 FFF7FEFF 	 bl displayWriteChar
 691:../cleanflight/src/main/io/osd.c **** 
 692:../cleanflight/src/main/io/osd.c ****             return true;
 3146              	 .loc 8 692 0
 3147 09e8 0123     	 movs r3,#1
 3148 09ea 2EE3     	 b .L218
 3149              	.L152:
 3150              	.LBE15:
 3151              	.LBB17:
 693:../cleanflight/src/main/io/osd.c ****         }
 694:../cleanflight/src/main/io/osd.c **** 
 695:../cleanflight/src/main/io/osd.c ****     case OSD_G_FORCE:
 696:../cleanflight/src/main/io/osd.c ****         {
 697:../cleanflight/src/main/io/osd.c ****             float osdGForce = 0;
 3152              	 .loc 8 697 0
 3153 09ec 4FF00003 	 mov r3,#0
 3154 09f0 C7F89C30 	 str r3,[r7,#156]
 3155              	.LBB18:
 698:../cleanflight/src/main/io/osd.c ****             for (int axis = 0; axis < XYZ_AXIS_COUNT; axis++) {
 3156              	 .loc 8 698 0
 3157 09f4 0023     	 movs r3,#0
 3158 09f6 C7F89830 	 str r3,[r7,#152]
 3159 09fa 29E0     	 b .L191
 3160              	.L228:
 3161              	 .align 2
 3162              	.L227:
 3163 09fc 00000000 	 .word rcData
 3164 0a00 D34D6210 	 .word 274877907
 3165 0a04 00010000 	 .word .LC27
 3166 0a08 00000000 	 .word vtx58BandLetter
 3167 0a0c 00000000 	 .word vtx58ChannelNames
 3168 0a10 04010000 	 .word .LC28
 3169 0a14 00000000 	 .word attitude
 3170 0a18 00000000 	 .word osdDisplayPort
 3171 0a1c 398EE338 	 .word 954437177
 3172              	.L192:
 3173              	.LBB19:
 699:../cleanflight/src/main/io/osd.c ****                 const float a = accAverage[axis];
 3174              	 .loc 8 699 0 discriminator 3
 3175 0a20 C64A     	 ldr r2,.L229
 3176 0a22 D7F89830 	 ldr r3,[r7,#152]
 3177 0a26 9B00     	 lsls r3,r3,#2
 3178 0a28 1344     	 add r3,r3,r2
 3179 0a2a 1B68     	 ldr r3,[r3]
 3180 0a2c 3B65     	 str r3,[r7,#80]
 700:../cleanflight/src/main/io/osd.c ****                 osdGForce += a * a;
 3181              	 .loc 8 700 0 discriminator 3
 3182 0a2e 97ED147A 	 flds s14,[r7,#80]
 3183 0a32 D7ED147A 	 flds s15,[r7,#80]
 3184 0a36 67EE277A 	 fmuls s15,s14,s15
 3185 0a3a 97ED277A 	 flds s14,[r7,#156]
 3186 0a3e 77EE277A 	 fadds s15,s14,s15
 3187 0a42 C7ED277A 	 fsts s15,[r7,#156]
 3188              	.LBE19:
 698:../cleanflight/src/main/io/osd.c ****             for (int axis = 0; axis < XYZ_AXIS_COUNT; axis++) {
 3189              	 .loc 8 698 0 discriminator 3
 3190 0a46 D7F89830 	 ldr r3,[r7,#152]
 3191 0a4a 0133     	 adds r3,r3,#1
 3192 0a4c C7F89830 	 str r3,[r7,#152]
 3193              	.L191:
 698:../cleanflight/src/main/io/osd.c ****             for (int axis = 0; axis < XYZ_AXIS_COUNT; axis++) {
 3194              	 .loc 8 698 0 is_stmt 0 discriminator 1
 3195 0a50 D7F89830 	 ldr r3,[r7,#152]
 3196 0a54 022B     	 cmp r3,#2
 3197 0a56 E3DD     	 ble .L192
 3198              	.LBE18:
 701:../cleanflight/src/main/io/osd.c ****             }
 702:../cleanflight/src/main/io/osd.c ****             osdGForce = sqrtf(osdGForce) / acc.dev.acc_1G;
 3199              	 .loc 8 702 0 is_stmt 1
 3200 0a58 D7F89C00 	 ldr r0,[r7,#156]
 3201 0a5c FFF7FEFF 	 bl sqrtf
 3202 0a60 07EE100A 	 fmsr s14,r0
 3203 0a64 B64B     	 ldr r3,.L229+4
 3204 0a66 B3F81130 	 ldrh r3,[r3,#17]
 3205 0a6a 9BB2     	 uxth r3,r3
 3206 0a6c 07EE903A 	 fmsr s15,r3
 3207 0a70 F8EEE77A 	 fsitos s15,s15
 3208 0a74 C7EE277A 	 fdivs s15,s14,s15
 3209 0a78 C7ED277A 	 fsts s15,[r7,#156]
 703:../cleanflight/src/main/io/osd.c ****             tfp_sprintf(buff, "%01d.%01dG", (int)osdGForce, (int)(osdGForce * 10) % 10);
 3210              	 .loc 8 703 0
 3211 0a7c D7ED277A 	 flds s15,[r7,#156]
 3212 0a80 FDEEE76A 	 ftosizs s13,s15
 3213 0a84 D7ED277A 	 flds s15,[r7,#156]
 3214 0a88 B2EE047A 	 fconsts s14,#36
 3215 0a8c 67EE877A 	 fmuls s15,s15,s14
 3216 0a90 FDEEE77A 	 ftosizs s15,s15
 3217 0a94 17EE902A 	 fmrs r2,s15
 3218 0a98 AA4B     	 ldr r3,.L229+8
 3219 0a9a 83FB0213 	 smull r1,r3,r3,r2
 3220 0a9e 9910     	 asrs r1,r3,#2
 3221 0aa0 D317     	 asrs r3,r2,#31
 3222 0aa2 CC1A     	 subs r4,r1,r3
 3223 0aa4 2346     	 mov r3,r4
 3224 0aa6 9B00     	 lsls r3,r3,#2
 3225 0aa8 2344     	 add r3,r3,r4
 3226 0aaa 5B00     	 lsls r3,r3,#1
 3227 0aac D41A     	 subs r4,r2,r3
 3228 0aae 07F10C03 	 add r3,r7,#12
 3229 0ab2 1846     	 mov r0,r3
 3230 0ab4 A449     	 ldr r1,.L229+12
 3231 0ab6 16EE902A 	 fmrs r2,s13
 3232 0aba 2346     	 mov r3,r4
 3233 0abc FFF7FEFF 	 bl tfp_sprintf
 704:../cleanflight/src/main/io/osd.c ****             break;
 3234              	 .loc 8 704 0
 3235 0ac0 B8E2     	 b .L155
 3236              	.L130:
 3237              	.LBE17:
 705:../cleanflight/src/main/io/osd.c ****         }
 706:../cleanflight/src/main/io/osd.c **** 
 707:../cleanflight/src/main/io/osd.c ****     case OSD_ROLL_PIDS:
 708:../cleanflight/src/main/io/osd.c ****         osdFormatPID(buff, "ROL", &currentPidProfile->pid[PID_ROLL]);
 3238              	 .loc 8 708 0
 3239 0ac2 A24B     	 ldr r3,.L229+16
 3240 0ac4 1B68     	 ldr r3,[r3]
 3241 0ac6 0833     	 adds r3,r3,#8
 3242 0ac8 07F10C02 	 add r2,r7,#12
 3243 0acc 1046     	 mov r0,r2
 3244 0ace A049     	 ldr r1,.L229+20
 3245 0ad0 1A46     	 mov r2,r3
 3246 0ad2 FFF7FEFF 	 bl osdFormatPID
 709:../cleanflight/src/main/io/osd.c ****         break;
 3247              	 .loc 8 709 0
 3248 0ad6 ADE2     	 b .L155
 3249              	.L131:
 710:../cleanflight/src/main/io/osd.c **** 
 711:../cleanflight/src/main/io/osd.c ****     case OSD_PITCH_PIDS:
 712:../cleanflight/src/main/io/osd.c ****         osdFormatPID(buff, "PIT", &currentPidProfile->pid[PID_PITCH]);
 3250              	 .loc 8 712 0
 3251 0ad8 9C4B     	 ldr r3,.L229+16
 3252 0ada 1B68     	 ldr r3,[r3]
 3253 0adc 0D33     	 adds r3,r3,#13
 3254 0ade 07F10C02 	 add r2,r7,#12
 3255 0ae2 1046     	 mov r0,r2
 3256 0ae4 9B49     	 ldr r1,.L229+24
 3257 0ae6 1A46     	 mov r2,r3
 3258 0ae8 FFF7FEFF 	 bl osdFormatPID
 713:../cleanflight/src/main/io/osd.c ****         break;
 3259              	 .loc 8 713 0
 3260 0aec A2E2     	 b .L155
 3261              	.L132:
 714:../cleanflight/src/main/io/osd.c **** 
 715:../cleanflight/src/main/io/osd.c ****     case OSD_YAW_PIDS:
 716:../cleanflight/src/main/io/osd.c ****         osdFormatPID(buff, "YAW", &currentPidProfile->pid[PID_YAW]);
 3262              	 .loc 8 716 0
 3263 0aee 974B     	 ldr r3,.L229+16
 3264 0af0 1B68     	 ldr r3,[r3]
 3265 0af2 1233     	 adds r3,r3,#18
 3266 0af4 07F10C02 	 add r2,r7,#12
 3267 0af8 1046     	 mov r0,r2
 3268 0afa 9749     	 ldr r1,.L229+28
 3269 0afc 1A46     	 mov r2,r3
 3270 0afe FFF7FEFF 	 bl osdFormatPID
 717:../cleanflight/src/main/io/osd.c ****         break;
 3271              	 .loc 8 717 0
 3272 0b02 97E2     	 b .L155
 3273              	.L133:
 718:../cleanflight/src/main/io/osd.c **** 
 719:../cleanflight/src/main/io/osd.c ****     case OSD_POWER:
 720:../cleanflight/src/main/io/osd.c ****         tfp_sprintf(buff, "%4dW", getAmperage() * getBatteryVoltage() / 1000);
 3274              	 .loc 8 720 0
 3275 0b04 FFF7FEFF 	 bl getAmperage
 3276 0b08 0446     	 mov r4,r0
 3277 0b0a FFF7FEFF 	 bl getBatteryVoltage
 3278 0b0e 0346     	 mov r3,r0
 3279 0b10 03FB04F3 	 mul r3,r3,r4
 3280 0b14 914A     	 ldr r2,.L229+32
 3281 0b16 82FB0312 	 smull r1,r2,r2,r3
 3282 0b1a 9211     	 asrs r2,r2,#6
 3283 0b1c DB17     	 asrs r3,r3,#31
 3284 0b1e D31A     	 subs r3,r2,r3
 3285 0b20 07F10C02 	 add r2,r7,#12
 3286 0b24 1046     	 mov r0,r2
 3287 0b26 8E49     	 ldr r1,.L229+36
 3288 0b28 1A46     	 mov r2,r3
 3289 0b2a FFF7FEFF 	 bl tfp_sprintf
 721:../cleanflight/src/main/io/osd.c ****         break;
 3290              	 .loc 8 721 0
 3291 0b2e 81E2     	 b .L155
 3292              	.L134:
 722:../cleanflight/src/main/io/osd.c **** 
 723:../cleanflight/src/main/io/osd.c ****     case OSD_PIDRATE_PROFILE:
 724:../cleanflight/src/main/io/osd.c ****         tfp_sprintf(buff, "%d-%d", getCurrentPidProfileIndex() + 1, getCurrentControlRateProfileInd
 3293              	 .loc 8 724 0
 3294 0b30 FFF7FEFF 	 bl getCurrentPidProfileIndex
 3295 0b34 0346     	 mov r3,r0
 3296 0b36 5C1C     	 adds r4,r3,#1
 3297 0b38 FFF7FEFF 	 bl getCurrentControlRateProfileIndex
 3298 0b3c 0346     	 mov r3,r0
 3299 0b3e 0133     	 adds r3,r3,#1
 3300 0b40 07F10C02 	 add r2,r7,#12
 3301 0b44 1046     	 mov r0,r2
 3302 0b46 8749     	 ldr r1,.L229+40
 3303 0b48 2246     	 mov r2,r4
 3304 0b4a FFF7FEFF 	 bl tfp_sprintf
 725:../cleanflight/src/main/io/osd.c ****         break;
 3305              	 .loc 8 725 0
 3306 0b4e 71E2     	 b .L155
 3307              	.L135:
 3308              	.LBB20:
 726:../cleanflight/src/main/io/osd.c **** 
 727:../cleanflight/src/main/io/osd.c ****     case OSD_WARNINGS:
 728:../cleanflight/src/main/io/osd.c ****         {
 729:../cleanflight/src/main/io/osd.c **** 
 730:../cleanflight/src/main/io/osd.c **** #define OSD_WARNINGS_MAX_SIZE 11
 731:../cleanflight/src/main/io/osd.c **** #define OSD_FORMAT_MESSAGE_BUFFER_SIZE (OSD_WARNINGS_MAX_SIZE + 1)
 732:../cleanflight/src/main/io/osd.c **** 
 733:../cleanflight/src/main/io/osd.c ****             STATIC_ASSERT(OSD_FORMAT_MESSAGE_BUFFER_SIZE <= sizeof(buff), osd_warnings_size_exceeds
 734:../cleanflight/src/main/io/osd.c **** 
 735:../cleanflight/src/main/io/osd.c ****             const batteryState_e batteryState = getBatteryState();
 3309              	 .loc 8 735 0
 3310 0b50 FFF7FEFF 	 bl getBatteryState
 3311 0b54 0346     	 mov r3,r0
 3312 0b56 87F84F30 	 strb r3,[r7,#79]
 736:../cleanflight/src/main/io/osd.c **** 
 737:../cleanflight/src/main/io/osd.c **** #ifdef USE_DSHOT
 738:../cleanflight/src/main/io/osd.c ****             if (isTryingToArm() && !ARMING_FLAG(ARMED)) {
 739:../cleanflight/src/main/io/osd.c ****                 int armingDelayTime = (getLastDshotBeaconCommandTimeUs() + DSHOT_BEACON_GUARD_DELAY
 740:../cleanflight/src/main/io/osd.c ****                 if (armingDelayTime < 0) {
 741:../cleanflight/src/main/io/osd.c ****                     armingDelayTime = 0;
 742:../cleanflight/src/main/io/osd.c ****                 }
 743:../cleanflight/src/main/io/osd.c ****                 if (armingDelayTime >= (DSHOT_BEACON_GUARD_DELAY_US / 1e5 - 5)) {
 744:../cleanflight/src/main/io/osd.c ****                     osdFormatMessage(buff, OSD_FORMAT_MESSAGE_BUFFER_SIZE, " BEACON ON"); // Displa
 745:../cleanflight/src/main/io/osd.c ****                 } else {
 746:../cleanflight/src/main/io/osd.c ****                     char armingDelayMessage[OSD_FORMAT_MESSAGE_BUFFER_SIZE];
 747:../cleanflight/src/main/io/osd.c ****                     tfp_sprintf(armingDelayMessage, "ARM IN %d.%d", armingDelayTime / 10, armingDel
 748:../cleanflight/src/main/io/osd.c ****                     osdFormatMessage(buff, OSD_FORMAT_MESSAGE_BUFFER_SIZE, armingDelayMessage);
 749:../cleanflight/src/main/io/osd.c ****                 }
 750:../cleanflight/src/main/io/osd.c ****                 break;
 751:../cleanflight/src/main/io/osd.c ****             }
 752:../cleanflight/src/main/io/osd.c **** #endif
 753:../cleanflight/src/main/io/osd.c **** 
 754:../cleanflight/src/main/io/osd.c ****             if (osdWarnGetState(OSD_WARNING_BATTERY_CRITICAL) && batteryState == BATTERY_CRITICAL) 
 3313              	 .loc 8 754 0
 3314 0b5a 0320     	 movs r0,#3
 3315 0b5c FFF7FEFF 	 bl osdWarnGetState
 3316 0b60 0346     	 mov r3,r0
 3317 0b62 002B     	 cmp r3,#0
 3318 0b64 0BD0     	 beq .L193
 3319              	 .loc 8 754 0 is_stmt 0 discriminator 1
 3320 0b66 97F84F30 	 ldrb r3,[r7,#79]
 3321 0b6a 022B     	 cmp r3,#2
 3322 0b6c 07D1     	 bne .L193
 755:../cleanflight/src/main/io/osd.c ****                 osdFormatMessage(buff, OSD_FORMAT_MESSAGE_BUFFER_SIZE, " LAND NOW");
 3323              	 .loc 8 755 0 is_stmt 1
 3324 0b6e 07F10C03 	 add r3,r7,#12
 3325 0b72 1846     	 mov r0,r3
 3326 0b74 0C21     	 movs r1,#12
 3327 0b76 7C4A     	 ldr r2,.L229+44
 3328 0b78 FFF7FEFF 	 bl osdFormatMessage
 756:../cleanflight/src/main/io/osd.c ****                 break;
 3329              	 .loc 8 756 0
 3330 0b7c 5AE2     	 b .L155
 3331              	.L193:
 757:../cleanflight/src/main/io/osd.c ****             }
 758:../cleanflight/src/main/io/osd.c **** 
 759:../cleanflight/src/main/io/osd.c **** #ifdef USE_ADC_INTERNAL
 760:../cleanflight/src/main/io/osd.c ****             uint8_t coreTemperature = getCoreTemperatureCelsius();
 761:../cleanflight/src/main/io/osd.c ****             if (osdWarnGetState(OSD_WARNING_CORE_TEMPERATURE) && coreTemperature >= osdConfig()->co
 762:../cleanflight/src/main/io/osd.c ****                 char coreTemperatureWarningMsg[OSD_FORMAT_MESSAGE_BUFFER_SIZE];
 763:../cleanflight/src/main/io/osd.c ****                 tfp_sprintf(coreTemperatureWarningMsg, "CORE: %3d%c", osdConvertTemperatureToSelect
 764:../cleanflight/src/main/io/osd.c **** 
 765:../cleanflight/src/main/io/osd.c ****                 osdFormatMessage(buff, OSD_FORMAT_MESSAGE_BUFFER_SIZE, coreTemperatureWarningMsg);
 766:../cleanflight/src/main/io/osd.c **** 
 767:../cleanflight/src/main/io/osd.c ****                 break;
 768:../cleanflight/src/main/io/osd.c ****             }
 769:../cleanflight/src/main/io/osd.c **** #endif
 770:../cleanflight/src/main/io/osd.c **** 
 771:../cleanflight/src/main/io/osd.c **** #ifdef USE_ESC_SENSOR
 772:../cleanflight/src/main/io/osd.c ****             // Show warning if we lose motor output, the ESC is overheating or excessive current dr
 773:../cleanflight/src/main/io/osd.c ****             if (feature(FEATURE_ESC_SENSOR) && osdWarnGetState(OSD_WARNING_ESC_FAIL)) {
 774:../cleanflight/src/main/io/osd.c ****                 char escWarningMsg[OSD_FORMAT_MESSAGE_BUFFER_SIZE];
 775:../cleanflight/src/main/io/osd.c ****                 unsigned pos = 0;
 776:../cleanflight/src/main/io/osd.c ****                 
 777:../cleanflight/src/main/io/osd.c ****                 const char *title = "ESC";
 778:../cleanflight/src/main/io/osd.c **** 
 779:../cleanflight/src/main/io/osd.c ****                 // center justify message
 780:../cleanflight/src/main/io/osd.c ****                 while (pos < (OSD_WARNINGS_MAX_SIZE - (strlen(title) + getMotorCount())) / 2) {
 781:../cleanflight/src/main/io/osd.c ****                     escWarningMsg[pos++] = ' ';
 782:../cleanflight/src/main/io/osd.c ****                 }
 783:../cleanflight/src/main/io/osd.c **** 
 784:../cleanflight/src/main/io/osd.c ****                 strcpy(escWarningMsg + pos, title);
 785:../cleanflight/src/main/io/osd.c ****                 pos += strlen(title);
 786:../cleanflight/src/main/io/osd.c **** 
 787:../cleanflight/src/main/io/osd.c ****                 unsigned i = 0;
 788:../cleanflight/src/main/io/osd.c ****                 unsigned escWarningCount = 0;
 789:../cleanflight/src/main/io/osd.c ****                 while (i < getMotorCount() && pos < OSD_FORMAT_MESSAGE_BUFFER_SIZE - 1) {
 790:../cleanflight/src/main/io/osd.c ****                     escSensorData_t *escData = getEscSensorData(i);
 791:../cleanflight/src/main/io/osd.c ****                     const char motorNumber = '1' + i;
 792:../cleanflight/src/main/io/osd.c ****                     // if everything is OK just display motor number else R, T or C
 793:../cleanflight/src/main/io/osd.c ****                     char warnFlag = motorNumber;
 794:../cleanflight/src/main/io/osd.c ****                     if (ARMING_FLAG(ARMED) && osdConfig()->esc_rpm_alarm != ESC_RPM_ALARM_OFF && ca
 795:../cleanflight/src/main/io/osd.c ****                         warnFlag = 'R';
 796:../cleanflight/src/main/io/osd.c ****                     }
 797:../cleanflight/src/main/io/osd.c ****                     if (osdConfig()->esc_temp_alarm != ESC_TEMP_ALARM_OFF && escData->temperature >
 798:../cleanflight/src/main/io/osd.c ****                         warnFlag = 'T';
 799:../cleanflight/src/main/io/osd.c ****                     }
 800:../cleanflight/src/main/io/osd.c ****                     if (ARMING_FLAG(ARMED) && osdConfig()->esc_current_alarm != ESC_CURRENT_ALARM_O
 801:../cleanflight/src/main/io/osd.c ****                         warnFlag = 'C';
 802:../cleanflight/src/main/io/osd.c ****                     }
 803:../cleanflight/src/main/io/osd.c **** 
 804:../cleanflight/src/main/io/osd.c ****                     escWarningMsg[pos++] = warnFlag;
 805:../cleanflight/src/main/io/osd.c **** 
 806:../cleanflight/src/main/io/osd.c ****                     if (warnFlag != motorNumber) {
 807:../cleanflight/src/main/io/osd.c ****                         escWarningCount++;
 808:../cleanflight/src/main/io/osd.c ****                     }
 809:../cleanflight/src/main/io/osd.c **** 
 810:../cleanflight/src/main/io/osd.c ****                     i++;
 811:../cleanflight/src/main/io/osd.c ****                 }
 812:../cleanflight/src/main/io/osd.c **** 
 813:../cleanflight/src/main/io/osd.c ****                 escWarningMsg[pos] = '\0';
 814:../cleanflight/src/main/io/osd.c **** 
 815:../cleanflight/src/main/io/osd.c ****                 if (escWarningCount > 0) {
 816:../cleanflight/src/main/io/osd.c ****                     osdFormatMessage(buff, OSD_FORMAT_MESSAGE_BUFFER_SIZE, escWarningMsg);
 817:../cleanflight/src/main/io/osd.c ****                     break;
 818:../cleanflight/src/main/io/osd.c ****                 }
 819:../cleanflight/src/main/io/osd.c ****             }
 820:../cleanflight/src/main/io/osd.c **** #endif
 821:../cleanflight/src/main/io/osd.c **** 
 822:../cleanflight/src/main/io/osd.c ****             // Warn when in flip over after crash mode
 823:../cleanflight/src/main/io/osd.c ****             if (osdWarnGetState(OSD_WARNING_CRASH_FLIP) && isFlipOverAfterCrashMode()) {
 3332              	 .loc 8 823 0
 3333 0b7e 0520     	 movs r0,#5
 3334 0b80 FFF7FEFF 	 bl osdWarnGetState
 3335 0b84 0346     	 mov r3,r0
 3336 0b86 002B     	 cmp r3,#0
 3337 0b88 0CD0     	 beq .L194
 3338              	 .loc 8 823 0 is_stmt 0 discriminator 1
 3339 0b8a FFF7FEFF 	 bl isFlipOverAfterCrashMode
 3340 0b8e 0346     	 mov r3,r0
 3341 0b90 002B     	 cmp r3,#0
 3342 0b92 07D0     	 beq .L194
 824:../cleanflight/src/main/io/osd.c ****                 osdFormatMessage(buff, OSD_FORMAT_MESSAGE_BUFFER_SIZE, "CRASH FLIP");
 3343              	 .loc 8 824 0 is_stmt 1
 3344 0b94 07F10C03 	 add r3,r7,#12
 3345 0b98 1846     	 mov r0,r3
 3346 0b9a 0C21     	 movs r1,#12
 3347 0b9c 734A     	 ldr r2,.L229+48
 3348 0b9e FFF7FEFF 	 bl osdFormatMessage
 825:../cleanflight/src/main/io/osd.c ****                 break;
 3349              	 .loc 8 825 0
 3350 0ba2 47E2     	 b .L155
 3351              	.L194:
 826:../cleanflight/src/main/io/osd.c ****             }
 827:../cleanflight/src/main/io/osd.c **** 
 828:../cleanflight/src/main/io/osd.c ****             // Show most severe reason for arming being disabled
 829:../cleanflight/src/main/io/osd.c ****             if (osdWarnGetState(OSD_WARNING_ARMING_DISABLE) && IS_RC_MODE_ACTIVE(BOXARM) && isArmin
 3352              	 .loc 8 829 0
 3353 0ba4 0020     	 movs r0,#0
 3354 0ba6 FFF7FEFF 	 bl osdWarnGetState
 3355 0baa 0346     	 mov r3,r0
 3356 0bac 002B     	 cmp r3,#0
 3357 0bae 32D0     	 beq .L195
 3358              	 .loc 8 829 0 is_stmt 0 discriminator 1
 3359 0bb0 0020     	 movs r0,#0
 3360 0bb2 FFF7FEFF 	 bl IS_RC_MODE_ACTIVE
 3361 0bb6 0346     	 mov r3,r0
 3362 0bb8 002B     	 cmp r3,#0
 3363 0bba 2CD0     	 beq .L195
 3364              	 .loc 8 829 0 discriminator 2
 3365 0bbc FFF7FEFF 	 bl isArmingDisabled
 3366 0bc0 0346     	 mov r3,r0
 3367 0bc2 002B     	 cmp r3,#0
 3368 0bc4 27D0     	 beq .L195
 3369              	.LBB21:
 830:../cleanflight/src/main/io/osd.c ****                 const armingDisableFlags_e flags = getArmingDisableFlags();
 3370              	 .loc 8 830 0 is_stmt 1
 3371 0bc6 FFF7FEFF 	 bl getArmingDisableFlags
 3372 0bca B864     	 str r0,[r7,#72]
 3373              	.LBB22:
 831:../cleanflight/src/main/io/osd.c ****                 for (int i = 0; i < ARMING_DISABLE_FLAGS_COUNT; i++) {
 3374              	 .loc 8 831 0
 3375 0bcc 0023     	 movs r3,#0
 3376 0bce C7F89430 	 str r3,[r7,#148]
 3377 0bd2 1BE0     	 b .L196
 3378              	.L199:
 832:../cleanflight/src/main/io/osd.c ****                     if (flags & (1 << i)) {
 3379              	 .loc 8 832 0
 3380 0bd4 0122     	 movs r2,#1
 3381 0bd6 D7F89430 	 ldr r3,[r7,#148]
 3382 0bda 02FA03F3 	 lsl r3,r2,r3
 3383 0bde 1A46     	 mov r2,r3
 3384 0be0 BB6C     	 ldr r3,[r7,#72]
 3385 0be2 1340     	 ands r3,r3,r2
 3386 0be4 002B     	 cmp r3,#0
 3387 0be6 0CD0     	 beq .L197
 833:../cleanflight/src/main/io/osd.c ****                         osdFormatMessage(buff, OSD_FORMAT_MESSAGE_BUFFER_SIZE, armingDisableFlagNam
 3388              	 .loc 8 833 0
 3389 0be8 614A     	 ldr r2,.L229+52
 3390 0bea D7F89430 	 ldr r3,[r7,#148]
 3391 0bee 52F82330 	 ldr r3,[r2,r3,lsl#2]
 3392 0bf2 07F10C02 	 add r2,r7,#12
 3393 0bf6 1046     	 mov r0,r2
 3394 0bf8 0C21     	 movs r1,#12
 3395 0bfa 1A46     	 mov r2,r3
