   1              	 .syntax unified
   2              	 .cpu cortex-m4
   3              	 .eabi_attribute 27,3
   4              	 .fpu fpv4-sp-d16
   5              	 .eabi_attribute 20,1
   6              	 .eabi_attribute 21,1
   7              	 .eabi_attribute 23,3
   8              	 .eabi_attribute 24,1
   9              	 .eabi_attribute 25,1
  10              	 .eabi_attribute 26,1
  11              	 .eabi_attribute 30,6
  12              	 .eabi_attribute 34,1
  13              	 .eabi_attribute 18,4
  14              	 .thumb
  15              	 .file "board.c"
  16              	 .text
  17              	.Ltext0:
  18              	 .cfi_sections .debug_frame
  19              	 .comm boardConfig_System,60,4
  20              	 .comm boardConfig_Copy,60,4
  21              	 .global boardConfig_Registry
  22              	 .section .pg_registry,"a",%progbits
  23              	 .align 2
  26              	boardConfig_Registry:
  27 0000 1A02     	 .short 538
  28 0002 3C00     	 .short 60
  29 0004 00000000 	 .word boardConfig_System
  30 0008 00000000 	 .word boardConfig_Copy
  31 000c 00000000 	 .word 0
  32 0010 00000000 	 .word pgResetFn_boardConfig
  33              	 .section .text.pgResetFn_boardConfig,"ax",%progbits
  34              	 .align 2
  35              	 .global pgResetFn_boardConfig
  36              	 .thumb
  37              	 .thumb_func
  39              	pgResetFn_boardConfig:
  40              	.LFB526:
  41              	 .file 1 "../cleanflight/src/main/pg/board.c"
   1:../cleanflight/src/main/pg/board.c **** /*
   2:../cleanflight/src/main/pg/board.c ****  * This file is part of Cleanflight and Betaflight.
   3:../cleanflight/src/main/pg/board.c ****  *
   4:../cleanflight/src/main/pg/board.c ****  * Cleanflight and Betaflight are free software. You can redistribute
   5:../cleanflight/src/main/pg/board.c ****  * this software and/or modify this software under the terms of the
   6:../cleanflight/src/main/pg/board.c ****  * GNU General Public License as published by the Free Software
   7:../cleanflight/src/main/pg/board.c ****  * Foundation, either version 3 of the License, or (at your option)
   8:../cleanflight/src/main/pg/board.c ****  * any later version.
   9:../cleanflight/src/main/pg/board.c ****  *
  10:../cleanflight/src/main/pg/board.c ****  * Cleanflight and Betaflight are distributed in the hope that they
  11:../cleanflight/src/main/pg/board.c ****  * will be useful, but WITHOUT ANY WARRANTY; without even the implied
  12:../cleanflight/src/main/pg/board.c ****  * warranty of MERCHANTABILITY or FITNESS FOR A PARTICULAR PURPOSE.
  13:../cleanflight/src/main/pg/board.c ****  * See the GNU General Public License for more details.
  14:../cleanflight/src/main/pg/board.c ****  *
  15:../cleanflight/src/main/pg/board.c ****  * You should have received a copy of the GNU General Public License
  16:../cleanflight/src/main/pg/board.c ****  * along with this software.
  17:../cleanflight/src/main/pg/board.c ****  *
  18:../cleanflight/src/main/pg/board.c ****  * If not, see <http://www.gnu.org/licenses/>.
  19:../cleanflight/src/main/pg/board.c ****  */
  20:../cleanflight/src/main/pg/board.c **** 
  21:../cleanflight/src/main/pg/board.c **** #include <stdbool.h>
  22:../cleanflight/src/main/pg/board.c **** #include <string.h>
  23:../cleanflight/src/main/pg/board.c **** 
  24:../cleanflight/src/main/pg/board.c **** #include "platform.h"
  25:../cleanflight/src/main/pg/board.c **** 
  26:../cleanflight/src/main/pg/board.c **** #if defined(USE_BOARD_INFO)
  27:../cleanflight/src/main/pg/board.c **** #include "build/version.h"
  28:../cleanflight/src/main/pg/board.c **** 
  29:../cleanflight/src/main/pg/board.c **** #include "fc/board_info.h"
  30:../cleanflight/src/main/pg/board.c **** 
  31:../cleanflight/src/main/pg/board.c **** #include "pg/pg.h"
  32:../cleanflight/src/main/pg/board.c **** #include "pg/pg_ids.h"
  33:../cleanflight/src/main/pg/board.c **** 
  34:../cleanflight/src/main/pg/board.c **** #include "board.h"
  35:../cleanflight/src/main/pg/board.c **** 
  36:../cleanflight/src/main/pg/board.c **** PG_REGISTER_WITH_RESET_FN(boardConfig_t, boardConfig, PG_BOARD_CONFIG, 0);
  37:../cleanflight/src/main/pg/board.c **** 
  38:../cleanflight/src/main/pg/board.c **** void pgResetFn_boardConfig(boardConfig_t *boardConfig)
  39:../cleanflight/src/main/pg/board.c **** {
  42              	 .loc 1 39 0
  43              	 .cfi_startproc
  44              	 
  45              	 
  46 0000 90B5     	 push {r4,r7,lr}
  47              	.LCFI0:
  48              	 .cfi_def_cfa_offset 12
  49              	 .cfi_offset 4,-12
  50              	 .cfi_offset 7,-8
  51              	 .cfi_offset 14,-4
  52 0002 83B0     	 sub sp,sp,#12
  53              	.LCFI1:
  54              	 .cfi_def_cfa_offset 24
  55 0004 00AF     	 add r7,sp,#0
  56              	.LCFI2:
  57              	 .cfi_def_cfa_register 7
  58 0006 7860     	 str r0,[r7,#4]
  40:../cleanflight/src/main/pg/board.c ****     if (boardInformationIsSet()) {
  59              	 .loc 1 40 0
  60 0008 FFF7FEFF 	 bl boardInformationIsSet
  61 000c 0346     	 mov r3,r0
  62 000e 002B     	 cmp r3,#0
  63 0010 1AD0     	 beq .L2
  41:../cleanflight/src/main/pg/board.c ****         strncpy(boardConfig->manufacturerId, getManufacturerId(), MAX_MANUFACTURER_ID_LENGTH);
  64              	 .loc 1 41 0
  65 0012 7B68     	 ldr r3,[r7,#4]
  66 0014 03F12004 	 add r4,r3,#32
  67 0018 FFF7FEFF 	 bl getManufacturerId
  68 001c 0346     	 mov r3,r0
  69 001e 2046     	 mov r0,r4
  70 0020 1946     	 mov r1,r3
  71 0022 0422     	 movs r2,#4
  72 0024 FFF7FEFF 	 bl strncpy
  42:../cleanflight/src/main/pg/board.c ****         strncpy(boardConfig->boardName, getBoardName(), MAX_BOARD_NAME_LENGTH);
  73              	 .loc 1 42 0
  74 0028 7B68     	 ldr r3,[r7,#4]
  75 002a 03F12504 	 add r4,r3,#37
  76 002e FFF7FEFF 	 bl getBoardName
  77 0032 0346     	 mov r3,r0
  78 0034 2046     	 mov r0,r4
  79 0036 1946     	 mov r1,r3
  80 0038 1422     	 movs r2,#20
  81 003a FFF7FEFF 	 bl strncpy
  43:../cleanflight/src/main/pg/board.c ****         boardConfig->boardInformationSet = true;
  82              	 .loc 1 43 0
  83 003e 7B68     	 ldr r3,[r7,#4]
  84 0040 0122     	 movs r2,#1
  85 0042 83F83A20 	 strb r2,[r3,#58]
  86 0046 0DE0     	 b .L3
  87              	.L2:
  44:../cleanflight/src/main/pg/board.c ****     } else {
  45:../cleanflight/src/main/pg/board.c **** #if !defined(GENERIC_TARGET)
  46:../cleanflight/src/main/pg/board.c ****         strncpy(boardConfig->boardName, targetName, MAX_BOARD_NAME_LENGTH);
  88              	 .loc 1 46 0
  89 0048 7B68     	 ldr r3,[r7,#4]
  90 004a 03F12502 	 add r2,r3,#37
  91 004e 124B     	 ldr r3,.L6
  92 0050 1B68     	 ldr r3,[r3]
  93 0052 1046     	 mov r0,r2
  94 0054 1946     	 mov r1,r3
  95 0056 1422     	 movs r2,#20
  96 0058 FFF7FEFF 	 bl strncpy
  47:../cleanflight/src/main/pg/board.c **** 
  48:../cleanflight/src/main/pg/board.c **** #if defined(TARGET_MANUFACTURER_IDENTIFIER)
  49:../cleanflight/src/main/pg/board.c ****         strncpy(boardConfig->manufacturerId, TARGET_MANUFACTURER_IDENTIFIER, MAX_MANUFACTURER_ID_LE
  50:../cleanflight/src/main/pg/board.c **** #endif
  51:../cleanflight/src/main/pg/board.c ****         boardConfig->boardInformationSet = true;
  97              	 .loc 1 51 0
  98 005c 7B68     	 ldr r3,[r7,#4]
  99 005e 0122     	 movs r2,#1
 100 0060 83F83A20 	 strb r2,[r3,#58]
 101              	.L3:
  52:../cleanflight/src/main/pg/board.c **** #else
  53:../cleanflight/src/main/pg/board.c ****         boardConfig->boardInformationSet = false;
  54:../cleanflight/src/main/pg/board.c **** #endif // GENERIC_TARGET
  55:../cleanflight/src/main/pg/board.c ****     }
  56:../cleanflight/src/main/pg/board.c **** 
  57:../cleanflight/src/main/pg/board.c **** #if defined(USE_SIGNATURE)
  58:../cleanflight/src/main/pg/board.c ****     if (signatureIsSet()) {
 102              	 .loc 1 58 0
 103 0064 FFF7FEFF 	 bl signatureIsSet
 104 0068 0346     	 mov r3,r0
 105 006a 002B     	 cmp r3,#0
 106 006c 0DD0     	 beq .L4
  59:../cleanflight/src/main/pg/board.c ****         memcpy(boardConfig->signature, getSignature(), SIGNATURE_LENGTH);
 107              	 .loc 1 59 0
 108 006e 7C68     	 ldr r4,[r7,#4]
 109 0070 FFF7FEFF 	 bl getSignature
 110 0074 0346     	 mov r3,r0
 111 0076 2046     	 mov r0,r4
 112 0078 1946     	 mov r1,r3
 113 007a 2022     	 movs r2,#32
 114 007c FFF7FEFF 	 bl memcpy
  60:../cleanflight/src/main/pg/board.c ****         boardConfig->signatureSet = true;
 115              	 .loc 1 60 0
 116 0080 7B68     	 ldr r3,[r7,#4]
 117 0082 0122     	 movs r2,#1
 118 0084 83F83B20 	 strb r2,[r3,#59]
 119 0088 03E0     	 b .L1
 120              	.L4:
  61:../cleanflight/src/main/pg/board.c ****     } else {
  62:../cleanflight/src/main/pg/board.c ****         boardConfig->signatureSet = false;
 121              	 .loc 1 62 0
 122 008a 7B68     	 ldr r3,[r7,#4]
 123 008c 0022     	 movs r2,#0
 124 008e 83F83B20 	 strb r2,[r3,#59]
 125              	.L1:
  63:../cleanflight/src/main/pg/board.c ****     }
  64:../cleanflight/src/main/pg/board.c **** #endif
  65:../cleanflight/src/main/pg/board.c **** }
 126              	 .loc 1 65 0
 127 0092 0C37     	 adds r7,r7,#12
 128              	.LCFI3:
 129              	 .cfi_def_cfa_offset 12
 130 0094 BD46     	 mov sp,r7
 131              	.LCFI4:
 132              	 .cfi_def_cfa_register 13
 133              	 
 134 0096 90BD     	 pop {r4,r7,pc}
 135              	.L7:
 136              	 .align 2
 137              	.L6:
 138 0098 00000000 	 .word targetName
 139              	 .cfi_endproc
 140              	.LFE526:
 142              	 .text
 143              	.Letext0:
 144              	 .file 2 "d:\\xmc\\dave-ide-4.4.2-64bit\\eclipse\\arm-gcc-49\\arm-none-eabi\\include\\machine\\_default_types.h"
 145              	 .file 3 "d:\\xmc\\dave-ide-4.4.2-64bit\\eclipse\\arm-gcc-49\\arm-none-eabi\\include\\stdint.h"
 146              	 .file 4 "D:/XMC/Projekte/Temp/CF_XMC4700/cleanflight/lib/main/XMC4000/XMCLib/inc/xmc_usic.h"
 147              	 .file 5 "D:/XMC/Projekte/Temp/CF_XMC4700/cleanflight/src/main/pg/pg.h"
 148              	 .file 6 "../cleanflight/src/main/pg/board.h"
 149              	 .file 7 "D:/XMC/Projekte/Temp/CF_XMC4700/cleanflight/lib/main/CMSIS/Core/Include/core_cm4.h"
 150              	 .file 8 "D:/XMC/Projekte/Temp/CF_XMC4700/cleanflight/lib/main/XMC4000/system_XMC4700.h"
 151              	 .file 9 "D:/XMC/Projekte/Temp/CF_XMC4700/cleanflight/src/main/build/version.h"