   1              	 .syntax unified
   2              	 .cpu cortex-m4
   3              	 .eabi_attribute 27,3
   4              	 .fpu fpv4-sp-d16
   5              	 .eabi_attribute 20,1
   6              	 .eabi_attribute 21,1
   7              	 .eabi_attribute 23,3
   8              	 .eabi_attribute 24,1
   9              	 .eabi_attribute 25,1
  10              	 .eabi_attribute 26,1
  11              	 .eabi_attribute 30,6
  12              	 .eabi_attribute 34,1
  13              	 .eabi_attribute 18,4
  14              	 .thumb
  15              	 .file "asyncfatfs.c"
  16              	 .text
  17              	.Ltext0:
  18              	 .cfi_sections .debug_frame
  19              	 .section .bss.afatfs,"aw",%nobits
  20              	 .align 2
  23              	afatfs:
  24 0000 00000000 	 .space 4580
  24      00000000 
  24      00000000 
  24      00000000 
  24      00000000 
  25              	 .section .text.roundUpTo,"ax",%progbits
  26              	 .align 2
  27              	 .thumb
  28              	 .thumb_func
  30              	roundUpTo:
  31              	.LFB531:
  32              	 .file 1 "../cleanflight/src/main/io/asyncfatfs/asyncfatfs.c"
   1:../cleanflight/src/main/io/asyncfatfs/asyncfatfs.c **** /*
   2:../cleanflight/src/main/io/asyncfatfs/asyncfatfs.c ****  * This file is part of Cleanflight and Betaflight.
   3:../cleanflight/src/main/io/asyncfatfs/asyncfatfs.c ****  *
   4:../cleanflight/src/main/io/asyncfatfs/asyncfatfs.c ****  * Cleanflight and Betaflight are free software. You can redistribute
   5:../cleanflight/src/main/io/asyncfatfs/asyncfatfs.c ****  * this software and/or modify this software under the terms of the
   6:../cleanflight/src/main/io/asyncfatfs/asyncfatfs.c ****  * GNU General Public License as published by the Free Software
   7:../cleanflight/src/main/io/asyncfatfs/asyncfatfs.c ****  * Foundation, either version 3 of the License, or (at your option)
   8:../cleanflight/src/main/io/asyncfatfs/asyncfatfs.c ****  * any later version.
   9:../cleanflight/src/main/io/asyncfatfs/asyncfatfs.c ****  *
  10:../cleanflight/src/main/io/asyncfatfs/asyncfatfs.c ****  * Cleanflight and Betaflight are distributed in the hope that they
  11:../cleanflight/src/main/io/asyncfatfs/asyncfatfs.c ****  * will be useful, but WITHOUT ANY WARRANTY; without even the implied
  12:../cleanflight/src/main/io/asyncfatfs/asyncfatfs.c ****  * warranty of MERCHANTABILITY or FITNESS FOR A PARTICULAR PURPOSE.
  13:../cleanflight/src/main/io/asyncfatfs/asyncfatfs.c ****  * See the GNU General Public License for more details.
  14:../cleanflight/src/main/io/asyncfatfs/asyncfatfs.c ****  *
  15:../cleanflight/src/main/io/asyncfatfs/asyncfatfs.c ****  * You should have received a copy of the GNU General Public License
  16:../cleanflight/src/main/io/asyncfatfs/asyncfatfs.c ****  * along with this software.
  17:../cleanflight/src/main/io/asyncfatfs/asyncfatfs.c ****  *
  18:../cleanflight/src/main/io/asyncfatfs/asyncfatfs.c ****  * If not, see <http://www.gnu.org/licenses/>.
  19:../cleanflight/src/main/io/asyncfatfs/asyncfatfs.c ****  */
  20:../cleanflight/src/main/io/asyncfatfs/asyncfatfs.c **** 
  21:../cleanflight/src/main/io/asyncfatfs/asyncfatfs.c **** /**
  22:../cleanflight/src/main/io/asyncfatfs/asyncfatfs.c ****  * This is a FAT16/FAT32 filesystem for SD cards which uses asynchronous operations: The caller nee
  23:../cleanflight/src/main/io/asyncfatfs/asyncfatfs.c ****  * for the SD card to be ready.
  24:../cleanflight/src/main/io/asyncfatfs/asyncfatfs.c ****  *
  25:../cleanflight/src/main/io/asyncfatfs/asyncfatfs.c ****  * On top of the regular FAT32 concepts, we add the idea of a "super cluster". Given one FAT sector
  26:../cleanflight/src/main/io/asyncfatfs/asyncfatfs.c ****  * the series of clusters which corresponds to all of the cluster entries in that FAT sector. If fi
  27:../cleanflight/src/main/io/asyncfatfs/asyncfatfs.c ****  * on super-cluster boundaries, they will have FAT sectors which are dedicated to them and independ
  28:../cleanflight/src/main/io/asyncfatfs/asyncfatfs.c ****  * files.
  29:../cleanflight/src/main/io/asyncfatfs/asyncfatfs.c ****  *
  30:../cleanflight/src/main/io/asyncfatfs/asyncfatfs.c ****  * We can pre-allocate a "freefile" which is a file on disk made up of contiguous superclusters. Th
  31:../cleanflight/src/main/io/asyncfatfs/asyncfatfs.c ****  * to allocate a file on disk, we can carve it out of the freefile, and know that the clusters will
  32:../cleanflight/src/main/io/asyncfatfs/asyncfatfs.c ****  * without needing to read the FAT at all (the freefile's FAT is completely determined from its sta
  33:../cleanflight/src/main/io/asyncfatfs/asyncfatfs.c ****  * size, which we get from the directory entry). This allows for extremely fast append-only logging
  34:../cleanflight/src/main/io/asyncfatfs/asyncfatfs.c ****  */
  35:../cleanflight/src/main/io/asyncfatfs/asyncfatfs.c **** 
  36:../cleanflight/src/main/io/asyncfatfs/asyncfatfs.c **** #include <stdint.h>
  37:../cleanflight/src/main/io/asyncfatfs/asyncfatfs.c **** #include <stdlib.h>
  38:../cleanflight/src/main/io/asyncfatfs/asyncfatfs.c **** #include <string.h>
  39:../cleanflight/src/main/io/asyncfatfs/asyncfatfs.c **** 
  40:../cleanflight/src/main/io/asyncfatfs/asyncfatfs.c **** #include "platform.h"
  41:../cleanflight/src/main/io/asyncfatfs/asyncfatfs.c **** 
  42:../cleanflight/src/main/io/asyncfatfs/asyncfatfs.c **** #ifdef AFATFS_DEBUG
  43:../cleanflight/src/main/io/asyncfatfs/asyncfatfs.c **** #include <signal.h>
  44:../cleanflight/src/main/io/asyncfatfs/asyncfatfs.c **** #include <stdio.h>
  45:../cleanflight/src/main/io/asyncfatfs/asyncfatfs.c **** #endif
  46:../cleanflight/src/main/io/asyncfatfs/asyncfatfs.c **** 
  47:../cleanflight/src/main/io/asyncfatfs/asyncfatfs.c **** #include "asyncfatfs.h"
  48:../cleanflight/src/main/io/asyncfatfs/asyncfatfs.c **** 
  49:../cleanflight/src/main/io/asyncfatfs/asyncfatfs.c **** #include "fat_standard.h"
  50:../cleanflight/src/main/io/asyncfatfs/asyncfatfs.c **** #include "drivers/sdcard.h"
  51:../cleanflight/src/main/io/asyncfatfs/asyncfatfs.c **** #include "common/maths.h"
  52:../cleanflight/src/main/io/asyncfatfs/asyncfatfs.c **** #include "common/time.h"
  53:../cleanflight/src/main/io/asyncfatfs/asyncfatfs.c **** #include "common/utils.h"
  54:../cleanflight/src/main/io/asyncfatfs/asyncfatfs.c **** 
  55:../cleanflight/src/main/io/asyncfatfs/asyncfatfs.c **** #ifdef AFATFS_DEBUG
  56:../cleanflight/src/main/io/asyncfatfs/asyncfatfs.c ****     #define ONLY_EXPOSE_FOR_TESTING
  57:../cleanflight/src/main/io/asyncfatfs/asyncfatfs.c **** #else
  58:../cleanflight/src/main/io/asyncfatfs/asyncfatfs.c ****     #define ONLY_EXPOSE_FOR_TESTING static
  59:../cleanflight/src/main/io/asyncfatfs/asyncfatfs.c **** #endif
  60:../cleanflight/src/main/io/asyncfatfs/asyncfatfs.c **** 
  61:../cleanflight/src/main/io/asyncfatfs/asyncfatfs.c **** #define AFATFS_NUM_CACHE_SECTORS 8
  62:../cleanflight/src/main/io/asyncfatfs/asyncfatfs.c **** 
  63:../cleanflight/src/main/io/asyncfatfs/asyncfatfs.c **** // FAT filesystems are allowed to differ from these parameters, but we choose not to support those 
  64:../cleanflight/src/main/io/asyncfatfs/asyncfatfs.c **** #define AFATFS_SECTOR_SIZE  512
  65:../cleanflight/src/main/io/asyncfatfs/asyncfatfs.c **** #define AFATFS_NUM_FATS     2
  66:../cleanflight/src/main/io/asyncfatfs/asyncfatfs.c **** 
  67:../cleanflight/src/main/io/asyncfatfs/asyncfatfs.c **** #define AFATFS_MAX_OPEN_FILES 3
  68:../cleanflight/src/main/io/asyncfatfs/asyncfatfs.c **** 
  69:../cleanflight/src/main/io/asyncfatfs/asyncfatfs.c **** #define AFATFS_DEFAULT_FILE_DATE FAT_MAKE_DATE(2015, 12, 01)
  70:../cleanflight/src/main/io/asyncfatfs/asyncfatfs.c **** #define AFATFS_DEFAULT_FILE_TIME FAT_MAKE_TIME(00, 00, 00)
  71:../cleanflight/src/main/io/asyncfatfs/asyncfatfs.c **** 
  72:../cleanflight/src/main/io/asyncfatfs/asyncfatfs.c **** /*
  73:../cleanflight/src/main/io/asyncfatfs/asyncfatfs.c ****  * How many blocks will we write in a row before we bother using the SDcard's multiple block write 
  74:../cleanflight/src/main/io/asyncfatfs/asyncfatfs.c ****  * If this define is omitted, this disables multi-block write.
  75:../cleanflight/src/main/io/asyncfatfs/asyncfatfs.c ****  */
  76:../cleanflight/src/main/io/asyncfatfs/asyncfatfs.c **** #define AFATFS_MIN_MULTIPLE_BLOCK_WRITE_COUNT 4
  77:../cleanflight/src/main/io/asyncfatfs/asyncfatfs.c **** 
  78:../cleanflight/src/main/io/asyncfatfs/asyncfatfs.c **** #define AFATFS_FILES_PER_DIRECTORY_SECTOR (AFATFS_SECTOR_SIZE / sizeof(fatDirectoryEntry_t))
  79:../cleanflight/src/main/io/asyncfatfs/asyncfatfs.c **** 
  80:../cleanflight/src/main/io/asyncfatfs/asyncfatfs.c **** #define AFATFS_FAT32_FAT_ENTRIES_PER_SECTOR  (AFATFS_SECTOR_SIZE / sizeof(uint32_t))
  81:../cleanflight/src/main/io/asyncfatfs/asyncfatfs.c **** #define AFATFS_FAT16_FAT_ENTRIES_PER_SECTOR (AFATFS_SECTOR_SIZE / sizeof(uint16_t))
  82:../cleanflight/src/main/io/asyncfatfs/asyncfatfs.c **** 
  83:../cleanflight/src/main/io/asyncfatfs/asyncfatfs.c **** // We will read from the file
  84:../cleanflight/src/main/io/asyncfatfs/asyncfatfs.c **** #define AFATFS_FILE_MODE_READ             1
  85:../cleanflight/src/main/io/asyncfatfs/asyncfatfs.c **** // We will write to the file
  86:../cleanflight/src/main/io/asyncfatfs/asyncfatfs.c **** #define AFATFS_FILE_MODE_WRITE            2
  87:../cleanflight/src/main/io/asyncfatfs/asyncfatfs.c **** // We will append to the file, may not be combined with the write flag
  88:../cleanflight/src/main/io/asyncfatfs/asyncfatfs.c **** #define AFATFS_FILE_MODE_APPEND           4
  89:../cleanflight/src/main/io/asyncfatfs/asyncfatfs.c **** // File will occupy a series of superclusters (only valid for creating new files):
  90:../cleanflight/src/main/io/asyncfatfs/asyncfatfs.c **** #define AFATFS_FILE_MODE_CONTIGUOUS       8
  91:../cleanflight/src/main/io/asyncfatfs/asyncfatfs.c **** // File should be created if it doesn't exist:
  92:../cleanflight/src/main/io/asyncfatfs/asyncfatfs.c **** #define AFATFS_FILE_MODE_CREATE           16
  93:../cleanflight/src/main/io/asyncfatfs/asyncfatfs.c **** // The file's directory entry should be locked in cache so we can read it with no latency:
  94:../cleanflight/src/main/io/asyncfatfs/asyncfatfs.c **** #define AFATFS_FILE_MODE_RETAIN_DIRECTORY 32
  95:../cleanflight/src/main/io/asyncfatfs/asyncfatfs.c **** 
  96:../cleanflight/src/main/io/asyncfatfs/asyncfatfs.c **** // Open the cache sector for read access (it will be read from disk)
  97:../cleanflight/src/main/io/asyncfatfs/asyncfatfs.c **** #define AFATFS_CACHE_READ         1
  98:../cleanflight/src/main/io/asyncfatfs/asyncfatfs.c **** // Open the cache sector for write access (it will be marked dirty)
  99:../cleanflight/src/main/io/asyncfatfs/asyncfatfs.c **** #define AFATFS_CACHE_WRITE        2
 100:../cleanflight/src/main/io/asyncfatfs/asyncfatfs.c **** // Lock this sector to prevent its state from transitioning (prevent flushes to disk)
 101:../cleanflight/src/main/io/asyncfatfs/asyncfatfs.c **** #define AFATFS_CACHE_LOCK         4
 102:../cleanflight/src/main/io/asyncfatfs/asyncfatfs.c **** // Discard this sector in preference to other sectors when it is in the in-sync state
 103:../cleanflight/src/main/io/asyncfatfs/asyncfatfs.c **** #define AFATFS_CACHE_DISCARDABLE  8
 104:../cleanflight/src/main/io/asyncfatfs/asyncfatfs.c **** // Increase the retain counter of the cache sector to prevent it from being discarded when in the i
 105:../cleanflight/src/main/io/asyncfatfs/asyncfatfs.c **** #define AFATFS_CACHE_RETAIN       16
 106:../cleanflight/src/main/io/asyncfatfs/asyncfatfs.c **** 
 107:../cleanflight/src/main/io/asyncfatfs/asyncfatfs.c **** // Turn the largest free block on the disk into one contiguous file for efficient fragment-free all
 108:../cleanflight/src/main/io/asyncfatfs/asyncfatfs.c **** #define AFATFS_USE_FREEFILE
 109:../cleanflight/src/main/io/asyncfatfs/asyncfatfs.c **** 
 110:../cleanflight/src/main/io/asyncfatfs/asyncfatfs.c **** // When allocating a freefile, leave this many clusters un-allocated for regular files to use
 111:../cleanflight/src/main/io/asyncfatfs/asyncfatfs.c **** #define AFATFS_FREEFILE_LEAVE_CLUSTERS 100
 112:../cleanflight/src/main/io/asyncfatfs/asyncfatfs.c **** 
 113:../cleanflight/src/main/io/asyncfatfs/asyncfatfs.c **** // Filename in 8.3 format:
 114:../cleanflight/src/main/io/asyncfatfs/asyncfatfs.c **** #define AFATFS_FREESPACE_FILENAME "FREESPAC.E"
 115:../cleanflight/src/main/io/asyncfatfs/asyncfatfs.c **** 
 116:../cleanflight/src/main/io/asyncfatfs/asyncfatfs.c **** #define AFATFS_INTROSPEC_LOG_FILENAME "ASYNCFAT.LOG"
 117:../cleanflight/src/main/io/asyncfatfs/asyncfatfs.c **** 
 118:../cleanflight/src/main/io/asyncfatfs/asyncfatfs.c **** typedef enum {
 119:../cleanflight/src/main/io/asyncfatfs/asyncfatfs.c ****     AFATFS_SAVE_DIRECTORY_NORMAL,
 120:../cleanflight/src/main/io/asyncfatfs/asyncfatfs.c ****     AFATFS_SAVE_DIRECTORY_FOR_CLOSE,
 121:../cleanflight/src/main/io/asyncfatfs/asyncfatfs.c ****     AFATFS_SAVE_DIRECTORY_DELETED
 122:../cleanflight/src/main/io/asyncfatfs/asyncfatfs.c **** } afatfsSaveDirectoryEntryMode_e;
 123:../cleanflight/src/main/io/asyncfatfs/asyncfatfs.c **** 
 124:../cleanflight/src/main/io/asyncfatfs/asyncfatfs.c **** typedef enum {
 125:../cleanflight/src/main/io/asyncfatfs/asyncfatfs.c ****     AFATFS_CACHE_STATE_EMPTY,
 126:../cleanflight/src/main/io/asyncfatfs/asyncfatfs.c ****     AFATFS_CACHE_STATE_IN_SYNC,
 127:../cleanflight/src/main/io/asyncfatfs/asyncfatfs.c ****     AFATFS_CACHE_STATE_READING,
 128:../cleanflight/src/main/io/asyncfatfs/asyncfatfs.c ****     AFATFS_CACHE_STATE_WRITING,
 129:../cleanflight/src/main/io/asyncfatfs/asyncfatfs.c ****     AFATFS_CACHE_STATE_DIRTY
 130:../cleanflight/src/main/io/asyncfatfs/asyncfatfs.c **** } afatfsCacheBlockState_e;
 131:../cleanflight/src/main/io/asyncfatfs/asyncfatfs.c **** 
 132:../cleanflight/src/main/io/asyncfatfs/asyncfatfs.c **** typedef enum {
 133:../cleanflight/src/main/io/asyncfatfs/asyncfatfs.c ****     AFATFS_FILE_TYPE_NONE,
 134:../cleanflight/src/main/io/asyncfatfs/asyncfatfs.c ****     AFATFS_FILE_TYPE_NORMAL,
 135:../cleanflight/src/main/io/asyncfatfs/asyncfatfs.c ****     AFATFS_FILE_TYPE_FAT16_ROOT_DIRECTORY,
 136:../cleanflight/src/main/io/asyncfatfs/asyncfatfs.c ****     AFATFS_FILE_TYPE_DIRECTORY
 137:../cleanflight/src/main/io/asyncfatfs/asyncfatfs.c **** } afatfsFileType_e;
 138:../cleanflight/src/main/io/asyncfatfs/asyncfatfs.c **** 
 139:../cleanflight/src/main/io/asyncfatfs/asyncfatfs.c **** typedef enum {
 140:../cleanflight/src/main/io/asyncfatfs/asyncfatfs.c ****     CLUSTER_SEARCH_FREE_AT_BEGINNING_OF_FAT_SECTOR,
 141:../cleanflight/src/main/io/asyncfatfs/asyncfatfs.c ****     CLUSTER_SEARCH_FREE,
 142:../cleanflight/src/main/io/asyncfatfs/asyncfatfs.c ****     CLUSTER_SEARCH_OCCUPIED
 143:../cleanflight/src/main/io/asyncfatfs/asyncfatfs.c **** } afatfsClusterSearchCondition_e;
 144:../cleanflight/src/main/io/asyncfatfs/asyncfatfs.c **** 
 145:../cleanflight/src/main/io/asyncfatfs/asyncfatfs.c **** enum {
 146:../cleanflight/src/main/io/asyncfatfs/asyncfatfs.c ****     AFATFS_CREATEFILE_PHASE_INITIAL = 0,
 147:../cleanflight/src/main/io/asyncfatfs/asyncfatfs.c ****     AFATFS_CREATEFILE_PHASE_FIND_FILE,
 148:../cleanflight/src/main/io/asyncfatfs/asyncfatfs.c ****     AFATFS_CREATEFILE_PHASE_CREATE_NEW_FILE,
 149:../cleanflight/src/main/io/asyncfatfs/asyncfatfs.c ****     AFATFS_CREATEFILE_PHASE_SUCCESS,
 150:../cleanflight/src/main/io/asyncfatfs/asyncfatfs.c ****     AFATFS_CREATEFILE_PHASE_FAILURE
 151:../cleanflight/src/main/io/asyncfatfs/asyncfatfs.c **** };
 152:../cleanflight/src/main/io/asyncfatfs/asyncfatfs.c **** 
 153:../cleanflight/src/main/io/asyncfatfs/asyncfatfs.c **** typedef enum {
 154:../cleanflight/src/main/io/asyncfatfs/asyncfatfs.c ****     AFATFS_FIND_CLUSTER_IN_PROGRESS,
 155:../cleanflight/src/main/io/asyncfatfs/asyncfatfs.c ****     AFATFS_FIND_CLUSTER_FOUND,
 156:../cleanflight/src/main/io/asyncfatfs/asyncfatfs.c ****     AFATFS_FIND_CLUSTER_FATAL,
 157:../cleanflight/src/main/io/asyncfatfs/asyncfatfs.c ****     AFATFS_FIND_CLUSTER_NOT_FOUND
 158:../cleanflight/src/main/io/asyncfatfs/asyncfatfs.c **** } afatfsFindClusterStatus_e;
 159:../cleanflight/src/main/io/asyncfatfs/asyncfatfs.c **** 
 160:../cleanflight/src/main/io/asyncfatfs/asyncfatfs.c **** struct afatfsFileOperation_t;
 161:../cleanflight/src/main/io/asyncfatfs/asyncfatfs.c **** 
 162:../cleanflight/src/main/io/asyncfatfs/asyncfatfs.c **** typedef union afatfsFATSector_t {
 163:../cleanflight/src/main/io/asyncfatfs/asyncfatfs.c ****     uint8_t *bytes;
 164:../cleanflight/src/main/io/asyncfatfs/asyncfatfs.c ****     uint16_t *fat16;
 165:../cleanflight/src/main/io/asyncfatfs/asyncfatfs.c ****     uint32_t *fat32;
 166:../cleanflight/src/main/io/asyncfatfs/asyncfatfs.c **** } afatfsFATSector_t;
 167:../cleanflight/src/main/io/asyncfatfs/asyncfatfs.c **** 
 168:../cleanflight/src/main/io/asyncfatfs/asyncfatfs.c **** typedef struct afatfsCacheBlockDescriptor_t {
 169:../cleanflight/src/main/io/asyncfatfs/asyncfatfs.c ****     /*
 170:../cleanflight/src/main/io/asyncfatfs/asyncfatfs.c ****      * The physical sector index on disk that this cached block corresponds to
 171:../cleanflight/src/main/io/asyncfatfs/asyncfatfs.c ****      */
 172:../cleanflight/src/main/io/asyncfatfs/asyncfatfs.c ****     uint32_t sectorIndex;
 173:../cleanflight/src/main/io/asyncfatfs/asyncfatfs.c **** 
 174:../cleanflight/src/main/io/asyncfatfs/asyncfatfs.c ****     // We use an increasing timestamp to identify cache access times.
 175:../cleanflight/src/main/io/asyncfatfs/asyncfatfs.c **** 
 176:../cleanflight/src/main/io/asyncfatfs/asyncfatfs.c ****     // This is the timestamp that this sector was first marked dirty at (so we can flush sectors in
 177:../cleanflight/src/main/io/asyncfatfs/asyncfatfs.c ****     uint32_t writeTimestamp;
 178:../cleanflight/src/main/io/asyncfatfs/asyncfatfs.c **** 
 179:../cleanflight/src/main/io/asyncfatfs/asyncfatfs.c ****     // This is the last time the sector was accessed
 180:../cleanflight/src/main/io/asyncfatfs/asyncfatfs.c ****     uint32_t accessTimestamp;
 181:../cleanflight/src/main/io/asyncfatfs/asyncfatfs.c **** 
 182:../cleanflight/src/main/io/asyncfatfs/asyncfatfs.c ****     /* This is set to non-zero when we expect to write a consecutive series of this many blocks (in
 183:../cleanflight/src/main/io/asyncfatfs/asyncfatfs.c ****      * so we will tell the SD-card to pre-erase those blocks.
 184:../cleanflight/src/main/io/asyncfatfs/asyncfatfs.c ****      *
 185:../cleanflight/src/main/io/asyncfatfs/asyncfatfs.c ****      * This counter only needs to be set on the first block of a consecutive write (though setting 
 186:../cleanflight/src/main/io/asyncfatfs/asyncfatfs.c ****      * decreased, on the subsequent blocks won't hurt).
 187:../cleanflight/src/main/io/asyncfatfs/asyncfatfs.c ****      */
 188:../cleanflight/src/main/io/asyncfatfs/asyncfatfs.c ****     uint16_t consecutiveEraseBlockCount;
 189:../cleanflight/src/main/io/asyncfatfs/asyncfatfs.c **** 
 190:../cleanflight/src/main/io/asyncfatfs/asyncfatfs.c ****     afatfsCacheBlockState_e state;
 191:../cleanflight/src/main/io/asyncfatfs/asyncfatfs.c **** 
 192:../cleanflight/src/main/io/asyncfatfs/asyncfatfs.c ****     /*
 193:../cleanflight/src/main/io/asyncfatfs/asyncfatfs.c ****      * The state of this block must not transition (do not flush to disk, do not discard). This is 
 194:../cleanflight/src/main/io/asyncfatfs/asyncfatfs.c ****      * which is currently being written to by the application (so flushing it would be a waste of t
 195:../cleanflight/src/main/io/asyncfatfs/asyncfatfs.c ****      *
 196:../cleanflight/src/main/io/asyncfatfs/asyncfatfs.c ****      * This is a binary state rather than a counter because we assume that only one party will be r
 197:../cleanflight/src/main/io/asyncfatfs/asyncfatfs.c ****      * so consider locking a given sector.
 198:../cleanflight/src/main/io/asyncfatfs/asyncfatfs.c ****      */
 199:../cleanflight/src/main/io/asyncfatfs/asyncfatfs.c ****     unsigned locked:1;
 200:../cleanflight/src/main/io/asyncfatfs/asyncfatfs.c **** 
 201:../cleanflight/src/main/io/asyncfatfs/asyncfatfs.c ****     /*
 202:../cleanflight/src/main/io/asyncfatfs/asyncfatfs.c ****      * A counter for how many parties want this sector to be retained in memory (not discarded). If
 203:../cleanflight/src/main/io/asyncfatfs/asyncfatfs.c ****      * non-zero, the sector may be flushed to disk if dirty but must remain in the cache. This is u
 204:../cleanflight/src/main/io/asyncfatfs/asyncfatfs.c ****      * a directory sector to be cached in order to meet our response time requirements.
 205:../cleanflight/src/main/io/asyncfatfs/asyncfatfs.c ****      */
 206:../cleanflight/src/main/io/asyncfatfs/asyncfatfs.c ****     unsigned retainCount:6;
 207:../cleanflight/src/main/io/asyncfatfs/asyncfatfs.c **** 
 208:../cleanflight/src/main/io/asyncfatfs/asyncfatfs.c ****     /*
 209:../cleanflight/src/main/io/asyncfatfs/asyncfatfs.c ****      * If this block is in the In Sync state, it should be discarded from the cache in preference t
 210:../cleanflight/src/main/io/asyncfatfs/asyncfatfs.c ****      * This is useful for data that we don't expect to read again, e.g. data written to an append-o
 211:../cleanflight/src/main/io/asyncfatfs/asyncfatfs.c ****      * is overridden by the locked and retainCount flags.
 212:../cleanflight/src/main/io/asyncfatfs/asyncfatfs.c ****      */
 213:../cleanflight/src/main/io/asyncfatfs/asyncfatfs.c ****     unsigned discardable:1;
 214:../cleanflight/src/main/io/asyncfatfs/asyncfatfs.c **** } afatfsCacheBlockDescriptor_t;
 215:../cleanflight/src/main/io/asyncfatfs/asyncfatfs.c **** 
 216:../cleanflight/src/main/io/asyncfatfs/asyncfatfs.c **** typedef enum {
 217:../cleanflight/src/main/io/asyncfatfs/asyncfatfs.c ****     AFATFS_FAT_PATTERN_UNTERMINATED_CHAIN,
 218:../cleanflight/src/main/io/asyncfatfs/asyncfatfs.c ****     AFATFS_FAT_PATTERN_TERMINATED_CHAIN,
 219:../cleanflight/src/main/io/asyncfatfs/asyncfatfs.c ****     AFATFS_FAT_PATTERN_FREE
 220:../cleanflight/src/main/io/asyncfatfs/asyncfatfs.c **** } afatfsFATPattern_e;
 221:../cleanflight/src/main/io/asyncfatfs/asyncfatfs.c **** 
 222:../cleanflight/src/main/io/asyncfatfs/asyncfatfs.c **** typedef enum {
 223:../cleanflight/src/main/io/asyncfatfs/asyncfatfs.c ****     AFATFS_FREE_SPACE_SEARCH_PHASE_FIND_HOLE,
 224:../cleanflight/src/main/io/asyncfatfs/asyncfatfs.c ****     AFATFS_FREE_SPACE_SEARCH_PHASE_GROW_HOLE
 225:../cleanflight/src/main/io/asyncfatfs/asyncfatfs.c **** } afatfsFreeSpaceSearchPhase_e;
 226:../cleanflight/src/main/io/asyncfatfs/asyncfatfs.c **** 
 227:../cleanflight/src/main/io/asyncfatfs/asyncfatfs.c **** typedef struct afatfsFreeSpaceSearch_t {
 228:../cleanflight/src/main/io/asyncfatfs/asyncfatfs.c ****     uint32_t candidateStart;
 229:../cleanflight/src/main/io/asyncfatfs/asyncfatfs.c ****     uint32_t candidateEnd;
 230:../cleanflight/src/main/io/asyncfatfs/asyncfatfs.c ****     uint32_t bestGapStart;
 231:../cleanflight/src/main/io/asyncfatfs/asyncfatfs.c ****     uint32_t bestGapLength;
 232:../cleanflight/src/main/io/asyncfatfs/asyncfatfs.c ****     afatfsFreeSpaceSearchPhase_e phase;
 233:../cleanflight/src/main/io/asyncfatfs/asyncfatfs.c **** } afatfsFreeSpaceSearch_t;
 234:../cleanflight/src/main/io/asyncfatfs/asyncfatfs.c **** 
 235:../cleanflight/src/main/io/asyncfatfs/asyncfatfs.c **** typedef struct afatfsFreeSpaceFAT_t {
 236:../cleanflight/src/main/io/asyncfatfs/asyncfatfs.c ****     uint32_t startCluster;
 237:../cleanflight/src/main/io/asyncfatfs/asyncfatfs.c ****     uint32_t endCluster;
 238:../cleanflight/src/main/io/asyncfatfs/asyncfatfs.c **** } afatfsFreeSpaceFAT_t;
 239:../cleanflight/src/main/io/asyncfatfs/asyncfatfs.c **** 
 240:../cleanflight/src/main/io/asyncfatfs/asyncfatfs.c **** typedef struct afatfsCreateFile_t {
 241:../cleanflight/src/main/io/asyncfatfs/asyncfatfs.c ****     afatfsFileCallback_t callback;
 242:../cleanflight/src/main/io/asyncfatfs/asyncfatfs.c **** 
 243:../cleanflight/src/main/io/asyncfatfs/asyncfatfs.c ****     uint8_t phase;
 244:../cleanflight/src/main/io/asyncfatfs/asyncfatfs.c ****     uint8_t filename[FAT_FILENAME_LENGTH];
 245:../cleanflight/src/main/io/asyncfatfs/asyncfatfs.c **** } afatfsCreateFile_t;
 246:../cleanflight/src/main/io/asyncfatfs/asyncfatfs.c **** 
 247:../cleanflight/src/main/io/asyncfatfs/asyncfatfs.c **** typedef struct afatfsSeek_t {
 248:../cleanflight/src/main/io/asyncfatfs/asyncfatfs.c ****     afatfsFileCallback_t callback;
 249:../cleanflight/src/main/io/asyncfatfs/asyncfatfs.c **** 
 250:../cleanflight/src/main/io/asyncfatfs/asyncfatfs.c ****     uint32_t seekOffset;
 251:../cleanflight/src/main/io/asyncfatfs/asyncfatfs.c **** } afatfsSeek_t;
 252:../cleanflight/src/main/io/asyncfatfs/asyncfatfs.c **** 
 253:../cleanflight/src/main/io/asyncfatfs/asyncfatfs.c **** typedef enum {
 254:../cleanflight/src/main/io/asyncfatfs/asyncfatfs.c ****     AFATFS_APPEND_SUPERCLUSTER_PHASE_INIT = 0,
 255:../cleanflight/src/main/io/asyncfatfs/asyncfatfs.c ****     AFATFS_APPEND_SUPERCLUSTER_PHASE_UPDATE_FREEFILE_DIRECTORY,
 256:../cleanflight/src/main/io/asyncfatfs/asyncfatfs.c ****     AFATFS_APPEND_SUPERCLUSTER_PHASE_UPDATE_FAT,
 257:../cleanflight/src/main/io/asyncfatfs/asyncfatfs.c ****     AFATFS_APPEND_SUPERCLUSTER_PHASE_UPDATE_FILE_DIRECTORY
 258:../cleanflight/src/main/io/asyncfatfs/asyncfatfs.c **** } afatfsAppendSuperclusterPhase_e;
 259:../cleanflight/src/main/io/asyncfatfs/asyncfatfs.c **** 
 260:../cleanflight/src/main/io/asyncfatfs/asyncfatfs.c **** typedef struct afatfsAppendSupercluster_t {
 261:../cleanflight/src/main/io/asyncfatfs/asyncfatfs.c ****     uint32_t previousCluster;
 262:../cleanflight/src/main/io/asyncfatfs/asyncfatfs.c ****     uint32_t fatRewriteStartCluster;
 263:../cleanflight/src/main/io/asyncfatfs/asyncfatfs.c ****     uint32_t fatRewriteEndCluster;
 264:../cleanflight/src/main/io/asyncfatfs/asyncfatfs.c ****     afatfsAppendSuperclusterPhase_e phase;
 265:../cleanflight/src/main/io/asyncfatfs/asyncfatfs.c **** } afatfsAppendSupercluster_t;
 266:../cleanflight/src/main/io/asyncfatfs/asyncfatfs.c **** 
 267:../cleanflight/src/main/io/asyncfatfs/asyncfatfs.c **** typedef enum {
 268:../cleanflight/src/main/io/asyncfatfs/asyncfatfs.c ****     AFATFS_APPEND_FREE_CLUSTER_PHASE_INITIAL = 0,
 269:../cleanflight/src/main/io/asyncfatfs/asyncfatfs.c ****     AFATFS_APPEND_FREE_CLUSTER_PHASE_FIND_FREESPACE = 0,
 270:../cleanflight/src/main/io/asyncfatfs/asyncfatfs.c ****     AFATFS_APPEND_FREE_CLUSTER_PHASE_UPDATE_FAT1,
 271:../cleanflight/src/main/io/asyncfatfs/asyncfatfs.c ****     AFATFS_APPEND_FREE_CLUSTER_PHASE_UPDATE_FAT2,
 272:../cleanflight/src/main/io/asyncfatfs/asyncfatfs.c ****     AFATFS_APPEND_FREE_CLUSTER_PHASE_UPDATE_FILE_DIRECTORY,
 273:../cleanflight/src/main/io/asyncfatfs/asyncfatfs.c ****     AFATFS_APPEND_FREE_CLUSTER_PHASE_COMPLETE,
 274:../cleanflight/src/main/io/asyncfatfs/asyncfatfs.c ****     AFATFS_APPEND_FREE_CLUSTER_PHASE_FAILURE
 275:../cleanflight/src/main/io/asyncfatfs/asyncfatfs.c **** } afatfsAppendFreeClusterPhase_e;
 276:../cleanflight/src/main/io/asyncfatfs/asyncfatfs.c **** 
 277:../cleanflight/src/main/io/asyncfatfs/asyncfatfs.c **** typedef struct afatfsAppendFreeCluster_t {
 278:../cleanflight/src/main/io/asyncfatfs/asyncfatfs.c ****     uint32_t previousCluster;
 279:../cleanflight/src/main/io/asyncfatfs/asyncfatfs.c ****     uint32_t searchCluster;
 280:../cleanflight/src/main/io/asyncfatfs/asyncfatfs.c ****     afatfsAppendFreeClusterPhase_e phase;
 281:../cleanflight/src/main/io/asyncfatfs/asyncfatfs.c **** } afatfsAppendFreeCluster_t;
 282:../cleanflight/src/main/io/asyncfatfs/asyncfatfs.c **** 
 283:../cleanflight/src/main/io/asyncfatfs/asyncfatfs.c **** typedef enum {
 284:../cleanflight/src/main/io/asyncfatfs/asyncfatfs.c ****     AFATFS_EXTEND_SUBDIRECTORY_PHASE_INITIAL = 0,
 285:../cleanflight/src/main/io/asyncfatfs/asyncfatfs.c ****     AFATFS_EXTEND_SUBDIRECTORY_PHASE_ADD_FREE_CLUSTER = 0,
 286:../cleanflight/src/main/io/asyncfatfs/asyncfatfs.c ****     AFATFS_EXTEND_SUBDIRECTORY_PHASE_WRITE_SECTORS,
 287:../cleanflight/src/main/io/asyncfatfs/asyncfatfs.c ****     AFATFS_EXTEND_SUBDIRECTORY_PHASE_SUCCESS,
 288:../cleanflight/src/main/io/asyncfatfs/asyncfatfs.c ****     AFATFS_EXTEND_SUBDIRECTORY_PHASE_FAILURE
 289:../cleanflight/src/main/io/asyncfatfs/asyncfatfs.c **** } afatfsExtendSubdirectoryPhase_e;
 290:../cleanflight/src/main/io/asyncfatfs/asyncfatfs.c **** 
 291:../cleanflight/src/main/io/asyncfatfs/asyncfatfs.c **** typedef struct afatfsExtendSubdirectory_t {
 292:../cleanflight/src/main/io/asyncfatfs/asyncfatfs.c ****     // We need to call this as a sub-operation so we have it as our first member to be compatible w
 293:../cleanflight/src/main/io/asyncfatfs/asyncfatfs.c ****     afatfsAppendFreeCluster_t appendFreeCluster;
 294:../cleanflight/src/main/io/asyncfatfs/asyncfatfs.c **** 
 295:../cleanflight/src/main/io/asyncfatfs/asyncfatfs.c ****     afatfsExtendSubdirectoryPhase_e phase;
 296:../cleanflight/src/main/io/asyncfatfs/asyncfatfs.c **** 
 297:../cleanflight/src/main/io/asyncfatfs/asyncfatfs.c ****     uint32_t parentDirectoryCluster;
 298:../cleanflight/src/main/io/asyncfatfs/asyncfatfs.c ****     afatfsFileCallback_t callback;
 299:../cleanflight/src/main/io/asyncfatfs/asyncfatfs.c **** } afatfsExtendSubdirectory_t;
 300:../cleanflight/src/main/io/asyncfatfs/asyncfatfs.c **** 
 301:../cleanflight/src/main/io/asyncfatfs/asyncfatfs.c **** typedef enum {
 302:../cleanflight/src/main/io/asyncfatfs/asyncfatfs.c ****     AFATFS_TRUNCATE_FILE_INITIAL = 0,
 303:../cleanflight/src/main/io/asyncfatfs/asyncfatfs.c ****     AFATFS_TRUNCATE_FILE_UPDATE_DIRECTORY = 0,
 304:../cleanflight/src/main/io/asyncfatfs/asyncfatfs.c ****     AFATFS_TRUNCATE_FILE_ERASE_FAT_CHAIN_NORMAL,
 305:../cleanflight/src/main/io/asyncfatfs/asyncfatfs.c **** #ifdef AFATFS_USE_FREEFILE
 306:../cleanflight/src/main/io/asyncfatfs/asyncfatfs.c ****     AFATFS_TRUNCATE_FILE_ERASE_FAT_CHAIN_CONTIGUOUS,
 307:../cleanflight/src/main/io/asyncfatfs/asyncfatfs.c ****     AFATFS_TRUNCATE_FILE_PREPEND_TO_FREEFILE,
 308:../cleanflight/src/main/io/asyncfatfs/asyncfatfs.c **** #endif
 309:../cleanflight/src/main/io/asyncfatfs/asyncfatfs.c ****     AFATFS_TRUNCATE_FILE_SUCCESS
 310:../cleanflight/src/main/io/asyncfatfs/asyncfatfs.c **** } afatfsTruncateFilePhase_e;
 311:../cleanflight/src/main/io/asyncfatfs/asyncfatfs.c **** 
 312:../cleanflight/src/main/io/asyncfatfs/asyncfatfs.c **** typedef struct afatfsTruncateFile_t {
 313:../cleanflight/src/main/io/asyncfatfs/asyncfatfs.c ****     uint32_t startCluster; // First cluster to erase
 314:../cleanflight/src/main/io/asyncfatfs/asyncfatfs.c ****     uint32_t currentCluster; // Used to mark progress
 315:../cleanflight/src/main/io/asyncfatfs/asyncfatfs.c ****     uint32_t endCluster; // Optional, for contiguous files set to 1 past the end cluster of the fil
 316:../cleanflight/src/main/io/asyncfatfs/asyncfatfs.c ****     afatfsFileCallback_t callback;
 317:../cleanflight/src/main/io/asyncfatfs/asyncfatfs.c ****     afatfsTruncateFilePhase_e phase;
 318:../cleanflight/src/main/io/asyncfatfs/asyncfatfs.c **** } afatfsTruncateFile_t;
 319:../cleanflight/src/main/io/asyncfatfs/asyncfatfs.c **** 
 320:../cleanflight/src/main/io/asyncfatfs/asyncfatfs.c **** typedef enum {
 321:../cleanflight/src/main/io/asyncfatfs/asyncfatfs.c ****     AFATFS_DELETE_FILE_DELETE_DIRECTORY_ENTRY,
 322:../cleanflight/src/main/io/asyncfatfs/asyncfatfs.c ****     AFATFS_DELETE_FILE_DEALLOCATE_CLUSTERS
 323:../cleanflight/src/main/io/asyncfatfs/asyncfatfs.c **** } afatfsDeleteFilePhase_e;
 324:../cleanflight/src/main/io/asyncfatfs/asyncfatfs.c **** 
 325:../cleanflight/src/main/io/asyncfatfs/asyncfatfs.c **** typedef struct afatfsDeleteFile_t {
 326:../cleanflight/src/main/io/asyncfatfs/asyncfatfs.c ****     afatfsTruncateFile_t truncateFile;
 327:../cleanflight/src/main/io/asyncfatfs/asyncfatfs.c ****     afatfsCallback_t callback;
 328:../cleanflight/src/main/io/asyncfatfs/asyncfatfs.c **** } afatfsUnlinkFile_t;
 329:../cleanflight/src/main/io/asyncfatfs/asyncfatfs.c **** 
 330:../cleanflight/src/main/io/asyncfatfs/asyncfatfs.c **** typedef struct afatfsCloseFile_t {
 331:../cleanflight/src/main/io/asyncfatfs/asyncfatfs.c ****     afatfsCallback_t callback;
 332:../cleanflight/src/main/io/asyncfatfs/asyncfatfs.c **** } afatfsCloseFile_t;
 333:../cleanflight/src/main/io/asyncfatfs/asyncfatfs.c **** 
 334:../cleanflight/src/main/io/asyncfatfs/asyncfatfs.c **** typedef enum {
 335:../cleanflight/src/main/io/asyncfatfs/asyncfatfs.c ****     AFATFS_FILE_OPERATION_NONE,
 336:../cleanflight/src/main/io/asyncfatfs/asyncfatfs.c ****     AFATFS_FILE_OPERATION_CREATE_FILE,
 337:../cleanflight/src/main/io/asyncfatfs/asyncfatfs.c ****     AFATFS_FILE_OPERATION_SEEK, // Seek the file's cursorCluster forwards by seekOffset bytes
 338:../cleanflight/src/main/io/asyncfatfs/asyncfatfs.c ****     AFATFS_FILE_OPERATION_CLOSE,
 339:../cleanflight/src/main/io/asyncfatfs/asyncfatfs.c ****     AFATFS_FILE_OPERATION_TRUNCATE,
 340:../cleanflight/src/main/io/asyncfatfs/asyncfatfs.c ****     AFATFS_FILE_OPERATION_UNLINK,
 341:../cleanflight/src/main/io/asyncfatfs/asyncfatfs.c **** #ifdef AFATFS_USE_FREEFILE
 342:../cleanflight/src/main/io/asyncfatfs/asyncfatfs.c ****     AFATFS_FILE_OPERATION_APPEND_SUPERCLUSTER,
 343:../cleanflight/src/main/io/asyncfatfs/asyncfatfs.c ****     AFATFS_FILE_OPERATION_LOCKED,
 344:../cleanflight/src/main/io/asyncfatfs/asyncfatfs.c **** #endif
 345:../cleanflight/src/main/io/asyncfatfs/asyncfatfs.c ****     AFATFS_FILE_OPERATION_APPEND_FREE_CLUSTER,
 346:../cleanflight/src/main/io/asyncfatfs/asyncfatfs.c ****     AFATFS_FILE_OPERATION_EXTEND_SUBDIRECTORY
 347:../cleanflight/src/main/io/asyncfatfs/asyncfatfs.c **** } afatfsFileOperation_e;
 348:../cleanflight/src/main/io/asyncfatfs/asyncfatfs.c **** 
 349:../cleanflight/src/main/io/asyncfatfs/asyncfatfs.c **** typedef struct afatfsFileOperation_t {
 350:../cleanflight/src/main/io/asyncfatfs/asyncfatfs.c ****     afatfsFileOperation_e operation;
 351:../cleanflight/src/main/io/asyncfatfs/asyncfatfs.c ****     union {
 352:../cleanflight/src/main/io/asyncfatfs/asyncfatfs.c ****         afatfsCreateFile_t createFile;
 353:../cleanflight/src/main/io/asyncfatfs/asyncfatfs.c ****         afatfsSeek_t seek;
 354:../cleanflight/src/main/io/asyncfatfs/asyncfatfs.c ****         afatfsAppendSupercluster_t appendSupercluster;
 355:../cleanflight/src/main/io/asyncfatfs/asyncfatfs.c ****         afatfsAppendFreeCluster_t appendFreeCluster;
 356:../cleanflight/src/main/io/asyncfatfs/asyncfatfs.c ****         afatfsExtendSubdirectory_t extendSubdirectory;
 357:../cleanflight/src/main/io/asyncfatfs/asyncfatfs.c ****         afatfsUnlinkFile_t unlinkFile;
 358:../cleanflight/src/main/io/asyncfatfs/asyncfatfs.c ****         afatfsTruncateFile_t truncateFile;
 359:../cleanflight/src/main/io/asyncfatfs/asyncfatfs.c ****         afatfsCloseFile_t closeFile;
 360:../cleanflight/src/main/io/asyncfatfs/asyncfatfs.c ****     } state;
 361:../cleanflight/src/main/io/asyncfatfs/asyncfatfs.c **** } afatfsFileOperation_t;
 362:../cleanflight/src/main/io/asyncfatfs/asyncfatfs.c **** 
 363:../cleanflight/src/main/io/asyncfatfs/asyncfatfs.c **** typedef struct afatfsFile_t {
 364:../cleanflight/src/main/io/asyncfatfs/asyncfatfs.c ****     afatfsFileType_e type;
 365:../cleanflight/src/main/io/asyncfatfs/asyncfatfs.c **** 
 366:../cleanflight/src/main/io/asyncfatfs/asyncfatfs.c ****     // The byte offset of the cursor within the file
 367:../cleanflight/src/main/io/asyncfatfs/asyncfatfs.c ****     uint32_t cursorOffset;
 368:../cleanflight/src/main/io/asyncfatfs/asyncfatfs.c **** 
 369:../cleanflight/src/main/io/asyncfatfs/asyncfatfs.c ****     /* The file size in bytes as seen by users of the filesystem (the exact length of the file they
 370:../cleanflight/src/main/io/asyncfatfs/asyncfatfs.c ****      *
 371:../cleanflight/src/main/io/asyncfatfs/asyncfatfs.c ****      * This is only used by users of the filesystem, not us, so it only needs to be up to date for 
 372:../cleanflight/src/main/io/asyncfatfs/asyncfatfs.c ****      * seeks to the EOF), fread(), feof(), and fclose() (which writes the logicalSize to the direct
 373:../cleanflight/src/main/io/asyncfatfs/asyncfatfs.c ****      *
 374:../cleanflight/src/main/io/asyncfatfs/asyncfatfs.c ****      * It becomes out of date when we fwrite() to extend the length of the file. In this situation,
 375:../cleanflight/src/main/io/asyncfatfs/asyncfatfs.c ****      * true, so we don't have to update the logicalSize for fread() or feof() to get the correct re
 376:../cleanflight/src/main/io/asyncfatfs/asyncfatfs.c ****      * to update it when we seek backwards (so we don't forget the logical EOF position), or fclose
 377:../cleanflight/src/main/io/asyncfatfs/asyncfatfs.c ****      */
 378:../cleanflight/src/main/io/asyncfatfs/asyncfatfs.c ****     uint32_t logicalSize;
 379:../cleanflight/src/main/io/asyncfatfs/asyncfatfs.c **** 
 380:../cleanflight/src/main/io/asyncfatfs/asyncfatfs.c ****     /* The allocated size in bytes based on how many clusters have been assigned to the file. Alway
 381:../cleanflight/src/main/io/asyncfatfs/asyncfatfs.c ****      * the cluster size.
 382:../cleanflight/src/main/io/asyncfatfs/asyncfatfs.c ****      *
 383:../cleanflight/src/main/io/asyncfatfs/asyncfatfs.c ****      * This is an underestimate for existing files, because we don't bother to check precisely how 
 384:../cleanflight/src/main/io/asyncfatfs/asyncfatfs.c ****      * at the time the file is opened (it might be longer than needed to contain the logical size),
 385:../cleanflight/src/main/io/asyncfatfs/asyncfatfs.c ****      * filesystem metadata is correct, it should always be at least as many clusters as needed to c
 386:../cleanflight/src/main/io/asyncfatfs/asyncfatfs.c ****      *
 387:../cleanflight/src/main/io/asyncfatfs/asyncfatfs.c ****      * Since this is an estimate, we only use it to exaggerate the filesize in the directory entry 
 388:../cleanflight/src/main/io/asyncfatfs/asyncfatfs.c ****      * currently being written (so that the final cluster of the file will be entirely readable if 
 389:../cleanflight/src/main/io/asyncfatfs/asyncfatfs.c ****      * we can could update the directory entry with a new logicalSize).
 390:../cleanflight/src/main/io/asyncfatfs/asyncfatfs.c ****      */
 391:../cleanflight/src/main/io/asyncfatfs/asyncfatfs.c ****     uint32_t physicalSize;
 392:../cleanflight/src/main/io/asyncfatfs/asyncfatfs.c **** 
 393:../cleanflight/src/main/io/asyncfatfs/asyncfatfs.c ****     /*
 394:../cleanflight/src/main/io/asyncfatfs/asyncfatfs.c ****      * The cluster that the file pointer is currently within. When seeking to the end of the file, 
 395:../cleanflight/src/main/io/asyncfatfs/asyncfatfs.c ****      * set to zero.
 396:../cleanflight/src/main/io/asyncfatfs/asyncfatfs.c ****      */
 397:../cleanflight/src/main/io/asyncfatfs/asyncfatfs.c ****     uint32_t cursorCluster;
 398:../cleanflight/src/main/io/asyncfatfs/asyncfatfs.c **** 
 399:../cleanflight/src/main/io/asyncfatfs/asyncfatfs.c ****     /*
 400:../cleanflight/src/main/io/asyncfatfs/asyncfatfs.c ****      * The cluster before the one the file pointer is inside. This is set to zero when at the start
 401:../cleanflight/src/main/io/asyncfatfs/asyncfatfs.c ****      */
 402:../cleanflight/src/main/io/asyncfatfs/asyncfatfs.c ****     uint32_t cursorPreviousCluster;
 403:../cleanflight/src/main/io/asyncfatfs/asyncfatfs.c **** 
 404:../cleanflight/src/main/io/asyncfatfs/asyncfatfs.c ****     uint8_t mode; // A combination of AFATFS_FILE_MODE_* flags
 405:../cleanflight/src/main/io/asyncfatfs/asyncfatfs.c ****     uint8_t attrib; // Combination of FAT_FILE_ATTRIBUTE_* flags for the directory entry of this fi
 406:../cleanflight/src/main/io/asyncfatfs/asyncfatfs.c **** 
 407:../cleanflight/src/main/io/asyncfatfs/asyncfatfs.c ****     /* We hold on to one sector entry in the cache and remember its index here. The cache is invali
 408:../cleanflight/src/main/io/asyncfatfs/asyncfatfs.c ****      * seek across a sector boundary. This allows fwrite() to complete faster because it doesn't ne
 409:../cleanflight/src/main/io/asyncfatfs/asyncfatfs.c ****      * cache on every call.
 410:../cleanflight/src/main/io/asyncfatfs/asyncfatfs.c ****      */
 411:../cleanflight/src/main/io/asyncfatfs/asyncfatfs.c ****     int8_t writeLockedCacheIndex;
 412:../cleanflight/src/main/io/asyncfatfs/asyncfatfs.c ****     // Ditto for fread():
 413:../cleanflight/src/main/io/asyncfatfs/asyncfatfs.c ****     int8_t readRetainCacheIndex;
 414:../cleanflight/src/main/io/asyncfatfs/asyncfatfs.c **** 
 415:../cleanflight/src/main/io/asyncfatfs/asyncfatfs.c ****     // The position of our directory entry on the disk (so we can update it without consulting a pa
 416:../cleanflight/src/main/io/asyncfatfs/asyncfatfs.c ****     afatfsDirEntryPointer_t directoryEntryPos;
 417:../cleanflight/src/main/io/asyncfatfs/asyncfatfs.c **** 
 418:../cleanflight/src/main/io/asyncfatfs/asyncfatfs.c ****     // The first cluster number of the file, or 0 if this file is empty
 419:../cleanflight/src/main/io/asyncfatfs/asyncfatfs.c ****     uint32_t firstCluster;
 420:../cleanflight/src/main/io/asyncfatfs/asyncfatfs.c **** 
 421:../cleanflight/src/main/io/asyncfatfs/asyncfatfs.c ****     // State for a queued operation on the file
 422:../cleanflight/src/main/io/asyncfatfs/asyncfatfs.c ****     struct afatfsFileOperation_t operation;
 423:../cleanflight/src/main/io/asyncfatfs/asyncfatfs.c **** } afatfsFile_t;
 424:../cleanflight/src/main/io/asyncfatfs/asyncfatfs.c **** 
 425:../cleanflight/src/main/io/asyncfatfs/asyncfatfs.c **** typedef enum {
 426:../cleanflight/src/main/io/asyncfatfs/asyncfatfs.c ****     AFATFS_INITIALIZATION_READ_MBR,
 427:../cleanflight/src/main/io/asyncfatfs/asyncfatfs.c ****     AFATFS_INITIALIZATION_READ_VOLUME_ID,
 428:../cleanflight/src/main/io/asyncfatfs/asyncfatfs.c **** 
 429:../cleanflight/src/main/io/asyncfatfs/asyncfatfs.c **** #ifdef AFATFS_USE_FREEFILE
 430:../cleanflight/src/main/io/asyncfatfs/asyncfatfs.c ****     AFATFS_INITIALIZATION_FREEFILE_CREATE,
 431:../cleanflight/src/main/io/asyncfatfs/asyncfatfs.c ****     AFATFS_INITIALIZATION_FREEFILE_CREATING,
 432:../cleanflight/src/main/io/asyncfatfs/asyncfatfs.c ****     AFATFS_INITIALIZATION_FREEFILE_FAT_SEARCH,
 433:../cleanflight/src/main/io/asyncfatfs/asyncfatfs.c ****     AFATFS_INITIALIZATION_FREEFILE_UPDATE_FAT,
 434:../cleanflight/src/main/io/asyncfatfs/asyncfatfs.c ****     AFATFS_INITIALIZATION_FREEFILE_SAVE_DIR_ENTRY,
 435:../cleanflight/src/main/io/asyncfatfs/asyncfatfs.c ****     AFATFS_INITIALIZATION_FREEFILE_LAST = AFATFS_INITIALIZATION_FREEFILE_SAVE_DIR_ENTRY,
 436:../cleanflight/src/main/io/asyncfatfs/asyncfatfs.c **** #endif
 437:../cleanflight/src/main/io/asyncfatfs/asyncfatfs.c **** 
 438:../cleanflight/src/main/io/asyncfatfs/asyncfatfs.c **** #ifdef AFATFS_USE_INTROSPECTIVE_LOGGING
 439:../cleanflight/src/main/io/asyncfatfs/asyncfatfs.c ****     AFATFS_INITIALIZATION_INTROSPEC_LOG_CREATE,
 440:../cleanflight/src/main/io/asyncfatfs/asyncfatfs.c ****     AFATFS_INITIALIZATION_INTROSPEC_LOG_CREATING,
 441:../cleanflight/src/main/io/asyncfatfs/asyncfatfs.c **** #endif
 442:../cleanflight/src/main/io/asyncfatfs/asyncfatfs.c **** 
 443:../cleanflight/src/main/io/asyncfatfs/asyncfatfs.c ****     AFATFS_INITIALIZATION_DONE
 444:../cleanflight/src/main/io/asyncfatfs/asyncfatfs.c **** } afatfsInitializationPhase_e;
 445:../cleanflight/src/main/io/asyncfatfs/asyncfatfs.c **** 
 446:../cleanflight/src/main/io/asyncfatfs/asyncfatfs.c **** typedef struct afatfs_t {
 447:../cleanflight/src/main/io/asyncfatfs/asyncfatfs.c ****     fatFilesystemType_e filesystemType;
 448:../cleanflight/src/main/io/asyncfatfs/asyncfatfs.c **** 
 449:../cleanflight/src/main/io/asyncfatfs/asyncfatfs.c ****     afatfsFilesystemState_e filesystemState;
 450:../cleanflight/src/main/io/asyncfatfs/asyncfatfs.c ****     afatfsInitializationPhase_e initPhase;
 451:../cleanflight/src/main/io/asyncfatfs/asyncfatfs.c **** 
 452:../cleanflight/src/main/io/asyncfatfs/asyncfatfs.c ****     // State used during FS initialisation where only one member of the union is used at a time
 453:../cleanflight/src/main/io/asyncfatfs/asyncfatfs.c **** #ifdef AFATFS_USE_FREEFILE
 454:../cleanflight/src/main/io/asyncfatfs/asyncfatfs.c ****     union {
 455:../cleanflight/src/main/io/asyncfatfs/asyncfatfs.c ****         afatfsFreeSpaceSearch_t freeSpaceSearch;
 456:../cleanflight/src/main/io/asyncfatfs/asyncfatfs.c ****         afatfsFreeSpaceFAT_t freeSpaceFAT;
 457:../cleanflight/src/main/io/asyncfatfs/asyncfatfs.c ****     } initState;
 458:../cleanflight/src/main/io/asyncfatfs/asyncfatfs.c **** #endif
 459:../cleanflight/src/main/io/asyncfatfs/asyncfatfs.c **** 
 460:../cleanflight/src/main/io/asyncfatfs/asyncfatfs.c ****     uint8_t cache[AFATFS_SECTOR_SIZE * AFATFS_NUM_CACHE_SECTORS];
 461:../cleanflight/src/main/io/asyncfatfs/asyncfatfs.c ****     afatfsCacheBlockDescriptor_t cacheDescriptor[AFATFS_NUM_CACHE_SECTORS];
 462:../cleanflight/src/main/io/asyncfatfs/asyncfatfs.c ****     uint32_t cacheTimer;
 463:../cleanflight/src/main/io/asyncfatfs/asyncfatfs.c **** 
 464:../cleanflight/src/main/io/asyncfatfs/asyncfatfs.c ****     int cacheDirtyEntries; // The number of cache entries in the AFATFS_CACHE_STATE_DIRTY state
 465:../cleanflight/src/main/io/asyncfatfs/asyncfatfs.c ****     bool cacheFlushInProgress;
 466:../cleanflight/src/main/io/asyncfatfs/asyncfatfs.c **** 
 467:../cleanflight/src/main/io/asyncfatfs/asyncfatfs.c ****     afatfsFile_t openFiles[AFATFS_MAX_OPEN_FILES];
 468:../cleanflight/src/main/io/asyncfatfs/asyncfatfs.c **** 
 469:../cleanflight/src/main/io/asyncfatfs/asyncfatfs.c **** #ifdef AFATFS_USE_FREEFILE
 470:../cleanflight/src/main/io/asyncfatfs/asyncfatfs.c ****     afatfsFile_t freeFile;
 471:../cleanflight/src/main/io/asyncfatfs/asyncfatfs.c **** #endif
 472:../cleanflight/src/main/io/asyncfatfs/asyncfatfs.c **** 
 473:../cleanflight/src/main/io/asyncfatfs/asyncfatfs.c **** #ifdef AFATFS_USE_INTROSPECTIVE_LOGGING
 474:../cleanflight/src/main/io/asyncfatfs/asyncfatfs.c ****     afatfsFile_t introSpecLog;
 475:../cleanflight/src/main/io/asyncfatfs/asyncfatfs.c **** #endif
 476:../cleanflight/src/main/io/asyncfatfs/asyncfatfs.c **** 
 477:../cleanflight/src/main/io/asyncfatfs/asyncfatfs.c ****     afatfsError_e lastError;
 478:../cleanflight/src/main/io/asyncfatfs/asyncfatfs.c **** 
 479:../cleanflight/src/main/io/asyncfatfs/asyncfatfs.c ****     bool filesystemFull;
 480:../cleanflight/src/main/io/asyncfatfs/asyncfatfs.c **** 
 481:../cleanflight/src/main/io/asyncfatfs/asyncfatfs.c ****     // The current working directory:
 482:../cleanflight/src/main/io/asyncfatfs/asyncfatfs.c ****     afatfsFile_t currentDirectory;
 483:../cleanflight/src/main/io/asyncfatfs/asyncfatfs.c **** 
 484:../cleanflight/src/main/io/asyncfatfs/asyncfatfs.c ****     uint32_t partitionStartSector; // The physical sector that the first partition on the device be
 485:../cleanflight/src/main/io/asyncfatfs/asyncfatfs.c **** 
 486:../cleanflight/src/main/io/asyncfatfs/asyncfatfs.c ****     uint32_t fatStartSector; // The first sector of the first FAT
 487:../cleanflight/src/main/io/asyncfatfs/asyncfatfs.c ****     uint32_t fatSectors;     // The size in sectors of a single FAT
 488:../cleanflight/src/main/io/asyncfatfs/asyncfatfs.c **** 
 489:../cleanflight/src/main/io/asyncfatfs/asyncfatfs.c ****     /*
 490:../cleanflight/src/main/io/asyncfatfs/asyncfatfs.c ****      * Number of clusters available for storing user data. Note that clusters are numbered starting
 491:../cleanflight/src/main/io/asyncfatfs/asyncfatfs.c ****      * index of the last cluster on the volume is numClusters + 1 !!!
 492:../cleanflight/src/main/io/asyncfatfs/asyncfatfs.c ****      */
 493:../cleanflight/src/main/io/asyncfatfs/asyncfatfs.c ****     uint32_t numClusters;
 494:../cleanflight/src/main/io/asyncfatfs/asyncfatfs.c ****     uint32_t clusterStartSector; // The physical sector that the clusters area begins at
 495:../cleanflight/src/main/io/asyncfatfs/asyncfatfs.c ****     uint32_t sectorsPerCluster;
 496:../cleanflight/src/main/io/asyncfatfs/asyncfatfs.c **** 
 497:../cleanflight/src/main/io/asyncfatfs/asyncfatfs.c ****     /*
 498:../cleanflight/src/main/io/asyncfatfs/asyncfatfs.c ****      * Number of the cluster we last allocated (i.e. free->occupied). Searches for a free cluster w
 499:../cleanflight/src/main/io/asyncfatfs/asyncfatfs.c ****      * cluster.
 500:../cleanflight/src/main/io/asyncfatfs/asyncfatfs.c ****      */
 501:../cleanflight/src/main/io/asyncfatfs/asyncfatfs.c ****     uint32_t lastClusterAllocated;
 502:../cleanflight/src/main/io/asyncfatfs/asyncfatfs.c **** 
 503:../cleanflight/src/main/io/asyncfatfs/asyncfatfs.c ****     /* Mask to be ANDed with a byte offset within a file to give the offset within the cluster */
 504:../cleanflight/src/main/io/asyncfatfs/asyncfatfs.c ****     uint32_t byteInClusterMask;
 505:../cleanflight/src/main/io/asyncfatfs/asyncfatfs.c **** 
 506:../cleanflight/src/main/io/asyncfatfs/asyncfatfs.c ****     uint32_t rootDirectoryCluster; // Present on FAT32 and set to zero for FAT16
 507:../cleanflight/src/main/io/asyncfatfs/asyncfatfs.c ****     uint32_t rootDirectorySectors; // Zero on FAT32, for FAT16 the number of sectors that the root 
 508:../cleanflight/src/main/io/asyncfatfs/asyncfatfs.c **** } afatfs_t;
 509:../cleanflight/src/main/io/asyncfatfs/asyncfatfs.c **** 
 510:../cleanflight/src/main/io/asyncfatfs/asyncfatfs.c **** static afatfs_t afatfs;
 511:../cleanflight/src/main/io/asyncfatfs/asyncfatfs.c **** 
 512:../cleanflight/src/main/io/asyncfatfs/asyncfatfs.c **** static void afatfs_fileOperationContinue(afatfsFile_t *file);
 513:../cleanflight/src/main/io/asyncfatfs/asyncfatfs.c **** static uint8_t* afatfs_fileLockCursorSectorForWrite(afatfsFilePtr_t file);
 514:../cleanflight/src/main/io/asyncfatfs/asyncfatfs.c **** static uint8_t* afatfs_fileRetainCursorSectorForRead(afatfsFilePtr_t file);
 515:../cleanflight/src/main/io/asyncfatfs/asyncfatfs.c **** 
 516:../cleanflight/src/main/io/asyncfatfs/asyncfatfs.c **** static uint32_t roundUpTo(uint32_t value, uint32_t rounding)
 517:../cleanflight/src/main/io/asyncfatfs/asyncfatfs.c **** {
  33              	 .loc 1 517 0
  34              	 .cfi_startproc
  35              	 
  36              	 
  37              	 
  38 0000 80B4     	 push {r7}
  39              	.LCFI0:
  40              	 .cfi_def_cfa_offset 4
  41              	 .cfi_offset 7,-4
  42 0002 85B0     	 sub sp,sp,#20
  43              	.LCFI1:
  44              	 .cfi_def_cfa_offset 24
  45 0004 00AF     	 add r7,sp,#0
  46              	.LCFI2:
  47              	 .cfi_def_cfa_register 7
  48 0006 7860     	 str r0,[r7,#4]
  49 0008 3960     	 str r1,[r7]
 518:../cleanflight/src/main/io/asyncfatfs/asyncfatfs.c ****     uint32_t remainder = value % rounding;
  50              	 .loc 1 518 0
  51 000a 7B68     	 ldr r3,[r7,#4]
  52 000c 3A68     	 ldr r2,[r7]
  53 000e B3FBF2F2 	 udiv r2,r3,r2
  54 0012 3968     	 ldr r1,[r7]
  55 0014 01FB02F2 	 mul r2,r1,r2
  56 0018 9B1A     	 subs r3,r3,r2
  57 001a FB60     	 str r3,[r7,#12]
 519:../cleanflight/src/main/io/asyncfatfs/asyncfatfs.c **** 
 520:../cleanflight/src/main/io/asyncfatfs/asyncfatfs.c ****     if (remainder > 0) {
  58              	 .loc 1 520 0
  59 001c FB68     	 ldr r3,[r7,#12]
  60 001e 002B     	 cmp r3,#0
  61 0020 05D0     	 beq .L2
 521:../cleanflight/src/main/io/asyncfatfs/asyncfatfs.c ****         value += rounding - remainder;
  62              	 .loc 1 521 0
  63 0022 3A68     	 ldr r2,[r7]
  64 0024 FB68     	 ldr r3,[r7,#12]
  65 0026 D31A     	 subs r3,r2,r3
  66 0028 7A68     	 ldr r2,[r7,#4]
  67 002a 1344     	 add r3,r3,r2
  68 002c 7B60     	 str r3,[r7,#4]
  69              	.L2:
 522:../cleanflight/src/main/io/asyncfatfs/asyncfatfs.c ****     }
 523:../cleanflight/src/main/io/asyncfatfs/asyncfatfs.c **** 
 524:../cleanflight/src/main/io/asyncfatfs/asyncfatfs.c ****     return value;
  70              	 .loc 1 524 0
  71 002e 7B68     	 ldr r3,[r7,#4]
 525:../cleanflight/src/main/io/asyncfatfs/asyncfatfs.c **** }
  72              	 .loc 1 525 0
  73 0030 1846     	 mov r0,r3
  74 0032 1437     	 adds r7,r7,#20
  75              	.LCFI3:
  76              	 .cfi_def_cfa_offset 4
  77 0034 BD46     	 mov sp,r7
  78              	.LCFI4:
  79              	 .cfi_def_cfa_register 13
  80              	 
  81 0036 5DF8047B 	 ldr r7,[sp],#4
  82              	.LCFI5:
  83              	 .cfi_restore 7
  84              	 .cfi_def_cfa_offset 0
  85 003a 7047     	 bx lr
  86              	 .cfi_endproc
  87              	.LFE531:
  89              	 .section .text.isPowerOfTwo,"ax",%progbits
  90              	 .align 2
  91              	 .thumb
  92              	 .thumb_func
  94              	isPowerOfTwo:
  95              	.LFB532:
 526:../cleanflight/src/main/io/asyncfatfs/asyncfatfs.c **** 
 527:../cleanflight/src/main/io/asyncfatfs/asyncfatfs.c **** static bool isPowerOfTwo(unsigned int x)
 528:../cleanflight/src/main/io/asyncfatfs/asyncfatfs.c **** {
  96              	 .loc 1 528 0
  97              	 .cfi_startproc
  98              	 
  99              	 
 100              	 
 101 0000 80B4     	 push {r7}
 102              	.LCFI6:
 103              	 .cfi_def_cfa_offset 4
 104              	 .cfi_offset 7,-4
 105 0002 83B0     	 sub sp,sp,#12
 106              	.LCFI7:
 107              	 .cfi_def_cfa_offset 16
 108 0004 00AF     	 add r7,sp,#0
 109              	.LCFI8:
 110              	 .cfi_def_cfa_register 7
 111 0006 7860     	 str r0,[r7,#4]
 529:../cleanflight/src/main/io/asyncfatfs/asyncfatfs.c ****     return ((x != 0) && ((x & (~x + 1)) == x));
 112              	 .loc 1 529 0
 113 0008 7B68     	 ldr r3,[r7,#4]
 114 000a 002B     	 cmp r3,#0
 115 000c 08D0     	 beq .L5
 116              	 .loc 1 529 0 is_stmt 0 discriminator 1
 117 000e 7B68     	 ldr r3,[r7,#4]
 118 0010 5A42     	 negs r2,r3
 119 0012 7B68     	 ldr r3,[r7,#4]
 120 0014 1A40     	 ands r2,r2,r3
 121 0016 7B68     	 ldr r3,[r7,#4]
 122 0018 9A42     	 cmp r2,r3
 123 001a 01D1     	 bne .L5
 124              	 .loc 1 529 0 discriminator 3
 125 001c 0123     	 movs r3,#1
 126 001e 00E0     	 b .L6
 127              	.L5:
 128              	 .loc 1 529 0 discriminator 4
 129 0020 0023     	 movs r3,#0
 130              	.L6:
 131              	 .loc 1 529 0 discriminator 6
 132 0022 03F00103 	 and r3,r3,#1
 133 0026 DBB2     	 uxtb r3,r3
 530:../cleanflight/src/main/io/asyncfatfs/asyncfatfs.c **** }
 134              	 .loc 1 530 0 is_stmt 1 discriminator 6
 135 0028 1846     	 mov r0,r3
 136 002a 0C37     	 adds r7,r7,#12
 137              	.LCFI9:
 138              	 .cfi_def_cfa_offset 4
 139 002c BD46     	 mov sp,r7
 140              	.LCFI10:
 141              	 .cfi_def_cfa_register 13
 142              	 
 143 002e 5DF8047B 	 ldr r7,[sp],#4
 144              	.LCFI11:
 145              	 .cfi_restore 7
 146              	 .cfi_def_cfa_offset 0
 147 0032 7047     	 bx lr
 148              	 .cfi_endproc
 149              	.LFE532:
 151              	 .section .text.afatfs_assert,"ax",%progbits
 152              	 .align 2
 153              	 .thumb
 154              	 .thumb_func
 156              	afatfs_assert:
 157              	.LFB533:
 531:../cleanflight/src/main/io/asyncfatfs/asyncfatfs.c **** 
 532:../cleanflight/src/main/io/asyncfatfs/asyncfatfs.c **** /**
 533:../cleanflight/src/main/io/asyncfatfs/asyncfatfs.c ****  * Check for conditions that should always be true (and if otherwise mean a bug or a corrupt filesy
 534:../cleanflight/src/main/io/asyncfatfs/asyncfatfs.c ****  *
 535:../cleanflight/src/main/io/asyncfatfs/asyncfatfs.c ****  * If the condition is false, the filesystem is marked as being in a fatal state.
 536:../cleanflight/src/main/io/asyncfatfs/asyncfatfs.c ****  *
 537:../cleanflight/src/main/io/asyncfatfs/asyncfatfs.c ****  * Returns the value of the condition.
 538:../cleanflight/src/main/io/asyncfatfs/asyncfatfs.c ****  */
 539:../cleanflight/src/main/io/asyncfatfs/asyncfatfs.c **** static bool afatfs_assert(bool condition)
 540:../cleanflight/src/main/io/asyncfatfs/asyncfatfs.c **** {
 158              	 .loc 1 540 0
 159              	 .cfi_startproc
 160              	 
 161              	 
 162              	 
 163 0000 80B4     	 push {r7}
 164              	.LCFI12:
 165              	 .cfi_def_cfa_offset 4
 166              	 .cfi_offset 7,-4
 167 0002 83B0     	 sub sp,sp,#12
 168              	.LCFI13:
 169              	 .cfi_def_cfa_offset 16
 170 0004 00AF     	 add r7,sp,#0
 171              	.LCFI14:
 172              	 .cfi_def_cfa_register 7
 173 0006 0346     	 mov r3,r0
 174 0008 FB71     	 strb r3,[r7,#7]
 541:../cleanflight/src/main/io/asyncfatfs/asyncfatfs.c ****     if (!condition) {
 175              	 .loc 1 541 0
 176 000a FB79     	 ldrb r3,[r7,#7]
 177 000c 83F00103 	 eor r3,r3,#1
 178 0010 DBB2     	 uxtb r3,r3
 179 0012 002B     	 cmp r3,#0
 180 0014 0FD0     	 beq .L9
 542:../cleanflight/src/main/io/asyncfatfs/asyncfatfs.c ****         if (afatfs.lastError == AFATFS_ERROR_NONE) {
 181              	 .loc 1 542 0
 182 0016 0B4B     	 ldr r3,.L12
 183 0018 03F58C53 	 add r3,r3,#4480
 184 001c 0133     	 adds r3,r3,#1
 185 001e 1B78     	 ldrb r3,[r3]
 186 0020 002B     	 cmp r3,#0
 187 0022 05D1     	 bne .L10
 543:../cleanflight/src/main/io/asyncfatfs/asyncfatfs.c ****             afatfs.lastError = AFATFS_ERROR_GENERIC;
 188              	 .loc 1 543 0
 189 0024 074B     	 ldr r3,.L12
 190 0026 03F58C53 	 add r3,r3,#4480
 191 002a 0133     	 adds r3,r3,#1
 192 002c 0122     	 movs r2,#1
 193 002e 1A70     	 strb r2,[r3]
 194              	.L10:
 544:../cleanflight/src/main/io/asyncfatfs/asyncfatfs.c ****         }
 545:../cleanflight/src/main/io/asyncfatfs/asyncfatfs.c ****         afatfs.filesystemState = AFATFS_FILESYSTEM_STATE_FATAL;
 195              	 .loc 1 545 0
 196 0030 044B     	 ldr r3,.L12
 197 0032 0122     	 movs r2,#1
 198 0034 5A70     	 strb r2,[r3,#1]
 199              	.L9:
 546:../cleanflight/src/main/io/asyncfatfs/asyncfatfs.c **** #ifdef AFATFS_DEBUG
 547:../cleanflight/src/main/io/asyncfatfs/asyncfatfs.c ****         raise(SIGTRAP);
 548:../cleanflight/src/main/io/asyncfatfs/asyncfatfs.c **** #endif
 549:../cleanflight/src/main/io/asyncfatfs/asyncfatfs.c ****     }
 550:../cleanflight/src/main/io/asyncfatfs/asyncfatfs.c **** 
 551:../cleanflight/src/main/io/asyncfatfs/asyncfatfs.c ****     return condition;
 200              	 .loc 1 551 0
 201 0036 FB79     	 ldrb r3,[r7,#7]
 552:../cleanflight/src/main/io/asyncfatfs/asyncfatfs.c **** }
 202              	 .loc 1 552 0
 203 0038 1846     	 mov r0,r3
 204 003a 0C37     	 adds r7,r7,#12
 205              	.LCFI15:
 206              	 .cfi_def_cfa_offset 4
 207 003c BD46     	 mov sp,r7
 208              	.LCFI16:
 209              	 .cfi_def_cfa_register 13
 210              	 
 211 003e 5DF8047B 	 ldr r7,[sp],#4
 212              	.LCFI17:
 213              	 .cfi_restore 7
 214              	 .cfi_def_cfa_offset 0
 215 0042 7047     	 bx lr
 216              	.L13:
 217              	 .align 2
 218              	.L12:
 219 0044 00000000 	 .word afatfs
 220              	 .cfi_endproc
 221              	.LFE533:
 223              	 .section .text.afatfs_fileIsBusy,"ax",%progbits
 224              	 .align 2
 225              	 .thumb
 226              	 .thumb_func
 228              	afatfs_fileIsBusy:
 229              	.LFB534:
 553:../cleanflight/src/main/io/asyncfatfs/asyncfatfs.c **** 
 554:../cleanflight/src/main/io/asyncfatfs/asyncfatfs.c **** static bool afatfs_fileIsBusy(afatfsFilePtr_t file)
 555:../cleanflight/src/main/io/asyncfatfs/asyncfatfs.c **** {
 230              	 .loc 1 555 0
 231              	 .cfi_startproc
 232              	 
 233              	 
 234              	 
 235 0000 80B4     	 push {r7}
 236              	.LCFI18:
 237              	 .cfi_def_cfa_offset 4
 238              	 .cfi_offset 7,-4
 239 0002 83B0     	 sub sp,sp,#12
 240              	.LCFI19:
 241              	 .cfi_def_cfa_offset 16
 242 0004 00AF     	 add r7,sp,#0
 243              	.LCFI20:
 244              	 .cfi_def_cfa_register 7
 245 0006 7860     	 str r0,[r7,#4]
 556:../cleanflight/src/main/io/asyncfatfs/asyncfatfs.c ****     return file->operation.operation != AFATFS_FILE_OPERATION_NONE;
 246              	 .loc 1 556 0
 247 0008 7B68     	 ldr r3,[r7,#4]
 248 000a 93F82330 	 ldrb r3,[r3,#35]
 249 000e 002B     	 cmp r3,#0
 250 0010 14BF     	 ite ne
 251 0012 0123     	 movne r3,#1
 252 0014 0023     	 moveq r3,#0
 253 0016 DBB2     	 uxtb r3,r3
 557:../cleanflight/src/main/io/asyncfatfs/asyncfatfs.c **** }
 254              	 .loc 1 557 0
 255 0018 1846     	 mov r0,r3
 256 001a 0C37     	 adds r7,r7,#12
 257              	.LCFI21:
 258              	 .cfi_def_cfa_offset 4
 259 001c BD46     	 mov sp,r7
 260              	.LCFI22:
 261              	 .cfi_def_cfa_register 13
 262              	 
 263 001e 5DF8047B 	 ldr r7,[sp],#4
 264              	.LCFI23:
 265              	 .cfi_restore 7
 266              	 .cfi_def_cfa_offset 0
 267 0022 7047     	 bx lr
 268              	 .cfi_endproc
 269              	.LFE534:
 271              	 .section .text.afatfs_fatEntriesPerSector,"ax",%progbits
 272              	 .align 2
 273              	 .thumb
 274              	 .thumb_func
 276              	afatfs_fatEntriesPerSector:
 277              	.LFB535:
 558:../cleanflight/src/main/io/asyncfatfs/asyncfatfs.c **** 
 559:../cleanflight/src/main/io/asyncfatfs/asyncfatfs.c **** /**
 560:../cleanflight/src/main/io/asyncfatfs/asyncfatfs.c ****  * The number of FAT table entries that fit within one AFATFS sector size.
 561:../cleanflight/src/main/io/asyncfatfs/asyncfatfs.c ****  *
 562:../cleanflight/src/main/io/asyncfatfs/asyncfatfs.c ****  * Note that this is the same as the number of clusters in an AFATFS supercluster.
 563:../cleanflight/src/main/io/asyncfatfs/asyncfatfs.c ****  */
 564:../cleanflight/src/main/io/asyncfatfs/asyncfatfs.c **** static uint32_t afatfs_fatEntriesPerSector(void)
 565:../cleanflight/src/main/io/asyncfatfs/asyncfatfs.c **** {
 278              	 .loc 1 565 0
 279              	 .cfi_startproc
 280              	 
 281              	 
 282              	 
 283 0000 80B4     	 push {r7}
 284              	.LCFI24:
 285              	 .cfi_def_cfa_offset 4
 286              	 .cfi_offset 7,-4
 287 0002 00AF     	 add r7,sp,#0
 288              	.LCFI25:
 289              	 .cfi_def_cfa_register 7
 566:../cleanflight/src/main/io/asyncfatfs/asyncfatfs.c ****     return afatfs.filesystemType == FAT_FILESYSTEM_TYPE_FAT32 ? AFATFS_FAT32_FAT_ENTRIES_PER_SECTOR
 290              	 .loc 1 566 0
 291 0004 064B     	 ldr r3,.L20
 292 0006 1B78     	 ldrb r3,[r3]
 293 0008 032B     	 cmp r3,#3
 294 000a 01D1     	 bne .L17
 295              	 .loc 1 566 0 is_stmt 0 discriminator 1
 296 000c 8023     	 movs r3,#128
 297 000e 01E0     	 b .L18
 298              	.L17:
 299              	 .loc 1 566 0 discriminator 2
 300 0010 4FF48073 	 mov r3,#256
 301              	.L18:
 567:../cleanflight/src/main/io/asyncfatfs/asyncfatfs.c **** }
 302              	 .loc 1 567 0 is_stmt 1 discriminator 4
 303 0014 1846     	 mov r0,r3
 304 0016 BD46     	 mov sp,r7
 305              	.LCFI26:
 306              	 .cfi_def_cfa_register 13
 307              	 
 308 0018 5DF8047B 	 ldr r7,[sp],#4
 309              	.LCFI27:
 310              	 .cfi_restore 7
 311              	 .cfi_def_cfa_offset 0
 312 001c 7047     	 bx lr
 313              	.L21:
 314 001e 00BF     	 .align 2
 315              	.L20:
 316 0020 00000000 	 .word afatfs
 317              	 .cfi_endproc
 318              	.LFE535:
 320              	 .section .text.afatfs_clusterSize,"ax",%progbits
 321              	 .align 2
 322              	 .thumb
 323              	 .thumb_func
 325              	afatfs_clusterSize:
 326              	.LFB536:
 568:../cleanflight/src/main/io/asyncfatfs/asyncfatfs.c **** 
 569:../cleanflight/src/main/io/asyncfatfs/asyncfatfs.c **** /**
 570:../cleanflight/src/main/io/asyncfatfs/asyncfatfs.c ****  * Size of a FAT cluster in bytes
 571:../cleanflight/src/main/io/asyncfatfs/asyncfatfs.c ****  */
 572:../cleanflight/src/main/io/asyncfatfs/asyncfatfs.c **** ONLY_EXPOSE_FOR_TESTING
 573:../cleanflight/src/main/io/asyncfatfs/asyncfatfs.c **** uint32_t afatfs_clusterSize(void)
 574:../cleanflight/src/main/io/asyncfatfs/asyncfatfs.c **** {
 327              	 .loc 1 574 0
 328              	 .cfi_startproc
 329              	 
 330              	 
 331              	 
 332 0000 80B4     	 push {r7}
 333              	.LCFI28:
 334              	 .cfi_def_cfa_offset 4
 335              	 .cfi_offset 7,-4
 336 0002 00AF     	 add r7,sp,#0
 337              	.LCFI29:
 338              	 .cfi_def_cfa_register 7
 575:../cleanflight/src/main/io/asyncfatfs/asyncfatfs.c ****     return afatfs.sectorsPerCluster * AFATFS_SECTOR_SIZE;
 339              	 .loc 1 575 0
 340 0004 054B     	 ldr r3,.L24
 341 0006 03F58E53 	 add r3,r3,#4544
 342 000a 1033     	 adds r3,r3,#16
 343 000c 1B68     	 ldr r3,[r3]
 344 000e 5B02     	 lsls r3,r3,#9
 576:../cleanflight/src/main/io/asyncfatfs/asyncfatfs.c **** }
 345              	 .loc 1 576 0
 346 0010 1846     	 mov r0,r3
 347 0012 BD46     	 mov sp,r7
 348              	.LCFI30:
 349              	 .cfi_def_cfa_register 13
 350              	 
 351 0014 5DF8047B 	 ldr r7,[sp],#4
 352              	.LCFI31:
 353              	 .cfi_restore 7
 354              	 .cfi_def_cfa_offset 0
 355 0018 7047     	 bx lr
 356              	.L25:
 357 001a 00BF     	 .align 2
 358              	.L24:
 359 001c 00000000 	 .word afatfs
 360              	 .cfi_endproc
 361              	.LFE536:
 363              	 .section .text.afatfs_byteIndexInCluster,"ax",%progbits
 364              	 .align 2
 365              	 .thumb
 366              	 .thumb_func
 368              	afatfs_byteIndexInCluster:
 369              	.LFB537:
 577:../cleanflight/src/main/io/asyncfatfs/asyncfatfs.c **** 
 578:../cleanflight/src/main/io/asyncfatfs/asyncfatfs.c **** /**
 579:../cleanflight/src/main/io/asyncfatfs/asyncfatfs.c ****  * Given a byte offset within a file, return the byte offset of that position within the cluster it
 580:../cleanflight/src/main/io/asyncfatfs/asyncfatfs.c ****  */
 581:../cleanflight/src/main/io/asyncfatfs/asyncfatfs.c **** static uint32_t afatfs_byteIndexInCluster(uint32_t byteOffset)
 582:../cleanflight/src/main/io/asyncfatfs/asyncfatfs.c **** {
 370              	 .loc 1 582 0
 371              	 .cfi_startproc
 372              	 
 373              	 
 374              	 
 375 0000 80B4     	 push {r7}
 376              	.LCFI32:
 377              	 .cfi_def_cfa_offset 4
 378              	 .cfi_offset 7,-4
 379 0002 83B0     	 sub sp,sp,#12
 380              	.LCFI33:
 381              	 .cfi_def_cfa_offset 16
 382 0004 00AF     	 add r7,sp,#0
 383              	.LCFI34:
 384              	 .cfi_def_cfa_register 7
 385 0006 7860     	 str r0,[r7,#4]
 583:../cleanflight/src/main/io/asyncfatfs/asyncfatfs.c ****     return afatfs.byteInClusterMask & byteOffset;
 386              	 .loc 1 583 0
 387 0008 064B     	 ldr r3,.L28
 388 000a 03F58E53 	 add r3,r3,#4544
 389 000e 1833     	 adds r3,r3,#24
 390 0010 1A68     	 ldr r2,[r3]
 391 0012 7B68     	 ldr r3,[r7,#4]
 392 0014 1340     	 ands r3,r3,r2
 584:../cleanflight/src/main/io/asyncfatfs/asyncfatfs.c **** }
 393              	 .loc 1 584 0
 394 0016 1846     	 mov r0,r3
 395 0018 0C37     	 adds r7,r7,#12
 396              	.LCFI35:
 397              	 .cfi_def_cfa_offset 4
 398 001a BD46     	 mov sp,r7
 399              	.LCFI36:
 400              	 .cfi_def_cfa_register 13
 401              	 
 402 001c 5DF8047B 	 ldr r7,[sp],#4
 403              	.LCFI37:
 404              	 .cfi_restore 7
 405              	 .cfi_def_cfa_offset 0
 406 0020 7047     	 bx lr
 407              	.L29:
 408 0022 00BF     	 .align 2
 409              	.L28:
 410 0024 00000000 	 .word afatfs
 411              	 .cfi_endproc
 412              	.LFE537:
 414              	 .section .text.afatfs_sectorIndexInCluster,"ax",%progbits
 415              	 .align 2
 416              	 .thumb
 417              	 .thumb_func
 419              	afatfs_sectorIndexInCluster:
 420              	.LFB538:
 585:../cleanflight/src/main/io/asyncfatfs/asyncfatfs.c **** 
 586:../cleanflight/src/main/io/asyncfatfs/asyncfatfs.c **** /**
 587:../cleanflight/src/main/io/asyncfatfs/asyncfatfs.c ****  * Given a byte offset within a file, return the index of the sector within the cluster it belongs 
 588:../cleanflight/src/main/io/asyncfatfs/asyncfatfs.c ****  */
 589:../cleanflight/src/main/io/asyncfatfs/asyncfatfs.c **** static uint32_t afatfs_sectorIndexInCluster(uint32_t byteOffset)
 590:../cleanflight/src/main/io/asyncfatfs/asyncfatfs.c **** {
 421              	 .loc 1 590 0
 422              	 .cfi_startproc
 423              	 
 424              	 
 425 0000 80B5     	 push {r7,lr}
 426              	.LCFI38:
 427              	 .cfi_def_cfa_offset 8
 428              	 .cfi_offset 7,-8
 429              	 .cfi_offset 14,-4
 430 0002 82B0     	 sub sp,sp,#8
 431              	.LCFI39:
 432              	 .cfi_def_cfa_offset 16
 433 0004 00AF     	 add r7,sp,#0
 434              	.LCFI40:
 435              	 .cfi_def_cfa_register 7
 436 0006 7860     	 str r0,[r7,#4]
 591:../cleanflight/src/main/io/asyncfatfs/asyncfatfs.c ****     return afatfs_byteIndexInCluster(byteOffset) / AFATFS_SECTOR_SIZE;
 437              	 .loc 1 591 0
 438 0008 7868     	 ldr r0,[r7,#4]
 439 000a FFF7FEFF 	 bl afatfs_byteIndexInCluster
 440 000e 0346     	 mov r3,r0
 441 0010 5B0A     	 lsrs r3,r3,#9
 592:../cleanflight/src/main/io/asyncfatfs/asyncfatfs.c **** }
 442              	 .loc 1 592 0
 443 0012 1846     	 mov r0,r3
 444 0014 0837     	 adds r7,r7,#8
 445              	.LCFI41:
 446              	 .cfi_def_cfa_offset 8
 447 0016 BD46     	 mov sp,r7
 448              	.LCFI42:
 449              	 .cfi_def_cfa_register 13
 450              	 
 451 0018 80BD     	 pop {r7,pc}
 452              	 .cfi_endproc
 453              	.LFE538:
 455 001a 00BF     	 .section .text.afatfs_cacheSectorGetMemory,"ax",%progbits
 456              	 .align 2
 457              	 .thumb
 458              	 .thumb_func
 460              	afatfs_cacheSectorGetMemory:
 461              	.LFB539:
 593:../cleanflight/src/main/io/asyncfatfs/asyncfatfs.c **** 
 594:../cleanflight/src/main/io/asyncfatfs/asyncfatfs.c **** // Get the buffer memory for the cache entry of the given index.
 595:../cleanflight/src/main/io/asyncfatfs/asyncfatfs.c **** static uint8_t *afatfs_cacheSectorGetMemory(int cacheEntryIndex)
 596:../cleanflight/src/main/io/asyncfatfs/asyncfatfs.c **** {
 462              	 .loc 1 596 0
 463              	 .cfi_startproc
 464              	 
 465              	 
 466              	 
 467 0000 80B4     	 push {r7}
 468              	.LCFI43:
 469              	 .cfi_def_cfa_offset 4
 470              	 .cfi_offset 7,-4
 471 0002 83B0     	 sub sp,sp,#12
 472              	.LCFI44:
 473              	 .cfi_def_cfa_offset 16
 474 0004 00AF     	 add r7,sp,#0
 475              	.LCFI45:
 476              	 .cfi_def_cfa_register 7
 477 0006 7860     	 str r0,[r7,#4]
 597:../cleanflight/src/main/io/asyncfatfs/asyncfatfs.c ****     return afatfs.cache + cacheEntryIndex * AFATFS_SECTOR_SIZE;
 478              	 .loc 1 597 0
 479 0008 7B68     	 ldr r3,[r7,#4]
 480 000a 5B02     	 lsls r3,r3,#9
 481 000c 1033     	 adds r3,r3,#16
 482 000e 044A     	 ldr r2,.L34
 483 0010 1344     	 add r3,r3,r2
 484 0012 0433     	 adds r3,r3,#4
 598:../cleanflight/src/main/io/asyncfatfs/asyncfatfs.c **** }
 485              	 .loc 1 598 0
 486 0014 1846     	 mov r0,r3
 487 0016 0C37     	 adds r7,r7,#12
 488              	.LCFI46:
 489              	 .cfi_def_cfa_offset 4
 490 0018 BD46     	 mov sp,r7
 491              	.LCFI47:
 492              	 .cfi_def_cfa_register 13
 493              	 
 494 001a 5DF8047B 	 ldr r7,[sp],#4
 495              	.LCFI48:
 496              	 .cfi_restore 7
 497              	 .cfi_def_cfa_offset 0
 498 001e 7047     	 bx lr
 499              	.L35:
 500              	 .align 2
 501              	.L34:
 502 0020 00000000 	 .word afatfs
 503              	 .cfi_endproc
 504              	.LFE539:
 506              	 .section .text.afatfs_getCacheDescriptorIndexForBuffer,"ax",%progbits
 507              	 .align 2
 508              	 .thumb
 509              	 .thumb_func
 511              	afatfs_getCacheDescriptorIndexForBuffer:
 512              	.LFB540:
 599:../cleanflight/src/main/io/asyncfatfs/asyncfatfs.c **** 
 600:../cleanflight/src/main/io/asyncfatfs/asyncfatfs.c **** static int afatfs_getCacheDescriptorIndexForBuffer(uint8_t *memory)
 601:../cleanflight/src/main/io/asyncfatfs/asyncfatfs.c **** {
 513              	 .loc 1 601 0
 514              	 .cfi_startproc
 515              	 
 516              	 
 517 0000 80B5     	 push {r7,lr}
 518              	.LCFI49:
 519              	 .cfi_def_cfa_offset 8
 520              	 .cfi_offset 7,-8
 521              	 .cfi_offset 14,-4
 522 0002 84B0     	 sub sp,sp,#16
 523              	.LCFI50:
 524              	 .cfi_def_cfa_offset 24
 525 0004 00AF     	 add r7,sp,#0
 526              	.LCFI51:
 527              	 .cfi_def_cfa_register 7
 528 0006 7860     	 str r0,[r7,#4]
 602:../cleanflight/src/main/io/asyncfatfs/asyncfatfs.c ****     int index = (memory - afatfs.cache) / AFATFS_SECTOR_SIZE;
 529              	 .loc 1 602 0
 530 0008 7B68     	 ldr r3,[r7,#4]
 531 000a 114A     	 ldr r2,.L42
 532 000c 9B1A     	 subs r3,r3,r2
 533 000e 002B     	 cmp r3,#0
 534 0010 01DA     	 bge .L37
 535 0012 03F2FF13 	 addw r3,r3,#511
 536              	.L37:
 537 0016 5B12     	 asrs r3,r3,#9
 538 0018 FB60     	 str r3,[r7,#12]
 603:../cleanflight/src/main/io/asyncfatfs/asyncfatfs.c **** 
 604:../cleanflight/src/main/io/asyncfatfs/asyncfatfs.c ****     if (afatfs_assert(index >= 0 && index < AFATFS_NUM_CACHE_SECTORS)) {
 539              	 .loc 1 604 0
 540 001a FB68     	 ldr r3,[r7,#12]
 541 001c 002B     	 cmp r3,#0
 542 001e 04DB     	 blt .L38
 543              	 .loc 1 604 0 is_stmt 0 discriminator 1
 544 0020 FB68     	 ldr r3,[r7,#12]
 545 0022 072B     	 cmp r3,#7
 546 0024 01DC     	 bgt .L38
 547              	 .loc 1 604 0 discriminator 3
 548 0026 0123     	 movs r3,#1
 549 0028 00E0     	 b .L39
 550              	.L38:
 551              	 .loc 1 604 0 discriminator 4
 552 002a 0023     	 movs r3,#0
 553              	.L39:
 554              	 .loc 1 604 0 discriminator 6
 555 002c 03F00103 	 and r3,r3,#1
 556 0030 DBB2     	 uxtb r3,r3
 557 0032 1846     	 mov r0,r3
 558 0034 FFF7FEFF 	 bl afatfs_assert
 559 0038 0346     	 mov r3,r0
 560 003a 002B     	 cmp r3,#0
 561 003c 01D0     	 beq .L40
 605:../cleanflight/src/main/io/asyncfatfs/asyncfatfs.c ****         return index;
 562              	 .loc 1 605 0 is_stmt 1
 563 003e FB68     	 ldr r3,[r7,#12]
 564 0040 01E0     	 b .L41
 565              	.L40:
 606:../cleanflight/src/main/io/asyncfatfs/asyncfatfs.c ****     } else {
 607:../cleanflight/src/main/io/asyncfatfs/asyncfatfs.c ****         return -1;
 566              	 .loc 1 607 0
 567 0042 4FF0FF33 	 mov r3,#-1
 568              	.L41:
 608:../cleanflight/src/main/io/asyncfatfs/asyncfatfs.c ****     }
 609:../cleanflight/src/main/io/asyncfatfs/asyncfatfs.c **** }
 569              	 .loc 1 609 0
 570 0046 1846     	 mov r0,r3
 571 0048 1037     	 adds r7,r7,#16
 572              	.LCFI52:
 573              	 .cfi_def_cfa_offset 8
 574 004a BD46     	 mov sp,r7
 575              	.LCFI53:
 576              	 .cfi_def_cfa_register 13
 577              	 
 578 004c 80BD     	 pop {r7,pc}
 579              	.L43:
 580 004e 00BF     	 .align 2
 581              	.L42:
 582 0050 14000000 	 .word afatfs+20
 583              	 .cfi_endproc
 584              	.LFE540:
 586              	 .section .text.afatfs_getCacheDescriptorForBuffer,"ax",%progbits
 587              	 .align 2
 588              	 .thumb
 589              	 .thumb_func
 591              	afatfs_getCacheDescriptorForBuffer:
 592              	.LFB541:
 610:../cleanflight/src/main/io/asyncfatfs/asyncfatfs.c **** 
 611:../cleanflight/src/main/io/asyncfatfs/asyncfatfs.c **** static afatfsCacheBlockDescriptor_t* afatfs_getCacheDescriptorForBuffer(uint8_t *memory)
 612:../cleanflight/src/main/io/asyncfatfs/asyncfatfs.c **** {
 593              	 .loc 1 612 0
 594              	 .cfi_startproc
 595              	 
 596              	 
 597 0000 80B5     	 push {r7,lr}
 598              	.LCFI54:
 599              	 .cfi_def_cfa_offset 8
 600              	 .cfi_offset 7,-8
 601              	 .cfi_offset 14,-4
 602 0002 82B0     	 sub sp,sp,#8
 603              	.LCFI55:
 604              	 .cfi_def_cfa_offset 16
 605 0004 00AF     	 add r7,sp,#0
 606              	.LCFI56:
 607              	 .cfi_def_cfa_register 7
 608 0006 7860     	 str r0,[r7,#4]
 613:../cleanflight/src/main/io/asyncfatfs/asyncfatfs.c ****     return afatfs.cacheDescriptor + afatfs_getCacheDescriptorIndexForBuffer(memory);
 609              	 .loc 1 613 0
 610 0008 7868     	 ldr r0,[r7,#4]
 611 000a FFF7FEFF 	 bl afatfs_getCacheDescriptorIndexForBuffer
 612 000e 0346     	 mov r3,r0
 613 0010 03F20113 	 addw r3,r3,#257
 614 0014 1B01     	 lsls r3,r3,#4
 615 0016 034A     	 ldr r2,.L46
 616 0018 1344     	 add r3,r3,r2
 617 001a 0433     	 adds r3,r3,#4
 614:../cleanflight/src/main/io/asyncfatfs/asyncfatfs.c **** }
 618              	 .loc 1 614 0
 619 001c 1846     	 mov r0,r3
 620 001e 0837     	 adds r7,r7,#8
 621              	.LCFI57:
 622              	 .cfi_def_cfa_offset 8
 623 0020 BD46     	 mov sp,r7
 624              	.LCFI58:
 625              	 .cfi_def_cfa_register 13
 626              	 
 627 0022 80BD     	 pop {r7,pc}
 628              	.L47:
 629              	 .align 2
 630              	.L46:
 631 0024 00000000 	 .word afatfs
 632              	 .cfi_endproc
 633              	.LFE541:
 635              	 .section .text.afatfs_cacheSectorMarkDirty,"ax",%progbits
 636              	 .align 2
 637              	 .thumb
 638              	 .thumb_func
 640              	afatfs_cacheSectorMarkDirty:
 641              	.LFB542:
 615:../cleanflight/src/main/io/asyncfatfs/asyncfatfs.c **** 
 616:../cleanflight/src/main/io/asyncfatfs/asyncfatfs.c **** static void afatfs_cacheSectorMarkDirty(afatfsCacheBlockDescriptor_t *descriptor)
 617:../cleanflight/src/main/io/asyncfatfs/asyncfatfs.c **** {
 642              	 .loc 1 617 0
 643              	 .cfi_startproc
 644              	 
 645              	 
 646              	 
 647 0000 80B4     	 push {r7}
 648              	.LCFI59:
 649              	 .cfi_def_cfa_offset 4
 650              	 .cfi_offset 7,-4
 651 0002 83B0     	 sub sp,sp,#12
 652              	.LCFI60:
 653              	 .cfi_def_cfa_offset 16
 654 0004 00AF     	 add r7,sp,#0
 655              	.LCFI61:
 656              	 .cfi_def_cfa_register 7
 657 0006 7860     	 str r0,[r7,#4]
 618:../cleanflight/src/main/io/asyncfatfs/asyncfatfs.c ****     if (descriptor->state != AFATFS_CACHE_STATE_DIRTY) {
 658              	 .loc 1 618 0
 659 0008 7B68     	 ldr r3,[r7,#4]
 660 000a 9B7B     	 ldrb r3,[r3,#14]
 661 000c 042B     	 cmp r3,#4
 662 000e 1FD0     	 beq .L48
 619:../cleanflight/src/main/io/asyncfatfs/asyncfatfs.c ****         descriptor->writeTimestamp = ++afatfs.cacheTimer;
 663              	 .loc 1 619 0
 664 0010 124B     	 ldr r3,.L50
 665 0012 03F58453 	 add r3,r3,#4224
 666 0016 1433     	 adds r3,r3,#20
 667 0018 1B68     	 ldr r3,[r3]
 668 001a 5A1C     	 adds r2,r3,#1
 669 001c 0F4B     	 ldr r3,.L50
 670 001e 03F58453 	 add r3,r3,#4224
 671 0022 1433     	 adds r3,r3,#20
 672 0024 1A60     	 str r2,[r3]
 673 0026 0D4B     	 ldr r3,.L50
 674 0028 03F58453 	 add r3,r3,#4224
 675 002c 1433     	 adds r3,r3,#20
 676 002e 1A68     	 ldr r2,[r3]
 677 0030 7B68     	 ldr r3,[r7,#4]
 678 0032 5A60     	 str r2,[r3,#4]
 620:../cleanflight/src/main/io/asyncfatfs/asyncfatfs.c ****         descriptor->state = AFATFS_CACHE_STATE_DIRTY;
 679              	 .loc 1 620 0
 680 0034 7B68     	 ldr r3,[r7,#4]
 681 0036 0422     	 movs r2,#4
 682 0038 9A73     	 strb r2,[r3,#14]
 621:../cleanflight/src/main/io/asyncfatfs/asyncfatfs.c ****         afatfs.cacheDirtyEntries++;
 683              	 .loc 1 621 0
 684 003a 084B     	 ldr r3,.L50
 685 003c 03F58453 	 add r3,r3,#4224
 686 0040 1833     	 adds r3,r3,#24
 687 0042 1B68     	 ldr r3,[r3]
 688 0044 5A1C     	 adds r2,r3,#1
 689 0046 054B     	 ldr r3,.L50
 690 0048 03F58453 	 add r3,r3,#4224
 691 004c 1833     	 adds r3,r3,#24
 692 004e 1A60     	 str r2,[r3]
 693              	.L48:
 622:../cleanflight/src/main/io/asyncfatfs/asyncfatfs.c ****     }
 623:../cleanflight/src/main/io/asyncfatfs/asyncfatfs.c **** }
 694              	 .loc 1 623 0
 695 0050 0C37     	 adds r7,r7,#12
 696              	.LCFI62:
 697              	 .cfi_def_cfa_offset 4
 698 0052 BD46     	 mov sp,r7
 699              	.LCFI63:
 700              	 .cfi_def_cfa_register 13
 701              	 
 702 0054 5DF8047B 	 ldr r7,[sp],#4
 703              	.LCFI64:
 704              	 .cfi_restore 7
 705              	 .cfi_def_cfa_offset 0
 706 0058 7047     	 bx lr
 707              	.L51:
 708 005a 00BF     	 .align 2
 709              	.L50:
 710 005c 00000000 	 .word afatfs
 711              	 .cfi_endproc
 712              	.LFE542:
 714              	 .section .text.afatfs_cacheSectorInit,"ax",%progbits
 715              	 .align 2
 716              	 .thumb
 717              	 .thumb_func
 719              	afatfs_cacheSectorInit:
 720              	.LFB543:
 624:../cleanflight/src/main/io/asyncfatfs/asyncfatfs.c **** 
 625:../cleanflight/src/main/io/asyncfatfs/asyncfatfs.c **** static void afatfs_cacheSectorInit(afatfsCacheBlockDescriptor_t *descriptor, uint32_t sectorIndex, 
 626:../cleanflight/src/main/io/asyncfatfs/asyncfatfs.c **** {
 721              	 .loc 1 626 0
 722              	 .cfi_startproc
 723              	 
 724              	 
 725              	 
 726 0000 80B4     	 push {r7}
 727              	.LCFI65:
 728              	 .cfi_def_cfa_offset 4
 729              	 .cfi_offset 7,-4
 730 0002 85B0     	 sub sp,sp,#20
 731              	.LCFI66:
 732              	 .cfi_def_cfa_offset 24
 733 0004 00AF     	 add r7,sp,#0
 734              	.LCFI67:
 735              	 .cfi_def_cfa_register 7
 736 0006 F860     	 str r0,[r7,#12]
 737 0008 B960     	 str r1,[r7,#8]
 738 000a 1346     	 mov r3,r2
 739 000c FB71     	 strb r3,[r7,#7]
 627:../cleanflight/src/main/io/asyncfatfs/asyncfatfs.c ****     descriptor->sectorIndex = sectorIndex;
 740              	 .loc 1 627 0
 741 000e FB68     	 ldr r3,[r7,#12]
 742 0010 BA68     	 ldr r2,[r7,#8]
 743 0012 1A60     	 str r2,[r3]
 628:../cleanflight/src/main/io/asyncfatfs/asyncfatfs.c **** 
 629:../cleanflight/src/main/io/asyncfatfs/asyncfatfs.c ****     descriptor->accessTimestamp = descriptor->writeTimestamp = ++afatfs.cacheTimer;
 744              	 .loc 1 629 0
 745 0014 194B     	 ldr r3,.L53
 746 0016 03F58453 	 add r3,r3,#4224
 747 001a 1433     	 adds r3,r3,#20
 748 001c 1B68     	 ldr r3,[r3]
 749 001e 5A1C     	 adds r2,r3,#1
 750 0020 164B     	 ldr r3,.L53
 751 0022 03F58453 	 add r3,r3,#4224
 752 0026 1433     	 adds r3,r3,#20
 753 0028 1A60     	 str r2,[r3]
 754 002a 144B     	 ldr r3,.L53
 755 002c 03F58453 	 add r3,r3,#4224
 756 0030 1433     	 adds r3,r3,#20
 757 0032 1A68     	 ldr r2,[r3]
 758 0034 FB68     	 ldr r3,[r7,#12]
 759 0036 5A60     	 str r2,[r3,#4]
 760 0038 FB68     	 ldr r3,[r7,#12]
 761 003a 5A68     	 ldr r2,[r3,#4]
 762 003c FB68     	 ldr r3,[r7,#12]
 763 003e 9A60     	 str r2,[r3,#8]
 630:../cleanflight/src/main/io/asyncfatfs/asyncfatfs.c **** 
 631:../cleanflight/src/main/io/asyncfatfs/asyncfatfs.c ****     descriptor->consecutiveEraseBlockCount = 0;
 764              	 .loc 1 631 0
 765 0040 FB68     	 ldr r3,[r7,#12]
 766 0042 0022     	 movs r2,#0
 767 0044 1A73     	 strb r2,[r3,#12]
 768 0046 0022     	 movs r2,#0
 769 0048 5A73     	 strb r2,[r3,#13]
 632:../cleanflight/src/main/io/asyncfatfs/asyncfatfs.c **** 
 633:../cleanflight/src/main/io/asyncfatfs/asyncfatfs.c ****     descriptor->state = AFATFS_CACHE_STATE_EMPTY;
 770              	 .loc 1 633 0
 771 004a FB68     	 ldr r3,[r7,#12]
 772 004c 0022     	 movs r2,#0
 773 004e 9A73     	 strb r2,[r3,#14]
 634:../cleanflight/src/main/io/asyncfatfs/asyncfatfs.c **** 
 635:../cleanflight/src/main/io/asyncfatfs/asyncfatfs.c ****     descriptor->locked = locked;
 774              	 .loc 1 635 0
 775 0050 FA68     	 ldr r2,[r7,#12]
 776 0052 D37B     	 ldrb r3,[r2,#15]
 777 0054 F979     	 ldrb r1,[r7,#7]
 778 0056 61F30003 	 bfi r3,r1,#0,#1
 779 005a D373     	 strb r3,[r2,#15]
 636:../cleanflight/src/main/io/asyncfatfs/asyncfatfs.c ****     descriptor->retainCount = 0;
 780              	 .loc 1 636 0
 781 005c FA68     	 ldr r2,[r7,#12]
 782 005e D37B     	 ldrb r3,[r2,#15]
 783 0060 6FF34603 	 bfc r3,#1,#6
 784 0064 D373     	 strb r3,[r2,#15]
 637:../cleanflight/src/main/io/asyncfatfs/asyncfatfs.c ****     descriptor->discardable = 0;
 785              	 .loc 1 637 0
 786 0066 FA68     	 ldr r2,[r7,#12]
 787 0068 D37B     	 ldrb r3,[r2,#15]
 788 006a 6FF3C713 	 bfc r3,#7,#1
 789 006e D373     	 strb r3,[r2,#15]
 638:../cleanflight/src/main/io/asyncfatfs/asyncfatfs.c **** }
 790              	 .loc 1 638 0
 791 0070 1437     	 adds r7,r7,#20
 792              	.LCFI68:
 793              	 .cfi_def_cfa_offset 4
 794 0072 BD46     	 mov sp,r7
 795              	.LCFI69:
 796              	 .cfi_def_cfa_register 13
 797              	 
 798 0074 5DF8047B 	 ldr r7,[sp],#4
 799              	.LCFI70:
 800              	 .cfi_restore 7
 801              	 .cfi_def_cfa_offset 0
 802 0078 7047     	 bx lr
 803              	.L54:
 804 007a 00BF     	 .align 2
 805              	.L53:
 806 007c 00000000 	 .word afatfs
 807              	 .cfi_endproc
 808              	.LFE543:
 810              	 .section .text.afatfs_sdcardReadComplete,"ax",%progbits
 811              	 .align 2
 812              	 .thumb
 813              	 .thumb_func
 815              	afatfs_sdcardReadComplete:
 816              	.LFB544:
 639:../cleanflight/src/main/io/asyncfatfs/asyncfatfs.c **** 
 640:../cleanflight/src/main/io/asyncfatfs/asyncfatfs.c **** /**
 641:../cleanflight/src/main/io/asyncfatfs/asyncfatfs.c ****  * Called by the SD card driver when one of our read operations completes.
 642:../cleanflight/src/main/io/asyncfatfs/asyncfatfs.c ****  */
 643:../cleanflight/src/main/io/asyncfatfs/asyncfatfs.c **** static void afatfs_sdcardReadComplete(sdcardBlockOperation_e operation, uint32_t sectorIndex, uint8
 644:../cleanflight/src/main/io/asyncfatfs/asyncfatfs.c **** {
 817              	 .loc 1 644 0
 818              	 .cfi_startproc
 819              	 
 820              	 
 821 0000 80B5     	 push {r7,lr}
 822              	.LCFI71:
 823              	 .cfi_def_cfa_offset 8
 824              	 .cfi_offset 7,-8
 825              	 .cfi_offset 14,-4
 826 0002 86B0     	 sub sp,sp,#24
 827              	.LCFI72:
 828              	 .cfi_def_cfa_offset 32
 829 0004 00AF     	 add r7,sp,#0
 830              	.LCFI73:
 831              	 .cfi_def_cfa_register 7
 832 0006 B960     	 str r1,[r7,#8]
 833 0008 7A60     	 str r2,[r7,#4]
 834 000a 3B60     	 str r3,[r7]
 835 000c 0346     	 mov r3,r0
 836 000e FB73     	 strb r3,[r7,#15]
 837              	.LBB2:
 645:../cleanflight/src/main/io/asyncfatfs/asyncfatfs.c ****     (void) operation;
 646:../cleanflight/src/main/io/asyncfatfs/asyncfatfs.c ****     (void) callbackData;
 647:../cleanflight/src/main/io/asyncfatfs/asyncfatfs.c **** 
 648:../cleanflight/src/main/io/asyncfatfs/asyncfatfs.c ****     for (int i = 0; i < AFATFS_NUM_CACHE_SECTORS; i++) {
 838              	 .loc 1 648 0
 839 0010 0023     	 movs r3,#0
 840 0012 7B61     	 str r3,[r7,#20]
 841 0014 47E0     	 b .L56
 842              	.L63:
 649:../cleanflight/src/main/io/asyncfatfs/asyncfatfs.c ****         if (afatfs.cacheDescriptor[i].state != AFATFS_CACHE_STATE_EMPTY
 843              	 .loc 1 649 0
 844 0016 274A     	 ldr r2,.L64
 845 0018 7B69     	 ldr r3,[r7,#20]
 846 001a 1B01     	 lsls r3,r3,#4
 847 001c 1344     	 add r3,r3,r2
 848 001e 03F58053 	 add r3,r3,#4096
 849 0022 1833     	 adds r3,r3,#24
 850 0024 9B7A     	 ldrb r3,[r3,#10]
 851 0026 002B     	 cmp r3,#0
 852 0028 3AD0     	 beq .L57
 650:../cleanflight/src/main/io/asyncfatfs/asyncfatfs.c ****             && afatfs.cacheDescriptor[i].sectorIndex == sectorIndex
 853              	 .loc 1 650 0
 854 002a 224A     	 ldr r2,.L64
 855 002c 7B69     	 ldr r3,[r7,#20]
 856 002e 03F20113 	 addw r3,r3,#257
 857 0032 1B01     	 lsls r3,r3,#4
 858 0034 1344     	 add r3,r3,r2
 859 0036 5A68     	 ldr r2,[r3,#4]
 860 0038 BB68     	 ldr r3,[r7,#8]
 861 003a 9A42     	 cmp r2,r3
 862 003c 30D1     	 bne .L57
 651:../cleanflight/src/main/io/asyncfatfs/asyncfatfs.c ****         ) {
 652:../cleanflight/src/main/io/asyncfatfs/asyncfatfs.c ****             if (buffer == NULL) {
 863              	 .loc 1 652 0
 864 003e 7B68     	 ldr r3,[r7,#4]
 865 0040 002B     	 cmp r3,#0
 866 0042 09D1     	 bne .L58
 653:../cleanflight/src/main/io/asyncfatfs/asyncfatfs.c ****                 // Read failed, mark the sector as empty and whoever asked for it will ask for it a
 654:../cleanflight/src/main/io/asyncfatfs/asyncfatfs.c ****                 afatfs.cacheDescriptor[i].state = AFATFS_CACHE_STATE_EMPTY;
 867              	 .loc 1 654 0
 868 0044 1B4A     	 ldr r2,.L64
 869 0046 7B69     	 ldr r3,[r7,#20]
 870 0048 1B01     	 lsls r3,r3,#4
 871 004a 1344     	 add r3,r3,r2
 872 004c 03F58053 	 add r3,r3,#4096
 873 0050 1833     	 adds r3,r3,#24
 874 0052 0022     	 movs r2,#0
 875 0054 9A72     	 strb r2,[r3,#10]
 655:../cleanflight/src/main/io/asyncfatfs/asyncfatfs.c ****             } else {
 656:../cleanflight/src/main/io/asyncfatfs/asyncfatfs.c ****                 afatfs_assert(afatfs_cacheSectorGetMemory(i) == buffer && afatfs.cacheDescriptor[i]
 657:../cleanflight/src/main/io/asyncfatfs/asyncfatfs.c **** 
 658:../cleanflight/src/main/io/asyncfatfs/asyncfatfs.c ****                 afatfs.cacheDescriptor[i].state = AFATFS_CACHE_STATE_IN_SYNC;
 659:../cleanflight/src/main/io/asyncfatfs/asyncfatfs.c ****             }
 660:../cleanflight/src/main/io/asyncfatfs/asyncfatfs.c **** 
 661:../cleanflight/src/main/io/asyncfatfs/asyncfatfs.c ****             break;
 876              	 .loc 1 661 0
 877 0056 29E0     	 b .L55
 878              	.L58:
 656:../cleanflight/src/main/io/asyncfatfs/asyncfatfs.c **** 
 879              	 .loc 1 656 0
 880 0058 7869     	 ldr r0,[r7,#20]
 881 005a FFF7FEFF 	 bl afatfs_cacheSectorGetMemory
 882 005e 0246     	 mov r2,r0
 883 0060 7B68     	 ldr r3,[r7,#4]
 884 0062 9A42     	 cmp r2,r3
 885 0064 0BD1     	 bne .L60
 656:../cleanflight/src/main/io/asyncfatfs/asyncfatfs.c **** 
 886              	 .loc 1 656 0 is_stmt 0 discriminator 1
 887 0066 134A     	 ldr r2,.L64
 888 0068 7B69     	 ldr r3,[r7,#20]
 889 006a 1B01     	 lsls r3,r3,#4
 890 006c 1344     	 add r3,r3,r2
 891 006e 03F58053 	 add r3,r3,#4096
 892 0072 1833     	 adds r3,r3,#24
 893 0074 9B7A     	 ldrb r3,[r3,#10]
 894 0076 022B     	 cmp r3,#2
 895 0078 01D1     	 bne .L60
 656:../cleanflight/src/main/io/asyncfatfs/asyncfatfs.c **** 
 896              	 .loc 1 656 0 discriminator 3
 897 007a 0123     	 movs r3,#1
 898 007c 00E0     	 b .L61
 899              	.L60:
 656:../cleanflight/src/main/io/asyncfatfs/asyncfatfs.c **** 
 900              	 .loc 1 656 0 discriminator 4
 901 007e 0023     	 movs r3,#0
 902              	.L61:
 656:../cleanflight/src/main/io/asyncfatfs/asyncfatfs.c **** 
 903              	 .loc 1 656 0 discriminator 6
 904 0080 03F00103 	 and r3,r3,#1
 905 0084 DBB2     	 uxtb r3,r3
 906 0086 1846     	 mov r0,r3
 907 0088 FFF7FEFF 	 bl afatfs_assert
 658:../cleanflight/src/main/io/asyncfatfs/asyncfatfs.c ****             }
 908              	 .loc 1 658 0 is_stmt 1 discriminator 6
 909 008c 094A     	 ldr r2,.L64
 910 008e 7B69     	 ldr r3,[r7,#20]
 911 0090 1B01     	 lsls r3,r3,#4
 912 0092 1344     	 add r3,r3,r2
 913 0094 03F58053 	 add r3,r3,#4096
 914 0098 1833     	 adds r3,r3,#24
 915 009a 0122     	 movs r2,#1
 916 009c 9A72     	 strb r2,[r3,#10]
 917              	 .loc 1 661 0 discriminator 6
 918 009e 05E0     	 b .L55
 919              	.L57:
 648:../cleanflight/src/main/io/asyncfatfs/asyncfatfs.c ****         if (afatfs.cacheDescriptor[i].state != AFATFS_CACHE_STATE_EMPTY
 920              	 .loc 1 648 0 discriminator 2
 921 00a0 7B69     	 ldr r3,[r7,#20]
 922 00a2 0133     	 adds r3,r3,#1
 923 00a4 7B61     	 str r3,[r7,#20]
 924              	.L56:
 648:../cleanflight/src/main/io/asyncfatfs/asyncfatfs.c ****         if (afatfs.cacheDescriptor[i].state != AFATFS_CACHE_STATE_EMPTY
 925              	 .loc 1 648 0 is_stmt 0 discriminator 1
 926 00a6 7B69     	 ldr r3,[r7,#20]
 927 00a8 072B     	 cmp r3,#7
 928 00aa B4DD     	 ble .L63
 929              	.L55:
 930              	.LBE2:
 662:../cleanflight/src/main/io/asyncfatfs/asyncfatfs.c ****         }
 663:../cleanflight/src/main/io/asyncfatfs/asyncfatfs.c ****     }
 664:../cleanflight/src/main/io/asyncfatfs/asyncfatfs.c **** }
 931              	 .loc 1 664 0 is_stmt 1
 932 00ac 1837     	 adds r7,r7,#24
 933              	.LCFI74:
 934              	 .cfi_def_cfa_offset 8
 935 00ae BD46     	 mov sp,r7
 936              	.LCFI75:
 937              	 .cfi_def_cfa_register 13
 938              	 
 939 00b0 80BD     	 pop {r7,pc}
 940              	.L65:
 941 00b2 00BF     	 .align 2
 942              	.L64:
 943 00b4 00000000 	 .word afatfs
 944              	 .cfi_endproc
 945              	.LFE544:
 947              	 .section .text.afatfs_sdcardWriteComplete,"ax",%progbits
 948              	 .align 2
 949              	 .thumb
 950              	 .thumb_func
 952              	afatfs_sdcardWriteComplete:
 953              	.LFB545:
 665:../cleanflight/src/main/io/asyncfatfs/asyncfatfs.c **** 
 666:../cleanflight/src/main/io/asyncfatfs/asyncfatfs.c **** /**
 667:../cleanflight/src/main/io/asyncfatfs/asyncfatfs.c ****  * Called by the SD card driver when one of our write operations completes.
 668:../cleanflight/src/main/io/asyncfatfs/asyncfatfs.c ****  */
 669:../cleanflight/src/main/io/asyncfatfs/asyncfatfs.c **** static void afatfs_sdcardWriteComplete(sdcardBlockOperation_e operation, uint32_t sectorIndex, uint
 670:../cleanflight/src/main/io/asyncfatfs/asyncfatfs.c **** {
 954              	 .loc 1 670 0
 955              	 .cfi_startproc
 956              	 
 957              	 
 958 0000 80B5     	 push {r7,lr}
 959              	.LCFI76:
 960              	 .cfi_def_cfa_offset 8
 961              	 .cfi_offset 7,-8
 962              	 .cfi_offset 14,-4
 963 0002 86B0     	 sub sp,sp,#24
 964              	.LCFI77:
 965              	 .cfi_def_cfa_offset 32
 966 0004 00AF     	 add r7,sp,#0
 967              	.LCFI78:
 968              	 .cfi_def_cfa_register 7
 969 0006 B960     	 str r1,[r7,#8]
 970 0008 7A60     	 str r2,[r7,#4]
 971 000a 3B60     	 str r3,[r7]
 972 000c 0346     	 mov r3,r0
 973 000e FB73     	 strb r3,[r7,#15]
 671:../cleanflight/src/main/io/asyncfatfs/asyncfatfs.c ****     (void) operation;
 672:../cleanflight/src/main/io/asyncfatfs/asyncfatfs.c ****     (void) callbackData;
 673:../cleanflight/src/main/io/asyncfatfs/asyncfatfs.c **** 
 674:../cleanflight/src/main/io/asyncfatfs/asyncfatfs.c ****     afatfs.cacheFlushInProgress = false;
 974              	 .loc 1 674 0
 975 0010 2A4B     	 ldr r3,.L73
 976 0012 03F58453 	 add r3,r3,#4224
 977 0016 1C33     	 adds r3,r3,#28
 978 0018 0022     	 movs r2,#0
 979 001a 1A70     	 strb r2,[r3]
 980              	.LBB3:
 675:../cleanflight/src/main/io/asyncfatfs/asyncfatfs.c **** 
 676:../cleanflight/src/main/io/asyncfatfs/asyncfatfs.c ****     for (int i = 0; i < AFATFS_NUM_CACHE_SECTORS; i++) {
 981              	 .loc 1 676 0
 982 001c 0023     	 movs r3,#0
 983 001e 7B61     	 str r3,[r7,#20]
 984 0020 45E0     	 b .L67
 985              	.L72:
 677:../cleanflight/src/main/io/asyncfatfs/asyncfatfs.c ****         /* Keep in mind that someone may have marked the sector as dirty after writing had already 
 678:../cleanflight/src/main/io/asyncfatfs/asyncfatfs.c ****          * it marked as dirty because those modifications may have been made too late to make it to
 679:../cleanflight/src/main/io/asyncfatfs/asyncfatfs.c ****          */
 680:../cleanflight/src/main/io/asyncfatfs/asyncfatfs.c ****         if (afatfs.cacheDescriptor[i].sectorIndex == sectorIndex
 986              	 .loc 1 680 0
 987 0022 264A     	 ldr r2,.L73
 988 0024 7B69     	 ldr r3,[r7,#20]
 989 0026 03F20113 	 addw r3,r3,#257
 990 002a 1B01     	 lsls r3,r3,#4
 991 002c 1344     	 add r3,r3,r2
 992 002e 5A68     	 ldr r2,[r3,#4]
 993 0030 BB68     	 ldr r3,[r7,#8]
 994 0032 9A42     	 cmp r2,r3
 995 0034 38D1     	 bne .L68
 681:../cleanflight/src/main/io/asyncfatfs/asyncfatfs.c ****             && afatfs.cacheDescriptor[i].state == AFATFS_CACHE_STATE_WRITING
 996              	 .loc 1 681 0
 997 0036 214A     	 ldr r2,.L73
 998 0038 7B69     	 ldr r3,[r7,#20]
 999 003a 1B01     	 lsls r3,r3,#4
 1000 003c 1344     	 add r3,r3,r2
 1001 003e 03F58053 	 add r3,r3,#4096
 1002 0042 1833     	 adds r3,r3,#24
 1003 0044 9B7A     	 ldrb r3,[r3,#10]
 1004 0046 032B     	 cmp r3,#3
 1005 0048 2ED1     	 bne .L68
 682:../cleanflight/src/main/io/asyncfatfs/asyncfatfs.c ****         ) {
 683:../cleanflight/src/main/io/asyncfatfs/asyncfatfs.c ****             if (buffer == NULL) {
 1006              	 .loc 1 683 0
 1007 004a 7B68     	 ldr r3,[r7,#4]
 1008 004c 002B     	 cmp r3,#0
 1009 004e 14D1     	 bne .L69
 684:../cleanflight/src/main/io/asyncfatfs/asyncfatfs.c ****                 // Write failed, remark the sector as dirty
 685:../cleanflight/src/main/io/asyncfatfs/asyncfatfs.c ****                 afatfs.cacheDescriptor[i].state = AFATFS_CACHE_STATE_DIRTY;
 1010              	 .loc 1 685 0
 1011 0050 1A4A     	 ldr r2,.L73
 1012 0052 7B69     	 ldr r3,[r7,#20]
 1013 0054 1B01     	 lsls r3,r3,#4
 1014 0056 1344     	 add r3,r3,r2
 1015 0058 03F58053 	 add r3,r3,#4096
 1016 005c 1833     	 adds r3,r3,#24
 1017 005e 0422     	 movs r2,#4
 1018 0060 9A72     	 strb r2,[r3,#10]
 686:../cleanflight/src/main/io/asyncfatfs/asyncfatfs.c ****                 afatfs.cacheDirtyEntries++;
 1019              	 .loc 1 686 0
 1020 0062 164B     	 ldr r3,.L73
 1021 0064 03F58453 	 add r3,r3,#4224
 1022 0068 1833     	 adds r3,r3,#24
 1023 006a 1B68     	 ldr r3,[r3]
 1024 006c 5A1C     	 adds r2,r3,#1
 1025 006e 134B     	 ldr r3,.L73
 1026 0070 03F58453 	 add r3,r3,#4224
 1027 0074 1833     	 adds r3,r3,#24
 1028 0076 1A60     	 str r2,[r3]
 687:../cleanflight/src/main/io/asyncfatfs/asyncfatfs.c ****             } else {
 688:../cleanflight/src/main/io/asyncfatfs/asyncfatfs.c ****                 afatfs_assert(afatfs_cacheSectorGetMemory(i) == buffer);
 689:../cleanflight/src/main/io/asyncfatfs/asyncfatfs.c **** 
 690:../cleanflight/src/main/io/asyncfatfs/asyncfatfs.c ****                 afatfs.cacheDescriptor[i].state = AFATFS_CACHE_STATE_IN_SYNC;
 691:../cleanflight/src/main/io/asyncfatfs/asyncfatfs.c ****             }
 692:../cleanflight/src/main/io/asyncfatfs/asyncfatfs.c ****             break;
 1029              	 .loc 1 692 0
 1030 0078 1CE0     	 b .L66
 1031              	.L69:
 688:../cleanflight/src/main/io/asyncfatfs/asyncfatfs.c **** 
 1032              	 .loc 1 688 0
 1033 007a 7869     	 ldr r0,[r7,#20]
 1034 007c FFF7FEFF 	 bl afatfs_cacheSectorGetMemory
 1035 0080 0246     	 mov r2,r0
 1036 0082 7B68     	 ldr r3,[r7,#4]
 1037 0084 9A42     	 cmp r2,r3
 1038 0086 0CBF     	 ite eq
 1039 0088 0123     	 moveq r3,#1
 1040 008a 0023     	 movne r3,#0
 1041 008c DBB2     	 uxtb r3,r3
 1042 008e 1846     	 mov r0,r3
 1043 0090 FFF7FEFF 	 bl afatfs_assert
 690:../cleanflight/src/main/io/asyncfatfs/asyncfatfs.c ****             }
 1044              	 .loc 1 690 0
 1045 0094 094A     	 ldr r2,.L73
 1046 0096 7B69     	 ldr r3,[r7,#20]
 1047 0098 1B01     	 lsls r3,r3,#4
 1048 009a 1344     	 add r3,r3,r2
 1049 009c 03F58053 	 add r3,r3,#4096
 1050 00a0 1833     	 adds r3,r3,#24
 1051 00a2 0122     	 movs r2,#1
 1052 00a4 9A72     	 strb r2,[r3,#10]
 1053              	 .loc 1 692 0
 1054 00a6 05E0     	 b .L66
 1055              	.L68:
 676:../cleanflight/src/main/io/asyncfatfs/asyncfatfs.c ****         /* Keep in mind that someone may have marked the sector as dirty after writing had already 
 1056              	 .loc 1 676 0 discriminator 2
 1057 00a8 7B69     	 ldr r3,[r7,#20]
 1058 00aa 0133     	 adds r3,r3,#1
 1059 00ac 7B61     	 str r3,[r7,#20]
 1060              	.L67:
 676:../cleanflight/src/main/io/asyncfatfs/asyncfatfs.c ****         /* Keep in mind that someone may have marked the sector as dirty after writing had already 
 1061              	 .loc 1 676 0 is_stmt 0 discriminator 1
 1062 00ae 7B69     	 ldr r3,[r7,#20]
 1063 00b0 072B     	 cmp r3,#7
 1064 00b2 B6DD     	 ble .L72
 1065              	.L66:
 1066              	.LBE3:
 693:../cleanflight/src/main/io/asyncfatfs/asyncfatfs.c ****         }
 694:../cleanflight/src/main/io/asyncfatfs/asyncfatfs.c ****     }
 695:../cleanflight/src/main/io/asyncfatfs/asyncfatfs.c **** }
 1067              	 .loc 1 695 0 is_stmt 1
 1068 00b4 1837     	 adds r7,r7,#24
 1069              	.LCFI79:
 1070              	 .cfi_def_cfa_offset 8
 1071 00b6 BD46     	 mov sp,r7
 1072              	.LCFI80:
 1073              	 .cfi_def_cfa_register 13
 1074              	 
 1075 00b8 80BD     	 pop {r7,pc}
 1076              	.L74:
 1077 00ba 00BF     	 .align 2
 1078              	.L73:
 1079 00bc 00000000 	 .word afatfs
 1080              	 .cfi_endproc
 1081              	.LFE545:
 1083              	 .section .text.afatfs_cacheFlushSector,"ax",%progbits
 1084              	 .align 2
 1085              	 .thumb
 1086              	 .thumb_func
 1088              	afatfs_cacheFlushSector:
 1089              	.LFB546:
 696:../cleanflight/src/main/io/asyncfatfs/asyncfatfs.c **** 
 697:../cleanflight/src/main/io/asyncfatfs/asyncfatfs.c **** /**
 698:../cleanflight/src/main/io/asyncfatfs/asyncfatfs.c ****  * Attempt to flush the dirty cache entry with the given index to the SDcard.
 699:../cleanflight/src/main/io/asyncfatfs/asyncfatfs.c ****  */
 700:../cleanflight/src/main/io/asyncfatfs/asyncfatfs.c **** static void afatfs_cacheFlushSector(int cacheIndex)
 701:../cleanflight/src/main/io/asyncfatfs/asyncfatfs.c **** {
 1090              	 .loc 1 701 0
 1091              	 .cfi_startproc
 1092              	 
 1093              	 
 1094 0000 90B5     	 push {r4,r7,lr}
 1095              	.LCFI81:
 1096              	 .cfi_def_cfa_offset 12
 1097              	 .cfi_offset 4,-12
 1098              	 .cfi_offset 7,-8
 1099              	 .cfi_offset 14,-4
 1100 0002 85B0     	 sub sp,sp,#20
 1101              	.LCFI82:
 1102              	 .cfi_def_cfa_offset 32
 1103 0004 00AF     	 add r7,sp,#0
 1104              	.LCFI83:
 1105              	 .cfi_def_cfa_register 7
 1106 0006 7860     	 str r0,[r7,#4]
 702:../cleanflight/src/main/io/asyncfatfs/asyncfatfs.c ****     afatfsCacheBlockDescriptor_t *cacheDescriptor = &afatfs.cacheDescriptor[cacheIndex];
 1107              	 .loc 1 702 0
 1108 0008 7B68     	 ldr r3,[r7,#4]
 1109 000a 03F20113 	 addw r3,r3,#257
 1110 000e 1B01     	 lsls r3,r3,#4
 1111 0010 254A     	 ldr r2,.L80
 1112 0012 1344     	 add r3,r3,r2
 1113 0014 0433     	 adds r3,r3,#4
 1114 0016 FB60     	 str r3,[r7,#12]
 703:../cleanflight/src/main/io/asyncfatfs/asyncfatfs.c **** 
 704:../cleanflight/src/main/io/asyncfatfs/asyncfatfs.c **** #ifdef AFATFS_MIN_MULTIPLE_BLOCK_WRITE_COUNT
 705:../cleanflight/src/main/io/asyncfatfs/asyncfatfs.c ****     if (cacheDescriptor->consecutiveEraseBlockCount) {
 1115              	 .loc 1 705 0
 1116 0018 FB68     	 ldr r3,[r7,#12]
 1117 001a 9B89     	 ldrh r3,[r3,#12]
 1118 001c 9BB2     	 uxth r3,r3
 1119 001e 002B     	 cmp r3,#0
 1120 0020 08D0     	 beq .L76
 706:../cleanflight/src/main/io/asyncfatfs/asyncfatfs.c ****         sdcard_beginWriteBlocks(cacheDescriptor->sectorIndex, cacheDescriptor->consecutiveEraseBloc
 1121              	 .loc 1 706 0
 1122 0022 FB68     	 ldr r3,[r7,#12]
 1123 0024 1A68     	 ldr r2,[r3]
 1124 0026 FB68     	 ldr r3,[r7,#12]
 1125 0028 9B89     	 ldrh r3,[r3,#12]
 1126 002a 9BB2     	 uxth r3,r3
 1127 002c 1046     	 mov r0,r2
 1128 002e 1946     	 mov r1,r3
 1129 0030 FFF7FEFF 	 bl sdcard_beginWriteBlocks
 1130              	.L76:
 707:../cleanflight/src/main/io/asyncfatfs/asyncfatfs.c ****     }
 708:../cleanflight/src/main/io/asyncfatfs/asyncfatfs.c **** #endif
 709:../cleanflight/src/main/io/asyncfatfs/asyncfatfs.c **** 
 710:../cleanflight/src/main/io/asyncfatfs/asyncfatfs.c ****     switch (sdcard_writeBlock(cacheDescriptor->sectorIndex, afatfs_cacheSectorGetMemory(cacheIndex)
 1131              	 .loc 1 710 0
 1132 0034 FB68     	 ldr r3,[r7,#12]
 1133 0036 1C68     	 ldr r4,[r3]
 1134 0038 7868     	 ldr r0,[r7,#4]
 1135 003a FFF7FEFF 	 bl afatfs_cacheSectorGetMemory
 1136 003e 0346     	 mov r3,r0
 1137 0040 2046     	 mov r0,r4
 1138 0042 1946     	 mov r1,r3
 1139 0044 194A     	 ldr r2,.L80+4
 1140 0046 0023     	 movs r3,#0
 1141 0048 FFF7FEFF 	 bl sdcard_writeBlock
 1142 004c 0346     	 mov r3,r0
 1143 004e 002B     	 cmp r3,#0
 1144 0050 02D0     	 beq .L78
 1145 0052 022B     	 cmp r3,#2
 1146 0054 15D0     	 beq .L79
 1147 0056 23E0     	 b .L75
 1148              	.L78:
 711:../cleanflight/src/main/io/asyncfatfs/asyncfatfs.c ****         case SDCARD_OPERATION_IN_PROGRESS:
 712:../cleanflight/src/main/io/asyncfatfs/asyncfatfs.c ****             // The card will call us back later when the buffer transmission finishes
 713:../cleanflight/src/main/io/asyncfatfs/asyncfatfs.c ****             afatfs.cacheDirtyEntries--;
 1149              	 .loc 1 713 0
 1150 0058 134B     	 ldr r3,.L80
 1151 005a 03F58453 	 add r3,r3,#4224
 1152 005e 1833     	 adds r3,r3,#24
 1153 0060 1B68     	 ldr r3,[r3]
 1154 0062 5A1E     	 subs r2,r3,#1
 1155 0064 104B     	 ldr r3,.L80
 1156 0066 03F58453 	 add r3,r3,#4224
 1157 006a 1833     	 adds r3,r3,#24
 1158 006c 1A60     	 str r2,[r3]
 714:../cleanflight/src/main/io/asyncfatfs/asyncfatfs.c ****             cacheDescriptor->state = AFATFS_CACHE_STATE_WRITING;
 1159              	 .loc 1 714 0
 1160 006e FB68     	 ldr r3,[r7,#12]
 1161 0070 0322     	 movs r2,#3
 1162 0072 9A73     	 strb r2,[r3,#14]
 715:../cleanflight/src/main/io/asyncfatfs/asyncfatfs.c ****             afatfs.cacheFlushInProgress = true;
 1163              	 .loc 1 715 0
 1164 0074 0C4B     	 ldr r3,.L80
 1165 0076 03F58453 	 add r3,r3,#4224
 1166 007a 1C33     	 adds r3,r3,#28
 1167 007c 0122     	 movs r2,#1
 1168 007e 1A70     	 strb r2,[r3]
 716:../cleanflight/src/main/io/asyncfatfs/asyncfatfs.c ****             break;
 1169              	 .loc 1 716 0
 1170 0080 0EE0     	 b .L75
 1171              	.L79:
 717:../cleanflight/src/main/io/asyncfatfs/asyncfatfs.c **** 
 718:../cleanflight/src/main/io/asyncfatfs/asyncfatfs.c ****         case SDCARD_OPERATION_SUCCESS:
 719:../cleanflight/src/main/io/asyncfatfs/asyncfatfs.c ****             // Buffer is already transmitted
 720:../cleanflight/src/main/io/asyncfatfs/asyncfatfs.c ****             afatfs.cacheDirtyEntries--;
 1172              	 .loc 1 720 0
 1173 0082 094B     	 ldr r3,.L80
 1174 0084 03F58453 	 add r3,r3,#4224
 1175 0088 1833     	 adds r3,r3,#24
 1176 008a 1B68     	 ldr r3,[r3]
 1177 008c 5A1E     	 subs r2,r3,#1
 1178 008e 064B     	 ldr r3,.L80
 1179 0090 03F58453 	 add r3,r3,#4224
 1180 0094 1833     	 adds r3,r3,#24
 1181 0096 1A60     	 str r2,[r3]
 721:../cleanflight/src/main/io/asyncfatfs/asyncfatfs.c ****             cacheDescriptor->state = AFATFS_CACHE_STATE_IN_SYNC;
 1182              	 .loc 1 721 0
 1183 0098 FB68     	 ldr r3,[r7,#12]
 1184 009a 0122     	 movs r2,#1
 1185 009c 9A73     	 strb r2,[r3,#14]
 722:../cleanflight/src/main/io/asyncfatfs/asyncfatfs.c ****             break;
 1186              	 .loc 1 722 0
 1187 009e 00BF     	 nop
 1188              	.L75:
 723:../cleanflight/src/main/io/asyncfatfs/asyncfatfs.c **** 
 724:../cleanflight/src/main/io/asyncfatfs/asyncfatfs.c ****         case SDCARD_OPERATION_BUSY:
 725:../cleanflight/src/main/io/asyncfatfs/asyncfatfs.c ****         case SDCARD_OPERATION_FAILURE:
 726:../cleanflight/src/main/io/asyncfatfs/asyncfatfs.c ****         default:
 727:../cleanflight/src/main/io/asyncfatfs/asyncfatfs.c ****             ;
 728:../cleanflight/src/main/io/asyncfatfs/asyncfatfs.c ****     }
 729:../cleanflight/src/main/io/asyncfatfs/asyncfatfs.c **** }
 1189              	 .loc 1 729 0
 1190 00a0 1437     	 adds r7,r7,#20
 1191              	.LCFI84:
 1192              	 .cfi_def_cfa_offset 12
 1193 00a2 BD46     	 mov sp,r7
 1194              	.LCFI85:
 1195              	 .cfi_def_cfa_register 13
 1196              	 
 1197 00a4 90BD     	 pop {r4,r7,pc}
 1198              	.L81:
 1199 00a6 00BF     	 .align 2
 1200              	.L80:
 1201 00a8 00000000 	 .word afatfs
 1202 00ac 00000000 	 .word afatfs_sdcardWriteComplete
 1203              	 .cfi_endproc
 1204              	.LFE546:
 1206              	 .section .text.afatfs_findCacheSector,"ax",%progbits
 1207              	 .align 2
 1208              	 .thumb
 1209              	 .thumb_func
 1211              	afatfs_findCacheSector:
 1212              	.LFB547:
 730:../cleanflight/src/main/io/asyncfatfs/asyncfatfs.c **** 
 731:../cleanflight/src/main/io/asyncfatfs/asyncfatfs.c **** /**
 732:../cleanflight/src/main/io/asyncfatfs/asyncfatfs.c ****  * Find a sector in the cache which corresponds to the given physical sector index, or NULL if the 
 733:../cleanflight/src/main/io/asyncfatfs/asyncfatfs.c ****  * cached. Note that the cached sector could be in any state including completely empty.
 734:../cleanflight/src/main/io/asyncfatfs/asyncfatfs.c ****  */
 735:../cleanflight/src/main/io/asyncfatfs/asyncfatfs.c **** static afatfsCacheBlockDescriptor_t* afatfs_findCacheSector(uint32_t sectorIndex)
 736:../cleanflight/src/main/io/asyncfatfs/asyncfatfs.c **** {
 1213              	 .loc 1 736 0
 1214              	 .cfi_startproc
 1215              	 
 1216              	 
 1217              	 
 1218 0000 80B4     	 push {r7}
 1219              	.LCFI86:
 1220              	 .cfi_def_cfa_offset 4
 1221              	 .cfi_offset 7,-4
 1222 0002 85B0     	 sub sp,sp,#20
 1223              	.LCFI87:
 1224              	 .cfi_def_cfa_offset 24
 1225 0004 00AF     	 add r7,sp,#0
 1226              	.LCFI88:
 1227              	 .cfi_def_cfa_register 7
 1228 0006 7860     	 str r0,[r7,#4]
 1229              	.LBB4:
 737:../cleanflight/src/main/io/asyncfatfs/asyncfatfs.c ****     for (int i = 0; i < AFATFS_NUM_CACHE_SECTORS; i++) {
 1230              	 .loc 1 737 0
 1231 0008 0023     	 movs r3,#0
 1232 000a FB60     	 str r3,[r7,#12]
 1233 000c 14E0     	 b .L83
 1234              	.L86:
 738:../cleanflight/src/main/io/asyncfatfs/asyncfatfs.c ****         if (afatfs.cacheDescriptor[i].sectorIndex == sectorIndex) {
 1235              	 .loc 1 738 0
 1236 000e 0F4A     	 ldr r2,.L87
 1237 0010 FB68     	 ldr r3,[r7,#12]
 1238 0012 03F20113 	 addw r3,r3,#257
 1239 0016 1B01     	 lsls r3,r3,#4
 1240 0018 1344     	 add r3,r3,r2
 1241 001a 5A68     	 ldr r2,[r3,#4]
 1242 001c 7B68     	 ldr r3,[r7,#4]
 1243 001e 9A42     	 cmp r2,r3
 1244 0020 07D1     	 bne .L84
 739:../cleanflight/src/main/io/asyncfatfs/asyncfatfs.c ****             return &afatfs.cacheDescriptor[i];
 1245              	 .loc 1 739 0
 1246 0022 FB68     	 ldr r3,[r7,#12]
 1247 0024 03F20113 	 addw r3,r3,#257
 1248 0028 1B01     	 lsls r3,r3,#4
 1249 002a 084A     	 ldr r2,.L87
 1250 002c 1344     	 add r3,r3,r2
 1251 002e 0433     	 adds r3,r3,#4
 1252 0030 06E0     	 b .L85
 1253              	.L84:
 737:../cleanflight/src/main/io/asyncfatfs/asyncfatfs.c ****     for (int i = 0; i < AFATFS_NUM_CACHE_SECTORS; i++) {
 1254              	 .loc 1 737 0 discriminator 2
 1255 0032 FB68     	 ldr r3,[r7,#12]
 1256 0034 0133     	 adds r3,r3,#1
 1257 0036 FB60     	 str r3,[r7,#12]
 1258              	.L83:
 737:../cleanflight/src/main/io/asyncfatfs/asyncfatfs.c ****     for (int i = 0; i < AFATFS_NUM_CACHE_SECTORS; i++) {
 1259              	 .loc 1 737 0 is_stmt 0 discriminator 1
 1260 0038 FB68     	 ldr r3,[r7,#12]
 1261 003a 072B     	 cmp r3,#7
 1262 003c E7DD     	 ble .L86
 1263              	.LBE4:
 740:../cleanflight/src/main/io/asyncfatfs/asyncfatfs.c ****         }
 741:../cleanflight/src/main/io/asyncfatfs/asyncfatfs.c ****     }
 742:../cleanflight/src/main/io/asyncfatfs/asyncfatfs.c **** 
 743:../cleanflight/src/main/io/asyncfatfs/asyncfatfs.c ****     return NULL;
 1264              	 .loc 1 743 0 is_stmt 1
 1265 003e 0023     	 movs r3,#0
 1266              	.L85:
 744:../cleanflight/src/main/io/asyncfatfs/asyncfatfs.c **** }
 1267              	 .loc 1 744 0
 1268 0040 1846     	 mov r0,r3
 1269 0042 1437     	 adds r7,r7,#20
 1270              	.LCFI89:
 1271              	 .cfi_def_cfa_offset 4
 1272 0044 BD46     	 mov sp,r7
 1273              	.LCFI90:
 1274              	 .cfi_def_cfa_register 13
 1275              	 
 1276 0046 5DF8047B 	 ldr r7,[sp],#4
 1277              	.LCFI91:
 1278              	 .cfi_restore 7
 1279              	 .cfi_def_cfa_offset 0
 1280 004a 7047     	 bx lr
 1281              	.L88:
 1282              	 .align 2
 1283              	.L87:
 1284 004c 00000000 	 .word afatfs
 1285              	 .cfi_endproc
 1286              	.LFE547:
 1288              	 .section .text.afatfs_allocateCacheSector,"ax",%progbits
 1289              	 .align 2
 1290              	 .thumb
 1291              	 .thumb_func
 1293              	afatfs_allocateCacheSector:
 1294              	.LFB548:
 745:../cleanflight/src/main/io/asyncfatfs/asyncfatfs.c **** 
 746:../cleanflight/src/main/io/asyncfatfs/asyncfatfs.c **** /**
 747:../cleanflight/src/main/io/asyncfatfs/asyncfatfs.c ****  * Find or allocate a cache sector for the given sector index on disk. Returns a block which matche
 748:../cleanflight/src/main/io/asyncfatfs/asyncfatfs.c ****  * conditions (in descending order of preference):
 749:../cleanflight/src/main/io/asyncfatfs/asyncfatfs.c ****  *
 750:../cleanflight/src/main/io/asyncfatfs/asyncfatfs.c ****  * - The requested sector that already exists in the cache
 751:../cleanflight/src/main/io/asyncfatfs/asyncfatfs.c ****  * - The index of an empty sector
 752:../cleanflight/src/main/io/asyncfatfs/asyncfatfs.c ****  * - The index of a synced discardable sector
 753:../cleanflight/src/main/io/asyncfatfs/asyncfatfs.c ****  * - The index of the oldest synced sector
 754:../cleanflight/src/main/io/asyncfatfs/asyncfatfs.c ****  *
 755:../cleanflight/src/main/io/asyncfatfs/asyncfatfs.c ****  * Otherwise it returns -1 to signal failure (cache is full!)
 756:../cleanflight/src/main/io/asyncfatfs/asyncfatfs.c ****  */
 757:../cleanflight/src/main/io/asyncfatfs/asyncfatfs.c **** static int afatfs_allocateCacheSector(uint32_t sectorIndex)
 758:../cleanflight/src/main/io/asyncfatfs/asyncfatfs.c **** {
 1295              	 .loc 1 758 0
 1296              	 .cfi_startproc
 1297              	 
 1298              	 
 1299 0000 80B5     	 push {r7,lr}
 1300              	.LCFI92:
 1301              	 .cfi_def_cfa_offset 8
 1302              	 .cfi_offset 7,-8
 1303              	 .cfi_offset 14,-4
 1304 0002 88B0     	 sub sp,sp,#32
 1305              	.LCFI93:
 1306              	 .cfi_def_cfa_offset 40
 1307 0004 00AF     	 add r7,sp,#0
 1308              	.LCFI94:
 1309              	 .cfi_def_cfa_register 7
 1310 0006 7860     	 str r0,[r7,#4]
 759:../cleanflight/src/main/io/asyncfatfs/asyncfatfs.c ****     int allocateIndex;
 760:../cleanflight/src/main/io/asyncfatfs/asyncfatfs.c ****     int emptyIndex = -1, discardableIndex = -1;
 1311              	 .loc 1 760 0
 1312 0008 4FF0FF33 	 mov r3,#-1
 1313 000c BB61     	 str r3,[r7,#24]
 1314 000e 4FF0FF33 	 mov r3,#-1
 1315 0012 7B61     	 str r3,[r7,#20]
 761:../cleanflight/src/main/io/asyncfatfs/asyncfatfs.c **** 
 762:../cleanflight/src/main/io/asyncfatfs/asyncfatfs.c ****     uint32_t oldestSyncedSectorLastUse = 0xFFFFFFFF;
 1316              	 .loc 1 762 0
 1317 0014 4FF0FF33 	 mov r3,#-1
 1318 0018 3B61     	 str r3,[r7,#16]
 763:../cleanflight/src/main/io/asyncfatfs/asyncfatfs.c ****     int oldestSyncedSectorIndex = -1;
 1319              	 .loc 1 763 0
 1320 001a 4FF0FF33 	 mov r3,#-1
 1321 001e FB60     	 str r3,[r7,#12]
 764:../cleanflight/src/main/io/asyncfatfs/asyncfatfs.c **** 
 765:../cleanflight/src/main/io/asyncfatfs/asyncfatfs.c ****     if (
 766:../cleanflight/src/main/io/asyncfatfs/asyncfatfs.c ****         !afatfs_assert(
 767:../cleanflight/src/main/io/asyncfatfs/asyncfatfs.c ****             afatfs.numClusters == 0 // We're unable to check sector bounds during startup since we 
 1322              	 .loc 1 767 0
 1323 0020 714B     	 ldr r3,.L111
 1324 0022 03F58E53 	 add r3,r3,#4544
 1325 0026 0833     	 adds r3,r3,#8
 1326 0028 1B68     	 ldr r3,[r3]
 768:../cleanflight/src/main/io/asyncfatfs/asyncfatfs.c ****             || sectorIndex < afatfs.clusterStartSector + afatfs.numClusters * afatfs.sectorsPerClus
 1327              	 .loc 1 768 0
 1328 002a 002B     	 cmp r3,#0
 1329 002c 14D0     	 beq .L90
 1330              	 .loc 1 768 0 is_stmt 0 discriminator 2
 1331 002e 6E4B     	 ldr r3,.L111
 1332 0030 03F58E53 	 add r3,r3,#4544
 1333 0034 0C33     	 adds r3,r3,#12
 1334 0036 1A68     	 ldr r2,[r3]
 1335 0038 6B4B     	 ldr r3,.L111
 1336 003a 03F58E53 	 add r3,r3,#4544
 1337 003e 0833     	 adds r3,r3,#8
 1338 0040 1968     	 ldr r1,[r3]
 1339 0042 694B     	 ldr r3,.L111
 1340 0044 03F58E53 	 add r3,r3,#4544
 1341 0048 1033     	 adds r3,r3,#16
 1342 004a 1B68     	 ldr r3,[r3]
 1343 004c 03FB01F3 	 mul r3,r3,r1
 1344 0050 1A44     	 add r2,r2,r3
 1345 0052 7B68     	 ldr r3,[r7,#4]
 1346 0054 9A42     	 cmp r2,r3
 1347 0056 01D9     	 bls .L91
 1348              	.L90:
 1349              	 .loc 1 768 0 discriminator 3
 1350 0058 0123     	 movs r3,#1
 1351 005a 00E0     	 b .L92
 1352              	.L91:
 1353              	 .loc 1 768 0 discriminator 4
 1354 005c 0023     	 movs r3,#0
 1355              	.L92:
 766:../cleanflight/src/main/io/asyncfatfs/asyncfatfs.c ****             afatfs.numClusters == 0 // We're unable to check sector bounds during startup since we 
 1356              	 .loc 1 766 0 is_stmt 1
 1357 005e 03F00103 	 and r3,r3,#1
 1358 0062 DBB2     	 uxtb r3,r3
 1359 0064 1846     	 mov r0,r3
 1360 0066 FFF7FEFF 	 bl afatfs_assert
 1361 006a 0346     	 mov r3,r0
 1362 006c 83F00103 	 eor r3,r3,#1
 1363 0070 DBB2     	 uxtb r3,r3
 765:../cleanflight/src/main/io/asyncfatfs/asyncfatfs.c ****         !afatfs_assert(
 1364              	 .loc 1 765 0
 1365 0072 002B     	 cmp r3,#0
 1366 0074 02D0     	 beq .L93
 769:../cleanflight/src/main/io/asyncfatfs/asyncfatfs.c ****         )
 770:../cleanflight/src/main/io/asyncfatfs/asyncfatfs.c ****     ) {
 771:../cleanflight/src/main/io/asyncfatfs/asyncfatfs.c ****         return -1;
 1367              	 .loc 1 771 0
 1368 0076 4FF0FF33 	 mov r3,#-1
 1369 007a B1E0     	 b .L94
 1370              	.L93:
 1371              	.LBB5:
 772:../cleanflight/src/main/io/asyncfatfs/asyncfatfs.c ****     }
 773:../cleanflight/src/main/io/asyncfatfs/asyncfatfs.c **** 
 774:../cleanflight/src/main/io/asyncfatfs/asyncfatfs.c ****     for (int i = 0; i < AFATFS_NUM_CACHE_SECTORS; i++) {
 1372              	 .loc 1 774 0
 1373 007c 0023     	 movs r3,#0
 1374 007e BB60     	 str r3,[r7,#8]
 1375 0080 85E0     	 b .L95
 1376              	.L104:
 775:../cleanflight/src/main/io/asyncfatfs/asyncfatfs.c ****         if (afatfs.cacheDescriptor[i].sectorIndex == sectorIndex) {
 1377              	 .loc 1 775 0
 1378 0082 594A     	 ldr r2,.L111
 1379 0084 BB68     	 ldr r3,[r7,#8]
 1380 0086 03F20113 	 addw r3,r3,#257
 1381 008a 1B01     	 lsls r3,r3,#4
 1382 008c 1344     	 add r3,r3,r2
 1383 008e 5A68     	 ldr r2,[r3,#4]
 1384 0090 7B68     	 ldr r3,[r7,#4]
 1385 0092 9A42     	 cmp r2,r3
 1386 0094 26D1     	 bne .L96
 776:../cleanflight/src/main/io/asyncfatfs/asyncfatfs.c ****             /*
 777:../cleanflight/src/main/io/asyncfatfs/asyncfatfs.c ****              * If the sector is actually empty then do a complete re-init of it just like the stand
 778:../cleanflight/src/main/io/asyncfatfs/asyncfatfs.c ****              * empty case. (Sectors marked as empty should be treated as if they don't have a block
 779:../cleanflight/src/main/io/asyncfatfs/asyncfatfs.c ****              */
 780:../cleanflight/src/main/io/asyncfatfs/asyncfatfs.c ****             if (afatfs.cacheDescriptor[i].state == AFATFS_CACHE_STATE_EMPTY) {
 1387              	 .loc 1 780 0
 1388 0096 544A     	 ldr r2,.L111
 1389 0098 BB68     	 ldr r3,[r7,#8]
 1390 009a 1B01     	 lsls r3,r3,#4
 1391 009c 1344     	 add r3,r3,r2
 1392 009e 03F58053 	 add r3,r3,#4096
 1393 00a2 1833     	 adds r3,r3,#24
 1394 00a4 9B7A     	 ldrb r3,[r3,#10]
 1395 00a6 002B     	 cmp r3,#0
 1396 00a8 02D1     	 bne .L97
 781:../cleanflight/src/main/io/asyncfatfs/asyncfatfs.c ****                 emptyIndex = i;
 1397              	 .loc 1 781 0
 1398 00aa BB68     	 ldr r3,[r7,#8]
 1399 00ac BB61     	 str r3,[r7,#24]
 782:../cleanflight/src/main/io/asyncfatfs/asyncfatfs.c ****                 break;
 1400              	 .loc 1 782 0
 1401 00ae 72E0     	 b .L98
 1402              	.L97:
 783:../cleanflight/src/main/io/asyncfatfs/asyncfatfs.c ****             }
 784:../cleanflight/src/main/io/asyncfatfs/asyncfatfs.c **** 
 785:../cleanflight/src/main/io/asyncfatfs/asyncfatfs.c ****             // Bump the last access time
 786:../cleanflight/src/main/io/asyncfatfs/asyncfatfs.c ****             afatfs.cacheDescriptor[i].accessTimestamp = ++afatfs.cacheTimer;
 1403              	 .loc 1 786 0
 1404 00b0 4D4B     	 ldr r3,.L111
 1405 00b2 03F58453 	 add r3,r3,#4224
 1406 00b6 1433     	 adds r3,r3,#20
 1407 00b8 1B68     	 ldr r3,[r3]
 1408 00ba 5A1C     	 adds r2,r3,#1
 1409 00bc 4A4B     	 ldr r3,.L111
 1410 00be 03F58453 	 add r3,r3,#4224
 1411 00c2 1433     	 adds r3,r3,#20
 1412 00c4 1A60     	 str r2,[r3]
 1413 00c6 484B     	 ldr r3,.L111
 1414 00c8 03F58453 	 add r3,r3,#4224
 1415 00cc 1433     	 adds r3,r3,#20
 1416 00ce 1A68     	 ldr r2,[r3]
 1417 00d0 4549     	 ldr r1,.L111
 1418 00d2 BB68     	 ldr r3,[r7,#8]
 1419 00d4 1B01     	 lsls r3,r3,#4
 1420 00d6 0B44     	 add r3,r3,r1
 1421 00d8 03F58053 	 add r3,r3,#4096
 1422 00dc 1833     	 adds r3,r3,#24
 1423 00de 5A60     	 str r2,[r3,#4]
 787:../cleanflight/src/main/io/asyncfatfs/asyncfatfs.c ****             return i;
 1424              	 .loc 1 787 0
 1425 00e0 BB68     	 ldr r3,[r7,#8]
 1426 00e2 7DE0     	 b .L94
 1427              	.L96:
 788:../cleanflight/src/main/io/asyncfatfs/asyncfatfs.c ****         }
 789:../cleanflight/src/main/io/asyncfatfs/asyncfatfs.c **** 
 790:../cleanflight/src/main/io/asyncfatfs/asyncfatfs.c ****         switch (afatfs.cacheDescriptor[i].state) {
 1428              	 .loc 1 790 0
 1429 00e4 404A     	 ldr r2,.L111
 1430 00e6 BB68     	 ldr r3,[r7,#8]
 1431 00e8 1B01     	 lsls r3,r3,#4
 1432 00ea 1344     	 add r3,r3,r2
 1433 00ec 03F58053 	 add r3,r3,#4096
 1434 00f0 1833     	 adds r3,r3,#24
 1435 00f2 9B7A     	 ldrb r3,[r3,#10]
 1436 00f4 002B     	 cmp r3,#0
 1437 00f6 02D0     	 beq .L100
 1438 00f8 012B     	 cmp r3,#1
 1439 00fa 03D0     	 beq .L101
 1440 00fc 44E0     	 b .L99
 1441              	.L100:
 791:../cleanflight/src/main/io/asyncfatfs/asyncfatfs.c ****             case AFATFS_CACHE_STATE_EMPTY:
 792:../cleanflight/src/main/io/asyncfatfs/asyncfatfs.c ****                 emptyIndex = i;
 1442              	 .loc 1 792 0
 1443 00fe BB68     	 ldr r3,[r7,#8]
 1444 0100 BB61     	 str r3,[r7,#24]
 793:../cleanflight/src/main/io/asyncfatfs/asyncfatfs.c ****             break;
 1445              	 .loc 1 793 0
 1446 0102 41E0     	 b .L99
 1447              	.L101:
 794:../cleanflight/src/main/io/asyncfatfs/asyncfatfs.c ****             case AFATFS_CACHE_STATE_IN_SYNC:
 795:../cleanflight/src/main/io/asyncfatfs/asyncfatfs.c ****                 // Is this a synced sector that we could evict from the cache?
 796:../cleanflight/src/main/io/asyncfatfs/asyncfatfs.c ****                 if (!afatfs.cacheDescriptor[i].locked && afatfs.cacheDescriptor[i].retainCount == 0
 1448              	 .loc 1 796 0
 1449 0104 384A     	 ldr r2,.L111
 1450 0106 BB68     	 ldr r3,[r7,#8]
 1451 0108 1B01     	 lsls r3,r3,#4
 1452 010a 1344     	 add r3,r3,r2
 1453 010c 03F58053 	 add r3,r3,#4096
 1454 0110 1833     	 adds r3,r3,#24
 1455 0112 DB7A     	 ldrb r3,[r3,#11]
 1456 0114 C3F30003 	 ubfx r3,r3,#0,#1
 1457 0118 DBB2     	 uxtb r3,r3
 1458 011a 002B     	 cmp r3,#0
 1459 011c 33D1     	 bne .L102
 1460              	 .loc 1 796 0 is_stmt 0 discriminator 1
 1461 011e 324A     	 ldr r2,.L111
 1462 0120 BB68     	 ldr r3,[r7,#8]
 1463 0122 1B01     	 lsls r3,r3,#4
 1464 0124 1344     	 add r3,r3,r2
 1465 0126 03F58053 	 add r3,r3,#4096
 1466 012a 1833     	 adds r3,r3,#24
 1467 012c DB7A     	 ldrb r3,[r3,#11]
 1468 012e C3F34503 	 ubfx r3,r3,#1,#6
 1469 0132 DBB2     	 uxtb r3,r3
 1470 0134 002B     	 cmp r3,#0
 1471 0136 26D1     	 bne .L102
 797:../cleanflight/src/main/io/asyncfatfs/asyncfatfs.c ****                     if (afatfs.cacheDescriptor[i].discardable) {
 1472              	 .loc 1 797 0 is_stmt 1
 1473 0138 2B4A     	 ldr r2,.L111
 1474 013a BB68     	 ldr r3,[r7,#8]
 1475 013c 1B01     	 lsls r3,r3,#4
 1476 013e 1344     	 add r3,r3,r2
 1477 0140 03F58053 	 add r3,r3,#4096
 1478 0144 1833     	 adds r3,r3,#24
 1479 0146 DB7A     	 ldrb r3,[r3,#11]
 1480 0148 C3F3C013 	 ubfx r3,r3,#7,#1
 1481 014c DBB2     	 uxtb r3,r3
 1482 014e 002B     	 cmp r3,#0
 1483 0150 02D0     	 beq .L103
 798:../cleanflight/src/main/io/asyncfatfs/asyncfatfs.c ****                         discardableIndex = i;
 1484              	 .loc 1 798 0
 1485 0152 BB68     	 ldr r3,[r7,#8]
 1486 0154 7B61     	 str r3,[r7,#20]
 1487 0156 16E0     	 b .L102
 1488              	.L103:
 799:../cleanflight/src/main/io/asyncfatfs/asyncfatfs.c ****                     } else if (afatfs.cacheDescriptor[i].accessTimestamp < oldestSyncedSectorLastUs
 1489              	 .loc 1 799 0
 1490 0158 234A     	 ldr r2,.L111
 1491 015a BB68     	 ldr r3,[r7,#8]
 1492 015c 1B01     	 lsls r3,r3,#4
 1493 015e 1344     	 add r3,r3,r2
 1494 0160 03F58053 	 add r3,r3,#4096
 1495 0164 1833     	 adds r3,r3,#24
 1496 0166 5A68     	 ldr r2,[r3,#4]
 1497 0168 3B69     	 ldr r3,[r7,#16]
 1498 016a 9A42     	 cmp r2,r3
 1499 016c 0BD2     	 bcs .L102
 800:../cleanflight/src/main/io/asyncfatfs/asyncfatfs.c ****                         // This is older than last block we decided to evict, so evict this one in 
 801:../cleanflight/src/main/io/asyncfatfs/asyncfatfs.c ****                         oldestSyncedSectorLastUse = afatfs.cacheDescriptor[i].accessTimestamp;
 1500              	 .loc 1 801 0
 1501 016e 1E4A     	 ldr r2,.L111
 1502 0170 BB68     	 ldr r3,[r7,#8]
 1503 0172 1B01     	 lsls r3,r3,#4
 1504 0174 1344     	 add r3,r3,r2
 1505 0176 03F58053 	 add r3,r3,#4096
 1506 017a 1833     	 adds r3,r3,#24
 1507 017c 5B68     	 ldr r3,[r3,#4]
 1508 017e 3B61     	 str r3,[r7,#16]
 802:../cleanflight/src/main/io/asyncfatfs/asyncfatfs.c ****                         oldestSyncedSectorIndex = i;
 1509              	 .loc 1 802 0
 1510 0180 BB68     	 ldr r3,[r7,#8]
 1511 0182 FB60     	 str r3,[r7,#12]
 803:../cleanflight/src/main/io/asyncfatfs/asyncfatfs.c ****                     }
 804:../cleanflight/src/main/io/asyncfatfs/asyncfatfs.c ****                 }
 805:../cleanflight/src/main/io/asyncfatfs/asyncfatfs.c ****             break;
 1512              	 .loc 1 805 0
 1513 0184 FFE7     	 b .L110
 1514              	.L102:
 1515              	.L110:
 1516 0186 00BF     	 nop
 1517              	.L99:
 774:../cleanflight/src/main/io/asyncfatfs/asyncfatfs.c ****         if (afatfs.cacheDescriptor[i].sectorIndex == sectorIndex) {
 1518              	 .loc 1 774 0 discriminator 2
 1519 0188 BB68     	 ldr r3,[r7,#8]
 1520 018a 0133     	 adds r3,r3,#1
 1521 018c BB60     	 str r3,[r7,#8]
 1522              	.L95:
 774:../cleanflight/src/main/io/asyncfatfs/asyncfatfs.c ****         if (afatfs.cacheDescriptor[i].sectorIndex == sectorIndex) {
 1523              	 .loc 1 774 0 is_stmt 0 discriminator 1
 1524 018e BB68     	 ldr r3,[r7,#8]
 1525 0190 072B     	 cmp r3,#7
 1526 0192 7FF776AF 	 ble .L104
 1527              	.L98:
 1528              	.LBE5:
 806:../cleanflight/src/main/io/asyncfatfs/asyncfatfs.c ****             default:
 807:../cleanflight/src/main/io/asyncfatfs/asyncfatfs.c ****                 ;
 808:../cleanflight/src/main/io/asyncfatfs/asyncfatfs.c ****         }
 809:../cleanflight/src/main/io/asyncfatfs/asyncfatfs.c ****     }
 810:../cleanflight/src/main/io/asyncfatfs/asyncfatfs.c **** 
 811:../cleanflight/src/main/io/asyncfatfs/asyncfatfs.c ****     if (emptyIndex > -1) {
 1529              	 .loc 1 811 0 is_stmt 1
 1530 0196 BB69     	 ldr r3,[r7,#24]
 1531 0198 002B     	 cmp r3,#0
 1532 019a 02DB     	 blt .L105
 812:../cleanflight/src/main/io/asyncfatfs/asyncfatfs.c ****         allocateIndex = emptyIndex;
 1533              	 .loc 1 812 0
 1534 019c BB69     	 ldr r3,[r7,#24]
 1535 019e FB61     	 str r3,[r7,#28]
 1536 01a0 0EE0     	 b .L106
 1537              	.L105:
 813:../cleanflight/src/main/io/asyncfatfs/asyncfatfs.c ****     } else if (discardableIndex > -1) {
 1538              	 .loc 1 813 0
 1539 01a2 7B69     	 ldr r3,[r7,#20]
 1540 01a4 002B     	 cmp r3,#0
 1541 01a6 02DB     	 blt .L107
 814:../cleanflight/src/main/io/asyncfatfs/asyncfatfs.c ****         allocateIndex = discardableIndex;
 1542              	 .loc 1 814 0
 1543 01a8 7B69     	 ldr r3,[r7,#20]
 1544 01aa FB61     	 str r3,[r7,#28]
 1545 01ac 08E0     	 b .L106
 1546              	.L107:
 815:../cleanflight/src/main/io/asyncfatfs/asyncfatfs.c ****     } else if (oldestSyncedSectorIndex > -1) {
 1547              	 .loc 1 815 0
 1548 01ae FB68     	 ldr r3,[r7,#12]
 1549 01b0 002B     	 cmp r3,#0
 1550 01b2 02DB     	 blt .L108
 816:../cleanflight/src/main/io/asyncfatfs/asyncfatfs.c ****         allocateIndex = oldestSyncedSectorIndex;
 1551              	 .loc 1 816 0
 1552 01b4 FB68     	 ldr r3,[r7,#12]
 1553 01b6 FB61     	 str r3,[r7,#28]
 1554 01b8 02E0     	 b .L106
 1555              	.L108:
 817:../cleanflight/src/main/io/asyncfatfs/asyncfatfs.c ****     } else {
 818:../cleanflight/src/main/io/asyncfatfs/asyncfatfs.c ****         allocateIndex = -1;
 1556              	 .loc 1 818 0
 1557 01ba 4FF0FF33 	 mov r3,#-1
 1558 01be FB61     	 str r3,[r7,#28]
 1559              	.L106:
 819:../cleanflight/src/main/io/asyncfatfs/asyncfatfs.c ****     }
 820:../cleanflight/src/main/io/asyncfatfs/asyncfatfs.c **** 
 821:../cleanflight/src/main/io/asyncfatfs/asyncfatfs.c ****     if (allocateIndex > -1) {
 1560              	 .loc 1 821 0
 1561 01c0 FB69     	 ldr r3,[r7,#28]
 1562 01c2 002B     	 cmp r3,#0
 1563 01c4 0BDB     	 blt .L109
 822:../cleanflight/src/main/io/asyncfatfs/asyncfatfs.c ****         afatfs_cacheSectorInit(&afatfs.cacheDescriptor[allocateIndex], sectorIndex, false);
 1564              	 .loc 1 822 0
 1565 01c6 FB69     	 ldr r3,[r7,#28]
 1566 01c8 03F20113 	 addw r3,r3,#257
 1567 01cc 1B01     	 lsls r3,r3,#4
 1568 01ce 064A     	 ldr r2,.L111
 1569 01d0 1344     	 add r3,r3,r2
 1570 01d2 0433     	 adds r3,r3,#4
 1571 01d4 1846     	 mov r0,r3
 1572 01d6 7968     	 ldr r1,[r7,#4]
 1573 01d8 0022     	 movs r2,#0
 1574 01da FFF7FEFF 	 bl afatfs_cacheSectorInit
 1575              	.L109:
 823:../cleanflight/src/main/io/asyncfatfs/asyncfatfs.c ****     }
 824:../cleanflight/src/main/io/asyncfatfs/asyncfatfs.c **** 
 825:../cleanflight/src/main/io/asyncfatfs/asyncfatfs.c ****     return allocateIndex;
 1576              	 .loc 1 825 0
 1577 01de FB69     	 ldr r3,[r7,#28]
 1578              	.L94:
 826:../cleanflight/src/main/io/asyncfatfs/asyncfatfs.c **** }
 1579              	 .loc 1 826 0
 1580 01e0 1846     	 mov r0,r3
 1581 01e2 2037     	 adds r7,r7,#32
 1582              	.LCFI95:
 1583              	 .cfi_def_cfa_offset 8
 1584 01e4 BD46     	 mov sp,r7
 1585              	.LCFI96:
 1586              	 .cfi_def_cfa_register 13
 1587              	 
 1588 01e6 80BD     	 pop {r7,pc}
 1589              	.L112:
 1590              	 .align 2
 1591              	.L111:
 1592 01e8 00000000 	 .word afatfs
 1593              	 .cfi_endproc
 1594              	.LFE548:
 1596              	 .section .text.afatfs_flush,"ax",%progbits
 1597              	 .align 2
 1598              	 .global afatfs_flush
 1599              	 .thumb
 1600              	 .thumb_func
 1602              	afatfs_flush:
 1603              	.LFB549:
 827:../cleanflight/src/main/io/asyncfatfs/asyncfatfs.c **** 
 828:../cleanflight/src/main/io/asyncfatfs/asyncfatfs.c **** /**
 829:../cleanflight/src/main/io/asyncfatfs/asyncfatfs.c ****  * Attempt to flush dirty cache pages out to the sdcard, returning true if all flushable data has b
 830:../cleanflight/src/main/io/asyncfatfs/asyncfatfs.c ****  */
 831:../cleanflight/src/main/io/asyncfatfs/asyncfatfs.c **** bool afatfs_flush(void)
 832:../cleanflight/src/main/io/asyncfatfs/asyncfatfs.c **** {
 1604              	 .loc 1 832 0
 1605              	 .cfi_startproc
 1606              	 
 1607              	 
 1608 0000 80B5     	 push {r7,lr}
 1609              	.LCFI97:
 1610              	 .cfi_def_cfa_offset 8
 1611              	 .cfi_offset 7,-8
 1612              	 .cfi_offset 14,-4
 1613 0002 84B0     	 sub sp,sp,#16
 1614              	.LCFI98:
 1615              	 .cfi_def_cfa_offset 24
 1616 0004 00AF     	 add r7,sp,#0
 1617              	.LCFI99:
 1618              	 .cfi_def_cfa_register 7
 833:../cleanflight/src/main/io/asyncfatfs/asyncfatfs.c ****     if (afatfs.cacheDirtyEntries > 0) {
 1619              	 .loc 1 833 0
 1620 0006 294B     	 ldr r3,.L120
 1621 0008 03F58453 	 add r3,r3,#4224
 1622 000c 1833     	 adds r3,r3,#24
 1623 000e 1B68     	 ldr r3,[r3]
 1624 0010 002B     	 cmp r3,#0
 1625 0012 45DD     	 ble .L114
 1626              	.LBB6:
 834:../cleanflight/src/main/io/asyncfatfs/asyncfatfs.c ****         // Flush the oldest flushable sector
 835:../cleanflight/src/main/io/asyncfatfs/asyncfatfs.c ****         uint32_t earliestSectorTime = 0xFFFFFFFF;
 1627              	 .loc 1 835 0
 1628 0014 4FF0FF33 	 mov r3,#-1
 1629 0018 FB60     	 str r3,[r7,#12]
 836:../cleanflight/src/main/io/asyncfatfs/asyncfatfs.c ****         int earliestSectorIndex = -1;
 1630              	 .loc 1 836 0
 1631 001a 4FF0FF33 	 mov r3,#-1
 1632 001e BB60     	 str r3,[r7,#8]
 1633              	.LBB7:
 837:../cleanflight/src/main/io/asyncfatfs/asyncfatfs.c **** 
 838:../cleanflight/src/main/io/asyncfatfs/asyncfatfs.c ****         for (int i = 0; i < AFATFS_NUM_CACHE_SECTORS; i++) {
 1634              	 .loc 1 838 0
 1635 0020 0023     	 movs r3,#0
 1636 0022 7B60     	 str r3,[r7,#4]
 1637 0024 31E0     	 b .L115
 1638              	.L118:
 839:../cleanflight/src/main/io/asyncfatfs/asyncfatfs.c ****             if (afatfs.cacheDescriptor[i].state == AFATFS_CACHE_STATE_DIRTY && !afatfs.cacheDescrip
 1639              	 .loc 1 839 0
 1640 0026 214A     	 ldr r2,.L120
 1641 0028 7B68     	 ldr r3,[r7,#4]
 1642 002a 1B01     	 lsls r3,r3,#4
 1643 002c 1344     	 add r3,r3,r2
 1644 002e 03F58053 	 add r3,r3,#4096
 1645 0032 1833     	 adds r3,r3,#24
 1646 0034 9B7A     	 ldrb r3,[r3,#10]
 1647 0036 042B     	 cmp r3,#4
 1648 0038 24D1     	 bne .L116
 1649              	 .loc 1 839 0 is_stmt 0 discriminator 1
 1650 003a 1C4A     	 ldr r2,.L120
 1651 003c 7B68     	 ldr r3,[r7,#4]
 1652 003e 1B01     	 lsls r3,r3,#4
 1653 0040 1344     	 add r3,r3,r2
 1654 0042 03F58053 	 add r3,r3,#4096
 1655 0046 1833     	 adds r3,r3,#24
 1656 0048 DB7A     	 ldrb r3,[r3,#11]
 1657 004a C3F30003 	 ubfx r3,r3,#0,#1
 1658 004e DBB2     	 uxtb r3,r3
 1659 0050 002B     	 cmp r3,#0
 1660 0052 17D1     	 bne .L116
 840:../cleanflight/src/main/io/asyncfatfs/asyncfatfs.c ****                 && (earliestSectorIndex == -1 || afatfs.cacheDescriptor[i].writeTimestamp < earlies
 1661              	 .loc 1 840 0 is_stmt 1
 1662 0054 BB68     	 ldr r3,[r7,#8]
 1663 0056 B3F1FF3F 	 cmp r3,#-1
 1664 005a 09D0     	 beq .L117
 1665              	 .loc 1 840 0 is_stmt 0 discriminator 1
 1666 005c 134A     	 ldr r2,.L120
 1667 005e 7B68     	 ldr r3,[r7,#4]
 1668 0060 03F20113 	 addw r3,r3,#257
 1669 0064 1B01     	 lsls r3,r3,#4
 1670 0066 1344     	 add r3,r3,r2
 1671 0068 9A68     	 ldr r2,[r3,#8]
 1672 006a FB68     	 ldr r3,[r7,#12]
 1673 006c 9A42     	 cmp r2,r3
 1674 006e 09D2     	 bcs .L116
 1675              	.L117:
 841:../cleanflight/src/main/io/asyncfatfs/asyncfatfs.c ****             ) {
 842:../cleanflight/src/main/io/asyncfatfs/asyncfatfs.c ****                 earliestSectorIndex = i;
 1676              	 .loc 1 842 0 is_stmt 1
 1677 0070 7B68     	 ldr r3,[r7,#4]
 1678 0072 BB60     	 str r3,[r7,#8]
 843:../cleanflight/src/main/io/asyncfatfs/asyncfatfs.c ****                 earliestSectorTime = afatfs.cacheDescriptor[i].writeTimestamp;
 1679              	 .loc 1 843 0
 1680 0074 0D4A     	 ldr r2,.L120
 1681 0076 7B68     	 ldr r3,[r7,#4]
 1682 0078 03F20113 	 addw r3,r3,#257
 1683 007c 1B01     	 lsls r3,r3,#4
 1684 007e 1344     	 add r3,r3,r2
 1685 0080 9B68     	 ldr r3,[r3,#8]
 1686 0082 FB60     	 str r3,[r7,#12]
 1687              	.L116:
 838:../cleanflight/src/main/io/asyncfatfs/asyncfatfs.c ****             if (afatfs.cacheDescriptor[i].state == AFATFS_CACHE_STATE_DIRTY && !afatfs.cacheDescrip
 1688              	 .loc 1 838 0 discriminator 2
 1689 0084 7B68     	 ldr r3,[r7,#4]
 1690 0086 0133     	 adds r3,r3,#1
 1691 0088 7B60     	 str r3,[r7,#4]
 1692              	.L115:
 838:../cleanflight/src/main/io/asyncfatfs/asyncfatfs.c ****             if (afatfs.cacheDescriptor[i].state == AFATFS_CACHE_STATE_DIRTY && !afatfs.cacheDescrip
 1693              	 .loc 1 838 0 is_stmt 0 discriminator 1
 1694 008a 7B68     	 ldr r3,[r7,#4]
 1695 008c 072B     	 cmp r3,#7
 1696 008e CADD     	 ble .L118
 1697              	.LBE7:
 844:../cleanflight/src/main/io/asyncfatfs/asyncfatfs.c ****             }
 845:../cleanflight/src/main/io/asyncfatfs/asyncfatfs.c ****         }
 846:../cleanflight/src/main/io/asyncfatfs/asyncfatfs.c **** 
 847:../cleanflight/src/main/io/asyncfatfs/asyncfatfs.c ****         if (earliestSectorIndex > -1) {
 1698              	 .loc 1 847 0 is_stmt 1
 1699 0090 BB68     	 ldr r3,[r7,#8]
 1700 0092 002B     	 cmp r3,#0
 1701 0094 04DB     	 blt .L114
 848:../cleanflight/src/main/io/asyncfatfs/asyncfatfs.c ****             afatfs_cacheFlushSector(earliestSectorIndex);
 1702              	 .loc 1 848 0
 1703 0096 B868     	 ldr r0,[r7,#8]
 1704 0098 FFF7FEFF 	 bl afatfs_cacheFlushSector
 849:../cleanflight/src/main/io/asyncfatfs/asyncfatfs.c **** 
 850:../cleanflight/src/main/io/asyncfatfs/asyncfatfs.c ****             // That flush will take time to complete so we may as well tell caller to come back lat
 851:../cleanflight/src/main/io/asyncfatfs/asyncfatfs.c ****             return false;
 1705              	 .loc 1 851 0
 1706 009c 0023     	 movs r3,#0
 1707 009e 00E0     	 b .L119
 1708              	.L114:
 1709              	.LBE6:
 852:../cleanflight/src/main/io/asyncfatfs/asyncfatfs.c ****         }
 853:../cleanflight/src/main/io/asyncfatfs/asyncfatfs.c ****     }
 854:../cleanflight/src/main/io/asyncfatfs/asyncfatfs.c **** 
 855:../cleanflight/src/main/io/asyncfatfs/asyncfatfs.c ****     return true;
 1710              	 .loc 1 855 0
 1711 00a0 0123     	 movs r3,#1
 1712              	.L119:
 856:../cleanflight/src/main/io/asyncfatfs/asyncfatfs.c **** }
 1713              	 .loc 1 856 0
 1714 00a2 1846     	 mov r0,r3
 1715 00a4 1037     	 adds r7,r7,#16
 1716              	.LCFI100:
 1717              	 .cfi_def_cfa_offset 8
 1718 00a6 BD46     	 mov sp,r7
 1719              	.LCFI101:
 1720              	 .cfi_def_cfa_register 13
 1721              	 
 1722 00a8 80BD     	 pop {r7,pc}
 1723              	.L121:
 1724 00aa 00BF     	 .align 2
 1725              	.L120:
 1726 00ac 00000000 	 .word afatfs
 1727              	 .cfi_endproc
 1728              	.LFE549:
 1730              	 .section .text.afatfs_isFull,"ax",%progbits
 1731              	 .align 2
 1732              	 .global afatfs_isFull
 1733              	 .thumb
 1734              	 .thumb_func
 1736              	afatfs_isFull:
 1737              	.LFB550:
 857:../cleanflight/src/main/io/asyncfatfs/asyncfatfs.c **** 
 858:../cleanflight/src/main/io/asyncfatfs/asyncfatfs.c **** /**
 859:../cleanflight/src/main/io/asyncfatfs/asyncfatfs.c ****  * Returns true if either the freefile or the regular cluster pool has been exhausted during a prev
 860:../cleanflight/src/main/io/asyncfatfs/asyncfatfs.c ****  */
 861:../cleanflight/src/main/io/asyncfatfs/asyncfatfs.c **** bool afatfs_isFull(void)
 862:../cleanflight/src/main/io/asyncfatfs/asyncfatfs.c **** {
 1738              	 .loc 1 862 0
 1739              	 .cfi_startproc
 1740              	 
 1741              	 
 1742              	 
 1743 0000 80B4     	 push {r7}
 1744              	.LCFI102:
 1745              	 .cfi_def_cfa_offset 4
 1746              	 .cfi_offset 7,-4
 1747 0002 00AF     	 add r7,sp,#0
 1748              	.LCFI103:
 1749              	 .cfi_def_cfa_register 7
 863:../cleanflight/src/main/io/asyncfatfs/asyncfatfs.c ****     return afatfs.filesystemFull;
 1750              	 .loc 1 863 0
 1751 0004 044B     	 ldr r3,.L124
 1752 0006 03F58C53 	 add r3,r3,#4480
 1753 000a 0233     	 adds r3,r3,#2
 1754 000c 1B78     	 ldrb r3,[r3]
 864:../cleanflight/src/main/io/asyncfatfs/asyncfatfs.c **** }
 1755              	 .loc 1 864 0
 1756 000e 1846     	 mov r0,r3
 1757 0010 BD46     	 mov sp,r7
 1758              	.LCFI104:
 1759              	 .cfi_def_cfa_register 13
 1760              	 
 1761 0012 5DF8047B 	 ldr r7,[sp],#4
 1762              	.LCFI105:
 1763              	 .cfi_restore 7
 1764              	 .cfi_def_cfa_offset 0
 1765 0016 7047     	 bx lr
 1766              	.L125:
 1767              	 .align 2
 1768              	.L124:
 1769 0018 00000000 	 .word afatfs
 1770              	 .cfi_endproc
 1771              	.LFE550:
 1773              	 .section .text.afatfs_fatSectorToPhysical,"ax",%progbits
 1774              	 .align 2
 1775              	 .thumb
 1776              	 .thumb_func
 1778              	afatfs_fatSectorToPhysical:
 1779              	.LFB551:
 865:../cleanflight/src/main/io/asyncfatfs/asyncfatfs.c **** 
 866:../cleanflight/src/main/io/asyncfatfs/asyncfatfs.c **** /**
 867:../cleanflight/src/main/io/asyncfatfs/asyncfatfs.c ****  * Get the physical sector number that corresponds to the FAT sector of the given fatSectorIndex wi
 868:../cleanflight/src/main/io/asyncfatfs/asyncfatfs.c ****  * FAT (fatIndex may be 0 or 1). (0, 0) gives the first sector of the first FAT.
 869:../cleanflight/src/main/io/asyncfatfs/asyncfatfs.c ****  */
 870:../cleanflight/src/main/io/asyncfatfs/asyncfatfs.c **** static uint32_t afatfs_fatSectorToPhysical(int fatIndex, uint32_t fatSectorIndex)
 871:../cleanflight/src/main/io/asyncfatfs/asyncfatfs.c **** {
 1780              	 .loc 1 871 0
 1781              	 .cfi_startproc
 1782              	 
 1783              	 
 1784              	 
 1785 0000 80B4     	 push {r7}
 1786              	.LCFI106:
 1787              	 .cfi_def_cfa_offset 4
 1788              	 .cfi_offset 7,-4
 1789 0002 83B0     	 sub sp,sp,#12
 1790              	.LCFI107:
 1791              	 .cfi_def_cfa_offset 16
 1792 0004 00AF     	 add r7,sp,#0
 1793              	.LCFI108:
 1794              	 .cfi_def_cfa_register 7
 1795 0006 7860     	 str r0,[r7,#4]
 1796 0008 3960     	 str r1,[r7]
 872:../cleanflight/src/main/io/asyncfatfs/asyncfatfs.c ****     return afatfs.fatStartSector + (fatIndex ? afatfs.fatSectors : 0) + fatSectorIndex;
 1797              	 .loc 1 872 0
 1798 000a 0B4B     	 ldr r3,.L130
 1799 000c 03F58E53 	 add r3,r3,#4544
 1800 0010 1A68     	 ldr r2,[r3]
 1801 0012 7B68     	 ldr r3,[r7,#4]
 1802 0014 002B     	 cmp r3,#0
 1803 0016 05D0     	 beq .L127
 1804              	 .loc 1 872 0 is_stmt 0 discriminator 1
 1805 0018 074B     	 ldr r3,.L130
 1806 001a 03F58E53 	 add r3,r3,#4544
 1807 001e 0433     	 adds r3,r3,#4
 1808 0020 1B68     	 ldr r3,[r3]
 1809 0022 00E0     	 b .L128
 1810              	.L127:
 1811              	 .loc 1 872 0 discriminator 2
 1812 0024 0023     	 movs r3,#0
 1813              	.L128:
 1814              	 .loc 1 872 0 discriminator 4
 1815 0026 1A44     	 add r2,r2,r3
 1816 0028 3B68     	 ldr r3,[r7]
 1817 002a 1344     	 add r3,r3,r2
 873:../cleanflight/src/main/io/asyncfatfs/asyncfatfs.c **** }
 1818              	 .loc 1 873 0 is_stmt 1 discriminator 4
 1819 002c 1846     	 mov r0,r3
 1820 002e 0C37     	 adds r7,r7,#12
 1821              	.LCFI109:
 1822              	 .cfi_def_cfa_offset 4
 1823 0030 BD46     	 mov sp,r7
 1824              	.LCFI110:
 1825              	 .cfi_def_cfa_register 13
 1826              	 
 1827 0032 5DF8047B 	 ldr r7,[sp],#4
 1828              	.LCFI111:
 1829              	 .cfi_restore 7
 1830              	 .cfi_def_cfa_offset 0
 1831 0036 7047     	 bx lr
 1832              	.L131:
 1833              	 .align 2
 1834              	.L130:
 1835 0038 00000000 	 .word afatfs
 1836              	 .cfi_endproc
 1837              	.LFE551:
 1839              	 .section .text.afatfs_fileClusterToPhysical,"ax",%progbits
 1840              	 .align 2
 1841              	 .thumb
 1842              	 .thumb_func
 1844              	afatfs_fileClusterToPhysical:
 1845              	.LFB552:
 874:../cleanflight/src/main/io/asyncfatfs/asyncfatfs.c **** 
 875:../cleanflight/src/main/io/asyncfatfs/asyncfatfs.c **** static uint32_t afatfs_fileClusterToPhysical(uint32_t clusterNumber, uint32_t sectorIndex)
 876:../cleanflight/src/main/io/asyncfatfs/asyncfatfs.c **** {
 1846              	 .loc 1 876 0
 1847              	 .cfi_startproc
 1848              	 
 1849              	 
 1850              	 
 1851 0000 80B4     	 push {r7}
 1852              	.LCFI112:
 1853              	 .cfi_def_cfa_offset 4
 1854              	 .cfi_offset 7,-4
 1855 0002 83B0     	 sub sp,sp,#12
 1856              	.LCFI113:
 1857              	 .cfi_def_cfa_offset 16
 1858 0004 00AF     	 add r7,sp,#0
 1859              	.LCFI114:
 1860              	 .cfi_def_cfa_register 7
 1861 0006 7860     	 str r0,[r7,#4]
 1862 0008 3960     	 str r1,[r7]
 877:../cleanflight/src/main/io/asyncfatfs/asyncfatfs.c ****     return afatfs.clusterStartSector + (clusterNumber - 2) * afatfs.sectorsPerCluster + sectorIndex
 1863              	 .loc 1 877 0
 1864 000a 0B4B     	 ldr r3,.L134
 1865 000c 03F58E53 	 add r3,r3,#4544
 1866 0010 0C33     	 adds r3,r3,#12
 1867 0012 1A68     	 ldr r2,[r3]
 1868 0014 7B68     	 ldr r3,[r7,#4]
 1869 0016 991E     	 subs r1,r3,#2
 1870 0018 074B     	 ldr r3,.L134
 1871 001a 03F58E53 	 add r3,r3,#4544
 1872 001e 1033     	 adds r3,r3,#16
 1873 0020 1B68     	 ldr r3,[r3]
 1874 0022 03FB01F3 	 mul r3,r3,r1
 1875 0026 1A44     	 add r2,r2,r3
 1876 0028 3B68     	 ldr r3,[r7]
 1877 002a 1344     	 add r3,r3,r2
 878:../cleanflight/src/main/io/asyncfatfs/asyncfatfs.c **** }
 1878              	 .loc 1 878 0
 1879 002c 1846     	 mov r0,r3
 1880 002e 0C37     	 adds r7,r7,#12
 1881              	.LCFI115:
 1882              	 .cfi_def_cfa_offset 4
 1883 0030 BD46     	 mov sp,r7
 1884              	.LCFI116:
 1885              	 .cfi_def_cfa_register 13
 1886              	 
 1887 0032 5DF8047B 	 ldr r7,[sp],#4
 1888              	.LCFI117:
 1889              	 .cfi_restore 7
 1890              	 .cfi_def_cfa_offset 0
 1891 0036 7047     	 bx lr
 1892              	.L135:
 1893              	 .align 2
 1894              	.L134:
 1895 0038 00000000 	 .word afatfs
 1896              	 .cfi_endproc
 1897              	.LFE552:
 1899              	 .section .text.afatfs_fileGetCursorPhysicalSector,"ax",%progbits
 1900              	 .align 2
 1901              	 .thumb
 1902              	 .thumb_func
 1904              	afatfs_fileGetCursorPhysicalSector:
 1905              	.LFB553:
 879:../cleanflight/src/main/io/asyncfatfs/asyncfatfs.c **** 
 880:../cleanflight/src/main/io/asyncfatfs/asyncfatfs.c **** static uint32_t afatfs_fileGetCursorPhysicalSector(afatfsFilePtr_t file)
 881:../cleanflight/src/main/io/asyncfatfs/asyncfatfs.c **** {
 1906              	 .loc 1 881 0
 1907              	 .cfi_startproc
 1908              	 
 1909              	 
 1910 0000 80B5     	 push {r7,lr}
 1911              	.LCFI118:
 1912              	 .cfi_def_cfa_offset 8
 1913              	 .cfi_offset 7,-8
 1914              	 .cfi_offset 14,-4
 1915 0002 84B0     	 sub sp,sp,#16
 1916              	.LCFI119:
 1917              	 .cfi_def_cfa_offset 24
 1918 0004 00AF     	 add r7,sp,#0
 1919              	.LCFI120:
 1920              	 .cfi_def_cfa_register 7
 1921 0006 7860     	 str r0,[r7,#4]
 882:../cleanflight/src/main/io/asyncfatfs/asyncfatfs.c ****     if (file->type == AFATFS_FILE_TYPE_FAT16_ROOT_DIRECTORY) {
 1922              	 .loc 1 882 0
 1923 0008 7B68     	 ldr r3,[r7,#4]
 1924 000a 1B78     	 ldrb r3,[r3]
 1925 000c 022B     	 cmp r3,#2
 1926 000e 10D1     	 bne .L137
 883:../cleanflight/src/main/io/asyncfatfs/asyncfatfs.c ****         return afatfs.fatStartSector + AFATFS_NUM_FATS * afatfs.fatSectors + file->cursorOffset / A
 1927              	 .loc 1 883 0
 1928 0010 114B     	 ldr r3,.L139
 1929 0012 03F58E53 	 add r3,r3,#4544
 1930 0016 1A68     	 ldr r2,[r3]
 1931 0018 0F4B     	 ldr r3,.L139
 1932 001a 03F58E53 	 add r3,r3,#4544
 1933 001e 0433     	 adds r3,r3,#4
 1934 0020 1B68     	 ldr r3,[r3]
 1935 0022 5B00     	 lsls r3,r3,#1
 1936 0024 1A44     	 add r2,r2,r3
 1937 0026 7B68     	 ldr r3,[r7,#4]
 1938 0028 D3F80130 	 ldr r3,[r3,#1]
 1939 002c 5B0A     	 lsrs r3,r3,#9
 1940 002e 1344     	 add r3,r3,r2
 1941 0030 0EE0     	 b .L138
 1942              	.L137:
 1943              	.LBB8:
 884:../cleanflight/src/main/io/asyncfatfs/asyncfatfs.c ****     } else {
 885:../cleanflight/src/main/io/asyncfatfs/asyncfatfs.c ****         uint32_t cursorSectorInCluster = afatfs_sectorIndexInCluster(file->cursorOffset);
 1944              	 .loc 1 885 0
 1945 0032 7B68     	 ldr r3,[r7,#4]
 1946 0034 D3F80130 	 ldr r3,[r3,#1]
 1947 0038 1846     	 mov r0,r3
 1948 003a FFF7FEFF 	 bl afatfs_sectorIndexInCluster
 1949 003e F860     	 str r0,[r7,#12]
 886:../cleanflight/src/main/io/asyncfatfs/asyncfatfs.c ****         return afatfs_fileClusterToPhysical(file->cursorCluster, cursorSectorInCluster);
 1950              	 .loc 1 886 0
 1951 0040 7B68     	 ldr r3,[r7,#4]
 1952 0042 D3F80D30 	 ldr r3,[r3,#13]
 1953 0046 1846     	 mov r0,r3
 1954 0048 F968     	 ldr r1,[r7,#12]
 1955 004a FFF7FEFF 	 bl afatfs_fileClusterToPhysical
 1956 004e 0346     	 mov r3,r0
 1957              	.L138:
 1958              	.LBE8:
 887:../cleanflight/src/main/io/asyncfatfs/asyncfatfs.c ****     }
 888:../cleanflight/src/main/io/asyncfatfs/asyncfatfs.c **** }
 1959              	 .loc 1 888 0
 1960 0050 1846     	 mov r0,r3
 1961 0052 1037     	 adds r7,r7,#16
 1962              	.LCFI121:
 1963              	 .cfi_def_cfa_offset 8
 1964 0054 BD46     	 mov sp,r7
 1965              	.LCFI122:
 1966              	 .cfi_def_cfa_register 13
 1967              	 
 1968 0056 80BD     	 pop {r7,pc}
 1969              	.L140:
 1970              	 .align 2
 1971              	.L139:
 1972 0058 00000000 	 .word afatfs
 1973              	 .cfi_endproc
 1974              	.LFE553:
 1976              	 .section .text.afatfs_fileGetCursorClusterAndSector,"ax",%progbits
 1977              	 .align 2
 1978              	 .thumb
 1979              	 .thumb_func
 1981              	afatfs_fileGetCursorClusterAndSector:
 1982              	.LFB554:
 889:../cleanflight/src/main/io/asyncfatfs/asyncfatfs.c **** 
 890:../cleanflight/src/main/io/asyncfatfs/asyncfatfs.c **** /**
 891:../cleanflight/src/main/io/asyncfatfs/asyncfatfs.c ****  * Sector here is the sector index within the cluster.
 892:../cleanflight/src/main/io/asyncfatfs/asyncfatfs.c ****  */
 893:../cleanflight/src/main/io/asyncfatfs/asyncfatfs.c **** static void afatfs_fileGetCursorClusterAndSector(afatfsFilePtr_t file, uint32_t *cluster, uint16_t 
 894:../cleanflight/src/main/io/asyncfatfs/asyncfatfs.c **** {
 1983              	 .loc 1 894 0
 1984              	 .cfi_startproc
 1985              	 
 1986              	 
 1987 0000 80B5     	 push {r7,lr}
 1988              	.LCFI123:
 1989              	 .cfi_def_cfa_offset 8
 1990              	 .cfi_offset 7,-8
 1991              	 .cfi_offset 14,-4
 1992 0002 84B0     	 sub sp,sp,#16
 1993              	.LCFI124:
 1994              	 .cfi_def_cfa_offset 24
 1995 0004 00AF     	 add r7,sp,#0
 1996              	.LCFI125:
 1997              	 .cfi_def_cfa_register 7
 1998 0006 F860     	 str r0,[r7,#12]
 1999 0008 B960     	 str r1,[r7,#8]
 2000 000a 7A60     	 str r2,[r7,#4]
 895:../cleanflight/src/main/io/asyncfatfs/asyncfatfs.c ****     *cluster = file->cursorCluster;
 2001              	 .loc 1 895 0
 2002 000c FB68     	 ldr r3,[r7,#12]
 2003 000e D3F80D20 	 ldr r2,[r3,#13]
 2004 0012 BB68     	 ldr r3,[r7,#8]
 2005 0014 1A60     	 str r2,[r3]
 896:../cleanflight/src/main/io/asyncfatfs/asyncfatfs.c **** 
 897:../cleanflight/src/main/io/asyncfatfs/asyncfatfs.c ****     if (file->type == AFATFS_FILE_TYPE_FAT16_ROOT_DIRECTORY) {
 2006              	 .loc 1 897 0
 2007 0016 FB68     	 ldr r3,[r7,#12]
 2008 0018 1B78     	 ldrb r3,[r3]
 2009 001a 022B     	 cmp r3,#2
 2010 001c 07D1     	 bne .L142
 898:../cleanflight/src/main/io/asyncfatfs/asyncfatfs.c ****         *sector = file->cursorOffset / AFATFS_SECTOR_SIZE;
 2011              	 .loc 1 898 0
 2012 001e FB68     	 ldr r3,[r7,#12]
 2013 0020 D3F80130 	 ldr r3,[r3,#1]
 2014 0024 5B0A     	 lsrs r3,r3,#9
 2015 0026 9AB2     	 uxth r2,r3
 2016 0028 7B68     	 ldr r3,[r7,#4]
 2017 002a 1A80     	 strh r2,[r3]
 2018 002c 09E0     	 b .L141
 2019              	.L142:
 899:../cleanflight/src/main/io/asyncfatfs/asyncfatfs.c ****     } else {
 900:../cleanflight/src/main/io/asyncfatfs/asyncfatfs.c ****         *sector = afatfs_sectorIndexInCluster(file->cursorOffset);
 2020              	 .loc 1 900 0
 2021 002e FB68     	 ldr r3,[r7,#12]
 2022 0030 D3F80130 	 ldr r3,[r3,#1]
 2023 0034 1846     	 mov r0,r3
 2024 0036 FFF7FEFF 	 bl afatfs_sectorIndexInCluster
 2025 003a 0346     	 mov r3,r0
 2026 003c 9AB2     	 uxth r2,r3
 2027 003e 7B68     	 ldr r3,[r7,#4]
 2028 0040 1A80     	 strh r2,[r3]
 2029              	.L141:
 901:../cleanflight/src/main/io/asyncfatfs/asyncfatfs.c ****     }
 902:../cleanflight/src/main/io/asyncfatfs/asyncfatfs.c **** }
 2030              	 .loc 1 902 0
 2031 0042 1037     	 adds r7,r7,#16
 2032              	.LCFI126:
 2033              	 .cfi_def_cfa_offset 8
 2034 0044 BD46     	 mov sp,r7
 2035              	.LCFI127:
 2036              	 .cfi_def_cfa_register 13
 2037              	 
 2038 0046 80BD     	 pop {r7,pc}
 2039              	 .cfi_endproc
 2040              	.LFE554:
 2042              	 .section .text.afatfs_cacheSector,"ax",%progbits
 2043              	 .align 2
 2044              	 .thumb
 2045              	 .thumb_func
 2047              	afatfs_cacheSector:
 2048              	.LFB555:
 903:../cleanflight/src/main/io/asyncfatfs/asyncfatfs.c **** 
 904:../cleanflight/src/main/io/asyncfatfs/asyncfatfs.c **** /**
 905:../cleanflight/src/main/io/asyncfatfs/asyncfatfs.c ****  * Get a cache entry for the given sector and store a pointer to the cached memory in *buffer.
 906:../cleanflight/src/main/io/asyncfatfs/asyncfatfs.c ****  *
 907:../cleanflight/src/main/io/asyncfatfs/asyncfatfs.c ****  * physicalSectorIndex - The index of the sector in the SD card to cache
 908:../cleanflight/src/main/io/asyncfatfs/asyncfatfs.c ****  * sectorflags         - A union of AFATFS_CACHE_* constants that says which operations the sector 
 909:../cleanflight/src/main/io/asyncfatfs/asyncfatfs.c ****  * buffer              - A pointer to the 512-byte memory buffer for the sector will be stored here
 910:../cleanflight/src/main/io/asyncfatfs/asyncfatfs.c ****  * eraseCount          - For write operations, set to a non-zero number to hint that we plan to wri
 911:../cleanflight/src/main/io/asyncfatfs/asyncfatfs.c ****  *                       consecutively (including this sector)
 912:../cleanflight/src/main/io/asyncfatfs/asyncfatfs.c ****  *
 913:../cleanflight/src/main/io/asyncfatfs/asyncfatfs.c ****  * Returns:
 914:../cleanflight/src/main/io/asyncfatfs/asyncfatfs.c ****  *     AFATFS_OPERATION_SUCCESS     - On success
 915:../cleanflight/src/main/io/asyncfatfs/asyncfatfs.c ****  *     AFATFS_OPERATION_IN_PROGRESS - Card is busy, call again later
 916:../cleanflight/src/main/io/asyncfatfs/asyncfatfs.c ****  *     AFATFS_OPERATION_FAILURE     - When the filesystem encounters a fatal error
 917:../cleanflight/src/main/io/asyncfatfs/asyncfatfs.c ****  */
 918:../cleanflight/src/main/io/asyncfatfs/asyncfatfs.c **** static afatfsOperationStatus_e afatfs_cacheSector(uint32_t physicalSectorIndex, uint8_t **buffer, u
 919:../cleanflight/src/main/io/asyncfatfs/asyncfatfs.c **** {
 2049              	 .loc 1 919 0
 2050              	 .cfi_startproc
 2051              	 
 2052              	 
 2053 0000 80B5     	 push {r7,lr}
 2054              	.LCFI128:
 2055              	 .cfi_def_cfa_offset 8
 2056              	 .cfi_offset 7,-8
 2057              	 .cfi_offset 14,-4
 2058 0002 88B0     	 sub sp,sp,#32
 2059              	.LCFI129:
 2060              	 .cfi_def_cfa_offset 40
 2061 0004 00AF     	 add r7,sp,#0
 2062              	.LCFI130:
 2063              	 .cfi_def_cfa_register 7
 2064 0006 F860     	 str r0,[r7,#12]
 2065 0008 B960     	 str r1,[r7,#8]
 2066 000a 3B60     	 str r3,[r7]
 2067 000c 1346     	 mov r3,r2
 2068 000e FB71     	 strb r3,[r7,#7]
 920:../cleanflight/src/main/io/asyncfatfs/asyncfatfs.c ****     // We never write to the MBR, so any attempt to write there is an asyncfatfs bug
 921:../cleanflight/src/main/io/asyncfatfs/asyncfatfs.c ****     if (!afatfs_assert((sectorFlags & AFATFS_CACHE_WRITE) == 0 || physicalSectorIndex != 0)) {
 2069              	 .loc 1 921 0
 2070 0010 FB79     	 ldrb r3,[r7,#7]
 2071 0012 03F00203 	 and r3,r3,#2
 2072 0016 002B     	 cmp r3,#0
 2073 0018 02D0     	 beq .L145
 2074              	 .loc 1 921 0 is_stmt 0 discriminator 2
 2075 001a FB68     	 ldr r3,[r7,#12]
 2076 001c 002B     	 cmp r3,#0
 2077 001e 01D0     	 beq .L146
 2078              	.L145:
 2079              	 .loc 1 921 0 discriminator 3
 2080 0020 0123     	 movs r3,#1
 2081 0022 00E0     	 b .L147
 2082              	.L146:
 2083              	 .loc 1 921 0 discriminator 4
 2084 0024 0023     	 movs r3,#0
 2085              	.L147:
 2086              	 .loc 1 921 0 discriminator 6
 2087 0026 03F00103 	 and r3,r3,#1
 2088 002a DBB2     	 uxtb r3,r3
 2089 002c 1846     	 mov r0,r3
 2090 002e FFF7FEFF 	 bl afatfs_assert
 2091 0032 0346     	 mov r3,r0
 2092 0034 83F00103 	 eor r3,r3,#1
 2093 0038 DBB2     	 uxtb r3,r3
 2094 003a 002B     	 cmp r3,#0
 2095 003c 01D0     	 beq .L148
 922:../cleanflight/src/main/io/asyncfatfs/asyncfatfs.c ****         return AFATFS_OPERATION_FAILURE;
 2096              	 .loc 1 922 0 is_stmt 1
 2097 003e 0223     	 movs r3,#2
 2098 0040 BAE0     	 b .L149
 2099              	.L148:
 923:../cleanflight/src/main/io/asyncfatfs/asyncfatfs.c ****     }
 924:../cleanflight/src/main/io/asyncfatfs/asyncfatfs.c **** 
 925:../cleanflight/src/main/io/asyncfatfs/asyncfatfs.c ****     int cacheSectorIndex = afatfs_allocateCacheSector(physicalSectorIndex);
 2100              	 .loc 1 925 0
 2101 0042 F868     	 ldr r0,[r7,#12]
 2102 0044 FFF7FEFF 	 bl afatfs_allocateCacheSector
 2103 0048 F861     	 str r0,[r7,#28]
 926:../cleanflight/src/main/io/asyncfatfs/asyncfatfs.c **** 
 927:../cleanflight/src/main/io/asyncfatfs/asyncfatfs.c ****     if (cacheSectorIndex == -1) {
 2104              	 .loc 1 927 0
 2105 004a FB69     	 ldr r3,[r7,#28]
 2106 004c B3F1FF3F 	 cmp r3,#-1
 2107 0050 01D1     	 bne .L150
 928:../cleanflight/src/main/io/asyncfatfs/asyncfatfs.c ****         // We don't have enough free cache to service this request right now, try again later
 929:../cleanflight/src/main/io/asyncfatfs/asyncfatfs.c ****         return AFATFS_OPERATION_IN_PROGRESS;
 2108              	 .loc 1 929 0
 2109 0052 0023     	 movs r3,#0
 2110 0054 B0E0     	 b .L149
 2111              	.L150:
 930:../cleanflight/src/main/io/asyncfatfs/asyncfatfs.c ****     }
 931:../cleanflight/src/main/io/asyncfatfs/asyncfatfs.c **** 
 932:../cleanflight/src/main/io/asyncfatfs/asyncfatfs.c ****     switch (afatfs.cacheDescriptor[cacheSectorIndex].state) {
 2112              	 .loc 1 932 0
 2113 0056 5A4A     	 ldr r2,.L163
 2114 0058 FB69     	 ldr r3,[r7,#28]
 2115 005a 1B01     	 lsls r3,r3,#4
 2116 005c 1344     	 add r3,r3,r2
 2117 005e 03F58053 	 add r3,r3,#4096
 2118 0062 1833     	 adds r3,r3,#24
 2119 0064 9B7A     	 ldrb r3,[r3,#10]
 2120 0066 042B     	 cmp r3,#4
 2121 0068 00F2A280 	 bhi .L151
 2122 006c 01A2     	 adr r2,.L153
 2123 006e 52F823F0 	 ldr pc,[r2,r3,lsl#2]
 2124 0072 00BF     	 .p2align 2
 2125              	.L153:
 2126 0074 8D000000 	 .word .L152+1
 2127 0078 25010000 	 .word .L154+1
 2128 007c 89000000 	 .word .L155+1
 2129 0080 25010000 	 .word .L154+1
 2130 0084 43010000 	 .word .L156+1
 2131              	 .p2align 1
 2132              	.L155:
 933:../cleanflight/src/main/io/asyncfatfs/asyncfatfs.c ****         case AFATFS_CACHE_STATE_READING:
 934:../cleanflight/src/main/io/asyncfatfs/asyncfatfs.c ****             return AFATFS_OPERATION_IN_PROGRESS;
 2133              	 .loc 1 934 0
 2134 0088 0023     	 movs r3,#0
 2135 008a 95E0     	 b .L149
 2136              	.L152:
 935:../cleanflight/src/main/io/asyncfatfs/asyncfatfs.c ****         break;
 936:../cleanflight/src/main/io/asyncfatfs/asyncfatfs.c **** 
 937:../cleanflight/src/main/io/asyncfatfs/asyncfatfs.c ****         case AFATFS_CACHE_STATE_EMPTY:
 938:../cleanflight/src/main/io/asyncfatfs/asyncfatfs.c ****             if ((sectorFlags & AFATFS_CACHE_READ) != 0) {
 2137              	 .loc 1 938 0
 2138 008c FB79     	 ldrb r3,[r7,#7]
 2139 008e 03F00103 	 and r3,r3,#1
 2140 0092 002B     	 cmp r3,#0
 2141 0094 17D0     	 beq .L157
 939:../cleanflight/src/main/io/asyncfatfs/asyncfatfs.c ****                 if (sdcard_readBlock(physicalSectorIndex, afatfs_cacheSectorGetMemory(cacheSectorIn
 2142              	 .loc 1 939 0
 2143 0096 F869     	 ldr r0,[r7,#28]
 2144 0098 FFF7FEFF 	 bl afatfs_cacheSectorGetMemory
 2145 009c 0346     	 mov r3,r0
 2146 009e F868     	 ldr r0,[r7,#12]
 2147 00a0 1946     	 mov r1,r3
 2148 00a2 484A     	 ldr r2,.L163+4
 2149 00a4 0023     	 movs r3,#0
 2150 00a6 FFF7FEFF 	 bl sdcard_readBlock
 2151 00aa 0346     	 mov r3,r0
 2152 00ac 002B     	 cmp r3,#0
 2153 00ae 08D0     	 beq .L158
 940:../cleanflight/src/main/io/asyncfatfs/asyncfatfs.c ****                     afatfs.cacheDescriptor[cacheSectorIndex].state = AFATFS_CACHE_STATE_READING;
 2154              	 .loc 1 940 0
 2155 00b0 434A     	 ldr r2,.L163
 2156 00b2 FB69     	 ldr r3,[r7,#28]
 2157 00b4 1B01     	 lsls r3,r3,#4
 2158 00b6 1344     	 add r3,r3,r2
 2159 00b8 03F58053 	 add r3,r3,#4096
 2160 00bc 1833     	 adds r3,r3,#24
 2161 00be 0222     	 movs r2,#2
 2162 00c0 9A72     	 strb r2,[r3,#10]
 2163              	.L158:
 941:../cleanflight/src/main/io/asyncfatfs/asyncfatfs.c ****                 }
 942:../cleanflight/src/main/io/asyncfatfs/asyncfatfs.c ****                 return AFATFS_OPERATION_IN_PROGRESS;
 2164              	 .loc 1 942 0
 2165 00c2 0023     	 movs r3,#0
 2166 00c4 78E0     	 b .L149
 2167              	.L157:
 943:../cleanflight/src/main/io/asyncfatfs/asyncfatfs.c ****             }
 944:../cleanflight/src/main/io/asyncfatfs/asyncfatfs.c **** 
 945:../cleanflight/src/main/io/asyncfatfs/asyncfatfs.c ****             // We only get to decide these fields if we're the first ones to cache the sector:
 946:../cleanflight/src/main/io/asyncfatfs/asyncfatfs.c ****             afatfs.cacheDescriptor[cacheSectorIndex].discardable = (sectorFlags & AFATFS_CACHE_DISC
 2168              	 .loc 1 946 0
 2169 00c6 FB79     	 ldrb r3,[r7,#7]
 2170 00c8 03F00803 	 and r3,r3,#8
 2171 00cc 002B     	 cmp r3,#0
 2172 00ce 14BF     	 ite ne
 2173 00d0 0123     	 movne r3,#1
 2174 00d2 0023     	 moveq r3,#0
 2175 00d4 D9B2     	 uxtb r1,r3
 2176 00d6 3A4A     	 ldr r2,.L163
 2177 00d8 FB69     	 ldr r3,[r7,#28]
 2178 00da 1B01     	 lsls r3,r3,#4
 2179 00dc 1344     	 add r3,r3,r2
 2180 00de 03F58053 	 add r3,r3,#4096
 2181 00e2 1833     	 adds r3,r3,#24
 2182 00e4 DA7A     	 ldrb r2,[r3,#11]
 2183 00e6 61F3C712 	 bfi r2,r1,#7,#1
 2184 00ea DA72     	 strb r2,[r3,#11]
 947:../cleanflight/src/main/io/asyncfatfs/asyncfatfs.c **** 
 948:../cleanflight/src/main/io/asyncfatfs/asyncfatfs.c **** #ifdef AFATFS_MIN_MULTIPLE_BLOCK_WRITE_COUNT
 949:../cleanflight/src/main/io/asyncfatfs/asyncfatfs.c ****             // Don't bother pre-erasing for small block sequences
 950:../cleanflight/src/main/io/asyncfatfs/asyncfatfs.c ****             if (eraseCount < AFATFS_MIN_MULTIPLE_BLOCK_WRITE_COUNT) {
 2185              	 .loc 1 950 0
 2186 00ec 3B68     	 ldr r3,[r7]
 2187 00ee 032B     	 cmp r3,#3
 2188 00f0 02D8     	 bhi .L159
 951:../cleanflight/src/main/io/asyncfatfs/asyncfatfs.c ****                 eraseCount = 0;
 2189              	 .loc 1 951 0
 2190 00f2 0023     	 movs r3,#0
 2191 00f4 3B60     	 str r3,[r7]
 2192 00f6 0AE0     	 b .L160
 2193              	.L159:
 2194              	.LBB9:
 952:../cleanflight/src/main/io/asyncfatfs/asyncfatfs.c ****             } else {
 953:../cleanflight/src/main/io/asyncfatfs/asyncfatfs.c ****                 eraseCount = MIN(eraseCount, (uint32_t)UINT16_MAX); // If caller asked for a longer
 2195              	 .loc 1 953 0
 2196 00f8 3B68     	 ldr r3,[r7]
 2197 00fa BB61     	 str r3,[r7,#24]
 2198 00fc 4FF6FF73 	 movw r3,#65535
 2199 0100 7B61     	 str r3,[r7,#20]
 2200 0102 7A69     	 ldr r2,[r7,#20]
 2201 0104 BB69     	 ldr r3,[r7,#24]
 2202 0106 9342     	 cmp r3,r2
 2203 0108 28BF     	 it cs
 2204 010a 1346     	 movcs r3,r2
 2205              	.LBE9:
 2206 010c 3B60     	 str r3,[r7]
 2207              	.L160:
 954:../cleanflight/src/main/io/asyncfatfs/asyncfatfs.c ****             }
 955:../cleanflight/src/main/io/asyncfatfs/asyncfatfs.c **** 
 956:../cleanflight/src/main/io/asyncfatfs/asyncfatfs.c ****             afatfs.cacheDescriptor[cacheSectorIndex].consecutiveEraseBlockCount = eraseCount;
 2208              	 .loc 1 956 0
 2209 010e 3B68     	 ldr r3,[r7]
 2210 0110 99B2     	 uxth r1,r3
 2211 0112 2B4A     	 ldr r2,.L163
 2212 0114 FB69     	 ldr r3,[r7,#28]
 2213 0116 1B01     	 lsls r3,r3,#4
 2214 0118 1344     	 add r3,r3,r2
 2215 011a 03F58053 	 add r3,r3,#4096
 2216 011e 1833     	 adds r3,r3,#24
 2217 0120 0A46     	 mov r2,r1
 2218 0122 1A81     	 strh r2,[r3,#8]
 2219              	.L154:
 957:../cleanflight/src/main/io/asyncfatfs/asyncfatfs.c **** #endif
 958:../cleanflight/src/main/io/asyncfatfs/asyncfatfs.c **** 
 959:../cleanflight/src/main/io/asyncfatfs/asyncfatfs.c ****             FALLTHROUGH;
 960:../cleanflight/src/main/io/asyncfatfs/asyncfatfs.c **** 
 961:../cleanflight/src/main/io/asyncfatfs/asyncfatfs.c ****         case AFATFS_CACHE_STATE_WRITING:
 962:../cleanflight/src/main/io/asyncfatfs/asyncfatfs.c ****         case AFATFS_CACHE_STATE_IN_SYNC:
 963:../cleanflight/src/main/io/asyncfatfs/asyncfatfs.c ****             if ((sectorFlags & AFATFS_CACHE_WRITE) != 0) {
 2220              	 .loc 1 963 0
 2221 0124 FB79     	 ldrb r3,[r7,#7]
 2222 0126 03F00203 	 and r3,r3,#2
 2223 012a 002B     	 cmp r3,#0
 2224 012c 09D0     	 beq .L156
 964:../cleanflight/src/main/io/asyncfatfs/asyncfatfs.c ****                 afatfs_cacheSectorMarkDirty(&afatfs.cacheDescriptor[cacheSectorIndex]);
 2225              	 .loc 1 964 0
 2226 012e FB69     	 ldr r3,[r7,#28]
 2227 0130 03F20113 	 addw r3,r3,#257
 2228 0134 1B01     	 lsls r3,r3,#4
 2229 0136 224A     	 ldr r2,.L163
 2230 0138 1344     	 add r3,r3,r2
 2231 013a 0433     	 adds r3,r3,#4
 2232 013c 1846     	 mov r0,r3
 2233 013e FFF7FEFF 	 bl afatfs_cacheSectorMarkDirty
 2234              	.L156:
 965:../cleanflight/src/main/io/asyncfatfs/asyncfatfs.c ****             }
 966:../cleanflight/src/main/io/asyncfatfs/asyncfatfs.c ****             FALLTHROUGH;
 967:../cleanflight/src/main/io/asyncfatfs/asyncfatfs.c **** 
 968:../cleanflight/src/main/io/asyncfatfs/asyncfatfs.c ****         case AFATFS_CACHE_STATE_DIRTY:
 969:../cleanflight/src/main/io/asyncfatfs/asyncfatfs.c ****             if ((sectorFlags & AFATFS_CACHE_LOCK) != 0) {
 2235              	 .loc 1 969 0
 2236 0142 FB79     	 ldrb r3,[r7,#7]
 2237 0144 03F00403 	 and r3,r3,#4
 2238 0148 002B     	 cmp r3,#0
 2239 014a 0AD0     	 beq .L161
 970:../cleanflight/src/main/io/asyncfatfs/asyncfatfs.c ****                 afatfs.cacheDescriptor[cacheSectorIndex].locked = 1;
 2240              	 .loc 1 970 0
 2241 014c 1C4A     	 ldr r2,.L163
 2242 014e FB69     	 ldr r3,[r7,#28]
 2243 0150 1B01     	 lsls r3,r3,#4
 2244 0152 1344     	 add r3,r3,r2
 2245 0154 03F58053 	 add r3,r3,#4096
 2246 0158 1833     	 adds r3,r3,#24
 2247 015a DA7A     	 ldrb r2,[r3,#11]
 2248 015c 42F00102 	 orr r2,r2,#1
 2249 0160 DA72     	 strb r2,[r3,#11]
 2250              	.L161:
 971:../cleanflight/src/main/io/asyncfatfs/asyncfatfs.c ****             }
 972:../cleanflight/src/main/io/asyncfatfs/asyncfatfs.c ****             if ((sectorFlags & AFATFS_CACHE_RETAIN) != 0) {
 2251              	 .loc 1 972 0
 2252 0162 FB79     	 ldrb r3,[r7,#7]
 2253 0164 03F01003 	 and r3,r3,#16
 2254 0168 002B     	 cmp r3,#0
 2255 016a 19D0     	 beq .L162
 973:../cleanflight/src/main/io/asyncfatfs/asyncfatfs.c ****                 afatfs.cacheDescriptor[cacheSectorIndex].retainCount++;
 2256              	 .loc 1 973 0
 2257 016c 144A     	 ldr r2,.L163
 2258 016e FB69     	 ldr r3,[r7,#28]
 2259 0170 1B01     	 lsls r3,r3,#4
 2260 0172 1344     	 add r3,r3,r2
 2261 0174 03F58053 	 add r3,r3,#4096
 2262 0178 1833     	 adds r3,r3,#24
 2263 017a DB7A     	 ldrb r3,[r3,#11]
 2264 017c C3F34503 	 ubfx r3,r3,#1,#6
 2265 0180 DBB2     	 uxtb r3,r3
 2266 0182 0133     	 adds r3,r3,#1
 2267 0184 03F03F03 	 and r3,r3,#63
 2268 0188 D9B2     	 uxtb r1,r3
 2269 018a 0D4A     	 ldr r2,.L163
 2270 018c FB69     	 ldr r3,[r7,#28]
 2271 018e 1B01     	 lsls r3,r3,#4
 2272 0190 1344     	 add r3,r3,r2
 2273 0192 03F58053 	 add r3,r3,#4096
 2274 0196 1833     	 adds r3,r3,#24
 2275 0198 DA7A     	 ldrb r2,[r3,#11]
 2276 019a 61F34602 	 bfi r2,r1,#1,#6
 2277 019e DA72     	 strb r2,[r3,#11]
 2278              	.L162:
 974:../cleanflight/src/main/io/asyncfatfs/asyncfatfs.c ****             }
 975:../cleanflight/src/main/io/asyncfatfs/asyncfatfs.c **** 
 976:../cleanflight/src/main/io/asyncfatfs/asyncfatfs.c ****             *buffer = afatfs_cacheSectorGetMemory(cacheSectorIndex);
 2279              	 .loc 1 976 0
 2280 01a0 F869     	 ldr r0,[r7,#28]
 2281 01a2 FFF7FEFF 	 bl afatfs_cacheSectorGetMemory
 2282 01a6 0246     	 mov r2,r0
 2283 01a8 BB68     	 ldr r3,[r7,#8]
 2284 01aa 1A60     	 str r2,[r3]
 977:../cleanflight/src/main/io/asyncfatfs/asyncfatfs.c **** 
 978:../cleanflight/src/main/io/asyncfatfs/asyncfatfs.c ****             return AFATFS_OPERATION_SUCCESS;
 2285              	 .loc 1 978 0
 2286 01ac 0123     	 movs r3,#1
 2287 01ae 03E0     	 b .L149
 2288              	.L151:
 979:../cleanflight/src/main/io/asyncfatfs/asyncfatfs.c ****         break;
 980:../cleanflight/src/main/io/asyncfatfs/asyncfatfs.c **** 
 981:../cleanflight/src/main/io/asyncfatfs/asyncfatfs.c ****         default:
 982:../cleanflight/src/main/io/asyncfatfs/asyncfatfs.c ****             // Cache block in unknown state, should never happen
 983:../cleanflight/src/main/io/asyncfatfs/asyncfatfs.c ****             afatfs_assert(false);
 2289              	 .loc 1 983 0
 2290 01b0 0020     	 movs r0,#0
 2291 01b2 FFF7FEFF 	 bl afatfs_assert
 984:../cleanflight/src/main/io/asyncfatfs/asyncfatfs.c ****             return AFATFS_OPERATION_FAILURE;
 2292              	 .loc 1 984 0
 2293 01b6 0223     	 movs r3,#2
 2294              	.L149:
 985:../cleanflight/src/main/io/asyncfatfs/asyncfatfs.c ****     }
 986:../cleanflight/src/main/io/asyncfatfs/asyncfatfs.c **** }
 2295              	 .loc 1 986 0
 2296 01b8 1846     	 mov r0,r3
 2297 01ba 2037     	 adds r7,r7,#32
 2298              	.LCFI131:
 2299              	 .cfi_def_cfa_offset 8
 2300 01bc BD46     	 mov sp,r7
 2301              	.LCFI132:
 2302              	 .cfi_def_cfa_register 13
 2303              	 
 2304 01be 80BD     	 pop {r7,pc}
 2305              	.L164:
 2306              	 .align 2
 2307              	.L163:
 2308 01c0 00000000 	 .word afatfs
 2309 01c4 00000000 	 .word afatfs_sdcardReadComplete
 2310              	 .cfi_endproc
 2311              	.LFE555:
 2313              	 .section .text.afatfs_parseMBR,"ax",%progbits
 2314              	 .align 2
 2315              	 .thumb
 2316              	 .thumb_func
 2318              	afatfs_parseMBR:
 2319              	.LFB556:
 987:../cleanflight/src/main/io/asyncfatfs/asyncfatfs.c **** 
 988:../cleanflight/src/main/io/asyncfatfs/asyncfatfs.c **** /**
 989:../cleanflight/src/main/io/asyncfatfs/asyncfatfs.c ****  * Parse the details out of the given MBR sector (512 bytes long). Return true if a compatible file
 990:../cleanflight/src/main/io/asyncfatfs/asyncfatfs.c ****  */
 991:../cleanflight/src/main/io/asyncfatfs/asyncfatfs.c **** static bool afatfs_parseMBR(const uint8_t *sector)
 992:../cleanflight/src/main/io/asyncfatfs/asyncfatfs.c **** {
 2320              	 .loc 1 992 0
 2321              	 .cfi_startproc
 2322              	 
 2323              	 
 2324              	 
 2325 0000 80B4     	 push {r7}
 2326              	.LCFI133:
 2327              	 .cfi_def_cfa_offset 4
 2328              	 .cfi_offset 7,-4
 2329 0002 85B0     	 sub sp,sp,#20
 2330              	.LCFI134:
 2331              	 .cfi_def_cfa_offset 24
 2332 0004 00AF     	 add r7,sp,#0
 2333              	.LCFI135:
 2334              	 .cfi_def_cfa_register 7
 2335 0006 7860     	 str r0,[r7,#4]
 993:../cleanflight/src/main/io/asyncfatfs/asyncfatfs.c ****     // Check MBR signature
 994:../cleanflight/src/main/io/asyncfatfs/asyncfatfs.c ****     if (sector[AFATFS_SECTOR_SIZE - 2] != 0x55 || sector[AFATFS_SECTOR_SIZE - 1] != 0xAA)
 2336              	 .loc 1 994 0
 2337 0008 7B68     	 ldr r3,[r7,#4]
 2338 000a 03F5FF73 	 add r3,r3,#510
 2339 000e 1B78     	 ldrb r3,[r3]
 2340 0010 552B     	 cmp r3,#85
 2341 0012 05D1     	 bne .L166
 2342              	 .loc 1 994 0 is_stmt 0 discriminator 1
 2343 0014 7B68     	 ldr r3,[r7,#4]
 2344 0016 03F2FF13 	 addw r3,r3,#511
 2345 001a 1B78     	 ldrb r3,[r3]
 2346 001c AA2B     	 cmp r3,#170
 2347 001e 01D0     	 beq .L167
 2348              	.L166:
 995:../cleanflight/src/main/io/asyncfatfs/asyncfatfs.c ****         return false;
 2349              	 .loc 1 995 0 is_stmt 1
 2350 0020 0023     	 movs r3,#0
 2351 0022 3CE0     	 b .L168
 2352              	.L167:
 996:../cleanflight/src/main/io/asyncfatfs/asyncfatfs.c **** 
 997:../cleanflight/src/main/io/asyncfatfs/asyncfatfs.c ****     mbrPartitionEntry_t *partition = (mbrPartitionEntry_t *) (sector + 446);
 2353              	 .loc 1 997 0
 2354 0024 7B68     	 ldr r3,[r7,#4]
 2355 0026 03F5DF73 	 add r3,r3,#446
 2356 002a BB60     	 str r3,[r7,#8]
 2357              	.LBB10:
 998:../cleanflight/src/main/io/asyncfatfs/asyncfatfs.c **** 
 999:../cleanflight/src/main/io/asyncfatfs/asyncfatfs.c ****     for (int i = 0; i < 4; i++) {
 2358              	 .loc 1 999 0
 2359 002c 0023     	 movs r3,#0
 2360 002e FB60     	 str r3,[r7,#12]
 2361 0030 31E0     	 b .L169
 2362              	.L172:
1000:../cleanflight/src/main/io/asyncfatfs/asyncfatfs.c ****         if (
1001:../cleanflight/src/main/io/asyncfatfs/asyncfatfs.c ****             partition[i].lbaBegin > 0
 2363              	 .loc 1 1001 0
 2364 0032 FB68     	 ldr r3,[r7,#12]
 2365 0034 1B01     	 lsls r3,r3,#4
 2366 0036 BA68     	 ldr r2,[r7,#8]
 2367 0038 1344     	 add r3,r3,r2
 2368 003a 9B68     	 ldr r3,[r3,#8]
1000:../cleanflight/src/main/io/asyncfatfs/asyncfatfs.c ****         if (
 2369              	 .loc 1 1000 0
 2370 003c 002B     	 cmp r3,#0
 2371 003e 27D0     	 beq .L170
1002:../cleanflight/src/main/io/asyncfatfs/asyncfatfs.c ****             && (
1003:../cleanflight/src/main/io/asyncfatfs/asyncfatfs.c ****                 partition[i].type == MBR_PARTITION_TYPE_FAT32
 2372              	 .loc 1 1003 0
 2373 0040 FB68     	 ldr r3,[r7,#12]
 2374 0042 1B01     	 lsls r3,r3,#4
 2375 0044 BA68     	 ldr r2,[r7,#8]
 2376 0046 1344     	 add r3,r3,r2
 2377 0048 1B79     	 ldrb r3,[r3,#4]
1002:../cleanflight/src/main/io/asyncfatfs/asyncfatfs.c ****             && (
 2378              	 .loc 1 1002 0
 2379 004a 0B2B     	 cmp r3,#11
 2380 004c 14D0     	 beq .L171
1004:../cleanflight/src/main/io/asyncfatfs/asyncfatfs.c ****                 || partition[i].type == MBR_PARTITION_TYPE_FAT32_LBA
 2381              	 .loc 1 1004 0
 2382 004e FB68     	 ldr r3,[r7,#12]
 2383 0050 1B01     	 lsls r3,r3,#4
 2384 0052 BA68     	 ldr r2,[r7,#8]
 2385 0054 1344     	 add r3,r3,r2
 2386 0056 1B79     	 ldrb r3,[r3,#4]
 2387 0058 0C2B     	 cmp r3,#12
 2388 005a 0DD0     	 beq .L171
1005:../cleanflight/src/main/io/asyncfatfs/asyncfatfs.c ****                 || partition[i].type == MBR_PARTITION_TYPE_FAT16
 2389              	 .loc 1 1005 0
 2390 005c FB68     	 ldr r3,[r7,#12]
 2391 005e 1B01     	 lsls r3,r3,#4
 2392 0060 BA68     	 ldr r2,[r7,#8]
 2393 0062 1344     	 add r3,r3,r2
 2394 0064 1B79     	 ldrb r3,[r3,#4]
 2395 0066 062B     	 cmp r3,#6
 2396 0068 06D0     	 beq .L171
1006:../cleanflight/src/main/io/asyncfatfs/asyncfatfs.c ****                 || partition[i].type == MBR_PARTITION_TYPE_FAT16_LBA
 2397              	 .loc 1 1006 0
 2398 006a FB68     	 ldr r3,[r7,#12]
 2399 006c 1B01     	 lsls r3,r3,#4
 2400 006e BA68     	 ldr r2,[r7,#8]
 2401 0070 1344     	 add r3,r3,r2
 2402 0072 1B79     	 ldrb r3,[r3,#4]
 2403 0074 0E2B     	 cmp r3,#14
 2404 0076 0BD1     	 bne .L170
 2405              	.L171:
1007:../cleanflight/src/main/io/asyncfatfs/asyncfatfs.c ****             )
1008:../cleanflight/src/main/io/asyncfatfs/asyncfatfs.c ****         ) {
1009:../cleanflight/src/main/io/asyncfatfs/asyncfatfs.c ****             afatfs.partitionStartSector = partition[i].lbaBegin;
 2406              	 .loc 1 1009 0
 2407 0078 FB68     	 ldr r3,[r7,#12]
 2408 007a 1B01     	 lsls r3,r3,#4
 2409 007c BA68     	 ldr r2,[r7,#8]
 2410 007e 1344     	 add r3,r3,r2
 2411 0080 9A68     	 ldr r2,[r3,#8]
 2412 0082 0A4B     	 ldr r3,.L173
 2413 0084 03F58D53 	 add r3,r3,#4512
 2414 0088 1C33     	 adds r3,r3,#28
 2415 008a 1A60     	 str r2,[r3]
1010:../cleanflight/src/main/io/asyncfatfs/asyncfatfs.c **** 
1011:../cleanflight/src/main/io/asyncfatfs/asyncfatfs.c ****             return true;
 2416              	 .loc 1 1011 0
 2417 008c 0123     	 movs r3,#1
 2418 008e 06E0     	 b .L168
 2419              	.L170:
 999:../cleanflight/src/main/io/asyncfatfs/asyncfatfs.c ****         if (
 2420              	 .loc 1 999 0 discriminator 2
 2421 0090 FB68     	 ldr r3,[r7,#12]
 2422 0092 0133     	 adds r3,r3,#1
 2423 0094 FB60     	 str r3,[r7,#12]
 2424              	.L169:
 999:../cleanflight/src/main/io/asyncfatfs/asyncfatfs.c ****         if (
 2425              	 .loc 1 999 0 is_stmt 0 discriminator 1
 2426 0096 FB68     	 ldr r3,[r7,#12]
 2427 0098 032B     	 cmp r3,#3
 2428 009a CADD     	 ble .L172
 2429              	.LBE10:
1012:../cleanflight/src/main/io/asyncfatfs/asyncfatfs.c ****         }
1013:../cleanflight/src/main/io/asyncfatfs/asyncfatfs.c ****     }
1014:../cleanflight/src/main/io/asyncfatfs/asyncfatfs.c **** 
1015:../cleanflight/src/main/io/asyncfatfs/asyncfatfs.c ****     return false;
 2430              	 .loc 1 1015 0 is_stmt 1
 2431 009c 0023     	 movs r3,#0
 2432              	.L168:
1016:../cleanflight/src/main/io/asyncfatfs/asyncfatfs.c **** }
 2433              	 .loc 1 1016 0
 2434 009e 1846     	 mov r0,r3
 2435 00a0 1437     	 adds r7,r7,#20
 2436              	.LCFI136:
 2437              	 .cfi_def_cfa_offset 4
 2438 00a2 BD46     	 mov sp,r7
 2439              	.LCFI137:
 2440              	 .cfi_def_cfa_register 13
 2441              	 
 2442 00a4 5DF8047B 	 ldr r7,[sp],#4
 2443              	.LCFI138:
 2444              	 .cfi_restore 7
 2445              	 .cfi_def_cfa_offset 0
 2446 00a8 7047     	 bx lr
 2447              	.L174:
 2448 00aa 00BF     	 .align 2
 2449              	.L173:
 2450 00ac 00000000 	 .word afatfs
 2451              	 .cfi_endproc
 2452              	.LFE556:
 2454              	 .section .text.afatfs_parseVolumeID,"ax",%progbits
 2455              	 .align 2
 2456              	 .thumb
 2457              	 .thumb_func
 2459              	afatfs_parseVolumeID:
 2460              	.LFB557:
1017:../cleanflight/src/main/io/asyncfatfs/asyncfatfs.c **** 
1018:../cleanflight/src/main/io/asyncfatfs/asyncfatfs.c **** static bool afatfs_parseVolumeID(const uint8_t *sector)
1019:../cleanflight/src/main/io/asyncfatfs/asyncfatfs.c **** {
 2461              	 .loc 1 1019 0
 2462              	 .cfi_startproc
 2463              	 
 2464              	 
 2465 0000 80B5     	 push {r7,lr}
 2466              	.LCFI139:
 2467              	 .cfi_def_cfa_offset 8
 2468              	 .cfi_offset 7,-8
 2469              	 .cfi_offset 14,-4
 2470 0002 86B0     	 sub sp,sp,#24
 2471              	.LCFI140:
 2472              	 .cfi_def_cfa_offset 32
 2473 0004 00AF     	 add r7,sp,#0
 2474              	.LCFI141:
 2475              	 .cfi_def_cfa_register 7
 2476 0006 7860     	 str r0,[r7,#4]
1020:../cleanflight/src/main/io/asyncfatfs/asyncfatfs.c ****     fatVolumeID_t *volume = (fatVolumeID_t *) sector;
 2477              	 .loc 1 1020 0
 2478 0008 7B68     	 ldr r3,[r7,#4]
 2479 000a 7B61     	 str r3,[r7,#20]
1021:../cleanflight/src/main/io/asyncfatfs/asyncfatfs.c **** 
1022:../cleanflight/src/main/io/asyncfatfs/asyncfatfs.c ****     afatfs.filesystemType = FAT_FILESYSTEM_TYPE_INVALID;
 2480              	 .loc 1 1022 0
 2481 000c 7C4B     	 ldr r3,.L190
 2482 000e 0022     	 movs r2,#0
 2483 0010 1A70     	 strb r2,[r3]
1023:../cleanflight/src/main/io/asyncfatfs/asyncfatfs.c **** 
1024:../cleanflight/src/main/io/asyncfatfs/asyncfatfs.c ****     if (volume->bytesPerSector != AFATFS_SECTOR_SIZE || volume->numFATs != AFATFS_NUM_FATS
 2484              	 .loc 1 1024 0
 2485 0012 7B69     	 ldr r3,[r7,#20]
 2486 0014 B3F80B30 	 ldrh r3,[r3,#11]
 2487 0018 9BB2     	 uxth r3,r3
 2488 001a B3F5007F 	 cmp r3,#512
 2489 001e 0FD1     	 bne .L176
 2490              	 .loc 1 1024 0 is_stmt 0 discriminator 1
 2491 0020 7B69     	 ldr r3,[r7,#20]
 2492 0022 1B7C     	 ldrb r3,[r3,#16]
 2493 0024 022B     	 cmp r3,#2
 2494 0026 0BD1     	 bne .L176
1025:../cleanflight/src/main/io/asyncfatfs/asyncfatfs.c ****             || sector[510] != FAT_VOLUME_ID_SIGNATURE_1 || sector[511] != FAT_VOLUME_ID_SIGNATURE_2
 2495              	 .loc 1 1025 0 is_stmt 1
 2496 0028 7B68     	 ldr r3,[r7,#4]
 2497 002a 03F5FF73 	 add r3,r3,#510
 2498 002e 1B78     	 ldrb r3,[r3]
 2499 0030 552B     	 cmp r3,#85
 2500 0032 05D1     	 bne .L176
 2501              	 .loc 1 1025 0 is_stmt 0 discriminator 1
 2502 0034 7B68     	 ldr r3,[r7,#4]
 2503 0036 03F2FF13 	 addw r3,r3,#511
 2504 003a 1B78     	 ldrb r3,[r3]
 2505 003c AA2B     	 cmp r3,#170
 2506 003e 01D0     	 beq .L177
 2507              	.L176:
1026:../cleanflight/src/main/io/asyncfatfs/asyncfatfs.c ****         return false;
 2508              	 .loc 1 1026 0 is_stmt 1
 2509 0040 0023     	 movs r3,#0
 2510 0042 D9E0     	 b .L178
 2511              	.L177:
1027:../cleanflight/src/main/io/asyncfatfs/asyncfatfs.c ****     }
1028:../cleanflight/src/main/io/asyncfatfs/asyncfatfs.c **** 
1029:../cleanflight/src/main/io/asyncfatfs/asyncfatfs.c ****     afatfs.fatStartSector = afatfs.partitionStartSector + volume->reservedSectorCount;
 2512              	 .loc 1 1029 0
 2513 0044 6E4B     	 ldr r3,.L190
 2514 0046 03F58D53 	 add r3,r3,#4512
 2515 004a 1C33     	 adds r3,r3,#28
 2516 004c 1B68     	 ldr r3,[r3]
 2517 004e 7A69     	 ldr r2,[r7,#20]
 2518 0050 D289     	 ldrh r2,[r2,#14]
 2519 0052 92B2     	 uxth r2,r2
 2520 0054 1A44     	 add r2,r2,r3
 2521 0056 6A4B     	 ldr r3,.L190
 2522 0058 03F58E53 	 add r3,r3,#4544
 2523 005c 1A60     	 str r2,[r3]
1030:../cleanflight/src/main/io/asyncfatfs/asyncfatfs.c **** 
1031:../cleanflight/src/main/io/asyncfatfs/asyncfatfs.c ****     afatfs.sectorsPerCluster = volume->sectorsPerCluster;
 2524              	 .loc 1 1031 0
 2525 005e 7B69     	 ldr r3,[r7,#20]
 2526 0060 5B7B     	 ldrb r3,[r3,#13]
 2527 0062 1A46     	 mov r2,r3
 2528 0064 664B     	 ldr r3,.L190
 2529 0066 03F58E53 	 add r3,r3,#4544
 2530 006a 1033     	 adds r3,r3,#16
 2531 006c 1A60     	 str r2,[r3]
1032:../cleanflight/src/main/io/asyncfatfs/asyncfatfs.c ****     if (afatfs.sectorsPerCluster < 1 || afatfs.sectorsPerCluster > 128 || !isPowerOfTwo(afatfs.sect
 2532              	 .loc 1 1032 0
 2533 006e 644B     	 ldr r3,.L190
 2534 0070 03F58E53 	 add r3,r3,#4544
 2535 0074 1033     	 adds r3,r3,#16
 2536 0076 1B68     	 ldr r3,[r3]
 2537 0078 002B     	 cmp r3,#0
 2538 007a 14D0     	 beq .L179
 2539              	 .loc 1 1032 0 is_stmt 0 discriminator 1
 2540 007c 604B     	 ldr r3,.L190
 2541 007e 03F58E53 	 add r3,r3,#4544
 2542 0082 1033     	 adds r3,r3,#16
 2543 0084 1B68     	 ldr r3,[r3]
 2544 0086 802B     	 cmp r3,#128
 2545 0088 0DD8     	 bhi .L179
 2546              	 .loc 1 1032 0 discriminator 2
 2547 008a 5D4B     	 ldr r3,.L190
 2548 008c 03F58E53 	 add r3,r3,#4544
 2549 0090 1033     	 adds r3,r3,#16
 2550 0092 1B68     	 ldr r3,[r3]
 2551 0094 1846     	 mov r0,r3
 2552 0096 FFF7FEFF 	 bl isPowerOfTwo
 2553 009a 0346     	 mov r3,r0
 2554 009c 83F00103 	 eor r3,r3,#1
 2555 00a0 DBB2     	 uxtb r3,r3
 2556 00a2 002B     	 cmp r3,#0
 2557 00a4 01D0     	 beq .L180
 2558              	.L179:
1033:../cleanflight/src/main/io/asyncfatfs/asyncfatfs.c ****         return false;
 2559              	 .loc 1 1033 0 is_stmt 1
 2560 00a6 0023     	 movs r3,#0
 2561 00a8 A6E0     	 b .L178
 2562              	.L180:
1034:../cleanflight/src/main/io/asyncfatfs/asyncfatfs.c ****     }
1035:../cleanflight/src/main/io/asyncfatfs/asyncfatfs.c **** 
1036:../cleanflight/src/main/io/asyncfatfs/asyncfatfs.c ****     afatfs.byteInClusterMask = AFATFS_SECTOR_SIZE * afatfs.sectorsPerCluster - 1;
 2563              	 .loc 1 1036 0
 2564 00aa 554B     	 ldr r3,.L190
 2565 00ac 03F58E53 	 add r3,r3,#4544
 2566 00b0 1033     	 adds r3,r3,#16
 2567 00b2 1B68     	 ldr r3,[r3]
 2568 00b4 5B02     	 lsls r3,r3,#9
 2569 00b6 5A1E     	 subs r2,r3,#1
 2570 00b8 514B     	 ldr r3,.L190
 2571 00ba 03F58E53 	 add r3,r3,#4544
 2572 00be 1833     	 adds r3,r3,#24
 2573 00c0 1A60     	 str r2,[r3]
1037:../cleanflight/src/main/io/asyncfatfs/asyncfatfs.c **** 
1038:../cleanflight/src/main/io/asyncfatfs/asyncfatfs.c ****     afatfs.fatSectors = volume->FATSize16 != 0 ? volume->FATSize16 : volume->fatDescriptor.fat32.FA
 2574              	 .loc 1 1038 0
 2575 00c2 7B69     	 ldr r3,[r7,#20]
 2576 00c4 DB8A     	 ldrh r3,[r3,#22]
 2577 00c6 9BB2     	 uxth r3,r3
 2578 00c8 002B     	 cmp r3,#0
 2579 00ca 04D0     	 beq .L181
 2580              	 .loc 1 1038 0 is_stmt 0 discriminator 1
 2581 00cc 7B69     	 ldr r3,[r7,#20]
 2582 00ce DB8A     	 ldrh r3,[r3,#22]
 2583 00d0 9BB2     	 uxth r3,r3
 2584 00d2 1A46     	 mov r2,r3
 2585 00d4 01E0     	 b .L182
 2586              	.L181:
 2587              	 .loc 1 1038 0 discriminator 2
 2588 00d6 7B69     	 ldr r3,[r7,#20]
 2589 00d8 5A6A     	 ldr r2,[r3,#36]
 2590              	.L182:
 2591              	 .loc 1 1038 0 discriminator 4
 2592 00da 494B     	 ldr r3,.L190
 2593 00dc 03F58E53 	 add r3,r3,#4544
 2594 00e0 0433     	 adds r3,r3,#4
 2595 00e2 1A60     	 str r2,[r3]
1039:../cleanflight/src/main/io/asyncfatfs/asyncfatfs.c **** 
1040:../cleanflight/src/main/io/asyncfatfs/asyncfatfs.c ****     // Always zero on FAT32 since rootEntryCount is always zero (this is non-zero on FAT16)
1041:../cleanflight/src/main/io/asyncfatfs/asyncfatfs.c ****     afatfs.rootDirectorySectors = ((volume->rootEntryCount * FAT_DIRECTORY_ENTRY_SIZE) + (volume->b
 2596              	 .loc 1 1041 0 is_stmt 1 discriminator 4
 2597 00e4 7B69     	 ldr r3,[r7,#20]
 2598 00e6 B3F81130 	 ldrh r3,[r3,#17]
 2599 00ea 9BB2     	 uxth r3,r3
 2600 00ec 5A01     	 lsls r2,r3,#5
 2601 00ee 7B69     	 ldr r3,[r7,#20]
 2602 00f0 B3F80B30 	 ldrh r3,[r3,#11]
 2603 00f4 9BB2     	 uxth r3,r3
 2604 00f6 013B     	 subs r3,r3,#1
 2605 00f8 1344     	 add r3,r3,r2
 2606 00fa 7A69     	 ldr r2,[r7,#20]
 2607 00fc B2F80B20 	 ldrh r2,[r2,#11]
 2608 0100 92B2     	 uxth r2,r2
 2609 0102 93FBF2F3 	 sdiv r3,r3,r2
 2610 0106 1A46     	 mov r2,r3
 2611 0108 3D4B     	 ldr r3,.L190
 2612 010a 03F58F53 	 add r3,r3,#4576
 2613 010e 1A60     	 str r2,[r3]
1042:../cleanflight/src/main/io/asyncfatfs/asyncfatfs.c ****     uint32_t totalSectors = volume->totalSectors16 != 0 ? volume->totalSectors16 : volume->totalSec
 2614              	 .loc 1 1042 0 discriminator 4
 2615 0110 7B69     	 ldr r3,[r7,#20]
 2616 0112 B3F81330 	 ldrh r3,[r3,#19]
 2617 0116 9BB2     	 uxth r3,r3
 2618 0118 002B     	 cmp r3,#0
 2619 011a 04D0     	 beq .L183
 2620              	 .loc 1 1042 0 is_stmt 0 discriminator 1
 2621 011c 7B69     	 ldr r3,[r7,#20]
 2622 011e B3F81330 	 ldrh r3,[r3,#19]
 2623 0122 9BB2     	 uxth r3,r3
 2624 0124 01E0     	 b .L184
 2625              	.L183:
 2626              	 .loc 1 1042 0 discriminator 2
 2627 0126 7B69     	 ldr r3,[r7,#20]
 2628 0128 1B6A     	 ldr r3,[r3,#32]
 2629              	.L184:
 2630              	 .loc 1 1042 0 discriminator 4
 2631 012a 3B61     	 str r3,[r7,#16]
1043:../cleanflight/src/main/io/asyncfatfs/asyncfatfs.c ****     uint32_t dataSectors = totalSectors - (volume->reservedSectorCount + (AFATFS_NUM_FATS * afatfs.
 2632              	 .loc 1 1043 0 is_stmt 1 discriminator 4
 2633 012c 7B69     	 ldr r3,[r7,#20]
 2634 012e DB89     	 ldrh r3,[r3,#14]
 2635 0130 9BB2     	 uxth r3,r3
 2636 0132 1A46     	 mov r2,r3
 2637 0134 324B     	 ldr r3,.L190
 2638 0136 03F58E53 	 add r3,r3,#4544
 2639 013a 0433     	 adds r3,r3,#4
 2640 013c 1B68     	 ldr r3,[r3]
 2641 013e 5B00     	 lsls r3,r3,#1
 2642 0140 1A44     	 add r2,r2,r3
 2643 0142 2F4B     	 ldr r3,.L190
 2644 0144 03F58F53 	 add r3,r3,#4576
 2645 0148 1B68     	 ldr r3,[r3]
 2646 014a 1344     	 add r3,r3,r2
 2647 014c 3A69     	 ldr r2,[r7,#16]
 2648 014e D31A     	 subs r3,r2,r3
 2649 0150 FB60     	 str r3,[r7,#12]
1044:../cleanflight/src/main/io/asyncfatfs/asyncfatfs.c **** 
1045:../cleanflight/src/main/io/asyncfatfs/asyncfatfs.c ****     afatfs.numClusters = dataSectors / volume->sectorsPerCluster;
 2650              	 .loc 1 1045 0 discriminator 4
 2651 0152 7B69     	 ldr r3,[r7,#20]
 2652 0154 5B7B     	 ldrb r3,[r3,#13]
 2653 0156 1A46     	 mov r2,r3
 2654 0158 FB68     	 ldr r3,[r7,#12]
 2655 015a B3FBF2F2 	 udiv r2,r3,r2
 2656 015e 284B     	 ldr r3,.L190
 2657 0160 03F58E53 	 add r3,r3,#4544
 2658 0164 0833     	 adds r3,r3,#8
 2659 0166 1A60     	 str r2,[r3]
1046:../cleanflight/src/main/io/asyncfatfs/asyncfatfs.c **** 
1047:../cleanflight/src/main/io/asyncfatfs/asyncfatfs.c ****     if (afatfs.numClusters <= FAT12_MAX_CLUSTERS) {
 2660              	 .loc 1 1047 0 discriminator 4
 2661 0168 254B     	 ldr r3,.L190
 2662 016a 03F58E53 	 add r3,r3,#4544
 2663 016e 0833     	 adds r3,r3,#8
 2664 0170 1B68     	 ldr r3,[r3]
 2665 0172 40F6F472 	 movw r2,#4084
 2666 0176 9342     	 cmp r3,r2
 2667 0178 04D8     	 bhi .L185
1048:../cleanflight/src/main/io/asyncfatfs/asyncfatfs.c ****         afatfs.filesystemType = FAT_FILESYSTEM_TYPE_FAT12;
 2668              	 .loc 1 1048 0
 2669 017a 214B     	 ldr r3,.L190
 2670 017c 0122     	 movs r2,#1
 2671 017e 1A70     	 strb r2,[r3]
1049:../cleanflight/src/main/io/asyncfatfs/asyncfatfs.c **** 
1050:../cleanflight/src/main/io/asyncfatfs/asyncfatfs.c ****         return false; // FAT12 is not a supported filesystem
 2672              	 .loc 1 1050 0
 2673 0180 0023     	 movs r3,#0
 2674 0182 39E0     	 b .L178
 2675              	.L185:
1051:../cleanflight/src/main/io/asyncfatfs/asyncfatfs.c ****     } else if (afatfs.numClusters <= FAT16_MAX_CLUSTERS) {
 2676              	 .loc 1 1051 0
 2677 0184 1E4B     	 ldr r3,.L190
 2678 0186 03F58E53 	 add r3,r3,#4544
 2679 018a 0833     	 adds r3,r3,#8
 2680 018c 1B68     	 ldr r3,[r3]
 2681 018e 4FF6F472 	 movw r2,#65524
 2682 0192 9342     	 cmp r3,r2
 2683 0194 03D8     	 bhi .L186
1052:../cleanflight/src/main/io/asyncfatfs/asyncfatfs.c ****         afatfs.filesystemType = FAT_FILESYSTEM_TYPE_FAT16;
 2684              	 .loc 1 1052 0
 2685 0196 1A4B     	 ldr r3,.L190
 2686 0198 0222     	 movs r2,#2
 2687 019a 1A70     	 strb r2,[r3]
 2688 019c 02E0     	 b .L187
 2689              	.L186:
1053:../cleanflight/src/main/io/asyncfatfs/asyncfatfs.c ****     } else {
1054:../cleanflight/src/main/io/asyncfatfs/asyncfatfs.c ****         afatfs.filesystemType = FAT_FILESYSTEM_TYPE_FAT32;
 2690              	 .loc 1 1054 0
 2691 019e 184B     	 ldr r3,.L190
 2692 01a0 0322     	 movs r2,#3
 2693 01a2 1A70     	 strb r2,[r3]
 2694              	.L187:
1055:../cleanflight/src/main/io/asyncfatfs/asyncfatfs.c ****     }
1056:../cleanflight/src/main/io/asyncfatfs/asyncfatfs.c **** 
1057:../cleanflight/src/main/io/asyncfatfs/asyncfatfs.c ****     if (afatfs.filesystemType == FAT_FILESYSTEM_TYPE_FAT32) {
 2695              	 .loc 1 1057 0
 2696 01a4 164B     	 ldr r3,.L190
 2697 01a6 1B78     	 ldrb r3,[r3]
 2698 01a8 032B     	 cmp r3,#3
 2699 01aa 07D1     	 bne .L188
1058:../cleanflight/src/main/io/asyncfatfs/asyncfatfs.c ****         afatfs.rootDirectoryCluster = volume->fatDescriptor.fat32.rootCluster;
 2700              	 .loc 1 1058 0
 2701 01ac 7B69     	 ldr r3,[r7,#20]
 2702 01ae DA6A     	 ldr r2,[r3,#44]
 2703 01b0 134B     	 ldr r3,.L190
 2704 01b2 03F58E53 	 add r3,r3,#4544
 2705 01b6 1C33     	 adds r3,r3,#28
 2706 01b8 1A60     	 str r2,[r3]
 2707 01ba 05E0     	 b .L189
 2708              	.L188:
1059:../cleanflight/src/main/io/asyncfatfs/asyncfatfs.c ****     } else {
1060:../cleanflight/src/main/io/asyncfatfs/asyncfatfs.c ****         // FAT16 doesn't store the root directory in clusters
1061:../cleanflight/src/main/io/asyncfatfs/asyncfatfs.c ****         afatfs.rootDirectoryCluster = 0;
 2709              	 .loc 1 1061 0
 2710 01bc 104B     	 ldr r3,.L190
 2711 01be 03F58E53 	 add r3,r3,#4544
 2712 01c2 1C33     	 adds r3,r3,#28
 2713 01c4 0022     	 movs r2,#0
 2714 01c6 1A60     	 str r2,[r3]
 2715              	.L189:
1062:../cleanflight/src/main/io/asyncfatfs/asyncfatfs.c ****     }
1063:../cleanflight/src/main/io/asyncfatfs/asyncfatfs.c **** 
1064:../cleanflight/src/main/io/asyncfatfs/asyncfatfs.c ****     uint32_t endOfFATs = afatfs.fatStartSector + AFATFS_NUM_FATS * afatfs.fatSectors;
 2716              	 .loc 1 1064 0
 2717 01c8 0D4B     	 ldr r3,.L190
 2718 01ca 03F58E53 	 add r3,r3,#4544
 2719 01ce 1A68     	 ldr r2,[r3]
 2720 01d0 0B4B     	 ldr r3,.L190
 2721 01d2 03F58E53 	 add r3,r3,#4544
 2722 01d6 0433     	 adds r3,r3,#4
 2723 01d8 1B68     	 ldr r3,[r3]
 2724 01da 5B00     	 lsls r3,r3,#1
 2725 01dc 1344     	 add r3,r3,r2
 2726 01de BB60     	 str r3,[r7,#8]
1065:../cleanflight/src/main/io/asyncfatfs/asyncfatfs.c **** 
1066:../cleanflight/src/main/io/asyncfatfs/asyncfatfs.c ****     afatfs.clusterStartSector = endOfFATs + afatfs.rootDirectorySectors;
 2727              	 .loc 1 1066 0
 2728 01e0 074B     	 ldr r3,.L190
 2729 01e2 03F58F53 	 add r3,r3,#4576
 2730 01e6 1A68     	 ldr r2,[r3]
 2731 01e8 BB68     	 ldr r3,[r7,#8]
 2732 01ea 1A44     	 add r2,r2,r3
 2733 01ec 044B     	 ldr r3,.L190
 2734 01ee 03F58E53 	 add r3,r3,#4544
 2735 01f2 0C33     	 adds r3,r3,#12
 2736 01f4 1A60     	 str r2,[r3]
1067:../cleanflight/src/main/io/asyncfatfs/asyncfatfs.c **** 
1068:../cleanflight/src/main/io/asyncfatfs/asyncfatfs.c ****     return true;
 2737              	 .loc 1 1068 0
 2738 01f6 0123     	 movs r3,#1
 2739              	.L178:
1069:../cleanflight/src/main/io/asyncfatfs/asyncfatfs.c **** }
 2740              	 .loc 1 1069 0
 2741 01f8 1846     	 mov r0,r3
 2742 01fa 1837     	 adds r7,r7,#24
 2743              	.LCFI142:
 2744              	 .cfi_def_cfa_offset 8
 2745 01fc BD46     	 mov sp,r7
 2746              	.LCFI143:
 2747              	 .cfi_def_cfa_register 13
 2748              	 
 2749 01fe 80BD     	 pop {r7,pc}
 2750              	.L191:
 2751              	 .align 2
 2752              	.L190:
 2753 0200 00000000 	 .word afatfs
 2754              	 .cfi_endproc
 2755              	.LFE557:
 2757              	 .section .text.afatfs_getFATPositionForCluster,"ax",%progbits
 2758              	 .align 2
 2759              	 .thumb
 2760              	 .thumb_func
 2762              	afatfs_getFATPositionForCluster:
 2763              	.LFB558:
1070:../cleanflight/src/main/io/asyncfatfs/asyncfatfs.c **** 
1071:../cleanflight/src/main/io/asyncfatfs/asyncfatfs.c **** /**
1072:../cleanflight/src/main/io/asyncfatfs/asyncfatfs.c ****  * Get the position of the FAT entry for the cluster with the given number.
1073:../cleanflight/src/main/io/asyncfatfs/asyncfatfs.c ****  */
1074:../cleanflight/src/main/io/asyncfatfs/asyncfatfs.c **** static void afatfs_getFATPositionForCluster(uint32_t cluster, uint32_t *fatSectorIndex, uint32_t *f
1075:../cleanflight/src/main/io/asyncfatfs/asyncfatfs.c **** {
 2764              	 .loc 1 1075 0
 2765              	 .cfi_startproc
 2766              	 
 2767              	 
 2768 0000 80B5     	 push {r7,lr}
 2769              	.LCFI144:
 2770              	 .cfi_def_cfa_offset 8
 2771              	 .cfi_offset 7,-8
 2772              	 .cfi_offset 14,-4
 2773 0002 86B0     	 sub sp,sp,#24
 2774              	.LCFI145:
 2775              	 .cfi_def_cfa_offset 32
 2776 0004 00AF     	 add r7,sp,#0
 2777              	.LCFI146:
 2778              	 .cfi_def_cfa_register 7
 2779 0006 F860     	 str r0,[r7,#12]
 2780 0008 B960     	 str r1,[r7,#8]
 2781 000a 7A60     	 str r2,[r7,#4]
1076:../cleanflight/src/main/io/asyncfatfs/asyncfatfs.c ****     if (afatfs.filesystemType == FAT_FILESYSTEM_TYPE_FAT16) {
 2782              	 .loc 1 1076 0
 2783 000c 134B     	 ldr r3,.L195
 2784 000e 1B78     	 ldrb r3,[r3]
 2785 0010 022B     	 cmp r3,#2
 2786 0012 0FD1     	 bne .L193
 2787              	.LBB11:
1077:../cleanflight/src/main/io/asyncfatfs/asyncfatfs.c ****         uint32_t entriesPerFATSector = AFATFS_SECTOR_SIZE / sizeof(uint16_t);
 2788              	 .loc 1 1077 0
 2789 0014 4FF48073 	 mov r3,#256
 2790 0018 7B61     	 str r3,[r7,#20]
1078:../cleanflight/src/main/io/asyncfatfs/asyncfatfs.c **** 
1079:../cleanflight/src/main/io/asyncfatfs/asyncfatfs.c ****         *fatSectorIndex = cluster / entriesPerFATSector;
 2791              	 .loc 1 1079 0
 2792 001a FA68     	 ldr r2,[r7,#12]
 2793 001c 7B69     	 ldr r3,[r7,#20]
 2794 001e B2FBF3F2 	 udiv r2,r2,r3
 2795 0022 BB68     	 ldr r3,[r7,#8]
 2796 0024 1A60     	 str r2,[r3]
1080:../cleanflight/src/main/io/asyncfatfs/asyncfatfs.c ****         *fatSectorEntryIndex = cluster & (entriesPerFATSector - 1);
 2797              	 .loc 1 1080 0
 2798 0026 7B69     	 ldr r3,[r7,#20]
 2799 0028 5A1E     	 subs r2,r3,#1
 2800 002a FB68     	 ldr r3,[r7,#12]
 2801 002c 1A40     	 ands r2,r2,r3
 2802 002e 7B68     	 ldr r3,[r7,#4]
 2803 0030 1A60     	 str r2,[r3]
 2804              	.LBE11:
 2805 0032 10E0     	 b .L192
 2806              	.L193:
 2807              	.LBB12:
1081:../cleanflight/src/main/io/asyncfatfs/asyncfatfs.c ****     } else {
1082:../cleanflight/src/main/io/asyncfatfs/asyncfatfs.c ****         uint32_t entriesPerFATSector = AFATFS_SECTOR_SIZE / sizeof(uint32_t);
 2808              	 .loc 1 1082 0
 2809 0034 8023     	 movs r3,#128
 2810 0036 3B61     	 str r3,[r7,#16]
1083:../cleanflight/src/main/io/asyncfatfs/asyncfatfs.c **** 
1084:../cleanflight/src/main/io/asyncfatfs/asyncfatfs.c ****         *fatSectorIndex = fat32_decodeClusterNumber(cluster) / entriesPerFATSector;
 2811              	 .loc 1 1084 0
 2812 0038 F868     	 ldr r0,[r7,#12]
 2813 003a FFF7FEFF 	 bl fat32_decodeClusterNumber
 2814 003e 0246     	 mov r2,r0
 2815 0040 3B69     	 ldr r3,[r7,#16]
 2816 0042 B2FBF3F2 	 udiv r2,r2,r3
 2817 0046 BB68     	 ldr r3,[r7,#8]
 2818 0048 1A60     	 str r2,[r3]
1085:../cleanflight/src/main/io/asyncfatfs/asyncfatfs.c ****         *fatSectorEntryIndex = cluster & (entriesPerFATSector - 1);
 2819              	 .loc 1 1085 0
 2820 004a 3B69     	 ldr r3,[r7,#16]
 2821 004c 5A1E     	 subs r2,r3,#1
 2822 004e FB68     	 ldr r3,[r7,#12]
 2823 0050 1A40     	 ands r2,r2,r3
 2824 0052 7B68     	 ldr r3,[r7,#4]
 2825 0054 1A60     	 str r2,[r3]
 2826              	.L192:
 2827              	.LBE12:
1086:../cleanflight/src/main/io/asyncfatfs/asyncfatfs.c ****     }
1087:../cleanflight/src/main/io/asyncfatfs/asyncfatfs.c **** }
 2828              	 .loc 1 1087 0
 2829 0056 1837     	 adds r7,r7,#24
 2830              	.LCFI147:
 2831              	 .cfi_def_cfa_offset 8
 2832 0058 BD46     	 mov sp,r7
 2833              	.LCFI148:
 2834              	 .cfi_def_cfa_register 13
 2835              	 
 2836 005a 80BD     	 pop {r7,pc}
 2837              	.L196:
 2838              	 .align 2
 2839              	.L195:
 2840 005c 00000000 	 .word afatfs
 2841              	 .cfi_endproc
 2842              	.LFE558:
 2844              	 .section .text.afatfs_FATIsEndOfChainMarker,"ax",%progbits
 2845              	 .align 2
 2846              	 .thumb
 2847              	 .thumb_func
 2849              	afatfs_FATIsEndOfChainMarker:
 2850              	.LFB559:
1088:../cleanflight/src/main/io/asyncfatfs/asyncfatfs.c **** 
1089:../cleanflight/src/main/io/asyncfatfs/asyncfatfs.c **** static bool afatfs_FATIsEndOfChainMarker(uint32_t clusterNumber)
1090:../cleanflight/src/main/io/asyncfatfs/asyncfatfs.c **** {
 2851              	 .loc 1 1090 0
 2852              	 .cfi_startproc
 2853              	 
 2854              	 
 2855 0000 80B5     	 push {r7,lr}
 2856              	.LCFI149:
 2857              	 .cfi_def_cfa_offset 8
 2858              	 .cfi_offset 7,-8
 2859              	 .cfi_offset 14,-4
 2860 0002 82B0     	 sub sp,sp,#8
 2861              	.LCFI150:
 2862              	 .cfi_def_cfa_offset 16
 2863 0004 00AF     	 add r7,sp,#0
 2864              	.LCFI151:
 2865              	 .cfi_def_cfa_register 7
 2866 0006 7860     	 str r0,[r7,#4]
1091:../cleanflight/src/main/io/asyncfatfs/asyncfatfs.c ****     if (afatfs.filesystemType == FAT_FILESYSTEM_TYPE_FAT32) {
 2867              	 .loc 1 1091 0
 2868 0008 094B     	 ldr r3,.L200
 2869 000a 1B78     	 ldrb r3,[r3]
 2870 000c 032B     	 cmp r3,#3
 2871 000e 04D1     	 bne .L198
1092:../cleanflight/src/main/io/asyncfatfs/asyncfatfs.c ****         return fat32_isEndOfChainMarker(clusterNumber);
 2872              	 .loc 1 1092 0
 2873 0010 7868     	 ldr r0,[r7,#4]
 2874 0012 FFF7FEFF 	 bl fat32_isEndOfChainMarker
 2875 0016 0346     	 mov r3,r0
 2876 0018 05E0     	 b .L199
 2877              	.L198:
1093:../cleanflight/src/main/io/asyncfatfs/asyncfatfs.c ****     } else {
1094:../cleanflight/src/main/io/asyncfatfs/asyncfatfs.c ****         return fat16_isEndOfChainMarker(clusterNumber);
 2878              	 .loc 1 1094 0
 2879 001a 7B68     	 ldr r3,[r7,#4]
 2880 001c 9BB2     	 uxth r3,r3
 2881 001e 1846     	 mov r0,r3
 2882 0020 FFF7FEFF 	 bl fat16_isEndOfChainMarker
 2883 0024 0346     	 mov r3,r0
 2884              	.L199:
1095:../cleanflight/src/main/io/asyncfatfs/asyncfatfs.c ****     }
1096:../cleanflight/src/main/io/asyncfatfs/asyncfatfs.c **** }
 2885              	 .loc 1 1096 0
 2886 0026 1846     	 mov r0,r3
 2887 0028 0837     	 adds r7,r7,#8
 2888              	.LCFI152:
 2889              	 .cfi_def_cfa_offset 8
 2890 002a BD46     	 mov sp,r7
 2891              	.LCFI153:
 2892              	 .cfi_def_cfa_register 13
 2893              	 
 2894 002c 80BD     	 pop {r7,pc}
 2895              	.L201:
 2896 002e 00BF     	 .align 2
 2897              	.L200:
 2898 0030 00000000 	 .word afatfs
 2899              	 .cfi_endproc
 2900              	.LFE559:
 2902              	 .section .text.afatfs_FATGetNextCluster,"ax",%progbits
 2903              	 .align 2
 2904              	 .thumb
 2905              	 .thumb_func
 2907              	afatfs_FATGetNextCluster:
 2908              	.LFB560:
1097:../cleanflight/src/main/io/asyncfatfs/asyncfatfs.c **** 
1098:../cleanflight/src/main/io/asyncfatfs/asyncfatfs.c **** /**
1099:../cleanflight/src/main/io/asyncfatfs/asyncfatfs.c ****  * Look up the FAT to find out which cluster follows the one with the given number and store it int
1100:../cleanflight/src/main/io/asyncfatfs/asyncfatfs.c ****  *
1101:../cleanflight/src/main/io/asyncfatfs/asyncfatfs.c ****  * Use fat_isFreeSpace() and fat_isEndOfChainMarker() on nextCluster to distinguish those special v
1102:../cleanflight/src/main/io/asyncfatfs/asyncfatfs.c ****  * cluster numbers.
1103:../cleanflight/src/main/io/asyncfatfs/asyncfatfs.c ****  *
1104:../cleanflight/src/main/io/asyncfatfs/asyncfatfs.c ****  * Note that if you're trying to find the next cluster of a file, you should be calling afatfs_file
1105:../cleanflight/src/main/io/asyncfatfs/asyncfatfs.c ****  * instead, as that one supports contiguous freefile-based files (which needn't consult the FAT).
1106:../cleanflight/src/main/io/asyncfatfs/asyncfatfs.c ****  *
1107:../cleanflight/src/main/io/asyncfatfs/asyncfatfs.c ****  * Returns:
1108:../cleanflight/src/main/io/asyncfatfs/asyncfatfs.c ****  *     AFATFS_OPERATION_IN_PROGRESS - FS is busy right now, call again later
1109:../cleanflight/src/main/io/asyncfatfs/asyncfatfs.c ****  *     AFATFS_OPERATION_SUCCESS     - *nextCluster is set to the next cluster number
1110:../cleanflight/src/main/io/asyncfatfs/asyncfatfs.c ****  */
1111:../cleanflight/src/main/io/asyncfatfs/asyncfatfs.c **** static afatfsOperationStatus_e afatfs_FATGetNextCluster(int fatIndex, uint32_t cluster, uint32_t *n
1112:../cleanflight/src/main/io/asyncfatfs/asyncfatfs.c **** {
 2909              	 .loc 1 1112 0
 2910              	 .cfi_startproc
 2911              	 
 2912              	 
 2913 0000 80B5     	 push {r7,lr}
 2914              	.LCFI154:
 2915              	 .cfi_def_cfa_offset 8
 2916              	 .cfi_offset 7,-8
 2917              	 .cfi_offset 14,-4
 2918 0002 88B0     	 sub sp,sp,#32
 2919              	.LCFI155:
 2920              	 .cfi_def_cfa_offset 40
 2921 0004 00AF     	 add r7,sp,#0
 2922              	.LCFI156:
 2923              	 .cfi_def_cfa_register 7
 2924 0006 F860     	 str r0,[r7,#12]
 2925 0008 B960     	 str r1,[r7,#8]
 2926 000a 7A60     	 str r2,[r7,#4]
1113:../cleanflight/src/main/io/asyncfatfs/asyncfatfs.c ****     uint32_t fatSectorIndex, fatSectorEntryIndex;
1114:../cleanflight/src/main/io/asyncfatfs/asyncfatfs.c ****     afatfsFATSector_t sector;
1115:../cleanflight/src/main/io/asyncfatfs/asyncfatfs.c **** 
1116:../cleanflight/src/main/io/asyncfatfs/asyncfatfs.c ****     afatfs_getFATPositionForCluster(cluster, &fatSectorIndex, &fatSectorEntryIndex);
 2927              	 .loc 1 1116 0
 2928 000c 07F11802 	 add r2,r7,#24
 2929 0010 07F11403 	 add r3,r7,#20
 2930 0014 B868     	 ldr r0,[r7,#8]
 2931 0016 1146     	 mov r1,r2
 2932 0018 1A46     	 mov r2,r3
 2933 001a FFF7FEFF 	 bl afatfs_getFATPositionForCluster
1117:../cleanflight/src/main/io/asyncfatfs/asyncfatfs.c **** 
1118:../cleanflight/src/main/io/asyncfatfs/asyncfatfs.c ****     afatfsOperationStatus_e result = afatfs_cacheSector(afatfs_fatSectorToPhysical(fatIndex, fatSec
 2934              	 .loc 1 1118 0
 2935 001e BB69     	 ldr r3,[r7,#24]
 2936 0020 F868     	 ldr r0,[r7,#12]
 2937 0022 1946     	 mov r1,r3
 2938 0024 FFF7FEFF 	 bl afatfs_fatSectorToPhysical
 2939 0028 0246     	 mov r2,r0
 2940 002a 07F11003 	 add r3,r7,#16
 2941 002e 1046     	 mov r0,r2
 2942 0030 1946     	 mov r1,r3
 2943 0032 0122     	 movs r2,#1
 2944 0034 0023     	 movs r3,#0
 2945 0036 FFF7FEFF 	 bl afatfs_cacheSector
 2946 003a 0346     	 mov r3,r0
 2947 003c FB77     	 strb r3,[r7,#31]
1119:../cleanflight/src/main/io/asyncfatfs/asyncfatfs.c **** 
1120:../cleanflight/src/main/io/asyncfatfs/asyncfatfs.c ****     if (result == AFATFS_OPERATION_SUCCESS) {
 2948              	 .loc 1 1120 0
 2949 003e FB7F     	 ldrb r3,[r7,#31]
 2950 0040 012B     	 cmp r3,#1
 2951 0042 17D1     	 bne .L203
1121:../cleanflight/src/main/io/asyncfatfs/asyncfatfs.c ****         if (afatfs.filesystemType == FAT_FILESYSTEM_TYPE_FAT16) {
 2952              	 .loc 1 1121 0
 2953 0044 0E4B     	 ldr r3,.L206
 2954 0046 1B78     	 ldrb r3,[r3]
 2955 0048 022B     	 cmp r3,#2
 2956 004a 08D1     	 bne .L204
1122:../cleanflight/src/main/io/asyncfatfs/asyncfatfs.c ****             *nextCluster = sector.fat16[fatSectorEntryIndex];
 2957              	 .loc 1 1122 0
 2958 004c 3A69     	 ldr r2,[r7,#16]
 2959 004e 7B69     	 ldr r3,[r7,#20]
 2960 0050 5B00     	 lsls r3,r3,#1
 2961 0052 1344     	 add r3,r3,r2
 2962 0054 1B88     	 ldrh r3,[r3]
 2963 0056 1A46     	 mov r2,r3
 2964 0058 7B68     	 ldr r3,[r7,#4]
 2965 005a 1A60     	 str r2,[r3]
 2966 005c 0AE0     	 b .L203
 2967              	.L204:
1123:../cleanflight/src/main/io/asyncfatfs/asyncfatfs.c ****         } else {
1124:../cleanflight/src/main/io/asyncfatfs/asyncfatfs.c ****             *nextCluster = fat32_decodeClusterNumber(sector.fat32[fatSectorEntryIndex]);
 2968              	 .loc 1 1124 0
 2969 005e 3A69     	 ldr r2,[r7,#16]
 2970 0060 7B69     	 ldr r3,[r7,#20]
 2971 0062 9B00     	 lsls r3,r3,#2
 2972 0064 1344     	 add r3,r3,r2
 2973 0066 1B68     	 ldr r3,[r3]
 2974 0068 1846     	 mov r0,r3
 2975 006a FFF7FEFF 	 bl fat32_decodeClusterNumber
 2976 006e 0246     	 mov r2,r0
 2977 0070 7B68     	 ldr r3,[r7,#4]
 2978 0072 1A60     	 str r2,[r3]
 2979              	.L203:
1125:../cleanflight/src/main/io/asyncfatfs/asyncfatfs.c ****         }
1126:../cleanflight/src/main/io/asyncfatfs/asyncfatfs.c ****     }
1127:../cleanflight/src/main/io/asyncfatfs/asyncfatfs.c **** 
1128:../cleanflight/src/main/io/asyncfatfs/asyncfatfs.c ****     return result;
 2980              	 .loc 1 1128 0
 2981 0074 FB7F     	 ldrb r3,[r7,#31]
1129:../cleanflight/src/main/io/asyncfatfs/asyncfatfs.c **** }
 2982              	 .loc 1 1129 0
 2983 0076 1846     	 mov r0,r3
 2984 0078 2037     	 adds r7,r7,#32
 2985              	.LCFI157:
 2986              	 .cfi_def_cfa_offset 8
 2987 007a BD46     	 mov sp,r7
 2988              	.LCFI158:
 2989              	 .cfi_def_cfa_register 13
 2990              	 
 2991 007c 80BD     	 pop {r7,pc}
 2992              	.L207:
 2993 007e 00BF     	 .align 2
 2994              	.L206:
 2995 0080 00000000 	 .word afatfs
 2996              	 .cfi_endproc
 2997              	.LFE560:
 2999              	 .section .text.afatfs_FATSetNextCluster,"ax",%progbits
 3000              	 .align 2
 3001              	 .thumb
 3002              	 .thumb_func
 3004              	afatfs_FATSetNextCluster:
 3005              	.LFB561:
1130:../cleanflight/src/main/io/asyncfatfs/asyncfatfs.c **** 
1131:../cleanflight/src/main/io/asyncfatfs/asyncfatfs.c **** /**
1132:../cleanflight/src/main/io/asyncfatfs/asyncfatfs.c ****  * Set the cluster number that follows the given cluster. Pass 0xFFFFFFFF for nextCluster to termin
1133:../cleanflight/src/main/io/asyncfatfs/asyncfatfs.c ****  *
1134:../cleanflight/src/main/io/asyncfatfs/asyncfatfs.c ****  * Returns:
1135:../cleanflight/src/main/io/asyncfatfs/asyncfatfs.c ****  *     AFATFS_OPERATION_SUCCESS     - On success
1136:../cleanflight/src/main/io/asyncfatfs/asyncfatfs.c ****  *     AFATFS_OPERATION_IN_PROGRESS - Card is busy, call again later
1137:../cleanflight/src/main/io/asyncfatfs/asyncfatfs.c ****  *     AFATFS_OPERATION_FAILURE     - When the filesystem encounters a fatal error
1138:../cleanflight/src/main/io/asyncfatfs/asyncfatfs.c ****  */
1139:../cleanflight/src/main/io/asyncfatfs/asyncfatfs.c **** static afatfsOperationStatus_e afatfs_FATSetNextCluster(uint32_t startCluster, uint32_t nextCluster
1140:../cleanflight/src/main/io/asyncfatfs/asyncfatfs.c **** {
 3006              	 .loc 1 1140 0
 3007              	 .cfi_startproc
 3008              	 
 3009              	 
 3010 0000 80B5     	 push {r7,lr}
 3011              	.LCFI159:
 3012              	 .cfi_def_cfa_offset 8
 3013              	 .cfi_offset 7,-8
 3014              	 .cfi_offset 14,-4
 3015 0002 88B0     	 sub sp,sp,#32
 3016              	.LCFI160:
 3017              	 .cfi_def_cfa_offset 40
 3018 0004 00AF     	 add r7,sp,#0
 3019              	.LCFI161:
 3020              	 .cfi_def_cfa_register 7
 3021 0006 7860     	 str r0,[r7,#4]
 3022 0008 3960     	 str r1,[r7]
1141:../cleanflight/src/main/io/asyncfatfs/asyncfatfs.c ****     afatfsFATSector_t sector;
1142:../cleanflight/src/main/io/asyncfatfs/asyncfatfs.c ****     uint32_t fatSectorIndex, fatSectorEntryIndex, fatPhysicalSector;
1143:../cleanflight/src/main/io/asyncfatfs/asyncfatfs.c ****     afatfsOperationStatus_e result;
1144:../cleanflight/src/main/io/asyncfatfs/asyncfatfs.c **** 
1145:../cleanflight/src/main/io/asyncfatfs/asyncfatfs.c **** #ifdef AFATFS_DEBUG
1146:../cleanflight/src/main/io/asyncfatfs/asyncfatfs.c ****     afatfs_assert(startCluster >= FAT_SMALLEST_LEGAL_CLUSTER_NUMBER);
1147:../cleanflight/src/main/io/asyncfatfs/asyncfatfs.c **** #endif
1148:../cleanflight/src/main/io/asyncfatfs/asyncfatfs.c **** 
1149:../cleanflight/src/main/io/asyncfatfs/asyncfatfs.c ****     afatfs_getFATPositionForCluster(startCluster, &fatSectorIndex, &fatSectorEntryIndex);
 3023              	 .loc 1 1149 0
 3024 000a 07F11002 	 add r2,r7,#16
 3025 000e 07F10C03 	 add r3,r7,#12
 3026 0012 7868     	 ldr r0,[r7,#4]
 3027 0014 1146     	 mov r1,r2
 3028 0016 1A46     	 mov r2,r3
 3029 0018 FFF7FEFF 	 bl afatfs_getFATPositionForCluster
1150:../cleanflight/src/main/io/asyncfatfs/asyncfatfs.c **** 
1151:../cleanflight/src/main/io/asyncfatfs/asyncfatfs.c ****     fatPhysicalSector = afatfs_fatSectorToPhysical(0, fatSectorIndex);
 3030              	 .loc 1 1151 0
 3031 001c 3B69     	 ldr r3,[r7,#16]
 3032 001e 0020     	 movs r0,#0
 3033 0020 1946     	 mov r1,r3
 3034 0022 FFF7FEFF 	 bl afatfs_fatSectorToPhysical
 3035 0026 F861     	 str r0,[r7,#28]
1152:../cleanflight/src/main/io/asyncfatfs/asyncfatfs.c **** 
1153:../cleanflight/src/main/io/asyncfatfs/asyncfatfs.c ****     result = afatfs_cacheSector(fatPhysicalSector, &sector.bytes, AFATFS_CACHE_READ | AFATFS_CACHE_
 3036              	 .loc 1 1153 0
 3037 0028 07F11403 	 add r3,r7,#20
 3038 002c F869     	 ldr r0,[r7,#28]
 3039 002e 1946     	 mov r1,r3
 3040 0030 0322     	 movs r2,#3
 3041 0032 0023     	 movs r3,#0
 3042 0034 FFF7FEFF 	 bl afatfs_cacheSector
 3043 0038 0346     	 mov r3,r0
 3044 003a FB76     	 strb r3,[r7,#27]
1154:../cleanflight/src/main/io/asyncfatfs/asyncfatfs.c **** 
1155:../cleanflight/src/main/io/asyncfatfs/asyncfatfs.c ****     if (result == AFATFS_OPERATION_SUCCESS) {
 3045              	 .loc 1 1155 0
 3046 003c FB7E     	 ldrb r3,[r7,#27]
 3047 003e 012B     	 cmp r3,#1
 3048 0040 11D1     	 bne .L209
1156:../cleanflight/src/main/io/asyncfatfs/asyncfatfs.c ****         if (afatfs.filesystemType == FAT_FILESYSTEM_TYPE_FAT16) {
 3049              	 .loc 1 1156 0
 3050 0042 0B4B     	 ldr r3,.L212
 3051 0044 1B78     	 ldrb r3,[r3]
 3052 0046 022B     	 cmp r3,#2
 3053 0048 07D1     	 bne .L210
1157:../cleanflight/src/main/io/asyncfatfs/asyncfatfs.c ****             sector.fat16[fatSectorEntryIndex] = nextCluster;
 3054              	 .loc 1 1157 0
 3055 004a 7A69     	 ldr r2,[r7,#20]
 3056 004c FB68     	 ldr r3,[r7,#12]
 3057 004e 5B00     	 lsls r3,r3,#1
 3058 0050 1344     	 add r3,r3,r2
 3059 0052 3A68     	 ldr r2,[r7]
 3060 0054 92B2     	 uxth r2,r2
 3061 0056 1A80     	 strh r2,[r3]
 3062 0058 05E0     	 b .L209
 3063              	.L210:
1158:../cleanflight/src/main/io/asyncfatfs/asyncfatfs.c ****         } else {
1159:../cleanflight/src/main/io/asyncfatfs/asyncfatfs.c ****             sector.fat32[fatSectorEntryIndex] = nextCluster;
 3064              	 .loc 1 1159 0
 3065 005a 7A69     	 ldr r2,[r7,#20]
 3066 005c FB68     	 ldr r3,[r7,#12]
 3067 005e 9B00     	 lsls r3,r3,#2
 3068 0060 1344     	 add r3,r3,r2
 3069 0062 3A68     	 ldr r2,[r7]
 3070 0064 1A60     	 str r2,[r3]
 3071              	.L209:
1160:../cleanflight/src/main/io/asyncfatfs/asyncfatfs.c ****         }
1161:../cleanflight/src/main/io/asyncfatfs/asyncfatfs.c ****     }
1162:../cleanflight/src/main/io/asyncfatfs/asyncfatfs.c **** 
1163:../cleanflight/src/main/io/asyncfatfs/asyncfatfs.c ****     return result;
 3072              	 .loc 1 1163 0
 3073 0066 FB7E     	 ldrb r3,[r7,#27]
1164:../cleanflight/src/main/io/asyncfatfs/asyncfatfs.c **** }
 3074              	 .loc 1 1164 0
 3075 0068 1846     	 mov r0,r3
 3076 006a 2037     	 adds r7,r7,#32
 3077              	.LCFI162:
 3078              	 .cfi_def_cfa_offset 8
 3079 006c BD46     	 mov sp,r7
 3080              	.LCFI163:
 3081              	 .cfi_def_cfa_register 13
 3082              	 
 3083 006e 80BD     	 pop {r7,pc}
 3084              	.L213:
 3085              	 .align 2
 3086              	.L212:
 3087 0070 00000000 	 .word afatfs
 3088              	 .cfi_endproc
 3089              	.LFE561:
 3091              	 .section .text.afatfs_fileUpdateFilesize,"ax",%progbits
 3092              	 .align 2
 3093              	 .thumb
 3094              	 .thumb_func
 3096              	afatfs_fileUpdateFilesize:
 3097              	.LFB562:
1165:../cleanflight/src/main/io/asyncfatfs/asyncfatfs.c **** 
1166:../cleanflight/src/main/io/asyncfatfs/asyncfatfs.c **** /**
1167:../cleanflight/src/main/io/asyncfatfs/asyncfatfs.c ****  * Bring the logical filesize up to date with the current cursor position.
1168:../cleanflight/src/main/io/asyncfatfs/asyncfatfs.c ****  */
1169:../cleanflight/src/main/io/asyncfatfs/asyncfatfs.c **** static void afatfs_fileUpdateFilesize(afatfsFile_t *file)
1170:../cleanflight/src/main/io/asyncfatfs/asyncfatfs.c **** {
 3098              	 .loc 1 1170 0
 3099              	 .cfi_startproc
 3100              	 
 3101              	 
 3102              	 
 3103 0000 80B4     	 push {r7}
 3104              	.LCFI164:
 3105              	 .cfi_def_cfa_offset 4
 3106              	 .cfi_offset 7,-4
 3107 0002 85B0     	 sub sp,sp,#20
 3108              	.LCFI165:
 3109              	 .cfi_def_cfa_offset 24
 3110 0004 00AF     	 add r7,sp,#0
 3111              	.LCFI166:
 3112              	 .cfi_def_cfa_register 7
 3113 0006 7860     	 str r0,[r7,#4]
 3114              	.LBB13:
1171:../cleanflight/src/main/io/asyncfatfs/asyncfatfs.c ****     file->logicalSize = MAX(file->logicalSize, file->cursorOffset);
 3115              	 .loc 1 1171 0
 3116 0008 7B68     	 ldr r3,[r7,#4]
 3117 000a D3F80530 	 ldr r3,[r3,#5]
 3118 000e FB60     	 str r3,[r7,#12]
 3119 0010 7B68     	 ldr r3,[r7,#4]
 3120 0012 D3F80130 	 ldr r3,[r3,#1]
 3121 0016 BB60     	 str r3,[r7,#8]
 3122 0018 BA68     	 ldr r2,[r7,#8]
 3123 001a FB68     	 ldr r3,[r7,#12]
 3124 001c 9A42     	 cmp r2,r3
 3125 001e 38BF     	 it cc
 3126 0020 1A46     	 movcc r2,r3
 3127              	.LBE13:
 3128 0022 7B68     	 ldr r3,[r7,#4]
 3129 0024 C3F80520 	 str r2,[r3,#5]
1172:../cleanflight/src/main/io/asyncfatfs/asyncfatfs.c **** }
 3130              	 .loc 1 1172 0
 3131 0028 1437     	 adds r7,r7,#20
 3132              	.LCFI167:
 3133              	 .cfi_def_cfa_offset 4
 3134 002a BD46     	 mov sp,r7
 3135              	.LCFI168:
 3136              	 .cfi_def_cfa_register 13
 3137              	 
 3138 002c 5DF8047B 	 ldr r7,[sp],#4
 3139              	.LCFI169:
 3140              	 .cfi_restore 7
 3141              	 .cfi_def_cfa_offset 0
 3142 0030 7047     	 bx lr
 3143              	 .cfi_endproc
 3144              	.LFE562:
 3146 0032 00BF     	 .section .text.afatfs_fileUnlockCacheSector,"ax",%progbits
 3147              	 .align 2
 3148              	 .thumb
 3149              	 .thumb_func
 3151              	afatfs_fileUnlockCacheSector:
 3152              	.LFB563:
1173:../cleanflight/src/main/io/asyncfatfs/asyncfatfs.c **** 
1174:../cleanflight/src/main/io/asyncfatfs/asyncfatfs.c **** static void afatfs_fileUnlockCacheSector(afatfsFilePtr_t file)
1175:../cleanflight/src/main/io/asyncfatfs/asyncfatfs.c **** {
 3153              	 .loc 1 1175 0
 3154              	 .cfi_startproc
 3155              	 
 3156              	 
 3157              	 
 3158 0000 80B4     	 push {r7}
 3159              	.LCFI170:
 3160              	 .cfi_def_cfa_offset 4
 3161              	 .cfi_offset 7,-4
 3162 0002 85B0     	 sub sp,sp,#20
 3163              	.LCFI171:
 3164              	 .cfi_def_cfa_offset 24
 3165 0004 00AF     	 add r7,sp,#0
 3166              	.LCFI172:
 3167              	 .cfi_def_cfa_register 7
 3168 0006 7860     	 str r0,[r7,#4]
1176:../cleanflight/src/main/io/asyncfatfs/asyncfatfs.c ****     if (file->writeLockedCacheIndex != -1) {
 3169              	 .loc 1 1176 0
 3170 0008 7B68     	 ldr r3,[r7,#4]
 3171 000a DB7D     	 ldrb r3,[r3,#23]
 3172 000c 5BB2     	 sxtb r3,r3
 3173 000e B3F1FF3F 	 cmp r3,#-1
 3174 0012 0FD0     	 beq .L216
1177:../cleanflight/src/main/io/asyncfatfs/asyncfatfs.c ****         afatfs.cacheDescriptor[file->writeLockedCacheIndex].locked = 0;
 3175              	 .loc 1 1177 0
 3176 0014 7B68     	 ldr r3,[r7,#4]
 3177 0016 DB7D     	 ldrb r3,[r3,#23]
 3178 0018 5BB2     	 sxtb r3,r3
 3179 001a 214A     	 ldr r2,.L218
 3180 001c 1B01     	 lsls r3,r3,#4
 3181 001e 1344     	 add r3,r3,r2
 3182 0020 03F58053 	 add r3,r3,#4096
 3183 0024 1833     	 adds r3,r3,#24
 3184 0026 DA7A     	 ldrb r2,[r3,#11]
 3185 0028 6FF30002 	 bfc r2,#0,#1
 3186 002c DA72     	 strb r2,[r3,#11]
1178:../cleanflight/src/main/io/asyncfatfs/asyncfatfs.c ****         file->writeLockedCacheIndex = -1;
 3187              	 .loc 1 1178 0
 3188 002e 7B68     	 ldr r3,[r7,#4]
 3189 0030 FF22     	 movs r2,#255
 3190 0032 DA75     	 strb r2,[r3,#23]
 3191              	.L216:
1179:../cleanflight/src/main/io/asyncfatfs/asyncfatfs.c ****     }
1180:../cleanflight/src/main/io/asyncfatfs/asyncfatfs.c ****     if (file->readRetainCacheIndex != -1) {
 3192              	 .loc 1 1180 0
 3193 0034 7B68     	 ldr r3,[r7,#4]
 3194 0036 1B7E     	 ldrb r3,[r3,#24]
 3195 0038 5BB2     	 sxtb r3,r3
 3196 003a B3F1FF3F 	 cmp r3,#-1
 3197 003e 29D0     	 beq .L215
1181:../cleanflight/src/main/io/asyncfatfs/asyncfatfs.c ****         afatfs.cacheDescriptor[file->readRetainCacheIndex].retainCount = MAX((int) afatfs.cacheDesc
 3198              	 .loc 1 1181 0
 3199 0040 7B68     	 ldr r3,[r7,#4]
 3200 0042 1B7E     	 ldrb r3,[r3,#24]
 3201 0044 5AB2     	 sxtb r2,r3
 3202              	.LBB14:
 3203 0046 7B68     	 ldr r3,[r7,#4]
 3204 0048 1B7E     	 ldrb r3,[r3,#24]
 3205 004a 5BB2     	 sxtb r3,r3
 3206 004c 1449     	 ldr r1,.L218
 3207 004e 1B01     	 lsls r3,r3,#4
 3208 0050 0B44     	 add r3,r3,r1
 3209 0052 03F58053 	 add r3,r3,#4096
 3210 0056 1833     	 adds r3,r3,#24
 3211 0058 DB7A     	 ldrb r3,[r3,#11]
 3212 005a C3F34503 	 ubfx r3,r3,#1,#6
 3213 005e DBB2     	 uxtb r3,r3
 3214 0060 013B     	 subs r3,r3,#1
 3215 0062 FB60     	 str r3,[r7,#12]
 3216 0064 0023     	 movs r3,#0
 3217 0066 BB60     	 str r3,[r7,#8]
 3218 0068 B968     	 ldr r1,[r7,#8]
 3219 006a FB68     	 ldr r3,[r7,#12]
 3220 006c 8B42     	 cmp r3,r1
 3221 006e B8BF     	 it lt
 3222 0070 0B46     	 movlt r3,r1
 3223              	.LBE14:
 3224 0072 DBB2     	 uxtb r3,r3
 3225 0074 03F03F03 	 and r3,r3,#63
 3226 0078 D9B2     	 uxtb r1,r3
 3227 007a 0948     	 ldr r0,.L218
 3228 007c 1301     	 lsls r3,r2,#4
 3229 007e 0344     	 add r3,r3,r0
 3230 0080 03F58053 	 add r3,r3,#4096
 3231 0084 1833     	 adds r3,r3,#24
 3232 0086 DA7A     	 ldrb r2,[r3,#11]
 3233 0088 61F34602 	 bfi r2,r1,#1,#6
 3234 008c DA72     	 strb r2,[r3,#11]
1182:../cleanflight/src/main/io/asyncfatfs/asyncfatfs.c ****         file->readRetainCacheIndex = -1;
 3235              	 .loc 1 1182 0
 3236 008e 7B68     	 ldr r3,[r7,#4]
 3237 0090 FF22     	 movs r2,#255
 3238 0092 1A76     	 strb r2,[r3,#24]
 3239              	.L215:
1183:../cleanflight/src/main/io/asyncfatfs/asyncfatfs.c ****     }
1184:../cleanflight/src/main/io/asyncfatfs/asyncfatfs.c **** }
 3240              	 .loc 1 1184 0
 3241 0094 1437     	 adds r7,r7,#20
 3242              	.LCFI173:
 3243              	 .cfi_def_cfa_offset 4
 3244 0096 BD46     	 mov sp,r7
 3245              	.LCFI174:
 3246              	 .cfi_def_cfa_register 13
 3247              	 
 3248 0098 5DF8047B 	 ldr r7,[sp],#4
 3249              	.LCFI175:
 3250              	 .cfi_restore 7
 3251              	 .cfi_def_cfa_offset 0
 3252 009c 7047     	 bx lr
 3253              	.L219:
 3254 009e 00BF     	 .align 2
 3255              	.L218:
 3256 00a0 00000000 	 .word afatfs
 3257              	 .cfi_endproc
 3258              	.LFE563:
 3260              	 .section .text.afatfs_findClusterWithCondition,"ax",%progbits
 3261              	 .align 2
 3262              	 .thumb
 3263              	 .thumb_func
 3265              	afatfs_findClusterWithCondition:
 3266              	.LFB564:
1185:../cleanflight/src/main/io/asyncfatfs/asyncfatfs.c **** 
1186:../cleanflight/src/main/io/asyncfatfs/asyncfatfs.c **** /**
1187:../cleanflight/src/main/io/asyncfatfs/asyncfatfs.c ****  * Starting from and including the given cluster number, find the number of the first cluster which
1188:../cleanflight/src/main/io/asyncfatfs/asyncfatfs.c ****  * condition.
1189:../cleanflight/src/main/io/asyncfatfs/asyncfatfs.c ****  *
1190:../cleanflight/src/main/io/asyncfatfs/asyncfatfs.c ****  * searchLimit - Last cluster to examine (exclusive). To search the entire volume, pass:
1191:../cleanflight/src/main/io/asyncfatfs/asyncfatfs.c ****  *                   afatfs.numClusters + FAT_SMALLEST_LEGAL_CLUSTER_NUMBER
1192:../cleanflight/src/main/io/asyncfatfs/asyncfatfs.c ****  *
1193:../cleanflight/src/main/io/asyncfatfs/asyncfatfs.c ****  * Condition:
1194:../cleanflight/src/main/io/asyncfatfs/asyncfatfs.c ****  *     CLUSTER_SEARCH_FREE_AT_BEGINNING_OF_FAT_SECTOR - Find a cluster marked as free in the FAT wh
1195:../cleanflight/src/main/io/asyncfatfs/asyncfatfs.c ****  *         beginning of its FAT sector. The passed initial search 'cluster' must correspond to the 
1196:../cleanflight/src/main/io/asyncfatfs/asyncfatfs.c ****  *     CLUSTER_SEARCH_FREE            - Find a cluster marked as free in the FAT
1197:../cleanflight/src/main/io/asyncfatfs/asyncfatfs.c ****  *     CLUSTER_SEARCH_OCCUPIED        - Find a cluster marked as occupied in the FAT.
1198:../cleanflight/src/main/io/asyncfatfs/asyncfatfs.c ****  *
1199:../cleanflight/src/main/io/asyncfatfs/asyncfatfs.c ****  * Returns:
1200:../cleanflight/src/main/io/asyncfatfs/asyncfatfs.c ****  *     AFATFS_FIND_CLUSTER_FOUND       - A cluster matching the criteria was found and stored in *c
1201:../cleanflight/src/main/io/asyncfatfs/asyncfatfs.c ****  *     AFATFS_FIND_CLUSTER_IN_PROGRESS - The search is not over, call this routine again later with
1202:../cleanflight/src/main/io/asyncfatfs/asyncfatfs.c ****  *     AFATFS_FIND_CLUSTER_FATAL       - An unexpected read error occurred, the volume should be ab
1203:../cleanflight/src/main/io/asyncfatfs/asyncfatfs.c ****  *     AFATFS_FIND_CLUSTER_NOT_FOUND   - The entire device was searched without finding a suitable 
1204:../cleanflight/src/main/io/asyncfatfs/asyncfatfs.c ****  *                                       *cluster points to just beyond the final cluster).
1205:../cleanflight/src/main/io/asyncfatfs/asyncfatfs.c ****  */
1206:../cleanflight/src/main/io/asyncfatfs/asyncfatfs.c **** static afatfsFindClusterStatus_e afatfs_findClusterWithCondition(afatfsClusterSearchCondition_e con
1207:../cleanflight/src/main/io/asyncfatfs/asyncfatfs.c **** {
 3267              	 .loc 1 1207 0
 3268              	 .cfi_startproc
 3269              	 
 3270              	 
 3271 0000 90B5     	 push {r4,r7,lr}
 3272              	.LCFI176:
 3273              	 .cfi_def_cfa_offset 12
 3274              	 .cfi_offset 4,-12
 3275              	 .cfi_offset 7,-8
 3276              	 .cfi_offset 14,-4
 3277 0002 8DB0     	 sub sp,sp,#52
 3278              	.LCFI177:
 3279              	 .cfi_def_cfa_offset 64
 3280 0004 00AF     	 add r7,sp,#0
 3281              	.LCFI178:
 3282              	 .cfi_def_cfa_register 7
 3283 0006 0346     	 mov r3,r0
 3284 0008 B960     	 str r1,[r7,#8]
 3285 000a 7A60     	 str r2,[r7,#4]
 3286 000c FB73     	 strb r3,[r7,#15]
1208:../cleanflight/src/main/io/asyncfatfs/asyncfatfs.c ****     afatfsFATSector_t sector;
1209:../cleanflight/src/main/io/asyncfatfs/asyncfatfs.c ****     uint32_t fatSectorIndex, fatSectorEntryIndex;
1210:../cleanflight/src/main/io/asyncfatfs/asyncfatfs.c **** 
1211:../cleanflight/src/main/io/asyncfatfs/asyncfatfs.c ****     uint32_t fatEntriesPerSector = afatfs_fatEntriesPerSector();
 3287              	 .loc 1 1211 0
 3288 000e FFF7FEFF 	 bl afatfs_fatEntriesPerSector
 3289 0012 7862     	 str r0,[r7,#36]
1212:../cleanflight/src/main/io/asyncfatfs/asyncfatfs.c ****     bool lookingForFree = condition == CLUSTER_SEARCH_FREE_AT_BEGINNING_OF_FAT_SECTOR || condition 
 3290              	 .loc 1 1212 0
 3291 0014 FB7B     	 ldrb r3,[r7,#15]
 3292 0016 002B     	 cmp r3,#0
 3293 0018 02D0     	 beq .L221
 3294              	 .loc 1 1212 0 is_stmt 0 discriminator 2
 3295 001a FB7B     	 ldrb r3,[r7,#15]
 3296 001c 012B     	 cmp r3,#1
 3297 001e 01D1     	 bne .L222
 3298              	.L221:
 3299              	 .loc 1 1212 0 discriminator 3
 3300 0020 0123     	 movs r3,#1
 3301 0022 00E0     	 b .L223
 3302              	.L222:
 3303              	 .loc 1 1212 0 discriminator 4
 3304 0024 0023     	 movs r3,#0
 3305              	.L223:
 3306              	 .loc 1 1212 0 discriminator 6
 3307 0026 87F82330 	 strb r3,[r7,#35]
 3308 002a 97F82330 	 ldrb r3,[r7,#35]
 3309 002e 03F00103 	 and r3,r3,#1
 3310 0032 87F82330 	 strb r3,[r7,#35]
1213:../cleanflight/src/main/io/asyncfatfs/asyncfatfs.c **** 
1214:../cleanflight/src/main/io/asyncfatfs/asyncfatfs.c ****     int jump;
1215:../cleanflight/src/main/io/asyncfatfs/asyncfatfs.c **** 
1216:../cleanflight/src/main/io/asyncfatfs/asyncfatfs.c ****     // Get the FAT entry which corresponds to this cluster so we can begin our search there
1217:../cleanflight/src/main/io/asyncfatfs/asyncfatfs.c ****     afatfs_getFATPositionForCluster(*cluster, &fatSectorIndex, &fatSectorEntryIndex);
 3311              	 .loc 1 1217 0 is_stmt 1 discriminator 6
 3312 0036 BB68     	 ldr r3,[r7,#8]
 3313 0038 1968     	 ldr r1,[r3]
 3314 003a 07F11802 	 add r2,r7,#24
 3315 003e 07F11403 	 add r3,r7,#20
 3316 0042 0846     	 mov r0,r1
 3317 0044 1146     	 mov r1,r2
 3318 0046 1A46     	 mov r2,r3
 3319 0048 FFF7FEFF 	 bl afatfs_getFATPositionForCluster
1218:../cleanflight/src/main/io/asyncfatfs/asyncfatfs.c **** 
1219:../cleanflight/src/main/io/asyncfatfs/asyncfatfs.c ****     switch (condition) {
 3320              	 .loc 1 1219 0 discriminator 6
 3321 004c FB7B     	 ldrb r3,[r7,#15]
 3322 004e 002B     	 cmp r3,#0
 3323 0050 04D0     	 beq .L225
 3324 0052 002B     	 cmp r3,#0
 3325 0054 19DB     	 blt .L224
 3326 0056 022B     	 cmp r3,#2
 3327 0058 17DC     	 bgt .L224
 3328              	 .loc 1 1219 0 is_stmt 0
 3329 005a 13E0     	 b .L243
 3330              	.L225:
1220:../cleanflight/src/main/io/asyncfatfs/asyncfatfs.c ****         case CLUSTER_SEARCH_FREE_AT_BEGINNING_OF_FAT_SECTOR:
1221:../cleanflight/src/main/io/asyncfatfs/asyncfatfs.c ****             jump = fatEntriesPerSector;
 3331              	 .loc 1 1221 0 is_stmt 1
 3332 005c 7B6A     	 ldr r3,[r7,#36]
 3333 005e FB62     	 str r3,[r7,#44]
1222:../cleanflight/src/main/io/asyncfatfs/asyncfatfs.c **** 
1223:../cleanflight/src/main/io/asyncfatfs/asyncfatfs.c ****             // We're supposed to call this routine with the cluster properly aligned
1224:../cleanflight/src/main/io/asyncfatfs/asyncfatfs.c ****             if (!afatfs_assert(fatSectorEntryIndex == 0)) {
 3334              	 .loc 1 1224 0
 3335 0060 7B69     	 ldr r3,[r7,#20]
 3336 0062 002B     	 cmp r3,#0
 3337 0064 0CBF     	 ite eq
 3338 0066 0123     	 moveq r3,#1
 3339 0068 0023     	 movne r3,#0
 3340 006a DBB2     	 uxtb r3,r3
 3341 006c 1846     	 mov r0,r3
 3342 006e FFF7FEFF 	 bl afatfs_assert
 3343 0072 0346     	 mov r3,r0
 3344 0074 83F00103 	 eor r3,r3,#1
 3345 0078 DBB2     	 uxtb r3,r3
 3346 007a 002B     	 cmp r3,#0
 3347 007c 01D0     	 beq .L227
1225:../cleanflight/src/main/io/asyncfatfs/asyncfatfs.c ****                 return AFATFS_FIND_CLUSTER_FATAL;
 3348              	 .loc 1 1225 0
 3349 007e 0223     	 movs r3,#2
 3350 0080 A3E0     	 b .L242
 3351              	.L227:
1226:../cleanflight/src/main/io/asyncfatfs/asyncfatfs.c ****             }
1227:../cleanflight/src/main/io/asyncfatfs/asyncfatfs.c ****         break;
 3352              	 .loc 1 1227 0
 3353 0082 07E0     	 b .L229
 3354              	.L243:
1228:../cleanflight/src/main/io/asyncfatfs/asyncfatfs.c ****         case CLUSTER_SEARCH_OCCUPIED:
1229:../cleanflight/src/main/io/asyncfatfs/asyncfatfs.c ****         case CLUSTER_SEARCH_FREE:
1230:../cleanflight/src/main/io/asyncfatfs/asyncfatfs.c ****             jump = 1;
 3355              	 .loc 1 1230 0
 3356 0084 0123     	 movs r3,#1
 3357 0086 FB62     	 str r3,[r7,#44]
1231:../cleanflight/src/main/io/asyncfatfs/asyncfatfs.c ****         break;
 3358              	 .loc 1 1231 0
 3359 0088 04E0     	 b .L229
 3360              	.L224:
1232:../cleanflight/src/main/io/asyncfatfs/asyncfatfs.c ****         default:
1233:../cleanflight/src/main/io/asyncfatfs/asyncfatfs.c ****             afatfs_assert(false);
 3361              	 .loc 1 1233 0
 3362 008a 0020     	 movs r0,#0
 3363 008c FFF7FEFF 	 bl afatfs_assert
1234:../cleanflight/src/main/io/asyncfatfs/asyncfatfs.c ****             return AFATFS_FIND_CLUSTER_FATAL;
 3364              	 .loc 1 1234 0
 3365 0090 0223     	 movs r3,#2
 3366 0092 9AE0     	 b .L242
 3367              	.L229:
1235:../cleanflight/src/main/io/asyncfatfs/asyncfatfs.c ****     }
1236:../cleanflight/src/main/io/asyncfatfs/asyncfatfs.c **** 
1237:../cleanflight/src/main/io/asyncfatfs/asyncfatfs.c ****     while (*cluster < searchLimit) {
 3368              	 .loc 1 1237 0 discriminator 1
 3369 0094 8FE0     	 b .L230
 3370              	.L241:
 3371              	.LBB15:
1238:../cleanflight/src/main/io/asyncfatfs/asyncfatfs.c **** 
1239:../cleanflight/src/main/io/asyncfatfs/asyncfatfs.c **** #ifdef AFATFS_USE_FREEFILE
1240:../cleanflight/src/main/io/asyncfatfs/asyncfatfs.c ****         // If we're looking inside the freefile, we won't find any free clusters! Skip it!
1241:../cleanflight/src/main/io/asyncfatfs/asyncfatfs.c ****         if (afatfs.freeFile.logicalSize > 0 && *cluster == afatfs.freeFile.firstCluster) {
 3372              	 .loc 1 1241 0
 3373 0096 4F4B     	 ldr r3,.L245
 3374 0098 03F58A53 	 add r3,r3,#4416
 3375 009c 0D33     	 adds r3,r3,#13
 3376 009e 1B68     	 ldr r3,[r3]
 3377 00a0 002B     	 cmp r3,#0
 3378 00a2 27D0     	 beq .L231
 3379              	 .loc 1 1241 0 is_stmt 0 discriminator 1
 3380 00a4 BB68     	 ldr r3,[r7,#8]
 3381 00a6 1A68     	 ldr r2,[r3]
 3382 00a8 4A4B     	 ldr r3,.L245
 3383 00aa 03F58B53 	 add r3,r3,#4448
 3384 00ae 0733     	 adds r3,r3,#7
 3385 00b0 1B68     	 ldr r3,[r3]
 3386 00b2 9A42     	 cmp r2,r3
 3387 00b4 1ED1     	 bne .L231
1242:../cleanflight/src/main/io/asyncfatfs/asyncfatfs.c ****             *cluster += (afatfs.freeFile.logicalSize + afatfs_clusterSize() - 1) / afatfs_clusterSi
 3388              	 .loc 1 1242 0 is_stmt 1
 3389 00b6 474B     	 ldr r3,.L245
 3390 00b8 03F58A53 	 add r3,r3,#4416
 3391 00bc 0D33     	 adds r3,r3,#13
 3392 00be 1C68     	 ldr r4,[r3]
 3393 00c0 FFF7FEFF 	 bl afatfs_clusterSize
 3394 00c4 0346     	 mov r3,r0
 3395 00c6 2344     	 add r3,r3,r4
 3396 00c8 5C1E     	 subs r4,r3,#1
 3397 00ca FFF7FEFF 	 bl afatfs_clusterSize
 3398 00ce 0346     	 mov r3,r0
 3399 00d0 B4FBF3F3 	 udiv r3,r4,r3
 3400 00d4 BA68     	 ldr r2,[r7,#8]
 3401 00d6 1268     	 ldr r2,[r2]
 3402 00d8 1A44     	 add r2,r2,r3
 3403 00da BB68     	 ldr r3,[r7,#8]
 3404 00dc 1A60     	 str r2,[r3]
1243:../cleanflight/src/main/io/asyncfatfs/asyncfatfs.c **** 
1244:../cleanflight/src/main/io/asyncfatfs/asyncfatfs.c ****             // Maintain alignment
1245:../cleanflight/src/main/io/asyncfatfs/asyncfatfs.c ****             *cluster = roundUpTo(*cluster, jump);
 3405              	 .loc 1 1245 0
 3406 00de BB68     	 ldr r3,[r7,#8]
 3407 00e0 1A68     	 ldr r2,[r3]
 3408 00e2 FB6A     	 ldr r3,[r7,#44]
 3409 00e4 1046     	 mov r0,r2
 3410 00e6 1946     	 mov r1,r3
 3411 00e8 FFF7FEFF 	 bl roundUpTo
 3412 00ec 0246     	 mov r2,r0
 3413 00ee BB68     	 ldr r3,[r7,#8]
 3414 00f0 1A60     	 str r2,[r3]
1246:../cleanflight/src/main/io/asyncfatfs/asyncfatfs.c ****             continue; // Go back to check that the new cluster number is within the volume
 3415              	 .loc 1 1246 0
 3416 00f2 60E0     	 b .L230
 3417              	.L231:
1247:../cleanflight/src/main/io/asyncfatfs/asyncfatfs.c ****         }
1248:../cleanflight/src/main/io/asyncfatfs/asyncfatfs.c **** #endif
1249:../cleanflight/src/main/io/asyncfatfs/asyncfatfs.c **** 
1250:../cleanflight/src/main/io/asyncfatfs/asyncfatfs.c ****         afatfsOperationStatus_e status = afatfs_cacheSector(afatfs_fatSectorToPhysical(0, fatSector
 3418              	 .loc 1 1250 0
 3419 00f4 BB69     	 ldr r3,[r7,#24]
 3420 00f6 0020     	 movs r0,#0
 3421 00f8 1946     	 mov r1,r3
 3422 00fa FFF7FEFF 	 bl afatfs_fatSectorToPhysical
 3423 00fe 0246     	 mov r2,r0
 3424 0100 07F11C03 	 add r3,r7,#28
 3425 0104 1046     	 mov r0,r2
 3426 0106 1946     	 mov r1,r3
 3427 0108 0922     	 movs r2,#9
 3428 010a 0023     	 movs r3,#0
 3429 010c FFF7FEFF 	 bl afatfs_cacheSector
 3430 0110 0346     	 mov r3,r0
 3431 0112 87F82230 	 strb r3,[r7,#34]
1251:../cleanflight/src/main/io/asyncfatfs/asyncfatfs.c **** 
1252:../cleanflight/src/main/io/asyncfatfs/asyncfatfs.c ****         switch (status) {
 3432              	 .loc 1 1252 0
 3433 0116 97F82230 	 ldrb r3,[r7,#34]
 3434 011a 012B     	 cmp r3,#1
 3435 011c 04D0     	 beq .L232
 3436 011e 022B     	 cmp r3,#2
 3437 0120 45D0     	 beq .L233
 3438 0122 002B     	 cmp r3,#0
 3439 0124 45D0     	 beq .L234
 3440 0126 46E0     	 b .L230
 3441              	.L232:
 3442              	.LBB16:
1253:../cleanflight/src/main/io/asyncfatfs/asyncfatfs.c ****             case AFATFS_OPERATION_SUCCESS:
1254:../cleanflight/src/main/io/asyncfatfs/asyncfatfs.c ****                 do {
1255:../cleanflight/src/main/io/asyncfatfs/asyncfatfs.c ****                     uint32_t clusterNumber;
1256:../cleanflight/src/main/io/asyncfatfs/asyncfatfs.c **** 
1257:../cleanflight/src/main/io/asyncfatfs/asyncfatfs.c ****                     switch (afatfs.filesystemType) {
 3443              	 .loc 1 1257 0
 3444 0128 2A4B     	 ldr r3,.L245
 3445 012a 1B78     	 ldrb r3,[r3]
 3446 012c 022B     	 cmp r3,#2
 3447 012e 02D0     	 beq .L236
 3448 0130 032B     	 cmp r3,#3
 3449 0132 07D0     	 beq .L237
 3450 0134 10E0     	 b .L244
 3451              	.L236:
1258:../cleanflight/src/main/io/asyncfatfs/asyncfatfs.c ****                         case FAT_FILESYSTEM_TYPE_FAT16:
1259:../cleanflight/src/main/io/asyncfatfs/asyncfatfs.c ****                             clusterNumber = sector.fat16[fatSectorEntryIndex];
 3452              	 .loc 1 1259 0
 3453 0136 FA69     	 ldr r2,[r7,#28]
 3454 0138 7B69     	 ldr r3,[r7,#20]
 3455 013a 5B00     	 lsls r3,r3,#1
 3456 013c 1344     	 add r3,r3,r2
 3457 013e 1B88     	 ldrh r3,[r3]
 3458 0140 BB62     	 str r3,[r7,#40]
1260:../cleanflight/src/main/io/asyncfatfs/asyncfatfs.c ****                         break;
 3459              	 .loc 1 1260 0
 3460 0142 0BE0     	 b .L238
 3461              	.L237:
1261:../cleanflight/src/main/io/asyncfatfs/asyncfatfs.c ****                         case FAT_FILESYSTEM_TYPE_FAT32:
1262:../cleanflight/src/main/io/asyncfatfs/asyncfatfs.c ****                             clusterNumber = fat32_decodeClusterNumber(sector.fat32[fatSectorEntryIn
 3462              	 .loc 1 1262 0
 3463 0144 FA69     	 ldr r2,[r7,#28]
 3464 0146 7B69     	 ldr r3,[r7,#20]
 3465 0148 9B00     	 lsls r3,r3,#2
 3466 014a 1344     	 add r3,r3,r2
 3467 014c 1B68     	 ldr r3,[r3]
 3468 014e 1846     	 mov r0,r3
 3469 0150 FFF7FEFF 	 bl fat32_decodeClusterNumber
 3470 0154 B862     	 str r0,[r7,#40]
1263:../cleanflight/src/main/io/asyncfatfs/asyncfatfs.c ****                         break;
 3471              	 .loc 1 1263 0
 3472 0156 01E0     	 b .L238
 3473              	.L244:
1264:../cleanflight/src/main/io/asyncfatfs/asyncfatfs.c ****                         default:
1265:../cleanflight/src/main/io/asyncfatfs/asyncfatfs.c ****                             return AFATFS_FIND_CLUSTER_FATAL;
 3474              	 .loc 1 1265 0
 3475 0158 0223     	 movs r3,#2
 3476 015a 36E0     	 b .L242
 3477              	.L238:
1266:../cleanflight/src/main/io/asyncfatfs/asyncfatfs.c ****                     }
1267:../cleanflight/src/main/io/asyncfatfs/asyncfatfs.c **** 
1268:../cleanflight/src/main/io/asyncfatfs/asyncfatfs.c ****                     if (fat_isFreeSpace(clusterNumber) == lookingForFree) {
 3478              	 .loc 1 1268 0
 3479 015c B86A     	 ldr r0,[r7,#40]
 3480 015e FFF7FEFF 	 bl fat_isFreeSpace
 3481 0162 0346     	 mov r3,r0
 3482 0164 1A46     	 mov r2,r3
 3483 0166 97F82330 	 ldrb r3,[r7,#35]
 3484 016a 9342     	 cmp r3,r2
 3485 016c 0BD1     	 bne .L239
1269:../cleanflight/src/main/io/asyncfatfs/asyncfatfs.c ****                         /*
1270:../cleanflight/src/main/io/asyncfatfs/asyncfatfs.c ****                          * The final FAT sector may have fewer than fatEntriesPerSector entries in 
1271:../cleanflight/src/main/io/asyncfatfs/asyncfatfs.c ****                          * check the cluster number is valid here before we report a bogus success!
1272:../cleanflight/src/main/io/asyncfatfs/asyncfatfs.c ****                          */
1273:../cleanflight/src/main/io/asyncfatfs/asyncfatfs.c ****                         if (*cluster < searchLimit) {
 3486              	 .loc 1 1273 0
 3487 016e BB68     	 ldr r3,[r7,#8]
 3488 0170 1A68     	 ldr r2,[r3]
 3489 0172 7B68     	 ldr r3,[r7,#4]
 3490 0174 9A42     	 cmp r2,r3
 3491 0176 01D2     	 bcs .L240
1274:../cleanflight/src/main/io/asyncfatfs/asyncfatfs.c ****                             return AFATFS_FIND_CLUSTER_FOUND;
 3492              	 .loc 1 1274 0
 3493 0178 0123     	 movs r3,#1
 3494 017a 26E0     	 b .L242
 3495              	.L240:
1275:../cleanflight/src/main/io/asyncfatfs/asyncfatfs.c ****                         } else {
1276:../cleanflight/src/main/io/asyncfatfs/asyncfatfs.c ****                             *cluster = searchLimit;
 3496              	 .loc 1 1276 0
 3497 017c BB68     	 ldr r3,[r7,#8]
 3498 017e 7A68     	 ldr r2,[r7,#4]
 3499 0180 1A60     	 str r2,[r3]
1277:../cleanflight/src/main/io/asyncfatfs/asyncfatfs.c ****                             return AFATFS_FIND_CLUSTER_NOT_FOUND;
 3500              	 .loc 1 1277 0
 3501 0182 0323     	 movs r3,#3
 3502 0184 21E0     	 b .L242
 3503              	.L239:
1278:../cleanflight/src/main/io/asyncfatfs/asyncfatfs.c ****                         }
1279:../cleanflight/src/main/io/asyncfatfs/asyncfatfs.c ****                     }
1280:../cleanflight/src/main/io/asyncfatfs/asyncfatfs.c **** 
1281:../cleanflight/src/main/io/asyncfatfs/asyncfatfs.c ****                     (*cluster) += jump;
 3504              	 .loc 1 1281 0
 3505 0186 BB68     	 ldr r3,[r7,#8]
 3506 0188 1A68     	 ldr r2,[r3]
 3507 018a FB6A     	 ldr r3,[r7,#44]
 3508 018c 1A44     	 add r2,r2,r3
 3509 018e BB68     	 ldr r3,[r7,#8]
 3510 0190 1A60     	 str r2,[r3]
1282:../cleanflight/src/main/io/asyncfatfs/asyncfatfs.c ****                     fatSectorEntryIndex += jump;
 3511              	 .loc 1 1282 0
 3512 0192 7A69     	 ldr r2,[r7,#20]
 3513 0194 FB6A     	 ldr r3,[r7,#44]
 3514 0196 1344     	 add r3,r3,r2
 3515 0198 7B61     	 str r3,[r7,#20]
 3516              	.LBE16:
1283:../cleanflight/src/main/io/asyncfatfs/asyncfatfs.c ****                 } while (fatSectorEntryIndex < fatEntriesPerSector);
 3517              	 .loc 1 1283 0
 3518 019a 7A69     	 ldr r2,[r7,#20]
 3519 019c 7B6A     	 ldr r3,[r7,#36]
 3520 019e 9A42     	 cmp r2,r3
 3521 01a0 C2D3     	 bcc .L232
1284:../cleanflight/src/main/io/asyncfatfs/asyncfatfs.c **** 
1285:../cleanflight/src/main/io/asyncfatfs/asyncfatfs.c ****                 // Move on to the next FAT sector
1286:../cleanflight/src/main/io/asyncfatfs/asyncfatfs.c ****                 fatSectorIndex++;
 3522              	 .loc 1 1286 0
 3523 01a2 BB69     	 ldr r3,[r7,#24]
 3524 01a4 0133     	 adds r3,r3,#1
 3525 01a6 BB61     	 str r3,[r7,#24]
1287:../cleanflight/src/main/io/asyncfatfs/asyncfatfs.c ****                 fatSectorEntryIndex = 0;
 3526              	 .loc 1 1287 0
 3527 01a8 0023     	 movs r3,#0
 3528 01aa 7B61     	 str r3,[r7,#20]
1288:../cleanflight/src/main/io/asyncfatfs/asyncfatfs.c ****             break;
 3529              	 .loc 1 1288 0
 3530 01ac 03E0     	 b .L230
 3531              	.L233:
1289:../cleanflight/src/main/io/asyncfatfs/asyncfatfs.c ****             case AFATFS_OPERATION_FAILURE:
1290:../cleanflight/src/main/io/asyncfatfs/asyncfatfs.c ****                 return AFATFS_FIND_CLUSTER_FATAL;
 3532              	 .loc 1 1290 0
 3533 01ae 0223     	 movs r3,#2
 3534 01b0 0BE0     	 b .L242
 3535              	.L234:
1291:../cleanflight/src/main/io/asyncfatfs/asyncfatfs.c ****             break;
1292:../cleanflight/src/main/io/asyncfatfs/asyncfatfs.c ****             case AFATFS_OPERATION_IN_PROGRESS:
1293:../cleanflight/src/main/io/asyncfatfs/asyncfatfs.c ****                 return AFATFS_FIND_CLUSTER_IN_PROGRESS;
 3536              	 .loc 1 1293 0
 3537 01b2 0023     	 movs r3,#0
 3538 01b4 09E0     	 b .L242
 3539              	.L230:
 3540              	.LBE15:
1237:../cleanflight/src/main/io/asyncfatfs/asyncfatfs.c **** 
 3541              	 .loc 1 1237 0
 3542 01b6 BB68     	 ldr r3,[r7,#8]
 3543 01b8 1A68     	 ldr r2,[r3]
 3544 01ba 7B68     	 ldr r3,[r7,#4]
 3545 01bc 9A42     	 cmp r2,r3
 3546 01be FFF46AAF 	 bcc .L241
1294:../cleanflight/src/main/io/asyncfatfs/asyncfatfs.c ****             break;
1295:../cleanflight/src/main/io/asyncfatfs/asyncfatfs.c ****         }
1296:../cleanflight/src/main/io/asyncfatfs/asyncfatfs.c ****     }
1297:../cleanflight/src/main/io/asyncfatfs/asyncfatfs.c **** 
1298:../cleanflight/src/main/io/asyncfatfs/asyncfatfs.c ****     // We looked at every available cluster and didn't find one matching the condition
1299:../cleanflight/src/main/io/asyncfatfs/asyncfatfs.c ****     *cluster = searchLimit;
 3547              	 .loc 1 1299 0
 3548 01c2 BB68     	 ldr r3,[r7,#8]
 3549 01c4 7A68     	 ldr r2,[r7,#4]
 3550 01c6 1A60     	 str r2,[r3]
1300:../cleanflight/src/main/io/asyncfatfs/asyncfatfs.c ****     return AFATFS_FIND_CLUSTER_NOT_FOUND;
 3551              	 .loc 1 1300 0
 3552 01c8 0323     	 movs r3,#3
 3553              	.L242:
1301:../cleanflight/src/main/io/asyncfatfs/asyncfatfs.c **** }
 3554              	 .loc 1 1301 0 discriminator 2
 3555 01ca 1846     	 mov r0,r3
 3556 01cc 3437     	 adds r7,r7,#52
 3557              	.LCFI179:
 3558              	 .cfi_def_cfa_offset 12
 3559 01ce BD46     	 mov sp,r7
 3560              	.LCFI180:
 3561              	 .cfi_def_cfa_register 13
 3562              	 
 3563 01d0 90BD     	 pop {r4,r7,pc}
 3564              	.L246:
 3565 01d2 00BF     	 .align 2
 3566              	.L245:
 3567 01d4 00000000 	 .word afatfs
 3568              	 .cfi_endproc
 3569              	.LFE564:
 3571              	 .section .text.afatfs_fileGetNextCluster,"ax",%progbits
 3572              	 .align 2
 3573              	 .thumb
 3574              	 .thumb_func
